
_interrupt:

;FirmV_0_7_0.c,212 :: 		void interrupt()
;FirmV_0_7_0.c,214 :: 		if(TMR0IF_bit)
	BTFSS       TMR0IF_bit+0, BitPos(TMR0IF_bit+0) 
	GOTO        L_interrupt0
;FirmV_0_7_0.c,216 :: 		msCounter=msCounter+1;
	INCF        _msCounter+0, 1 
;FirmV_0_7_0.c,217 :: 		LCDBackLight=1;
	BSF         PORTA+0, 4 
;FirmV_0_7_0.c,218 :: 		Flag20ms=1;
	MOVLW       1
	MOVWF       _Flag20ms+0 
;FirmV_0_7_0.c,219 :: 		if(ms20A>=25)
	MOVLW       25
	SUBWF       _ms20A+0, 0 
	BTFSS       STATUS+0, 0 
	GOTO        L_interrupt1
;FirmV_0_7_0.c,220 :: 		{ms20A=0;RemotePulse1=0;}
	CLRF        _ms20A+0 
	CLRF        _RemotePulse1+0 
	GOTO        L_interrupt2
L_interrupt1:
;FirmV_0_7_0.c,222 :: 		ms20A=ms20A+1;
	INCF        _ms20A+0, 1 
L_interrupt2:
;FirmV_0_7_0.c,224 :: 		if(ms20B>=25)
	MOVLW       25
	SUBWF       _ms20B+0, 0 
	BTFSS       STATUS+0, 0 
	GOTO        L_interrupt3
;FirmV_0_7_0.c,225 :: 		{ms20B=0;RemotePulse2=0;}
	CLRF        _ms20B+0 
	CLRF        _RemotePulse2+0 
	GOTO        L_interrupt4
L_interrupt3:
;FirmV_0_7_0.c,227 :: 		ms20B=ms20B+1;
	INCF        _ms20B+0, 1 
L_interrupt4:
;FirmV_0_7_0.c,229 :: 		if(msCounter>=25)
	MOVLW       25
	SUBWF       _msCounter+0, 0 
	BTFSS       STATUS+0, 0 
	GOTO        L_interrupt5
;FirmV_0_7_0.c,231 :: 		msCounter=0;
	CLRF        _msCounter+0 
;FirmV_0_7_0.c,232 :: 		ms500=ms500+1;
	MOVLW       1
	ADDWF       _ms500+0, 1 
	MOVLW       0
	ADDWFC      _ms500+1, 1 
	ADDWFC      _ms500+2, 1 
	ADDWFC      _ms500+3, 1 
;FirmV_0_7_0.c,233 :: 		LCDFlashFlag=!LCDFlashFlag;
	MOVF        _LCDFlashFlag+0, 1 
	MOVLW       1
	BTFSS       STATUS+0, 2 
	MOVLW       0
	MOVWF       _LCDFlashFlag+0 
;FirmV_0_7_0.c,234 :: 		LCDBackLight=0;
	BCF         PORTA+0, 4 
;FirmV_0_7_0.c,235 :: 		Flag500ms=1;
	MOVLW       1
	MOVWF       _Flag500ms+0 
;FirmV_0_7_0.c,236 :: 		}
L_interrupt5:
;FirmV_0_7_0.c,237 :: 		tmr0h=0xF3;
	MOVLW       243
	MOVWF       TMR0H+0 
;FirmV_0_7_0.c,238 :: 		tmr0l=0xCA;
	MOVLW       202
	MOVWF       TMR0L+0 
;FirmV_0_7_0.c,239 :: 		TMR0IF_bit=0;
	BCF         TMR0IF_bit+0, BitPos(TMR0IF_bit+0) 
;FirmV_0_7_0.c,240 :: 		}
L_interrupt0:
;FirmV_0_7_0.c,243 :: 		if(INT1F_bit)
	BTFSS       INT1F_bit+0, BitPos(INT1F_bit+0) 
	GOTO        L_interrupt6
;FirmV_0_7_0.c,245 :: 		if(RemotePulse1==0)
	MOVF        _RemotePulse1+0, 0 
	XORLW       0
	BTFSS       STATUS+0, 2 
	GOTO        L_interrupt7
;FirmV_0_7_0.c,246 :: 		{ RemotePulse1=RemotePulse1+1;ms20A=0;}
	INCF        _RemotePulse1+0, 1 
	CLRF        _ms20A+0 
	GOTO        L_interrupt8
L_interrupt7:
;FirmV_0_7_0.c,248 :: 		{ RemotePulse1=RemotePulse1+1;}
	INCF        _RemotePulse1+0, 1 
L_interrupt8:
;FirmV_0_7_0.c,249 :: 		if(RemotePulse1>=5)
	MOVLW       5
	SUBWF       _RemotePulse1+0, 0 
	BTFSS       STATUS+0, 0 
	GOTO        L_interrupt9
;FirmV_0_7_0.c,250 :: 		if((ms20A>=19)&&(ms20A<=21))
	MOVLW       19
	SUBWF       _ms20A+0, 0 
	BTFSS       STATUS+0, 0 
	GOTO        L_interrupt12
	MOVF        _ms20A+0, 0 
	SUBLW       21
	BTFSS       STATUS+0, 0 
	GOTO        L_interrupt12
L__interrupt876:
;FirmV_0_7_0.c,251 :: 		{RemoteAFlag=1;RemotePulse1=0;}
	MOVLW       1
	MOVWF       _RemoteAFlag+0 
	CLRF        _RemotePulse1+0 
	GOTO        L_interrupt13
L_interrupt12:
;FirmV_0_7_0.c,253 :: 		RemotePulse1=0;
	CLRF        _RemotePulse1+0 
L_interrupt13:
L_interrupt9:
;FirmV_0_7_0.c,254 :: 		INT1IF_bit=0;
	BCF         INT1IF_bit+0, BitPos(INT1IF_bit+0) 
;FirmV_0_7_0.c,255 :: 		}
L_interrupt6:
;FirmV_0_7_0.c,259 :: 		if(INT2IF_bit)
	BTFSS       INT2IF_bit+0, BitPos(INT2IF_bit+0) 
	GOTO        L_interrupt14
;FirmV_0_7_0.c,261 :: 		if(RemotePulse2==0)
	MOVF        _RemotePulse2+0, 0 
	XORLW       0
	BTFSS       STATUS+0, 2 
	GOTO        L_interrupt15
;FirmV_0_7_0.c,262 :: 		{ RemotePulse2=RemotePulse2+1;ms20B=0;}
	INCF        _RemotePulse2+0, 1 
	CLRF        _ms20B+0 
	GOTO        L_interrupt16
L_interrupt15:
;FirmV_0_7_0.c,264 :: 		{ RemotePulse2=RemotePulse2+1;}
	INCF        _RemotePulse2+0, 1 
L_interrupt16:
;FirmV_0_7_0.c,265 :: 		if(RemotePulse2>=5)
	MOVLW       5
	SUBWF       _RemotePulse2+0, 0 
	BTFSS       STATUS+0, 0 
	GOTO        L_interrupt17
;FirmV_0_7_0.c,266 :: 		if((ms20B>=19)&&(ms20B<=21))
	MOVLW       19
	SUBWF       _ms20B+0, 0 
	BTFSS       STATUS+0, 0 
	GOTO        L_interrupt20
	MOVF        _ms20B+0, 0 
	SUBLW       21
	BTFSS       STATUS+0, 0 
	GOTO        L_interrupt20
L__interrupt875:
;FirmV_0_7_0.c,267 :: 		{RemoteBFlag=1;RemotePulse2=0;}
	MOVLW       1
	MOVWF       _RemoteBFlag+0 
	CLRF        _RemotePulse2+0 
	GOTO        L_interrupt21
L_interrupt20:
;FirmV_0_7_0.c,269 :: 		RemotePulse2=0;
	CLRF        _RemotePulse2+0 
L_interrupt21:
L_interrupt17:
;FirmV_0_7_0.c,270 :: 		INT2IF_bit=0;
	BCF         INT2IF_bit+0, BitPos(INT2IF_bit+0) 
;FirmV_0_7_0.c,271 :: 		}
L_interrupt14:
;FirmV_0_7_0.c,275 :: 		if(TMR1IF_bit)
	BTFSS       TMR1IF_bit+0, BitPos(TMR1IF_bit+0) 
	GOTO        L_interrupt22
;FirmV_0_7_0.c,277 :: 		if(Motor1Start)
	MOVF        _Motor1Start+0, 1 
	BTFSC       STATUS+0, 2 
	GOTO        L_interrupt23
;FirmV_0_7_0.c,278 :: 		Motor1=1;
	BSF         PORTB+0, 3 
L_interrupt23:
;FirmV_0_7_0.c,280 :: 		TMR1IE_bit=0;
	BCF         TMR1IE_bit+0, BitPos(TMR1IE_bit+0) 
;FirmV_0_7_0.c,281 :: 		TMR1ON_bit=0;
	BCF         TMR1ON_bit+0, BitPos(TMR1ON_bit+0) 
;FirmV_0_7_0.c,283 :: 		TMR1IF_bit=0;
	BCF         TMR1IF_bit+0, BitPos(TMR1IF_bit+0) 
;FirmV_0_7_0.c,284 :: 		}
L_interrupt22:
;FirmV_0_7_0.c,290 :: 		if(TMR3IF_bit)
	BTFSS       TMR3IF_bit+0, BitPos(TMR3IF_bit+0) 
	GOTO        L_interrupt24
;FirmV_0_7_0.c,292 :: 		if(Motor2Start)
	MOVF        _Motor2Start+0, 1 
	BTFSC       STATUS+0, 2 
	GOTO        L_interrupt25
;FirmV_0_7_0.c,293 :: 		Motor2=1;
	BSF         PORTB+0, 4 
L_interrupt25:
;FirmV_0_7_0.c,295 :: 		TMR3IE_bit=0;
	BCF         TMR3IE_bit+0, BitPos(TMR3IE_bit+0) 
;FirmV_0_7_0.c,296 :: 		TMR3ON_bit=0;
	BCF         TMR3ON_bit+0, BitPos(TMR3ON_bit+0) 
;FirmV_0_7_0.c,298 :: 		TMR3IF_bit=0;
	BCF         TMR3IF_bit+0, BitPos(TMR3IF_bit+0) 
;FirmV_0_7_0.c,299 :: 		}
L_interrupt24:
;FirmV_0_7_0.c,305 :: 		if(INT0F_bit)
	BTFSS       INT0F_bit+0, BitPos(INT0F_bit+0) 
	GOTO        L_interrupt26
;FirmV_0_7_0.c,307 :: 		TMR2=0;
	CLRF        TMR2+0 
;FirmV_0_7_0.c,308 :: 		TMR2ON_bit=1;
	BSF         TMR2ON_bit+0, BitPos(TMR2ON_bit+0) 
;FirmV_0_7_0.c,309 :: 		TMR2IE_bit=1;
	BSF         TMR2IE_bit+0, BitPos(TMR2IE_bit+0) 
;FirmV_0_7_0.c,310 :: 		INT0F_bit=0;
	BCF         INT0F_bit+0, BitPos(INT0F_bit+0) 
;FirmV_0_7_0.c,311 :: 		}
L_interrupt26:
;FirmV_0_7_0.c,314 :: 		if(TMR2IF_bit)
	BTFSS       TMR2IF_bit+0, BitPos(TMR2IF_bit+0) 
	GOTO        L_interrupt27
;FirmV_0_7_0.c,316 :: 		if(Motor1Start)
	MOVF        _Motor1Start+0, 1 
	BTFSC       STATUS+0, 2 
	GOTO        L_interrupt28
;FirmV_0_7_0.c,317 :: 		if(Motor1FullSpeed)
	MOVF        _Motor1FullSpeed+0, 1 
	BTFSC       STATUS+0, 2 
	GOTO        L_interrupt29
;FirmV_0_7_0.c,318 :: 		Motor1=1;
	BSF         PORTB+0, 3 
	GOTO        L_interrupt30
L_interrupt29:
;FirmV_0_7_0.c,320 :: 		{Motor1=0;TMR1H=M1SoftTM;TMR1L=M1SoftTL;TMR1ON_bit=1;TMR1IE_bit=1;}
	BCF         PORTB+0, 3 
	MOVF        _M1SoftTM+0, 0 
	MOVWF       TMR1H+0 
	MOVF        _M1SoftTL+0, 0 
	MOVWF       TMR1L+0 
	BSF         TMR1ON_bit+0, BitPos(TMR1ON_bit+0) 
	BSF         TMR1IE_bit+0, BitPos(TMR1IE_bit+0) 
L_interrupt30:
L_interrupt28:
;FirmV_0_7_0.c,322 :: 		if(Motor2Start)
	MOVF        _Motor2Start+0, 1 
	BTFSC       STATUS+0, 2 
	GOTO        L_interrupt31
;FirmV_0_7_0.c,323 :: 		if(Motor2FullSpeed)
	MOVF        _Motor2FullSpeed+0, 1 
	BTFSC       STATUS+0, 2 
	GOTO        L_interrupt32
;FirmV_0_7_0.c,324 :: 		Motor2=1;
	BSF         PORTB+0, 4 
	GOTO        L_interrupt33
L_interrupt32:
;FirmV_0_7_0.c,326 :: 		{Motor2=0;TMR3H=M1SoftTM;TMR3L=M1SoftTL;TMR3ON_bit=1;TMR3IE_bit=1;}
	BCF         PORTB+0, 4 
	MOVF        _M1SoftTM+0, 0 
	MOVWF       TMR3H+0 
	MOVF        _M1SoftTL+0, 0 
	MOVWF       TMR3L+0 
	BSF         TMR3ON_bit+0, BitPos(TMR3ON_bit+0) 
	BSF         TMR3IE_bit+0, BitPos(TMR3IE_bit+0) 
L_interrupt33:
L_interrupt31:
;FirmV_0_7_0.c,328 :: 		TMR2ON_bit=0;
	BCF         TMR2ON_bit+0, BitPos(TMR2ON_bit+0) 
;FirmV_0_7_0.c,329 :: 		TMR2IE_bit=0;
	BCF         TMR2IE_bit+0, BitPos(TMR2IE_bit+0) 
;FirmV_0_7_0.c,330 :: 		TMR2IF_bit=0;
	BCF         TMR2IF_bit+0, BitPos(TMR2IF_bit+0) 
;FirmV_0_7_0.c,333 :: 		}
L_interrupt27:
;FirmV_0_7_0.c,334 :: 		}
L_end_interrupt:
L__interrupt1005:
	RETFIE      1
; end of _interrupt

_ResetTaskEvents:

;FirmV_0_7_0.c,347 :: 		void ResetTaskEvents()
;FirmV_0_7_0.c,349 :: 		Events.Task1=0;
	CLRF        _Events+1 
;FirmV_0_7_0.c,350 :: 		Events.Task2=0;
	CLRF        _Events+2 
;FirmV_0_7_0.c,351 :: 		Events.Task3=0;
	CLRF        _Events+3 
;FirmV_0_7_0.c,352 :: 		}
L_end_ResetTaskEvents:
	RETURN      0
; end of _ResetTaskEvents

_Decrypt:

;FirmV_0_7_0.c,361 :: 		void Decrypt()
;FirmV_0_7_0.c,363 :: 		Sipher[0]=Crypto[1][0]+0x0D;
	MOVLW       13
	ADDWF       _crypto+16, 0 
	MOVWF       _Sipher+0 
;FirmV_0_7_0.c,364 :: 		Sipher[1]=Crypto[1][1]+0x0D;
	MOVLW       13
	ADDWF       _crypto+17, 0 
	MOVWF       _Sipher+1 
;FirmV_0_7_0.c,365 :: 		Sipher[2]=Crypto[1][2]+0x0D;
	MOVLW       13
	ADDWF       _crypto+18, 0 
	MOVWF       _Sipher+2 
;FirmV_0_7_0.c,366 :: 		Sipher[3]=Crypto[1][3]-0x26;
	MOVLW       38
	SUBWF       _crypto+19, 0 
	MOVWF       _Sipher+3 
;FirmV_0_7_0.c,367 :: 		Sipher[4]=Crypto[1][4]-0x3C;
	MOVLW       60
	SUBWF       _crypto+20, 0 
	MOVWF       _Sipher+4 
;FirmV_0_7_0.c,368 :: 		Sipher[5]=Crypto[1][5]-0x41;
	MOVLW       65
	SUBWF       _crypto+21, 0 
	MOVWF       _Sipher+5 
;FirmV_0_7_0.c,369 :: 		Sipher[6]=Crypto[1][6]-0x0C;
	MOVLW       12
	SUBWF       _crypto+22, 0 
	MOVWF       _Sipher+6 
;FirmV_0_7_0.c,370 :: 		Sipher[7]=Crypto[1][7]+0x34;
	MOVLW       52
	ADDWF       _crypto+23, 0 
	MOVWF       _Sipher+7 
;FirmV_0_7_0.c,371 :: 		Sipher[8]=Crypto[1][8]-0x01;
	DECF        _crypto+24, 0 
	MOVWF       _Sipher+8 
;FirmV_0_7_0.c,372 :: 		Sipher[9]=Crypto[1][9]-0x1F;
	MOVLW       31
	SUBWF       _crypto+25, 0 
	MOVWF       _Sipher+9 
;FirmV_0_7_0.c,373 :: 		Sipher[10]=Crypto[1][10]-0x3A;
	MOVLW       58
	SUBWF       _crypto+26, 0 
	MOVWF       _Sipher+10 
;FirmV_0_7_0.c,374 :: 		Sipher[11]=Crypto[1][11]-0x3B;
	MOVLW       59
	SUBWF       _crypto+27, 0 
	MOVWF       _Sipher+11 
;FirmV_0_7_0.c,375 :: 		Sipher[12]=Crypto[1][12]-0x3C;
	MOVLW       60
	SUBWF       _crypto+28, 0 
	MOVWF       _Sipher+12 
;FirmV_0_7_0.c,376 :: 		Sipher[13]=Crypto[1][13]+0x0D;
	MOVLW       13
	ADDWF       _crypto+29, 0 
	MOVWF       _Sipher+13 
;FirmV_0_7_0.c,377 :: 		Sipher[14]=Crypto[1][14]+0x0D;
	MOVLW       13
	ADDWF       _crypto+30, 0 
	MOVWF       _Sipher+14 
;FirmV_0_7_0.c,378 :: 		Sipher[15]=Crypto[1][15]+0x0D;
	MOVLW       13
	ADDWF       _crypto+31, 0 
	MOVWF       _Sipher+15 
;FirmV_0_7_0.c,379 :: 		}
L_end_Decrypt:
	RETURN      0
; end of _Decrypt

_Logger:

;FirmV_0_7_0.c,391 :: 		void Logger(char* text, char TimeStampFlag)
;FirmV_0_7_0.c,394 :: 		if(TimeStampFlag)
	MOVF        FARG_Logger_TimeStampFlag+0, 1 
	BTFSC       STATUS+0, 2 
	GOTO        L_Logger34
;FirmV_0_7_0.c,396 :: 		longwordtostrwithzeros(ms500,time);
	MOVF        _ms500+0, 0 
	MOVWF       FARG_LongWordToStrWithZeros_input+0 
	MOVF        _ms500+1, 0 
	MOVWF       FARG_LongWordToStrWithZeros_input+1 
	MOVF        _ms500+2, 0 
	MOVWF       FARG_LongWordToStrWithZeros_input+2 
	MOVF        _ms500+3, 0 
	MOVWF       FARG_LongWordToStrWithZeros_input+3 
	MOVLW       Logger_time_L0+0
	MOVWF       FARG_LongWordToStrWithZeros_output+0 
	MOVLW       hi_addr(Logger_time_L0+0)
	MOVWF       FARG_LongWordToStrWithZeros_output+1 
	CALL        _LongWordToStrWithZeros+0, 0
;FirmV_0_7_0.c,397 :: 		uart_write_text(time);
	MOVLW       Logger_time_L0+0
	MOVWF       FARG_UART_Write_Text_uart_text+0 
	MOVLW       hi_addr(Logger_time_L0+0)
	MOVWF       FARG_UART_Write_Text_uart_text+1 
	CALL        _UART_Write_Text+0, 0
;FirmV_0_7_0.c,398 :: 		uart1_write_text(": ");
	MOVLW       ?lstr1_FirmV_0_7_0+0
	MOVWF       FARG_UART1_Write_Text_uart_text+0 
	MOVLW       hi_addr(?lstr1_FirmV_0_7_0+0)
	MOVWF       FARG_UART1_Write_Text_uart_text+1 
	CALL        _UART1_Write_Text+0, 0
;FirmV_0_7_0.c,399 :: 		}
L_Logger34:
;FirmV_0_7_0.c,400 :: 		uart1_write_text(text);
	MOVF        FARG_Logger_text+0, 0 
	MOVWF       FARG_UART1_Write_Text_uart_text+0 
	MOVF        FARG_Logger_text+1, 0 
	MOVWF       FARG_UART1_Write_Text_uart_text+1 
	CALL        _UART1_Write_Text+0, 0
;FirmV_0_7_0.c,401 :: 		uart1_write(0x0D);
	MOVLW       13
	MOVWF       FARG_UART1_Write_data_+0 
	CALL        _UART1_Write+0, 0
;FirmV_0_7_0.c,402 :: 		uart1_write(0x0A);
	MOVLW       10
	MOVWF       FARG_UART1_Write_data_+0 
	CALL        _UART1_Write+0, 0
;FirmV_0_7_0.c,403 :: 		}
L_end_Logger:
	RETURN      0
; end of _Logger

_main:

;FirmV_0_7_0.c,420 :: 		void main() {
;FirmV_0_7_0.c,423 :: 		PhotocellRel=1;
	BSF         PORTC+0, 5 
;FirmV_0_7_0.c,425 :: 		Init();
	CALL        _Init+0, 0
;FirmV_0_7_0.c,427 :: 		Decrypt();
	CALL        _Decrypt+0, 0
;FirmV_0_7_0.c,429 :: 		memcpy(LCDLine1,FirmwareVersion,16);
	MOVLW       _LCDLine1+0
	MOVWF       FARG_memcpy_d1+0 
	MOVLW       hi_addr(_LCDLine1+0)
	MOVWF       FARG_memcpy_d1+1 
	MOVLW       ?lstr2_FirmV_0_7_0+0
	MOVWF       FARG_memcpy_s1+0 
	MOVLW       hi_addr(?lstr2_FirmV_0_7_0+0)
	MOVWF       FARG_memcpy_s1+1 
	MOVLW       16
	MOVWF       FARG_memcpy_n+0 
	MOVLW       0
	MOVWF       FARG_memcpy_n+1 
	CALL        _memcpy+0, 0
;FirmV_0_7_0.c,430 :: 		LCDLines=2;
	MOVLW       2
	MOVWF       _LCDLines+0 
;FirmV_0_7_0.c,431 :: 		LCDUpdateFlag=1;
	MOVLW       1
	MOVWF       _LCDUpdateFlag+0 
;FirmV_0_7_0.c,432 :: 		LCDUpdater();
	CALL        _LCDUpdater+0, 0
;FirmV_0_7_0.c,433 :: 		delay_ms(1000);
	MOVLW       51
	MOVWF       R11, 0
	MOVLW       187
	MOVWF       R12, 0
	MOVLW       223
	MOVWF       R13, 0
L_main35:
	DECFSZ      R13, 1, 1
	BRA         L_main35
	DECFSZ      R12, 1, 1
	BRA         L_main35
	DECFSZ      R11, 1, 1
	BRA         L_main35
	NOP
	NOP
;FirmV_0_7_0.c,436 :: 		Buzzer=1;
	BSF         PORTB+0, 7 
;FirmV_0_7_0.c,437 :: 		Logger("Start ...",1);
	MOVLW       ?lstr3_FirmV_0_7_0+0
	MOVWF       FARG_Logger_text+0 
	MOVLW       hi_addr(?lstr3_FirmV_0_7_0+0)
	MOVWF       FARG_Logger_text+1 
	MOVLW       1
	MOVWF       FARG_Logger_TimeStampFlag+0 
	CALL        _Logger+0, 0
;FirmV_0_7_0.c,438 :: 		memcpy(LCDLine1,Sipher,16);
	MOVLW       _LCDLine1+0
	MOVWF       FARG_memcpy_d1+0 
	MOVLW       hi_addr(_LCDLine1+0)
	MOVWF       FARG_memcpy_d1+1 
	MOVLW       _Sipher+0
	MOVWF       FARG_memcpy_s1+0 
	MOVLW       hi_addr(_Sipher+0)
	MOVWF       FARG_memcpy_s1+1 
	MOVLW       16
	MOVWF       FARG_memcpy_n+0 
	MOVLW       0
	MOVWF       FARG_memcpy_n+1 
	CALL        _memcpy+0, 0
;FirmV_0_7_0.c,439 :: 		LCDLines=1;
	MOVLW       1
	MOVWF       _LCDLines+0 
;FirmV_0_7_0.c,440 :: 		LCDUpdateFlag=1;
	MOVLW       1
	MOVWF       _LCDUpdateFlag+0 
;FirmV_0_7_0.c,441 :: 		Buzzer=0;
	BCF         PORTB+0, 7 
;FirmV_0_7_0.c,443 :: 		while(1)
L_main36:
;FirmV_0_7_0.c,445 :: 		asm CLRWDT;
	CLRWDT
;FirmV_0_7_0.c,447 :: 		if(Flag20ms==1)
	MOVF        _Flag20ms+0, 0 
	XORLW       1
	BTFSS       STATUS+0, 2 
	GOTO        L_main38
;FirmV_0_7_0.c,449 :: 		if((Buzzer==1)&&(BuzzCounter<100))
	BTFSS       PORTB+0, 7 
	GOTO        L_main41
	MOVLW       100
	SUBWF       _BuzzCounter+0, 0 
	BTFSC       STATUS+0, 0 
	GOTO        L_main41
L__main882:
;FirmV_0_7_0.c,450 :: 		{BuzzCounter=BuzzCounter+1;}
	INCF        _BuzzCounter+0, 1 
L_main41:
;FirmV_0_7_0.c,452 :: 		if((Buzzer==1)&&(LongBuzzFlag))
	BTFSS       PORTB+0, 7 
	GOTO        L_main44
	MOVF        _LongBuzzFlag+0, 1 
	BTFSC       STATUS+0, 2 
	GOTO        L_main44
L__main881:
;FirmV_0_7_0.c,453 :: 		if(BuzzCounter>=25){BuzzFlag=0;LongBuzzFlag=0;Buzzer=0;}
	MOVLW       25
	SUBWF       _BuzzCounter+0, 0 
	BTFSS       STATUS+0, 0 
	GOTO        L_main45
	CLRF        _BuzzFlag+0 
	CLRF        _LongBuzzFlag+0 
	BCF         PORTB+0, 7 
L_main45:
L_main44:
;FirmV_0_7_0.c,455 :: 		if((Buzzer==1)&&(BuzzFlag)&&(!LongBuzzFlag))
	BTFSS       PORTB+0, 7 
	GOTO        L_main48
	MOVF        _BuzzFlag+0, 1 
	BTFSC       STATUS+0, 2 
	GOTO        L_main48
	MOVF        _LongBuzzFlag+0, 1 
	BTFSS       STATUS+0, 2 
	GOTO        L_main48
L__main880:
;FirmV_0_7_0.c,456 :: 		{BuzzFlag=0;LongBuzzFlag=0;Buzzer=0;}
	CLRF        _BuzzFlag+0 
	CLRF        _LongBuzzFlag+0 
	BCF         PORTB+0, 7 
L_main48:
;FirmV_0_7_0.c,458 :: 		if(((BuzzFlag)||(LongBuzzFlag))&&(!Buzzer))
	MOVF        _BuzzFlag+0, 1 
	BTFSS       STATUS+0, 2 
	GOTO        L__main879
	MOVF        _LongBuzzFlag+0, 1 
	BTFSS       STATUS+0, 2 
	GOTO        L__main879
	GOTO        L_main53
L__main879:
	BTFSC       PORTB+0, 7 
	GOTO        L_main53
L__main878:
;FirmV_0_7_0.c,459 :: 		{Buzzer=1;BuzzCounter=0;}
	BSF         PORTB+0, 7 
	CLRF        _BuzzCounter+0 
L_main53:
;FirmV_0_7_0.c,462 :: 		if(DebouncingDelayPress<DebouncingFix)
	MOVLW       5
	SUBWF       _DebouncingDelayPress+0, 0 
	BTFSC       STATUS+0, 0 
	GOTO        L_main54
;FirmV_0_7_0.c,463 :: 		DebouncingDelayPress=DebouncingDelayPress+1;
	INCF        _DebouncingDelayPress+0, 1 
L_main54:
;FirmV_0_7_0.c,464 :: 		if(DebouncingDelayUnpress<DebouncingFix)
	MOVLW       5
	SUBWF       _DebouncingDelayUnpress+0, 0 
	BTFSC       STATUS+0, 0 
	GOTO        L_main55
;FirmV_0_7_0.c,465 :: 		DebouncingDelayUnpress=DebouncingDelayUnpress+1;
	INCF        _DebouncingDelayUnpress+0, 1 
L_main55:
;FirmV_0_7_0.c,467 :: 		LCDUpdater();
	CALL        _LCDUpdater+0, 0
;FirmV_0_7_0.c,468 :: 		if(KeyFlag<200)
	MOVLW       200
	SUBWF       _KeyFlag+0, 0 
	BTFSC       STATUS+0, 0 
	GOTO        L_main56
;FirmV_0_7_0.c,469 :: 		KeyFlag=KeyFlag+1;
	INCF        _KeyFlag+0, 1 
L_main56:
;FirmV_0_7_0.c,470 :: 		Flag20ms=0;
	CLRF        _Flag20ms+0 
;FirmV_0_7_0.c,471 :: 		}
L_main38:
;FirmV_0_7_0.c,473 :: 		if(Flag500ms==1)
	MOVF        _Flag500ms+0, 0 
	XORLW       1
	BTFSS       STATUS+0, 2 
	GOTO        L_main57
;FirmV_0_7_0.c,475 :: 		AutoClosePause();
	CALL        _AutoClosePause+0, 0
;FirmV_0_7_0.c,477 :: 		if(KeyNoiseEliminator<NoiseEliminatorTreshold)
	MOVLW       3
	SUBWF       _KeyNoiseEliminator+0, 0 
	BTFSC       STATUS+0, 0 
	GOTO        L_main58
;FirmV_0_7_0.c,478 :: 		KeyNoiseEliminator=KeyNoiseEliminator+1;
	INCF        _KeyNoiseEliminator+0, 1 
L_main58:
;FirmV_0_7_0.c,480 :: 		if(FlashFlag)
	MOVF        _FlashFlag+0, 1 
	BTFSC       STATUS+0, 2 
	GOTO        L_main59
;FirmV_0_7_0.c,481 :: 		FlasherLamp=!FlasherLamp;// Buzzer=!Buzzer;
	BTG         PORTB+0, 5 
	GOTO        L_main60
L_main59:
;FirmV_0_7_0.c,483 :: 		if((!BuzzFlag)&&(!LongBuzzFlag))FlasherLamp=0; // Buzzer=0;
	MOVF        _BuzzFlag+0, 1 
	BTFSS       STATUS+0, 2 
	GOTO        L_main63
	MOVF        _LongBuzzFlag+0, 1 
	BTFSS       STATUS+0, 2 
	GOTO        L_main63
L__main877:
	BCF         PORTB+0, 5 
L_main63:
L_main60:
;FirmV_0_7_0.c,484 :: 		ResetTaskEvents();
	CALL        _ResetTaskEvents+0, 0
;FirmV_0_7_0.c,485 :: 		TaskManager();
	CALL        _TaskManager+0, 0
;FirmV_0_7_0.c,486 :: 		TorqueLogger();
	CALL        _TorqueLogger+0, 0
;FirmV_0_7_0.c,487 :: 		Flag500ms=0;
	CLRF        _Flag500ms+0 
;FirmV_0_7_0.c,488 :: 		}
L_main57:
;FirmV_0_7_0.c,489 :: 		EventHandler();
	CALL        _EventHandler+0, 0
;FirmV_0_7_0.c,490 :: 		StateManager();
	CALL        _StateManager+0, 0
;FirmV_0_7_0.c,491 :: 		}
	GOTO        L_main36
;FirmV_0_7_0.c,493 :: 		}
L_end_main:
	GOTO        $+0
; end of _main

_StateManager:

;FirmV_0_7_0.c,518 :: 		void StateManager()
;FirmV_0_7_0.c,521 :: 		switch(State)
	GOTO        L_StateManager64
;FirmV_0_7_0.c,524 :: 		case 0: State1(); break;
L_StateManager66:
	CALL        _State1+0, 0
	GOTO        L_StateManager65
;FirmV_0_7_0.c,526 :: 		case 1: State1(); break;
L_StateManager67:
	CALL        _State1+0, 0
	GOTO        L_StateManager65
;FirmV_0_7_0.c,528 :: 		case 2: State2(); break;
L_StateManager68:
	CALL        _State2+0, 0
	GOTO        L_StateManager65
;FirmV_0_7_0.c,530 :: 		case 3: State3(); break;
L_StateManager69:
	CALL        _State3+0, 0
	GOTO        L_StateManager65
;FirmV_0_7_0.c,532 :: 		case 4: State4(); break;
L_StateManager70:
	CALL        _State4+0, 0
	GOTO        L_StateManager65
;FirmV_0_7_0.c,534 :: 		case 5: State5(); break;
L_StateManager71:
	CALL        _State5+0, 0
	GOTO        L_StateManager65
;FirmV_0_7_0.c,536 :: 		case 6: State6(); break;
L_StateManager72:
	CALL        _State6+0, 0
	GOTO        L_StateManager65
;FirmV_0_7_0.c,538 :: 		case 7: State7(); break;
L_StateManager73:
	CALL        _State7+0, 0
	GOTO        L_StateManager65
;FirmV_0_7_0.c,540 :: 		case 8: State8(); break;
L_StateManager74:
	CALL        _State8+0, 0
	GOTO        L_StateManager65
;FirmV_0_7_0.c,542 :: 		case 10:State00(); break;
L_StateManager75:
	CALL        _State00+0, 0
	GOTO        L_StateManager65
;FirmV_0_7_0.c,544 :: 		case 100:Menu0(); break;
L_StateManager76:
	CALL        _Menu0+0, 0
	GOTO        L_StateManager65
;FirmV_0_7_0.c,546 :: 		case 101:Menu1(); break;
L_StateManager77:
	CALL        _Menu1+0, 0
	GOTO        L_StateManager65
;FirmV_0_7_0.c,548 :: 		case 102:Menu2(); break;
L_StateManager78:
	CALL        _Menu2+0, 0
	GOTO        L_StateManager65
;FirmV_0_7_0.c,550 :: 		case 103:Menu3(); break;
L_StateManager79:
	CALL        _Menu3+0, 0
	GOTO        L_StateManager65
;FirmV_0_7_0.c,552 :: 		case 200:LearnAuto(); break;
L_StateManager80:
	CALL        _LearnAuto+0, 0
	GOTO        L_StateManager65
;FirmV_0_7_0.c,554 :: 		case 201:LearnManual(); break;
L_StateManager81:
	CALL        _LearnManual+0, 0
	GOTO        L_StateManager65
;FirmV_0_7_0.c,556 :: 		case 250:About(); break;
L_StateManager82:
	CALL        _About+0, 0
	GOTO        L_StateManager65
;FirmV_0_7_0.c,558 :: 		}
L_StateManager64:
	MOVF        _State+0, 0 
	XORLW       0
	BTFSC       STATUS+0, 2 
	GOTO        L_StateManager66
	MOVF        _State+0, 0 
	XORLW       1
	BTFSC       STATUS+0, 2 
	GOTO        L_StateManager67
	MOVF        _State+0, 0 
	XORLW       2
	BTFSC       STATUS+0, 2 
	GOTO        L_StateManager68
	MOVF        _State+0, 0 
	XORLW       3
	BTFSC       STATUS+0, 2 
	GOTO        L_StateManager69
	MOVF        _State+0, 0 
	XORLW       4
	BTFSC       STATUS+0, 2 
	GOTO        L_StateManager70
	MOVF        _State+0, 0 
	XORLW       5
	BTFSC       STATUS+0, 2 
	GOTO        L_StateManager71
	MOVF        _State+0, 0 
	XORLW       6
	BTFSC       STATUS+0, 2 
	GOTO        L_StateManager72
	MOVF        _State+0, 0 
	XORLW       7
	BTFSC       STATUS+0, 2 
	GOTO        L_StateManager73
	MOVF        _State+0, 0 
	XORLW       8
	BTFSC       STATUS+0, 2 
	GOTO        L_StateManager74
	MOVF        _State+0, 0 
	XORLW       10
	BTFSC       STATUS+0, 2 
	GOTO        L_StateManager75
	MOVF        _State+0, 0 
	XORLW       100
	BTFSC       STATUS+0, 2 
	GOTO        L_StateManager76
	MOVF        _State+0, 0 
	XORLW       101
	BTFSC       STATUS+0, 2 
	GOTO        L_StateManager77
	MOVF        _State+0, 0 
	XORLW       102
	BTFSC       STATUS+0, 2 
	GOTO        L_StateManager78
	MOVF        _State+0, 0 
	XORLW       103
	BTFSC       STATUS+0, 2 
	GOTO        L_StateManager79
	MOVF        _State+0, 0 
	XORLW       200
	BTFSC       STATUS+0, 2 
	GOTO        L_StateManager80
	MOVF        _State+0, 0 
	XORLW       201
	BTFSC       STATUS+0, 2 
	GOTO        L_StateManager81
	MOVF        _State+0, 0 
	XORLW       250
	BTFSC       STATUS+0, 2 
	GOTO        L_StateManager82
L_StateManager65:
;FirmV_0_7_0.c,559 :: 		}
L_end_StateManager:
	RETURN      0
; end of _StateManager

_StateTest:

;FirmV_0_7_0.c,563 :: 		void StateTest()
;FirmV_0_7_0.c,565 :: 		if (Events.Photocell==1)
	MOVF        _Events+6, 0 
	XORLW       1
	BTFSS       STATUS+0, 2 
	GOTO        L_StateTest83
;FirmV_0_7_0.c,566 :: 		LCDLine1[0]='1';
	MOVLW       49
	MOVWF       _LCDLine1+0 
	GOTO        L_StateTest84
L_StateTest83:
;FirmV_0_7_0.c,568 :: 		LCDLine1[0]='0';
	MOVLW       48
	MOVWF       _LCDLine1+0 
L_StateTest84:
;FirmV_0_7_0.c,570 :: 		LCDUpdateFlag=1;
	MOVLW       1
	MOVWF       _LCDUpdateFlag+0 
;FirmV_0_7_0.c,572 :: 		}
L_end_StateTest:
	RETURN      0
; end of _StateTest

_State00:

;FirmV_0_7_0.c,576 :: 		void State00()
;FirmV_0_7_0.c,581 :: 		Flasher=1;
	BSF         PORTD+0, 7 
;FirmV_0_7_0.c,582 :: 		FlashFlag=1;
	MOVLW       1
	MOVWF       _FlashFlag+0 
;FirmV_0_7_0.c,583 :: 		StartMotor(1,_Close);
	MOVLW       1
	MOVWF       FARG_StartMotor+0 
	CLRF        FARG_StartMotor+0 
	CALL        _StartMotor+0, 0
;FirmV_0_7_0.c,584 :: 		StartMotor(2,_Close);
	MOVLW       2
	MOVWF       FARG_StartMotor+0 
	CLRF        FARG_StartMotor+0 
	CALL        _StartMotor+0, 0
;FirmV_0_7_0.c,586 :: 		if(Events.Remote.b0==1)
	BTFSS       _Events+4, 0 
	GOTO        L_State0085
;FirmV_0_7_0.c,587 :: 		{Flasher=0;FlashFlag=0;StopMotor(1);StopMotor(2);
	BCF         PORTD+0, 7 
	CLRF        _FlashFlag+0 
	MOVLW       1
	MOVWF       FARG_StopMotor+0 
	CALL        _StopMotor+0, 0
	MOVLW       2
	MOVWF       FARG_StopMotor+0 
	CALL        _StopMotor+0, 0
;FirmV_0_7_0.c,588 :: 		State=1;                }
	MOVLW       1
	MOVWF       _State+0 
L_State0085:
;FirmV_0_7_0.c,589 :: 		}
L_end_State00:
	RETURN      0
; end of _State00

_State1:

;FirmV_0_7_0.c,598 :: 		void State1()
;FirmV_0_7_0.c,600 :: 		char delay=3;
	MOVLW       3
	MOVWF       State1_delay_L0+0 
	CLRF        State1_AutoCloseTemp_L0+0 
	CLRF        State1_AutoCloseTemp_L0+1 
	CLRF        State1_AutoCloseTemp_L0+2 
	CLRF        State1_AutoCloseTemp_L0+3 
;FirmV_0_7_0.c,602 :: 		Flasher=0;
	BCF         PORTD+0, 7 
;FirmV_0_7_0.c,603 :: 		FlashFlag=0;
	CLRF        _FlashFlag+0 
;FirmV_0_7_0.c,605 :: 		if(Events.Keys==2)
	MOVF        _Events+0, 0 
	XORLW       2
	BTFSS       STATUS+0, 2 
	GOTO        L_State186
;FirmV_0_7_0.c,606 :: 		{State=100;MenuPointer=0;}
	MOVLW       100
	MOVWF       _State+0 
	CLRF        _MenuPointer+0 
L_State186:
;FirmV_0_7_0.c,608 :: 		ActiveDoors=3-Events.Remote;
	MOVF        _Events+4, 0 
	SUBLW       3
	MOVWF       _ActiveDoors+0 
;FirmV_0_7_0.c,612 :: 		if(Events.Remote!=0)
	MOVF        _Events+4, 0 
	XORLW       0
	BTFSC       STATUS+0, 2 
	GOTO        L_State187
;FirmV_0_7_0.c,615 :: 		ClearTasks(9);
	MOVLW       9
	MOVWF       FARG_ClearTasks+0 
	CALL        _ClearTasks+0, 0
;FirmV_0_7_0.c,616 :: 		Flasher=1;
	BSF         PORTD+0, 7 
;FirmV_0_7_0.c,617 :: 		FlashFlag=1;
	MOVLW       1
	MOVWF       _FlashFlag+0 
;FirmV_0_7_0.c,618 :: 		if(Lockenable)
	MOVF        _LockEnable+0, 1 
	BTFSC       STATUS+0, 2 
	GOTO        L_State188
;FirmV_0_7_0.c,619 :: 		AddTask(ms500+1,12);
	MOVLW       1
	ADDWF       _ms500+0, 0 
	MOVWF       FARG_AddTask+0 
	MOVLW       0
	ADDWFC      _ms500+1, 0 
	MOVWF       FARG_AddTask+1 
	MOVLW       0
	ADDWFC      _ms500+2, 0 
	MOVWF       FARG_AddTask+2 
	MOVLW       0
	ADDWFC      _ms500+3, 0 
	MOVWF       FARG_AddTask+3 
	MOVLW       12
	MOVWF       FARG_AddTask+0 
	CALL        _AddTask+0, 0
L_State188:
;FirmV_0_7_0.c,620 :: 		temp=ms500+delay;
	MOVF        State1_delay_L0+0, 0 
	ADDWF       _ms500+0, 0 
	MOVWF       R0 
	MOVLW       0
	ADDWFC      _ms500+1, 0 
	MOVWF       R1 
	MOVLW       0
	ADDWFC      _ms500+2, 0 
	MOVWF       R2 
	MOVLW       0
	ADDWFC      _ms500+3, 0 
	MOVWF       R3 
	MOVF        R0, 0 
	MOVWF       _temp+0 
	MOVF        R1, 0 
	MOVWF       _temp+1 
	MOVF        R2, 0 
	MOVWF       _temp+2 
	MOVF        R3, 0 
	MOVWF       _temp+3 
;FirmV_0_7_0.c,621 :: 		AddTask(temp,1);
	MOVF        R0, 0 
	MOVWF       FARG_AddTask+0 
	MOVF        R1, 0 
	MOVWF       FARG_AddTask+1 
	MOVF        R2, 0 
	MOVWF       FARG_AddTask+2 
	MOVF        R3, 0 
	MOVWF       FARG_AddTask+3 
	MOVLW       1
	MOVWF       FARG_AddTask+0 
	CALL        _AddTask+0, 0
;FirmV_0_7_0.c,622 :: 		if(OpenSoftStartTime!=0)
	MOVF        _OpenSoftStartTime+0, 0 
	XORLW       0
	BTFSC       STATUS+0, 2 
	GOTO        L_State189
;FirmV_0_7_0.c,623 :: 		{AddTask(temp,7); M1isSlow=1;}//speed down
	MOVF        _temp+0, 0 
	MOVWF       FARG_AddTask+0 
	MOVF        _temp+1, 0 
	MOVWF       FARG_AddTask+1 
	MOVF        _temp+2, 0 
	MOVWF       FARG_AddTask+2 
	MOVF        _temp+3, 0 
	MOVWF       FARG_AddTask+3 
	MOVLW       7
	MOVWF       FARG_AddTask+0 
	CALL        _AddTask+0, 0
	MOVLW       1
	MOVWF       _M1isSlow+0 
	GOTO        L_State190
L_State189:
;FirmV_0_7_0.c,625 :: 		{AddTask(temp,5); M1isSlow=0;}//speed up
	MOVF        _temp+0, 0 
	MOVWF       FARG_AddTask+0 
	MOVF        _temp+1, 0 
	MOVWF       FARG_AddTask+1 
	MOVF        _temp+2, 0 
	MOVWF       FARG_AddTask+2 
	MOVF        _temp+3, 0 
	MOVWF       FARG_AddTask+3 
	MOVLW       5
	MOVWF       FARG_AddTask+0 
	CALL        _AddTask+0, 0
	CLRF        _M1isSlow+0 
L_State190:
;FirmV_0_7_0.c,626 :: 		temp=ms500+OpenSoftStartTime+OverloadDelay+delay;
	MOVF        _OpenSoftStartTime+0, 0 
	ADDWF       _ms500+0, 0 
	MOVWF       R0 
	MOVLW       0
	ADDWFC      _ms500+1, 0 
	MOVWF       R1 
	MOVLW       0
	ADDWFC      _ms500+2, 0 
	MOVWF       R2 
	MOVLW       0
	ADDWFC      _ms500+3, 0 
	MOVWF       R3 
	MOVLW       6
	ADDWF       R0, 1 
	MOVLW       0
	ADDWFC      R1, 1 
	ADDWFC      R2, 1 
	ADDWFC      R3, 1 
	MOVF        State1_delay_L0+0, 0 
	ADDWF       R0, 1 
	MOVLW       0
	ADDWFC      R1, 1 
	ADDWFC      R2, 1 
	ADDWFC      R3, 1 
	MOVF        R0, 0 
	MOVWF       _temp+0 
	MOVF        R1, 0 
	MOVWF       _temp+1 
	MOVF        R2, 0 
	MOVWF       _temp+2 
	MOVF        R3, 0 
	MOVWF       _temp+3 
;FirmV_0_7_0.c,627 :: 		AddTask(temp,10); //overload check
	MOVF        R0, 0 
	MOVWF       FARG_AddTask+0 
	MOVF        R1, 0 
	MOVWF       FARG_AddTask+1 
	MOVF        R2, 0 
	MOVWF       FARG_AddTask+2 
	MOVF        R3, 0 
	MOVWF       FARG_AddTask+3 
	MOVLW       10
	MOVWF       FARG_AddTask+0 
	CALL        _AddTask+0, 0
;FirmV_0_7_0.c,628 :: 		temp=ms500+OpenSoftStartTime+delay;
	MOVF        _OpenSoftStartTime+0, 0 
	ADDWF       _ms500+0, 0 
	MOVWF       R0 
	MOVLW       0
	ADDWFC      _ms500+1, 0 
	MOVWF       R1 
	MOVLW       0
	ADDWFC      _ms500+2, 0 
	MOVWF       R2 
	MOVLW       0
	ADDWFC      _ms500+3, 0 
	MOVWF       R3 
	MOVF        State1_delay_L0+0, 0 
	ADDWF       R0, 1 
	MOVLW       0
	ADDWFC      R1, 1 
	ADDWFC      R2, 1 
	ADDWFC      R3, 1 
	MOVF        R0, 0 
	MOVWF       _temp+0 
	MOVF        R1, 0 
	MOVWF       _temp+1 
	MOVF        R2, 0 
	MOVWF       _temp+2 
	MOVF        R3, 0 
	MOVWF       _temp+3 
;FirmV_0_7_0.c,629 :: 		AddTask(temp,5);//Speed up after soft start
	MOVF        R0, 0 
	MOVWF       FARG_AddTask+0 
	MOVF        R1, 0 
	MOVWF       FARG_AddTask+1 
	MOVF        R2, 0 
	MOVWF       FARG_AddTask+2 
	MOVF        R3, 0 
	MOVWF       FARG_AddTask+3 
	MOVLW       5
	MOVWF       FARG_AddTask+0 
	CALL        _AddTask+0, 0
;FirmV_0_7_0.c,630 :: 		if(OpenSoftStopTime!=0)
	MOVF        _OpenSoftStopTime+0, 0 
	XORLW       0
	BTFSC       STATUS+0, 2 
	GOTO        L_State191
;FirmV_0_7_0.c,631 :: 		{temp=ms500+Door1OpenTime-OpenSoftStopTime+delay;AddTask(temp,7);}//Speed down for soft stop
	MOVF        _Door1OpenTime+0, 0 
	ADDWF       _ms500+0, 0 
	MOVWF       R0 
	MOVLW       0
	ADDWFC      _ms500+1, 0 
	MOVWF       R1 
	MOVLW       0
	ADDWFC      _ms500+2, 0 
	MOVWF       R2 
	MOVLW       0
	ADDWFC      _ms500+3, 0 
	MOVWF       R3 
	MOVF        _OpenSoftStopTime+0, 0 
	SUBWF       R0, 1 
	MOVLW       0
	SUBWFB      R1, 1 
	SUBWFB      R2, 1 
	SUBWFB      R3, 1 
	MOVF        State1_delay_L0+0, 0 
	ADDWF       R0, 1 
	MOVLW       0
	ADDWFC      R1, 1 
	ADDWFC      R2, 1 
	ADDWFC      R3, 1 
	MOVF        R0, 0 
	MOVWF       _temp+0 
	MOVF        R1, 0 
	MOVWF       _temp+1 
	MOVF        R2, 0 
	MOVWF       _temp+2 
	MOVF        R3, 0 
	MOVWF       _temp+3 
	MOVF        R0, 0 
	MOVWF       FARG_AddTask+0 
	MOVF        R1, 0 
	MOVWF       FARG_AddTask+1 
	MOVF        R2, 0 
	MOVWF       FARG_AddTask+2 
	MOVF        R3, 0 
	MOVWF       FARG_AddTask+3 
	MOVLW       7
	MOVWF       FARG_AddTask+0 
	CALL        _AddTask+0, 0
L_State191:
;FirmV_0_7_0.c,632 :: 		temp=ms500+Door1OpenTime+delay;
	MOVF        _Door1OpenTime+0, 0 
	ADDWF       _ms500+0, 0 
	MOVWF       R0 
	MOVLW       0
	ADDWFC      _ms500+1, 0 
	MOVWF       R1 
	MOVLW       0
	ADDWFC      _ms500+2, 0 
	MOVWF       R2 
	MOVLW       0
	ADDWFC      _ms500+3, 0 
	MOVWF       R3 
	MOVF        State1_delay_L0+0, 0 
	ADDWF       R0, 1 
	MOVLW       0
	ADDWFC      R1, 1 
	ADDWFC      R2, 1 
	ADDWFC      R3, 1 
	MOVF        R0, 0 
	MOVWF       _temp+0 
	MOVF        R1, 0 
	MOVWF       _temp+1 
	MOVF        R2, 0 
	MOVWF       _temp+2 
	MOVF        R3, 0 
	MOVWF       _temp+3 
;FirmV_0_7_0.c,633 :: 		AddTask(temp,3);//Stop motor
	MOVF        R0, 0 
	MOVWF       FARG_AddTask+0 
	MOVF        R1, 0 
	MOVWF       FARG_AddTask+1 
	MOVF        R2, 0 
	MOVWF       FARG_AddTask+2 
	MOVF        R3, 0 
	MOVWF       FARG_AddTask+3 
	MOVLW       3
	MOVWF       FARG_AddTask+0 
	CALL        _AddTask+0, 0
;FirmV_0_7_0.c,634 :: 		AutoCloseTemp=ms500+Door1OpenTime+delay;
	MOVF        _Door1OpenTime+0, 0 
	ADDWF       _ms500+0, 0 
	MOVWF       State1_AutoCloseTemp_L0+0 
	MOVLW       0
	ADDWFC      _ms500+1, 0 
	MOVWF       State1_AutoCloseTemp_L0+1 
	MOVLW       0
	ADDWFC      _ms500+2, 0 
	MOVWF       State1_AutoCloseTemp_L0+2 
	MOVLW       0
	ADDWFC      _ms500+3, 0 
	MOVWF       State1_AutoCloseTemp_L0+3 
	MOVF        State1_delay_L0+0, 0 
	ADDWF       State1_AutoCloseTemp_L0+0, 1 
	MOVLW       0
	ADDWFC      State1_AutoCloseTemp_L0+1, 1 
	ADDWFC      State1_AutoCloseTemp_L0+2, 1 
	ADDWFC      State1_AutoCloseTemp_L0+3, 1 
;FirmV_0_7_0.c,636 :: 		if((Door2OpenTime!=0)&&(ActiveDoors==2))
	MOVF        _Door2OpenTime+0, 0 
	XORLW       0
	BTFSC       STATUS+0, 2 
	GOTO        L_State194
	MOVF        _ActiveDoors+0, 0 
	XORLW       2
	BTFSS       STATUS+0, 2 
	GOTO        L_State194
L__State1883:
;FirmV_0_7_0.c,638 :: 		temp=ms500+ActionTimeDiff+delay;
	MOVF        _ActionTimeDiff+0, 0 
	ADDWF       _ms500+0, 0 
	MOVWF       R0 
	MOVLW       0
	ADDWFC      _ms500+1, 0 
	MOVWF       R1 
	MOVLW       0
	ADDWFC      _ms500+2, 0 
	MOVWF       R2 
	MOVLW       0
	ADDWFC      _ms500+3, 0 
	MOVWF       R3 
	MOVF        State1_delay_L0+0, 0 
	ADDWF       R0, 1 
	MOVLW       0
	ADDWFC      R1, 1 
	ADDWFC      R2, 1 
	ADDWFC      R3, 1 
	MOVF        R0, 0 
	MOVWF       _temp+0 
	MOVF        R1, 0 
	MOVWF       _temp+1 
	MOVF        R2, 0 
	MOVWF       _temp+2 
	MOVF        R3, 0 
	MOVWF       _temp+3 
;FirmV_0_7_0.c,639 :: 		AddTask(temp,2);
	MOVF        R0, 0 
	MOVWF       FARG_AddTask+0 
	MOVF        R1, 0 
	MOVWF       FARG_AddTask+1 
	MOVF        R2, 0 
	MOVWF       FARG_AddTask+2 
	MOVF        R3, 0 
	MOVWF       FARG_AddTask+3 
	MOVLW       2
	MOVWF       FARG_AddTask+0 
	CALL        _AddTask+0, 0
;FirmV_0_7_0.c,640 :: 		if(OpenSoftStartTime!=0)
	MOVF        _OpenSoftStartTime+0, 0 
	XORLW       0
	BTFSC       STATUS+0, 2 
	GOTO        L_State195
;FirmV_0_7_0.c,641 :: 		{temp=ms500+ActionTimeDiff+delay;AddTask(temp,8); M2isSlow=1;}//speed down
	MOVF        _ActionTimeDiff+0, 0 
	ADDWF       _ms500+0, 0 
	MOVWF       R0 
	MOVLW       0
	ADDWFC      _ms500+1, 0 
	MOVWF       R1 
	MOVLW       0
	ADDWFC      _ms500+2, 0 
	MOVWF       R2 
	MOVLW       0
	ADDWFC      _ms500+3, 0 
	MOVWF       R3 
	MOVF        State1_delay_L0+0, 0 
	ADDWF       R0, 1 
	MOVLW       0
	ADDWFC      R1, 1 
	ADDWFC      R2, 1 
	ADDWFC      R3, 1 
	MOVF        R0, 0 
	MOVWF       _temp+0 
	MOVF        R1, 0 
	MOVWF       _temp+1 
	MOVF        R2, 0 
	MOVWF       _temp+2 
	MOVF        R3, 0 
	MOVWF       _temp+3 
	MOVF        R0, 0 
	MOVWF       FARG_AddTask+0 
	MOVF        R1, 0 
	MOVWF       FARG_AddTask+1 
	MOVF        R2, 0 
	MOVWF       FARG_AddTask+2 
	MOVF        R3, 0 
	MOVWF       FARG_AddTask+3 
	MOVLW       8
	MOVWF       FARG_AddTask+0 
	CALL        _AddTask+0, 0
	MOVLW       1
	MOVWF       _M2isSlow+0 
	GOTO        L_State196
L_State195:
;FirmV_0_7_0.c,643 :: 		{temp=ms500+ActionTimeDiff+delay;AddTask(temp,6); M2isSlow=0;}//speed up
	MOVF        _ActionTimeDiff+0, 0 
	ADDWF       _ms500+0, 0 
	MOVWF       R0 
	MOVLW       0
	ADDWFC      _ms500+1, 0 
	MOVWF       R1 
	MOVLW       0
	ADDWFC      _ms500+2, 0 
	MOVWF       R2 
	MOVLW       0
	ADDWFC      _ms500+3, 0 
	MOVWF       R3 
	MOVF        State1_delay_L0+0, 0 
	ADDWF       R0, 1 
	MOVLW       0
	ADDWFC      R1, 1 
	ADDWFC      R2, 1 
	ADDWFC      R3, 1 
	MOVF        R0, 0 
	MOVWF       _temp+0 
	MOVF        R1, 0 
	MOVWF       _temp+1 
	MOVF        R2, 0 
	MOVWF       _temp+2 
	MOVF        R3, 0 
	MOVWF       _temp+3 
	MOVF        R0, 0 
	MOVWF       FARG_AddTask+0 
	MOVF        R1, 0 
	MOVWF       FARG_AddTask+1 
	MOVF        R2, 0 
	MOVWF       FARG_AddTask+2 
	MOVF        R3, 0 
	MOVWF       FARG_AddTask+3 
	MOVLW       6
	MOVWF       FARG_AddTask+0 
	CALL        _AddTask+0, 0
	CLRF        _M2isSlow+0 
L_State196:
;FirmV_0_7_0.c,644 :: 		temp=ms500+ActionTimeDiff+OpenSoftStartTime+OverloadDelay+delay;
	MOVF        _ActionTimeDiff+0, 0 
	ADDWF       _ms500+0, 0 
	MOVWF       R0 
	MOVLW       0
	ADDWFC      _ms500+1, 0 
	MOVWF       R1 
	MOVLW       0
	ADDWFC      _ms500+2, 0 
	MOVWF       R2 
	MOVLW       0
	ADDWFC      _ms500+3, 0 
	MOVWF       R3 
	MOVF        _OpenSoftStartTime+0, 0 
	ADDWF       R0, 1 
	MOVLW       0
	ADDWFC      R1, 1 
	ADDWFC      R2, 1 
	ADDWFC      R3, 1 
	MOVLW       6
	ADDWF       R0, 1 
	MOVLW       0
	ADDWFC      R1, 1 
	ADDWFC      R2, 1 
	ADDWFC      R3, 1 
	MOVF        State1_delay_L0+0, 0 
	ADDWF       R0, 1 
	MOVLW       0
	ADDWFC      R1, 1 
	ADDWFC      R2, 1 
	ADDWFC      R3, 1 
	MOVF        R0, 0 
	MOVWF       _temp+0 
	MOVF        R1, 0 
	MOVWF       _temp+1 
	MOVF        R2, 0 
	MOVWF       _temp+2 
	MOVF        R3, 0 
	MOVWF       _temp+3 
;FirmV_0_7_0.c,645 :: 		AddTask(temp,11); //overload check
	MOVF        R0, 0 
	MOVWF       FARG_AddTask+0 
	MOVF        R1, 0 
	MOVWF       FARG_AddTask+1 
	MOVF        R2, 0 
	MOVWF       FARG_AddTask+2 
	MOVF        R3, 0 
	MOVWF       FARG_AddTask+3 
	MOVLW       11
	MOVWF       FARG_AddTask+0 
	CALL        _AddTask+0, 0
;FirmV_0_7_0.c,646 :: 		temp=ms500+ActionTimeDiff+OpenSoftStartTime+delay;
	MOVF        _ActionTimeDiff+0, 0 
	ADDWF       _ms500+0, 0 
	MOVWF       R0 
	MOVLW       0
	ADDWFC      _ms500+1, 0 
	MOVWF       R1 
	MOVLW       0
	ADDWFC      _ms500+2, 0 
	MOVWF       R2 
	MOVLW       0
	ADDWFC      _ms500+3, 0 
	MOVWF       R3 
	MOVF        _OpenSoftStartTime+0, 0 
	ADDWF       R0, 1 
	MOVLW       0
	ADDWFC      R1, 1 
	ADDWFC      R2, 1 
	ADDWFC      R3, 1 
	MOVF        State1_delay_L0+0, 0 
	ADDWF       R0, 1 
	MOVLW       0
	ADDWFC      R1, 1 
	ADDWFC      R2, 1 
	ADDWFC      R3, 1 
	MOVF        R0, 0 
	MOVWF       _temp+0 
	MOVF        R1, 0 
	MOVWF       _temp+1 
	MOVF        R2, 0 
	MOVWF       _temp+2 
	MOVF        R3, 0 
	MOVWF       _temp+3 
;FirmV_0_7_0.c,647 :: 		AddTask(temp,6);//Speed up after soft start
	MOVF        R0, 0 
	MOVWF       FARG_AddTask+0 
	MOVF        R1, 0 
	MOVWF       FARG_AddTask+1 
	MOVF        R2, 0 
	MOVWF       FARG_AddTask+2 
	MOVF        R3, 0 
	MOVWF       FARG_AddTask+3 
	MOVLW       6
	MOVWF       FARG_AddTask+0 
	CALL        _AddTask+0, 0
;FirmV_0_7_0.c,648 :: 		if(OpenSoftStopTime!=0)
	MOVF        _OpenSoftStopTime+0, 0 
	XORLW       0
	BTFSC       STATUS+0, 2 
	GOTO        L_State197
;FirmV_0_7_0.c,649 :: 		{temp=ms500+ActionTimeDiff+Door2OpenTime-OpenSoftStopTime+delay;AddTask(temp,8);}//Speed down for soft stop
	MOVF        _ActionTimeDiff+0, 0 
	ADDWF       _ms500+0, 0 
	MOVWF       R0 
	MOVLW       0
	ADDWFC      _ms500+1, 0 
	MOVWF       R1 
	MOVLW       0
	ADDWFC      _ms500+2, 0 
	MOVWF       R2 
	MOVLW       0
	ADDWFC      _ms500+3, 0 
	MOVWF       R3 
	MOVF        _Door2OpenTime+0, 0 
	ADDWF       R0, 1 
	MOVLW       0
	ADDWFC      R1, 1 
	ADDWFC      R2, 1 
	ADDWFC      R3, 1 
	MOVF        _OpenSoftStopTime+0, 0 
	SUBWF       R0, 1 
	MOVLW       0
	SUBWFB      R1, 1 
	SUBWFB      R2, 1 
	SUBWFB      R3, 1 
	MOVF        State1_delay_L0+0, 0 
	ADDWF       R0, 1 
	MOVLW       0
	ADDWFC      R1, 1 
	ADDWFC      R2, 1 
	ADDWFC      R3, 1 
	MOVF        R0, 0 
	MOVWF       _temp+0 
	MOVF        R1, 0 
	MOVWF       _temp+1 
	MOVF        R2, 0 
	MOVWF       _temp+2 
	MOVF        R3, 0 
	MOVWF       _temp+3 
	MOVF        R0, 0 
	MOVWF       FARG_AddTask+0 
	MOVF        R1, 0 
	MOVWF       FARG_AddTask+1 
	MOVF        R2, 0 
	MOVWF       FARG_AddTask+2 
	MOVF        R3, 0 
	MOVWF       FARG_AddTask+3 
	MOVLW       8
	MOVWF       FARG_AddTask+0 
	CALL        _AddTask+0, 0
L_State197:
;FirmV_0_7_0.c,650 :: 		temp=ms500+Door2OpenTime+ActionTimeDiff+delay;
	MOVF        _Door2OpenTime+0, 0 
	ADDWF       _ms500+0, 0 
	MOVWF       R0 
	MOVLW       0
	ADDWFC      _ms500+1, 0 
	MOVWF       R1 
	MOVLW       0
	ADDWFC      _ms500+2, 0 
	MOVWF       R2 
	MOVLW       0
	ADDWFC      _ms500+3, 0 
	MOVWF       R3 
	MOVF        _ActionTimeDiff+0, 0 
	ADDWF       R0, 1 
	MOVLW       0
	ADDWFC      R1, 1 
	ADDWFC      R2, 1 
	ADDWFC      R3, 1 
	MOVF        State1_delay_L0+0, 0 
	ADDWF       R0, 1 
	MOVLW       0
	ADDWFC      R1, 1 
	ADDWFC      R2, 1 
	ADDWFC      R3, 1 
	MOVF        R0, 0 
	MOVWF       _temp+0 
	MOVF        R1, 0 
	MOVWF       _temp+1 
	MOVF        R2, 0 
	MOVWF       _temp+2 
	MOVF        R3, 0 
	MOVWF       _temp+3 
;FirmV_0_7_0.c,651 :: 		AddTask(temp,4);//Stop motor
	MOVF        R0, 0 
	MOVWF       FARG_AddTask+0 
	MOVF        R1, 0 
	MOVWF       FARG_AddTask+1 
	MOVF        R2, 0 
	MOVWF       FARG_AddTask+2 
	MOVF        R3, 0 
	MOVWF       FARG_AddTask+3 
	MOVLW       4
	MOVWF       FARG_AddTask+0 
	CALL        _AddTask+0, 0
;FirmV_0_7_0.c,652 :: 		AutoCloseTemp=ms500+Door2OpenTime+ActionTimeDiff+delay;
	MOVF        _Door2OpenTime+0, 0 
	ADDWF       _ms500+0, 0 
	MOVWF       State1_AutoCloseTemp_L0+0 
	MOVLW       0
	ADDWFC      _ms500+1, 0 
	MOVWF       State1_AutoCloseTemp_L0+1 
	MOVLW       0
	ADDWFC      _ms500+2, 0 
	MOVWF       State1_AutoCloseTemp_L0+2 
	MOVLW       0
	ADDWFC      _ms500+3, 0 
	MOVWF       State1_AutoCloseTemp_L0+3 
	MOVF        _ActionTimeDiff+0, 0 
	ADDWF       State1_AutoCloseTemp_L0+0, 1 
	MOVLW       0
	ADDWFC      State1_AutoCloseTemp_L0+1, 1 
	ADDWFC      State1_AutoCloseTemp_L0+2, 1 
	ADDWFC      State1_AutoCloseTemp_L0+3, 1 
	MOVF        State1_delay_L0+0, 0 
	ADDWF       State1_AutoCloseTemp_L0+0, 1 
	MOVLW       0
	ADDWFC      State1_AutoCloseTemp_L0+1, 1 
	ADDWFC      State1_AutoCloseTemp_L0+2, 1 
	ADDWFC      State1_AutoCloseTemp_L0+3, 1 
;FirmV_0_7_0.c,653 :: 		}
L_State194:
;FirmV_0_7_0.c,655 :: 		if(AutoCloseTime!=0)
	MOVLW       0
	XORWF       _AutoCloseTime+1, 0 
	BTFSS       STATUS+0, 2 
	GOTO        L__State11014
	MOVLW       0
	XORWF       _AutoCloseTime+0, 0 
L__State11014:
	BTFSC       STATUS+0, 2 
	GOTO        L_State198
;FirmV_0_7_0.c,656 :: 		{AutoClosePauseFlag=0; temp=AutoCloseTemp+AutoCloseTime;AddTask(temp,9);}
	CLRF        _AutoClosePauseFlag+0 
	MOVF        _AutoCloseTime+0, 0 
	ADDWF       State1_AutoCloseTemp_L0+0, 0 
	MOVWF       R0 
	MOVF        _AutoCloseTime+1, 0 
	ADDWFC      State1_AutoCloseTemp_L0+1, 0 
	MOVWF       R1 
	MOVLW       0
	ADDWFC      State1_AutoCloseTemp_L0+2, 0 
	MOVWF       R2 
	MOVLW       0
	ADDWFC      State1_AutoCloseTemp_L0+3, 0 
	MOVWF       R3 
	MOVF        R0, 0 
	MOVWF       _temp+0 
	MOVF        R1, 0 
	MOVWF       _temp+1 
	MOVF        R2, 0 
	MOVWF       _temp+2 
	MOVF        R3, 0 
	MOVWF       _temp+3 
	MOVF        R0, 0 
	MOVWF       FARG_AddTask+0 
	MOVF        R1, 0 
	MOVWF       FARG_AddTask+1 
	MOVF        R2, 0 
	MOVWF       FARG_AddTask+2 
	MOVF        R3, 0 
	MOVWF       FARG_AddTask+3 
	MOVLW       9
	MOVWF       FARG_AddTask+0 
	CALL        _AddTask+0, 0
L_State198:
;FirmV_0_7_0.c,658 :: 		OpenDone=3;
	MOVLW       3
	MOVWF       _OpenDone+0 
;FirmV_0_7_0.c,659 :: 		OverloadCheckFlag1=0;
	CLRF        _OverloadCheckFlag1+0 
;FirmV_0_7_0.c,660 :: 		OverloadCheckFlag2=0;
	CLRF        _OverloadCheckFlag2+0 
;FirmV_0_7_0.c,661 :: 		KeyNoiseEliminator=0;
	CLRF        _KeyNoiseEliminator+0 
;FirmV_0_7_0.c,662 :: 		State=3;
	MOVLW       3
	MOVWF       _State+0 
;FirmV_0_7_0.c,663 :: 		AutoClosePauseFlag=0;
	CLRF        _AutoClosePauseFlag+0 
;FirmV_0_7_0.c,664 :: 		PassFlag=0;
	CLRF        _PassFlag+0 
;FirmV_0_7_0.c,665 :: 		}
L_State187:
;FirmV_0_7_0.c,666 :: 		}
L_end_State1:
	RETURN      0
; end of _State1

_State2:

;FirmV_0_7_0.c,680 :: 		void State2()
;FirmV_0_7_0.c,682 :: 		char delay=2;
	MOVLW       2
	MOVWF       State2_delay_L0+0 
;FirmV_0_7_0.c,684 :: 		Flasher=0;
	BCF         PORTD+0, 7 
;FirmV_0_7_0.c,685 :: 		FlashFlag=0;
	CLRF        _FlashFlag+0 
;FirmV_0_7_0.c,688 :: 		if(ReturnAutoclose()!=PrevAC)
	CALL        _ReturnAutoclose+0, 0
	MOVF        R0, 0 
	XORWF       _PrevAC+0, 0 
	BTFSC       STATUS+0, 2 
	GOTO        L_State299
;FirmV_0_7_0.c,690 :: 		LCDFlashFlag=0;
	CLRF        _LCDFlashFlag+0 
;FirmV_0_7_0.c,691 :: 		PrevAC=ReturnAutoclose();
	CALL        _ReturnAutoclose+0, 0
	MOVF        R0, 0 
	MOVWF       _PrevAC+0 
;FirmV_0_7_0.c,692 :: 		charValueToStr_AC(PrevAC,LCDLine2+11);
	MOVF        R0, 0 
	MOVWF       FARG_charValueToStr_AC+0 
	MOVLW       _LCDLine2+11
	MOVWF       FARG_charValueToStr_AC+0 
	MOVLW       hi_addr(_LCDLine2+11)
	MOVWF       FARG_charValueToStr_AC+1 
	CALL        _charValueToStr_AC+0, 0
;FirmV_0_7_0.c,693 :: 		memcpy(LCDLine2,"Close after",11);
	MOVLW       _LCDLine2+0
	MOVWF       FARG_memcpy_d1+0 
	MOVLW       hi_addr(_LCDLine2+0)
	MOVWF       FARG_memcpy_d1+1 
	MOVLW       ?lstr4_FirmV_0_7_0+0
	MOVWF       FARG_memcpy_s1+0 
	MOVLW       hi_addr(?lstr4_FirmV_0_7_0+0)
	MOVWF       FARG_memcpy_s1+1 
	MOVLW       11
	MOVWF       FARG_memcpy_n+0 
	MOVLW       0
	MOVWF       FARG_memcpy_n+1 
	CALL        _memcpy+0, 0
;FirmV_0_7_0.c,694 :: 		LCDUpdateFlag=1;
	MOVLW       1
	MOVWF       _LCDUpdateFlag+0 
;FirmV_0_7_0.c,695 :: 		LCDLines=2;
	MOVLW       2
	MOVWF       _LCDLines+0 
;FirmV_0_7_0.c,696 :: 		}
L_State299:
;FirmV_0_7_0.c,699 :: 		if((Events.Remote!=0)||(CheckTask(9)))
	MOVF        _Events+4, 0 
	XORLW       0
	BTFSS       STATUS+0, 2 
	GOTO        L__State2888
	MOVLW       9
	MOVWF       FARG_CheckTask+0 
	CALL        _CheckTask+0, 0
	MOVF        R0, 1 
	BTFSS       STATUS+0, 2 
	GOTO        L__State2888
	GOTO        L_State2102
L__State2888:
;FirmV_0_7_0.c,702 :: 		ClearTasks(0);
	CLRF        FARG_ClearTasks+0 
	CALL        _ClearTasks+0, 0
;FirmV_0_7_0.c,703 :: 		if((Door2CloseTime==0)||(ActiveDoors==1))
	MOVF        _Door2CloseTime+0, 0 
	XORLW       0
	BTFSC       STATUS+0, 2 
	GOTO        L__State2887
	MOVF        _ActiveDoors+0, 0 
	XORLW       1
	BTFSC       STATUS+0, 2 
	GOTO        L__State2887
	GOTO        L_State2105
L__State2887:
;FirmV_0_7_0.c,705 :: 		temp=ms500+delay;
	MOVF        State2_delay_L0+0, 0 
	ADDWF       _ms500+0, 0 
	MOVWF       R0 
	MOVLW       0
	ADDWFC      _ms500+1, 0 
	MOVWF       R1 
	MOVLW       0
	ADDWFC      _ms500+2, 0 
	MOVWF       R2 
	MOVLW       0
	ADDWFC      _ms500+3, 0 
	MOVWF       R3 
	MOVF        R0, 0 
	MOVWF       _temp+0 
	MOVF        R1, 0 
	MOVWF       _temp+1 
	MOVF        R2, 0 
	MOVWF       _temp+2 
	MOVF        R3, 0 
	MOVWF       _temp+3 
;FirmV_0_7_0.c,706 :: 		AddTask(temp,1);
	MOVF        R0, 0 
	MOVWF       FARG_AddTask+0 
	MOVF        R1, 0 
	MOVWF       FARG_AddTask+1 
	MOVF        R2, 0 
	MOVWF       FARG_AddTask+2 
	MOVF        R3, 0 
	MOVWF       FARG_AddTask+3 
	MOVLW       1
	MOVWF       FARG_AddTask+0 
	CALL        _AddTask+0, 0
;FirmV_0_7_0.c,707 :: 		if(CloseSoftStartTime!=0)
	MOVF        _CloseSoftStartTime+0, 0 
	XORLW       0
	BTFSC       STATUS+0, 2 
	GOTO        L_State2106
;FirmV_0_7_0.c,708 :: 		{AddTask(temp,7); M1isSlow=1;}//speed down
	MOVF        _temp+0, 0 
	MOVWF       FARG_AddTask+0 
	MOVF        _temp+1, 0 
	MOVWF       FARG_AddTask+1 
	MOVF        _temp+2, 0 
	MOVWF       FARG_AddTask+2 
	MOVF        _temp+3, 0 
	MOVWF       FARG_AddTask+3 
	MOVLW       7
	MOVWF       FARG_AddTask+0 
	CALL        _AddTask+0, 0
	MOVLW       1
	MOVWF       _M1isSlow+0 
	GOTO        L_State2107
L_State2106:
;FirmV_0_7_0.c,710 :: 		{AddTask(temp,5); M1isSlow=0;}//speed up
	MOVF        _temp+0, 0 
	MOVWF       FARG_AddTask+0 
	MOVF        _temp+1, 0 
	MOVWF       FARG_AddTask+1 
	MOVF        _temp+2, 0 
	MOVWF       FARG_AddTask+2 
	MOVF        _temp+3, 0 
	MOVWF       FARG_AddTask+3 
	MOVLW       5
	MOVWF       FARG_AddTask+0 
	CALL        _AddTask+0, 0
	CLRF        _M1isSlow+0 
L_State2107:
;FirmV_0_7_0.c,711 :: 		temp=ms500+CloseSoftStartTime+OverloadDelay+delay;
	MOVF        _CloseSoftStartTime+0, 0 
	ADDWF       _ms500+0, 0 
	MOVWF       R0 
	MOVLW       0
	ADDWFC      _ms500+1, 0 
	MOVWF       R1 
	MOVLW       0
	ADDWFC      _ms500+2, 0 
	MOVWF       R2 
	MOVLW       0
	ADDWFC      _ms500+3, 0 
	MOVWF       R3 
	MOVLW       6
	ADDWF       R0, 1 
	MOVLW       0
	ADDWFC      R1, 1 
	ADDWFC      R2, 1 
	ADDWFC      R3, 1 
	MOVF        State2_delay_L0+0, 0 
	ADDWF       R0, 1 
	MOVLW       0
	ADDWFC      R1, 1 
	ADDWFC      R2, 1 
	ADDWFC      R3, 1 
	MOVF        R0, 0 
	MOVWF       _temp+0 
	MOVF        R1, 0 
	MOVWF       _temp+1 
	MOVF        R2, 0 
	MOVWF       _temp+2 
	MOVF        R3, 0 
	MOVWF       _temp+3 
;FirmV_0_7_0.c,712 :: 		AddTask(temp,10); //overload check
	MOVF        R0, 0 
	MOVWF       FARG_AddTask+0 
	MOVF        R1, 0 
	MOVWF       FARG_AddTask+1 
	MOVF        R2, 0 
	MOVWF       FARG_AddTask+2 
	MOVF        R3, 0 
	MOVWF       FARG_AddTask+3 
	MOVLW       10
	MOVWF       FARG_AddTask+0 
	CALL        _AddTask+0, 0
;FirmV_0_7_0.c,713 :: 		temp=ms500+CloseSoftStartTime+delay;
	MOVF        _CloseSoftStartTime+0, 0 
	ADDWF       _ms500+0, 0 
	MOVWF       R0 
	MOVLW       0
	ADDWFC      _ms500+1, 0 
	MOVWF       R1 
	MOVLW       0
	ADDWFC      _ms500+2, 0 
	MOVWF       R2 
	MOVLW       0
	ADDWFC      _ms500+3, 0 
	MOVWF       R3 
	MOVF        State2_delay_L0+0, 0 
	ADDWF       R0, 1 
	MOVLW       0
	ADDWFC      R1, 1 
	ADDWFC      R2, 1 
	ADDWFC      R3, 1 
	MOVF        R0, 0 
	MOVWF       _temp+0 
	MOVF        R1, 0 
	MOVWF       _temp+1 
	MOVF        R2, 0 
	MOVWF       _temp+2 
	MOVF        R3, 0 
	MOVWF       _temp+3 
;FirmV_0_7_0.c,714 :: 		AddTask(temp,5);//Speed up after soft start
	MOVF        R0, 0 
	MOVWF       FARG_AddTask+0 
	MOVF        R1, 0 
	MOVWF       FARG_AddTask+1 
	MOVF        R2, 0 
	MOVWF       FARG_AddTask+2 
	MOVF        R3, 0 
	MOVWF       FARG_AddTask+3 
	MOVLW       5
	MOVWF       FARG_AddTask+0 
	CALL        _AddTask+0, 0
;FirmV_0_7_0.c,715 :: 		if(CloseSoftStopTime!=0)
	MOVF        _CloseSoftStopTime+0, 0 
	XORLW       0
	BTFSC       STATUS+0, 2 
	GOTO        L_State2108
;FirmV_0_7_0.c,716 :: 		{temp=ms500+Door1CloseTime-CloseSoftStopTime+delay;AddTask(temp,7);}//Speed down for soft stop
	MOVF        _Door1CloseTime+0, 0 
	ADDWF       _ms500+0, 0 
	MOVWF       R0 
	MOVLW       0
	ADDWFC      _ms500+1, 0 
	MOVWF       R1 
	MOVLW       0
	ADDWFC      _ms500+2, 0 
	MOVWF       R2 
	MOVLW       0
	ADDWFC      _ms500+3, 0 
	MOVWF       R3 
	MOVF        _CloseSoftStopTime+0, 0 
	SUBWF       R0, 1 
	MOVLW       0
	SUBWFB      R1, 1 
	SUBWFB      R2, 1 
	SUBWFB      R3, 1 
	MOVF        State2_delay_L0+0, 0 
	ADDWF       R0, 1 
	MOVLW       0
	ADDWFC      R1, 1 
	ADDWFC      R2, 1 
	ADDWFC      R3, 1 
	MOVF        R0, 0 
	MOVWF       _temp+0 
	MOVF        R1, 0 
	MOVWF       _temp+1 
	MOVF        R2, 0 
	MOVWF       _temp+2 
	MOVF        R3, 0 
	MOVWF       _temp+3 
	MOVF        R0, 0 
	MOVWF       FARG_AddTask+0 
	MOVF        R1, 0 
	MOVWF       FARG_AddTask+1 
	MOVF        R2, 0 
	MOVWF       FARG_AddTask+2 
	MOVF        R3, 0 
	MOVWF       FARG_AddTask+3 
	MOVLW       7
	MOVWF       FARG_AddTask+0 
	CALL        _AddTask+0, 0
L_State2108:
;FirmV_0_7_0.c,717 :: 		if(LockForce!=0)
	MOVF        _LockForce+0, 0 
	XORLW       0
	BTFSC       STATUS+0, 2 
	GOTO        L_State2109
;FirmV_0_7_0.c,718 :: 		{temp=ms500+Door1CloseTime+delay;AddTask(temp,5);AddTask(temp+LockForceTime,3);}
	MOVF        _Door1CloseTime+0, 0 
	ADDWF       _ms500+0, 0 
	MOVWF       R0 
	MOVLW       0
	ADDWFC      _ms500+1, 0 
	MOVWF       R1 
	MOVLW       0
	ADDWFC      _ms500+2, 0 
	MOVWF       R2 
	MOVLW       0
	ADDWFC      _ms500+3, 0 
	MOVWF       R3 
	MOVF        State2_delay_L0+0, 0 
	ADDWF       R0, 1 
	MOVLW       0
	ADDWFC      R1, 1 
	ADDWFC      R2, 1 
	ADDWFC      R3, 1 
	MOVF        R0, 0 
	MOVWF       _temp+0 
	MOVF        R1, 0 
	MOVWF       _temp+1 
	MOVF        R2, 0 
	MOVWF       _temp+2 
	MOVF        R3, 0 
	MOVWF       _temp+3 
	MOVF        R0, 0 
	MOVWF       FARG_AddTask+0 
	MOVF        R1, 0 
	MOVWF       FARG_AddTask+1 
	MOVF        R2, 0 
	MOVWF       FARG_AddTask+2 
	MOVF        R3, 0 
	MOVWF       FARG_AddTask+3 
	MOVLW       5
	MOVWF       FARG_AddTask+0 
	CALL        _AddTask+0, 0
	MOVLW       2
	ADDWF       _temp+0, 0 
	MOVWF       FARG_AddTask+0 
	MOVLW       0
	ADDWFC      _temp+1, 0 
	MOVWF       FARG_AddTask+1 
	MOVLW       0
	ADDWFC      _temp+2, 0 
	MOVWF       FARG_AddTask+2 
	MOVLW       0
	ADDWFC      _temp+3, 0 
	MOVWF       FARG_AddTask+3 
	MOVLW       3
	MOVWF       FARG_AddTask+0 
	CALL        _AddTask+0, 0
	GOTO        L_State2110
L_State2109:
;FirmV_0_7_0.c,720 :: 		{temp=ms500+Door1CloseTime+delay;AddTask(temp,3);}
	MOVF        _Door1CloseTime+0, 0 
	ADDWF       _ms500+0, 0 
	MOVWF       R0 
	MOVLW       0
	ADDWFC      _ms500+1, 0 
	MOVWF       R1 
	MOVLW       0
	ADDWFC      _ms500+2, 0 
	MOVWF       R2 
	MOVLW       0
	ADDWFC      _ms500+3, 0 
	MOVWF       R3 
	MOVF        State2_delay_L0+0, 0 
	ADDWF       R0, 1 
	MOVLW       0
	ADDWFC      R1, 1 
	ADDWFC      R2, 1 
	ADDWFC      R3, 1 
	MOVF        R0, 0 
	MOVWF       _temp+0 
	MOVF        R1, 0 
	MOVWF       _temp+1 
	MOVF        R2, 0 
	MOVWF       _temp+2 
	MOVF        R3, 0 
	MOVWF       _temp+3 
	MOVF        R0, 0 
	MOVWF       FARG_AddTask+0 
	MOVF        R1, 0 
	MOVWF       FARG_AddTask+1 
	MOVF        R2, 0 
	MOVWF       FARG_AddTask+2 
	MOVF        R3, 0 
	MOVWF       FARG_AddTask+3 
	MOVLW       3
	MOVWF       FARG_AddTask+0 
	CALL        _AddTask+0, 0
L_State2110:
;FirmV_0_7_0.c,722 :: 		}
L_State2105:
;FirmV_0_7_0.c,724 :: 		if((Door2CloseTime!=0)&&(ActiveDoors==2))
	MOVF        _Door2CloseTime+0, 0 
	XORLW       0
	BTFSC       STATUS+0, 2 
	GOTO        L_State2113
	MOVF        _ActiveDoors+0, 0 
	XORLW       2
	BTFSS       STATUS+0, 2 
	GOTO        L_State2113
L__State2886:
;FirmV_0_7_0.c,726 :: 		temp=ms500+delay;
	MOVF        State2_delay_L0+0, 0 
	ADDWF       _ms500+0, 0 
	MOVWF       R0 
	MOVLW       0
	ADDWFC      _ms500+1, 0 
	MOVWF       R1 
	MOVLW       0
	ADDWFC      _ms500+2, 0 
	MOVWF       R2 
	MOVLW       0
	ADDWFC      _ms500+3, 0 
	MOVWF       R3 
	MOVF        R0, 0 
	MOVWF       _temp+0 
	MOVF        R1, 0 
	MOVWF       _temp+1 
	MOVF        R2, 0 
	MOVWF       _temp+2 
	MOVF        R3, 0 
	MOVWF       _temp+3 
;FirmV_0_7_0.c,727 :: 		AddTask(temp,2);
	MOVF        R0, 0 
	MOVWF       FARG_AddTask+0 
	MOVF        R1, 0 
	MOVWF       FARG_AddTask+1 
	MOVF        R2, 0 
	MOVWF       FARG_AddTask+2 
	MOVF        R3, 0 
	MOVWF       FARG_AddTask+3 
	MOVLW       2
	MOVWF       FARG_AddTask+0 
	CALL        _AddTask+0, 0
;FirmV_0_7_0.c,728 :: 		if(CloseSoftStartTime!=0)
	MOVF        _CloseSoftStartTime+0, 0 
	XORLW       0
	BTFSC       STATUS+0, 2 
	GOTO        L_State2114
;FirmV_0_7_0.c,729 :: 		{AddTask(temp,8); M2isSlow=1;}//speed down
	MOVF        _temp+0, 0 
	MOVWF       FARG_AddTask+0 
	MOVF        _temp+1, 0 
	MOVWF       FARG_AddTask+1 
	MOVF        _temp+2, 0 
	MOVWF       FARG_AddTask+2 
	MOVF        _temp+3, 0 
	MOVWF       FARG_AddTask+3 
	MOVLW       8
	MOVWF       FARG_AddTask+0 
	CALL        _AddTask+0, 0
	MOVLW       1
	MOVWF       _M2isSlow+0 
	GOTO        L_State2115
L_State2114:
;FirmV_0_7_0.c,731 :: 		{AddTask(temp,6); M2isSlow=0;}//speed up
	MOVF        _temp+0, 0 
	MOVWF       FARG_AddTask+0 
	MOVF        _temp+1, 0 
	MOVWF       FARG_AddTask+1 
	MOVF        _temp+2, 0 
	MOVWF       FARG_AddTask+2 
	MOVF        _temp+3, 0 
	MOVWF       FARG_AddTask+3 
	MOVLW       6
	MOVWF       FARG_AddTask+0 
	CALL        _AddTask+0, 0
	CLRF        _M2isSlow+0 
L_State2115:
;FirmV_0_7_0.c,732 :: 		temp=ms500+CloseSoftStartTime+OverloadDelay+delay;
	MOVF        _CloseSoftStartTime+0, 0 
	ADDWF       _ms500+0, 0 
	MOVWF       R0 
	MOVLW       0
	ADDWFC      _ms500+1, 0 
	MOVWF       R1 
	MOVLW       0
	ADDWFC      _ms500+2, 0 
	MOVWF       R2 
	MOVLW       0
	ADDWFC      _ms500+3, 0 
	MOVWF       R3 
	MOVLW       6
	ADDWF       R0, 1 
	MOVLW       0
	ADDWFC      R1, 1 
	ADDWFC      R2, 1 
	ADDWFC      R3, 1 
	MOVF        State2_delay_L0+0, 0 
	ADDWF       R0, 1 
	MOVLW       0
	ADDWFC      R1, 1 
	ADDWFC      R2, 1 
	ADDWFC      R3, 1 
	MOVF        R0, 0 
	MOVWF       _temp+0 
	MOVF        R1, 0 
	MOVWF       _temp+1 
	MOVF        R2, 0 
	MOVWF       _temp+2 
	MOVF        R3, 0 
	MOVWF       _temp+3 
;FirmV_0_7_0.c,733 :: 		AddTask(temp,11); //overload check
	MOVF        R0, 0 
	MOVWF       FARG_AddTask+0 
	MOVF        R1, 0 
	MOVWF       FARG_AddTask+1 
	MOVF        R2, 0 
	MOVWF       FARG_AddTask+2 
	MOVF        R3, 0 
	MOVWF       FARG_AddTask+3 
	MOVLW       11
	MOVWF       FARG_AddTask+0 
	CALL        _AddTask+0, 0
;FirmV_0_7_0.c,734 :: 		temp=ms500+CloseSoftStartTime+delay;
	MOVF        _CloseSoftStartTime+0, 0 
	ADDWF       _ms500+0, 0 
	MOVWF       R0 
	MOVLW       0
	ADDWFC      _ms500+1, 0 
	MOVWF       R1 
	MOVLW       0
	ADDWFC      _ms500+2, 0 
	MOVWF       R2 
	MOVLW       0
	ADDWFC      _ms500+3, 0 
	MOVWF       R3 
	MOVF        State2_delay_L0+0, 0 
	ADDWF       R0, 1 
	MOVLW       0
	ADDWFC      R1, 1 
	ADDWFC      R2, 1 
	ADDWFC      R3, 1 
	MOVF        R0, 0 
	MOVWF       _temp+0 
	MOVF        R1, 0 
	MOVWF       _temp+1 
	MOVF        R2, 0 
	MOVWF       _temp+2 
	MOVF        R3, 0 
	MOVWF       _temp+3 
;FirmV_0_7_0.c,735 :: 		AddTask(temp,6);//Speed up after soft start
	MOVF        R0, 0 
	MOVWF       FARG_AddTask+0 
	MOVF        R1, 0 
	MOVWF       FARG_AddTask+1 
	MOVF        R2, 0 
	MOVWF       FARG_AddTask+2 
	MOVF        R3, 0 
	MOVWF       FARG_AddTask+3 
	MOVLW       6
	MOVWF       FARG_AddTask+0 
	CALL        _AddTask+0, 0
;FirmV_0_7_0.c,736 :: 		if(CloseSoftStopTime!=0)
	MOVF        _CloseSoftStopTime+0, 0 
	XORLW       0
	BTFSC       STATUS+0, 2 
	GOTO        L_State2116
;FirmV_0_7_0.c,737 :: 		{temp=ms500+Door2CloseTime-CloseSoftStopTime+delay;AddTask(temp,8);}//Speed down for soft stop
	MOVF        _Door2CloseTime+0, 0 
	ADDWF       _ms500+0, 0 
	MOVWF       R0 
	MOVLW       0
	ADDWFC      _ms500+1, 0 
	MOVWF       R1 
	MOVLW       0
	ADDWFC      _ms500+2, 0 
	MOVWF       R2 
	MOVLW       0
	ADDWFC      _ms500+3, 0 
	MOVWF       R3 
	MOVF        _CloseSoftStopTime+0, 0 
	SUBWF       R0, 1 
	MOVLW       0
	SUBWFB      R1, 1 
	SUBWFB      R2, 1 
	SUBWFB      R3, 1 
	MOVF        State2_delay_L0+0, 0 
	ADDWF       R0, 1 
	MOVLW       0
	ADDWFC      R1, 1 
	ADDWFC      R2, 1 
	ADDWFC      R3, 1 
	MOVF        R0, 0 
	MOVWF       _temp+0 
	MOVF        R1, 0 
	MOVWF       _temp+1 
	MOVF        R2, 0 
	MOVWF       _temp+2 
	MOVF        R3, 0 
	MOVWF       _temp+3 
	MOVF        R0, 0 
	MOVWF       FARG_AddTask+0 
	MOVF        R1, 0 
	MOVWF       FARG_AddTask+1 
	MOVF        R2, 0 
	MOVWF       FARG_AddTask+2 
	MOVF        R3, 0 
	MOVWF       FARG_AddTask+3 
	MOVLW       8
	MOVWF       FARG_AddTask+0 
	CALL        _AddTask+0, 0
L_State2116:
;FirmV_0_7_0.c,739 :: 		temp=ms500+Door2CloseTime+delay;
	MOVF        _Door2CloseTime+0, 0 
	ADDWF       _ms500+0, 0 
	MOVWF       R0 
	MOVLW       0
	ADDWFC      _ms500+1, 0 
	MOVWF       R1 
	MOVLW       0
	ADDWFC      _ms500+2, 0 
	MOVWF       R2 
	MOVLW       0
	ADDWFC      _ms500+3, 0 
	MOVWF       R3 
	MOVF        State2_delay_L0+0, 0 
	ADDWF       R0, 1 
	MOVLW       0
	ADDWFC      R1, 1 
	ADDWFC      R2, 1 
	ADDWFC      R3, 1 
	MOVF        R0, 0 
	MOVWF       _temp+0 
	MOVF        R1, 0 
	MOVWF       _temp+1 
	MOVF        R2, 0 
	MOVWF       _temp+2 
	MOVF        R3, 0 
	MOVWF       _temp+3 
;FirmV_0_7_0.c,740 :: 		AddTask(temp,4);//Stop motor
	MOVF        R0, 0 
	MOVWF       FARG_AddTask+0 
	MOVF        R1, 0 
	MOVWF       FARG_AddTask+1 
	MOVF        R2, 0 
	MOVWF       FARG_AddTask+2 
	MOVF        R3, 0 
	MOVWF       FARG_AddTask+3 
	MOVLW       4
	MOVWF       FARG_AddTask+0 
	CALL        _AddTask+0, 0
;FirmV_0_7_0.c,744 :: 		temp=ms500+ActionTimeDiff+delay;
	MOVF        _ActionTimeDiff+0, 0 
	ADDWF       _ms500+0, 0 
	MOVWF       R0 
	MOVLW       0
	ADDWFC      _ms500+1, 0 
	MOVWF       R1 
	MOVLW       0
	ADDWFC      _ms500+2, 0 
	MOVWF       R2 
	MOVLW       0
	ADDWFC      _ms500+3, 0 
	MOVWF       R3 
	MOVF        State2_delay_L0+0, 0 
	ADDWF       R0, 1 
	MOVLW       0
	ADDWFC      R1, 1 
	ADDWFC      R2, 1 
	ADDWFC      R3, 1 
	MOVF        R0, 0 
	MOVWF       _temp+0 
	MOVF        R1, 0 
	MOVWF       _temp+1 
	MOVF        R2, 0 
	MOVWF       _temp+2 
	MOVF        R3, 0 
	MOVWF       _temp+3 
;FirmV_0_7_0.c,745 :: 		AddTask(temp,1);
	MOVF        R0, 0 
	MOVWF       FARG_AddTask+0 
	MOVF        R1, 0 
	MOVWF       FARG_AddTask+1 
	MOVF        R2, 0 
	MOVWF       FARG_AddTask+2 
	MOVF        R3, 0 
	MOVWF       FARG_AddTask+3 
	MOVLW       1
	MOVWF       FARG_AddTask+0 
	CALL        _AddTask+0, 0
;FirmV_0_7_0.c,746 :: 		if(CloseSoftStartTime!=0)
	MOVF        _CloseSoftStartTime+0, 0 
	XORLW       0
	BTFSC       STATUS+0, 2 
	GOTO        L_State2117
;FirmV_0_7_0.c,747 :: 		{AddTask(temp,7); M1isSlow=1;}//speed down
	MOVF        _temp+0, 0 
	MOVWF       FARG_AddTask+0 
	MOVF        _temp+1, 0 
	MOVWF       FARG_AddTask+1 
	MOVF        _temp+2, 0 
	MOVWF       FARG_AddTask+2 
	MOVF        _temp+3, 0 
	MOVWF       FARG_AddTask+3 
	MOVLW       7
	MOVWF       FARG_AddTask+0 
	CALL        _AddTask+0, 0
	MOVLW       1
	MOVWF       _M1isSlow+0 
	GOTO        L_State2118
L_State2117:
;FirmV_0_7_0.c,749 :: 		{AddTask(temp,5); M1isSlow=0;}//speed up
	MOVF        _temp+0, 0 
	MOVWF       FARG_AddTask+0 
	MOVF        _temp+1, 0 
	MOVWF       FARG_AddTask+1 
	MOVF        _temp+2, 0 
	MOVWF       FARG_AddTask+2 
	MOVF        _temp+3, 0 
	MOVWF       FARG_AddTask+3 
	MOVLW       5
	MOVWF       FARG_AddTask+0 
	CALL        _AddTask+0, 0
	CLRF        _M1isSlow+0 
L_State2118:
;FirmV_0_7_0.c,750 :: 		temp=ms500+ActionTimeDiff+CloseSoftStartTime+OverloadDelay+delay;
	MOVF        _ActionTimeDiff+0, 0 
	ADDWF       _ms500+0, 0 
	MOVWF       R0 
	MOVLW       0
	ADDWFC      _ms500+1, 0 
	MOVWF       R1 
	MOVLW       0
	ADDWFC      _ms500+2, 0 
	MOVWF       R2 
	MOVLW       0
	ADDWFC      _ms500+3, 0 
	MOVWF       R3 
	MOVF        _CloseSoftStartTime+0, 0 
	ADDWF       R0, 1 
	MOVLW       0
	ADDWFC      R1, 1 
	ADDWFC      R2, 1 
	ADDWFC      R3, 1 
	MOVLW       6
	ADDWF       R0, 1 
	MOVLW       0
	ADDWFC      R1, 1 
	ADDWFC      R2, 1 
	ADDWFC      R3, 1 
	MOVF        State2_delay_L0+0, 0 
	ADDWF       R0, 1 
	MOVLW       0
	ADDWFC      R1, 1 
	ADDWFC      R2, 1 
	ADDWFC      R3, 1 
	MOVF        R0, 0 
	MOVWF       _temp+0 
	MOVF        R1, 0 
	MOVWF       _temp+1 
	MOVF        R2, 0 
	MOVWF       _temp+2 
	MOVF        R3, 0 
	MOVWF       _temp+3 
;FirmV_0_7_0.c,751 :: 		AddTask(temp,10); //overload check
	MOVF        R0, 0 
	MOVWF       FARG_AddTask+0 
	MOVF        R1, 0 
	MOVWF       FARG_AddTask+1 
	MOVF        R2, 0 
	MOVWF       FARG_AddTask+2 
	MOVF        R3, 0 
	MOVWF       FARG_AddTask+3 
	MOVLW       10
	MOVWF       FARG_AddTask+0 
	CALL        _AddTask+0, 0
;FirmV_0_7_0.c,752 :: 		temp=ms500+ActionTimeDiff+CloseSoftStartTime+delay;
	MOVF        _ActionTimeDiff+0, 0 
	ADDWF       _ms500+0, 0 
	MOVWF       R0 
	MOVLW       0
	ADDWFC      _ms500+1, 0 
	MOVWF       R1 
	MOVLW       0
	ADDWFC      _ms500+2, 0 
	MOVWF       R2 
	MOVLW       0
	ADDWFC      _ms500+3, 0 
	MOVWF       R3 
	MOVF        _CloseSoftStartTime+0, 0 
	ADDWF       R0, 1 
	MOVLW       0
	ADDWFC      R1, 1 
	ADDWFC      R2, 1 
	ADDWFC      R3, 1 
	MOVF        State2_delay_L0+0, 0 
	ADDWF       R0, 1 
	MOVLW       0
	ADDWFC      R1, 1 
	ADDWFC      R2, 1 
	ADDWFC      R3, 1 
	MOVF        R0, 0 
	MOVWF       _temp+0 
	MOVF        R1, 0 
	MOVWF       _temp+1 
	MOVF        R2, 0 
	MOVWF       _temp+2 
	MOVF        R3, 0 
	MOVWF       _temp+3 
;FirmV_0_7_0.c,753 :: 		AddTask(temp,5);//Speed up after soft start
	MOVF        R0, 0 
	MOVWF       FARG_AddTask+0 
	MOVF        R1, 0 
	MOVWF       FARG_AddTask+1 
	MOVF        R2, 0 
	MOVWF       FARG_AddTask+2 
	MOVF        R3, 0 
	MOVWF       FARG_AddTask+3 
	MOVLW       5
	MOVWF       FARG_AddTask+0 
	CALL        _AddTask+0, 0
;FirmV_0_7_0.c,754 :: 		if(CloseSoftStopTime!=0)
	MOVF        _CloseSoftStopTime+0, 0 
	XORLW       0
	BTFSC       STATUS+0, 2 
	GOTO        L_State2119
;FirmV_0_7_0.c,755 :: 		{temp=ms500+ActionTimeDiff+Door1CloseTime-CloseSoftStopTime+delay;AddTask(temp,7);}//Speed down for soft stop
	MOVF        _ActionTimeDiff+0, 0 
	ADDWF       _ms500+0, 0 
	MOVWF       R0 
	MOVLW       0
	ADDWFC      _ms500+1, 0 
	MOVWF       R1 
	MOVLW       0
	ADDWFC      _ms500+2, 0 
	MOVWF       R2 
	MOVLW       0
	ADDWFC      _ms500+3, 0 
	MOVWF       R3 
	MOVF        _Door1CloseTime+0, 0 
	ADDWF       R0, 1 
	MOVLW       0
	ADDWFC      R1, 1 
	ADDWFC      R2, 1 
	ADDWFC      R3, 1 
	MOVF        _CloseSoftStopTime+0, 0 
	SUBWF       R0, 1 
	MOVLW       0
	SUBWFB      R1, 1 
	SUBWFB      R2, 1 
	SUBWFB      R3, 1 
	MOVF        State2_delay_L0+0, 0 
	ADDWF       R0, 1 
	MOVLW       0
	ADDWFC      R1, 1 
	ADDWFC      R2, 1 
	ADDWFC      R3, 1 
	MOVF        R0, 0 
	MOVWF       _temp+0 
	MOVF        R1, 0 
	MOVWF       _temp+1 
	MOVF        R2, 0 
	MOVWF       _temp+2 
	MOVF        R3, 0 
	MOVWF       _temp+3 
	MOVF        R0, 0 
	MOVWF       FARG_AddTask+0 
	MOVF        R1, 0 
	MOVWF       FARG_AddTask+1 
	MOVF        R2, 0 
	MOVWF       FARG_AddTask+2 
	MOVF        R3, 0 
	MOVWF       FARG_AddTask+3 
	MOVLW       7
	MOVWF       FARG_AddTask+0 
	CALL        _AddTask+0, 0
L_State2119:
;FirmV_0_7_0.c,756 :: 		if(LockForce!=0)
	MOVF        _LockForce+0, 0 
	XORLW       0
	BTFSC       STATUS+0, 2 
	GOTO        L_State2120
;FirmV_0_7_0.c,757 :: 		{temp=ms500+Door1CloseTime+ActionTimeDiff+delay;AddTask(temp,5);AddTask(temp+LockForceTime,3);}
	MOVF        _Door1CloseTime+0, 0 
	ADDWF       _ms500+0, 0 
	MOVWF       R0 
	MOVLW       0
	ADDWFC      _ms500+1, 0 
	MOVWF       R1 
	MOVLW       0
	ADDWFC      _ms500+2, 0 
	MOVWF       R2 
	MOVLW       0
	ADDWFC      _ms500+3, 0 
	MOVWF       R3 
	MOVF        _ActionTimeDiff+0, 0 
	ADDWF       R0, 1 
	MOVLW       0
	ADDWFC      R1, 1 
	ADDWFC      R2, 1 
	ADDWFC      R3, 1 
	MOVF        State2_delay_L0+0, 0 
	ADDWF       R0, 1 
	MOVLW       0
	ADDWFC      R1, 1 
	ADDWFC      R2, 1 
	ADDWFC      R3, 1 
	MOVF        R0, 0 
	MOVWF       _temp+0 
	MOVF        R1, 0 
	MOVWF       _temp+1 
	MOVF        R2, 0 
	MOVWF       _temp+2 
	MOVF        R3, 0 
	MOVWF       _temp+3 
	MOVF        R0, 0 
	MOVWF       FARG_AddTask+0 
	MOVF        R1, 0 
	MOVWF       FARG_AddTask+1 
	MOVF        R2, 0 
	MOVWF       FARG_AddTask+2 
	MOVF        R3, 0 
	MOVWF       FARG_AddTask+3 
	MOVLW       5
	MOVWF       FARG_AddTask+0 
	CALL        _AddTask+0, 0
	MOVLW       2
	ADDWF       _temp+0, 0 
	MOVWF       FARG_AddTask+0 
	MOVLW       0
	ADDWFC      _temp+1, 0 
	MOVWF       FARG_AddTask+1 
	MOVLW       0
	ADDWFC      _temp+2, 0 
	MOVWF       FARG_AddTask+2 
	MOVLW       0
	ADDWFC      _temp+3, 0 
	MOVWF       FARG_AddTask+3 
	MOVLW       3
	MOVWF       FARG_AddTask+0 
	CALL        _AddTask+0, 0
	GOTO        L_State2121
L_State2120:
;FirmV_0_7_0.c,759 :: 		{temp=ms500+Door1CloseTime+ActionTimeDiff+delay;AddTask(temp,3);}
	MOVF        _Door1CloseTime+0, 0 
	ADDWF       _ms500+0, 0 
	MOVWF       R0 
	MOVLW       0
	ADDWFC      _ms500+1, 0 
	MOVWF       R1 
	MOVLW       0
	ADDWFC      _ms500+2, 0 
	MOVWF       R2 
	MOVLW       0
	ADDWFC      _ms500+3, 0 
	MOVWF       R3 
	MOVF        _ActionTimeDiff+0, 0 
	ADDWF       R0, 1 
	MOVLW       0
	ADDWFC      R1, 1 
	ADDWFC      R2, 1 
	ADDWFC      R3, 1 
	MOVF        State2_delay_L0+0, 0 
	ADDWF       R0, 1 
	MOVLW       0
	ADDWFC      R1, 1 
	ADDWFC      R2, 1 
	ADDWFC      R3, 1 
	MOVF        R0, 0 
	MOVWF       _temp+0 
	MOVF        R1, 0 
	MOVWF       _temp+1 
	MOVF        R2, 0 
	MOVWF       _temp+2 
	MOVF        R3, 0 
	MOVWF       _temp+3 
	MOVF        R0, 0 
	MOVWF       FARG_AddTask+0 
	MOVF        R1, 0 
	MOVWF       FARG_AddTask+1 
	MOVF        R2, 0 
	MOVWF       FARG_AddTask+2 
	MOVF        R3, 0 
	MOVWF       FARG_AddTask+3 
	MOVLW       3
	MOVWF       FARG_AddTask+0 
	CALL        _AddTask+0, 0
L_State2121:
;FirmV_0_7_0.c,761 :: 		}
L_State2113:
;FirmV_0_7_0.c,764 :: 		CloseDone=3;
	MOVLW       3
	MOVWF       _CloseDone+0 
;FirmV_0_7_0.c,765 :: 		OverloadCheckFlag1=0;
	CLRF        _OverloadCheckFlag1+0 
;FirmV_0_7_0.c,766 :: 		OverloadCheckFlag2=0;
	CLRF        _OverloadCheckFlag2+0 
;FirmV_0_7_0.c,767 :: 		KeyNoiseEliminator=0;
	CLRF        _KeyNoiseEliminator+0 
;FirmV_0_7_0.c,768 :: 		AutoClosePauseFlag=0;
	CLRF        _AutoClosePauseFlag+0 
;FirmV_0_7_0.c,769 :: 		State=4;
	MOVLW       4
	MOVWF       _State+0 
;FirmV_0_7_0.c,770 :: 		}
L_State2102:
;FirmV_0_7_0.c,772 :: 		if((Events.Photocell.b0==1)&&(AutoCloseTime!=0)&&(PassFlag==0))
	BTFSS       _Events+6, 0 
	GOTO        L_State2124
	MOVLW       0
	XORWF       _AutoCloseTime+1, 0 
	BTFSS       STATUS+0, 2 
	GOTO        L__State21016
	MOVLW       0
	XORWF       _AutoCloseTime+0, 0 
L__State21016:
	BTFSC       STATUS+0, 2 
	GOTO        L_State2124
	MOVF        _PassFlag+0, 0 
	XORLW       0
	BTFSS       STATUS+0, 2 
	GOTO        L_State2124
L__State2885:
;FirmV_0_7_0.c,773 :: 		{PassFlag=1;AutoClosePauseFlag=1;Logger("S2 Auto Close Paused",1);}
	MOVLW       1
	MOVWF       _PassFlag+0 
	MOVLW       1
	MOVWF       _AutoClosePauseFlag+0 
	MOVLW       ?lstr5_FirmV_0_7_0+0
	MOVWF       FARG_Logger_text+0 
	MOVLW       hi_addr(?lstr5_FirmV_0_7_0+0)
	MOVWF       FARG_Logger_text+1 
	MOVLW       1
	MOVWF       FARG_Logger_TimeStampFlag+0 
	CALL        _Logger+0, 0
L_State2124:
;FirmV_0_7_0.c,776 :: 		if((PassFlag==1)&&(Events.Photocell.b0==0)&&(AutoCloseTime!=0))
	MOVF        _PassFlag+0, 0 
	XORLW       1
	BTFSS       STATUS+0, 2 
	GOTO        L_State2127
	BTFSC       _Events+6, 0 
	GOTO        L_State2127
	MOVLW       0
	XORWF       _AutoCloseTime+1, 0 
	BTFSS       STATUS+0, 2 
	GOTO        L__State21017
	MOVLW       0
	XORWF       _AutoCloseTime+0, 0 
L__State21017:
	BTFSC       STATUS+0, 2 
	GOTO        L_State2127
L__State2884:
;FirmV_0_7_0.c,777 :: 		if(CloseAfterPass==0)
	MOVF        _CloseAfterPass+0, 0 
	XORLW       0
	BTFSS       STATUS+0, 2 
	GOTO        L_State2128
;FirmV_0_7_0.c,778 :: 		{PassFlag=0;AutoClosePauseFlag=0;Logger("S2 Auto Close Resumed",1);}
	CLRF        _PassFlag+0 
	CLRF        _AutoClosePauseFlag+0 
	MOVLW       ?lstr6_FirmV_0_7_0+0
	MOVWF       FARG_Logger_text+0 
	MOVLW       hi_addr(?lstr6_FirmV_0_7_0+0)
	MOVWF       FARG_Logger_text+1 
	MOVLW       1
	MOVWF       FARG_Logger_TimeStampFlag+0 
	CALL        _Logger+0, 0
	GOTO        L_State2129
L_State2128:
;FirmV_0_7_0.c,780 :: 		{_AC=GetAutocloseTime();AutoClosePauseFlag=0;temp=ms500+CloseAfterPass;AddTask(temp,9);PassFlag=0;longwordtostrwithzeros(temp,t);Logger("S2 Insert 9 at:",1);Logger(t,1);}
	CALL        _GetAutocloseTime+0, 0
	MOVF        R0, 0 
	MOVWF       __AC+0 
	CLRF        _AutoClosePauseFlag+0 
	MOVF        _CloseAfterPass+0, 0 
	ADDWF       _ms500+0, 0 
	MOVWF       R0 
	MOVLW       0
	ADDWFC      _ms500+1, 0 
	MOVWF       R1 
	MOVLW       0
	ADDWFC      _ms500+2, 0 
	MOVWF       R2 
	MOVLW       0
	ADDWFC      _ms500+3, 0 
	MOVWF       R3 
	MOVF        R0, 0 
	MOVWF       _temp+0 
	MOVF        R1, 0 
	MOVWF       _temp+1 
	MOVF        R2, 0 
	MOVWF       _temp+2 
	MOVF        R3, 0 
	MOVWF       _temp+3 
	MOVF        R0, 0 
	MOVWF       FARG_AddTask+0 
	MOVF        R1, 0 
	MOVWF       FARG_AddTask+1 
	MOVF        R2, 0 
	MOVWF       FARG_AddTask+2 
	MOVF        R3, 0 
	MOVWF       FARG_AddTask+3 
	MOVLW       9
	MOVWF       FARG_AddTask+0 
	CALL        _AddTask+0, 0
	CLRF        _PassFlag+0 
	MOVF        _temp+0, 0 
	MOVWF       FARG_LongWordToStrWithZeros_input+0 
	MOVF        _temp+1, 0 
	MOVWF       FARG_LongWordToStrWithZeros_input+1 
	MOVF        _temp+2, 0 
	MOVWF       FARG_LongWordToStrWithZeros_input+2 
	MOVF        _temp+3, 0 
	MOVWF       FARG_LongWordToStrWithZeros_input+3 
	MOVLW       _t+0
	MOVWF       FARG_LongWordToStrWithZeros_output+0 
	MOVLW       hi_addr(_t+0)
	MOVWF       FARG_LongWordToStrWithZeros_output+1 
	CALL        _LongWordToStrWithZeros+0, 0
	MOVLW       ?lstr7_FirmV_0_7_0+0
	MOVWF       FARG_Logger_text+0 
	MOVLW       hi_addr(?lstr7_FirmV_0_7_0+0)
	MOVWF       FARG_Logger_text+1 
	MOVLW       1
	MOVWF       FARG_Logger_TimeStampFlag+0 
	CALL        _Logger+0, 0
	MOVLW       _t+0
	MOVWF       FARG_Logger_text+0 
	MOVLW       hi_addr(_t+0)
	MOVWF       FARG_Logger_text+1 
	MOVLW       1
	MOVWF       FARG_Logger_TimeStampFlag+0 
	CALL        _Logger+0, 0
L_State2129:
L_State2127:
;FirmV_0_7_0.c,782 :: 		}
L_end_State2:
	RETURN      0
; end of _State2

_State3:

;FirmV_0_7_0.c,797 :: 		void State3()
;FirmV_0_7_0.c,799 :: 		Flasher=1;
	BSF         PORTD+0, 7 
;FirmV_0_7_0.c,800 :: 		FlashFlag=1;
	MOVLW       1
	MOVWF       _FlashFlag+0 
;FirmV_0_7_0.c,802 :: 		if(CheckTask(1))
	MOVLW       1
	MOVWF       FARG_CheckTask+0 
	CALL        _CheckTask+0, 0
	MOVF        R0, 1 
	BTFSC       STATUS+0, 2 
	GOTO        L_State3130
;FirmV_0_7_0.c,803 :: 		{StartMotor(1,_Open);Logger("S3 Motor1Start",1); Lock=0;memcpy(LCDLine1,_opening,16);memcpy(LCDLine2,_Blank,16);LCDUpdateFlag=1;LCDLines=1;}
	MOVLW       1
	MOVWF       FARG_StartMotor+0 
	MOVLW       1
	MOVWF       FARG_StartMotor+0 
	CALL        _StartMotor+0, 0
	MOVLW       ?lstr8_FirmV_0_7_0+0
	MOVWF       FARG_Logger_text+0 
	MOVLW       hi_addr(?lstr8_FirmV_0_7_0+0)
	MOVWF       FARG_Logger_text+1 
	MOVLW       1
	MOVWF       FARG_Logger_TimeStampFlag+0 
	CALL        _Logger+0, 0
	BCF         PORTD+0, 6 
	MOVLW       _LCDLine1+0
	MOVWF       FARG_memcpy_d1+0 
	MOVLW       hi_addr(_LCDLine1+0)
	MOVWF       FARG_memcpy_d1+1 
	MOVLW       __opening+0
	MOVWF       FARG_memcpy_s1+0 
	MOVLW       hi_addr(__opening+0)
	MOVWF       FARG_memcpy_s1+1 
	MOVLW       16
	MOVWF       FARG_memcpy_n+0 
	MOVLW       0
	MOVWF       FARG_memcpy_n+1 
	CALL        _memcpy+0, 0
	MOVLW       _LCDLine2+0
	MOVWF       FARG_memcpy_d1+0 
	MOVLW       hi_addr(_LCDLine2+0)
	MOVWF       FARG_memcpy_d1+1 
	MOVLW       __Blank+0
	MOVWF       FARG_memcpy_s1+0 
	MOVLW       hi_addr(__Blank+0)
	MOVWF       FARG_memcpy_s1+1 
	MOVLW       16
	MOVWF       FARG_memcpy_n+0 
	MOVLW       0
	MOVWF       FARG_memcpy_n+1 
	CALL        _memcpy+0, 0
	MOVLW       1
	MOVWF       _LCDUpdateFlag+0 
	MOVLW       1
	MOVWF       _LCDLines+0 
L_State3130:
;FirmV_0_7_0.c,805 :: 		if(CheckTask(2))
	MOVLW       2
	MOVWF       FARG_CheckTask+0 
	CALL        _CheckTask+0, 0
	MOVF        R0, 1 
	BTFSC       STATUS+0, 2 
	GOTO        L_State3131
;FirmV_0_7_0.c,806 :: 		{StartMotor(2,_Open);Logger("S3 Motor2Start",1); Lock=0;}
	MOVLW       2
	MOVWF       FARG_StartMotor+0 
	MOVLW       1
	MOVWF       FARG_StartMotor+0 
	CALL        _StartMotor+0, 0
	MOVLW       ?lstr9_FirmV_0_7_0+0
	MOVWF       FARG_Logger_text+0 
	MOVLW       hi_addr(?lstr9_FirmV_0_7_0+0)
	MOVWF       FARG_Logger_text+1 
	MOVLW       1
	MOVWF       FARG_Logger_TimeStampFlag+0 
	CALL        _Logger+0, 0
	BCF         PORTD+0, 6 
L_State3131:
;FirmV_0_7_0.c,808 :: 		if(CheckTask(5))
	MOVLW       5
	MOVWF       FARG_CheckTask+0 
	CALL        _CheckTask+0, 0
	MOVF        R0, 1 
	BTFSC       STATUS+0, 2 
	GOTO        L_State3132
;FirmV_0_7_0.c,809 :: 		{SetMotorSpeed(1,Motor2FullSpeed);OverloadCheckFlag1=0; M1isSlow=0;Logger("S3 Motor1 Fast",1);}
	MOVLW       1
	MOVWF       FARG_SetMotorSpeed+0 
	MOVF        _Motor2FullSpeed+0, 0 
	MOVWF       FARG_SetMotorSpeed+0 
	CALL        _SetMotorSpeed+0, 0
	CLRF        _OverloadCheckFlag1+0 
	CLRF        _M1isSlow+0 
	MOVLW       ?lstr10_FirmV_0_7_0+0
	MOVWF       FARG_Logger_text+0 
	MOVLW       hi_addr(?lstr10_FirmV_0_7_0+0)
	MOVWF       FARG_Logger_text+1 
	MOVLW       1
	MOVWF       FARG_Logger_TimeStampFlag+0 
	CALL        _Logger+0, 0
L_State3132:
;FirmV_0_7_0.c,811 :: 		if(CheckTask(7))
	MOVLW       7
	MOVWF       FARG_CheckTask+0 
	CALL        _CheckTask+0, 0
	MOVF        R0, 1 
	BTFSC       STATUS+0, 2 
	GOTO        L_State3133
;FirmV_0_7_0.c,812 :: 		{SetMotorSpeed(0,Motor2FullSpeed); M1isSlow=1;Logger("S3 Motor1 Slow",1);}
	CLRF        FARG_SetMotorSpeed+0 
	MOVF        _Motor2FullSpeed+0, 0 
	MOVWF       FARG_SetMotorSpeed+0 
	CALL        _SetMotorSpeed+0, 0
	MOVLW       1
	MOVWF       _M1isSlow+0 
	MOVLW       ?lstr11_FirmV_0_7_0+0
	MOVWF       FARG_Logger_text+0 
	MOVLW       hi_addr(?lstr11_FirmV_0_7_0+0)
	MOVWF       FARG_Logger_text+1 
	MOVLW       1
	MOVWF       FARG_Logger_TimeStampFlag+0 
	CALL        _Logger+0, 0
L_State3133:
;FirmV_0_7_0.c,814 :: 		if(CheckTask(6))
	MOVLW       6
	MOVWF       FARG_CheckTask+0 
	CALL        _CheckTask+0, 0
	MOVF        R0, 1 
	BTFSC       STATUS+0, 2 
	GOTO        L_State3134
;FirmV_0_7_0.c,815 :: 		{SetMotorSpeed(Motor1FullSpeed,1);OverloadCheckFlag2=0; M2isSlow=0;Logger("S3 Motor2 Fast",1);}
	MOVF        _Motor1FullSpeed+0, 0 
	MOVWF       FARG_SetMotorSpeed+0 
	MOVLW       1
	MOVWF       FARG_SetMotorSpeed+0 
	CALL        _SetMotorSpeed+0, 0
	CLRF        _OverloadCheckFlag2+0 
	CLRF        _M2isSlow+0 
	MOVLW       ?lstr12_FirmV_0_7_0+0
	MOVWF       FARG_Logger_text+0 
	MOVLW       hi_addr(?lstr12_FirmV_0_7_0+0)
	MOVWF       FARG_Logger_text+1 
	MOVLW       1
	MOVWF       FARG_Logger_TimeStampFlag+0 
	CALL        _Logger+0, 0
L_State3134:
;FirmV_0_7_0.c,817 :: 		if(CheckTask(8))
	MOVLW       8
	MOVWF       FARG_CheckTask+0 
	CALL        _CheckTask+0, 0
	MOVF        R0, 1 
	BTFSC       STATUS+0, 2 
	GOTO        L_State3135
;FirmV_0_7_0.c,818 :: 		{SetMotorSpeed(Motor1FullSpeed,0); M2isSlow=1;Logger("S3 Motor2 Slow",1);}
	MOVF        _Motor1FullSpeed+0, 0 
	MOVWF       FARG_SetMotorSpeed+0 
	CLRF        FARG_SetMotorSpeed+0 
	CALL        _SetMotorSpeed+0, 0
	MOVLW       1
	MOVWF       _M2isSlow+0 
	MOVLW       ?lstr13_FirmV_0_7_0+0
	MOVWF       FARG_Logger_text+0 
	MOVLW       hi_addr(?lstr13_FirmV_0_7_0+0)
	MOVWF       FARG_Logger_text+1 
	MOVLW       1
	MOVWF       FARG_Logger_TimeStampFlag+0 
	CALL        _Logger+0, 0
L_State3135:
;FirmV_0_7_0.c,820 :: 		if(CheckTask(10))
	MOVLW       10
	MOVWF       FARG_CheckTask+0 
	CALL        _CheckTask+0, 0
	MOVF        R0, 1 
	BTFSC       STATUS+0, 2 
	GOTO        L_State3136
;FirmV_0_7_0.c,821 :: 		{OverloadCheckFlag1=1; OverloadInit(1);Logger("S3 Overflow Flag1 Set",1);}
	MOVLW       1
	MOVWF       _OverloadCheckFlag1+0 
	MOVLW       1
	MOVWF       FARG_OverloadInit+0 
	CALL        _OverloadInit+0, 0
	MOVLW       ?lstr14_FirmV_0_7_0+0
	MOVWF       FARG_Logger_text+0 
	MOVLW       hi_addr(?lstr14_FirmV_0_7_0+0)
	MOVWF       FARG_Logger_text+1 
	MOVLW       1
	MOVWF       FARG_Logger_TimeStampFlag+0 
	CALL        _Logger+0, 0
L_State3136:
;FirmV_0_7_0.c,823 :: 		if(CheckTask(11))
	MOVLW       11
	MOVWF       FARG_CheckTask+0 
	CALL        _CheckTask+0, 0
	MOVF        R0, 1 
	BTFSC       STATUS+0, 2 
	GOTO        L_State3137
;FirmV_0_7_0.c,824 :: 		{OverloadCheckFlag2=1; OverloadInit(2);Logger("S3 Overflow Flag2 Set",1);}
	MOVLW       1
	MOVWF       _OverloadCheckFlag2+0 
	MOVLW       2
	MOVWF       FARG_OverloadInit+0 
	CALL        _OverloadInit+0, 0
	MOVLW       ?lstr15_FirmV_0_7_0+0
	MOVWF       FARG_Logger_text+0 
	MOVLW       hi_addr(?lstr15_FirmV_0_7_0+0)
	MOVWF       FARG_Logger_text+1 
	MOVLW       1
	MOVWF       FARG_Logger_TimeStampFlag+0 
	CALL        _Logger+0, 0
L_State3137:
;FirmV_0_7_0.c,826 :: 		if(CheckTask(3))
	MOVLW       3
	MOVWF       FARG_CheckTask+0 
	CALL        _CheckTask+0, 0
	MOVF        R0, 1 
	BTFSC       STATUS+0, 2 
	GOTO        L_State3138
;FirmV_0_7_0.c,827 :: 		{OpenDone.b0=0; StopMotor(1);Logger("S3 Motor1 Stop",1);}
	BCF         _OpenDone+0, 0 
	MOVLW       1
	MOVWF       FARG_StopMotor+0 
	CALL        _StopMotor+0, 0
	MOVLW       ?lstr16_FirmV_0_7_0+0
	MOVWF       FARG_Logger_text+0 
	MOVLW       hi_addr(?lstr16_FirmV_0_7_0+0)
	MOVWF       FARG_Logger_text+1 
	MOVLW       1
	MOVWF       FARG_Logger_TimeStampFlag+0 
	CALL        _Logger+0, 0
L_State3138:
;FirmV_0_7_0.c,829 :: 		if(CheckTask(4))
	MOVLW       4
	MOVWF       FARG_CheckTask+0 
	CALL        _CheckTask+0, 0
	MOVF        R0, 1 
	BTFSC       STATUS+0, 2 
	GOTO        L_State3139
;FirmV_0_7_0.c,830 :: 		{OpenDone.b1=0; StopMotor(2);Logger("S3 Motor2 Stop",1);}
	BCF         _OpenDone+0, 1 
	MOVLW       2
	MOVWF       FARG_StopMotor+0 
	CALL        _StopMotor+0, 0
	MOVLW       ?lstr17_FirmV_0_7_0+0
	MOVWF       FARG_Logger_text+0 
	MOVLW       hi_addr(?lstr17_FirmV_0_7_0+0)
	MOVWF       FARG_Logger_text+1 
	MOVLW       1
	MOVWF       FARG_Logger_TimeStampFlag+0 
	CALL        _Logger+0, 0
L_State3139:
;FirmV_0_7_0.c,832 :: 		if(CheckTask(12))
	MOVLW       12
	MOVWF       FARG_CheckTask+0 
	CALL        _CheckTask+0, 0
	MOVF        R0, 1 
	BTFSC       STATUS+0, 2 
	GOTO        L_State3140
;FirmV_0_7_0.c,833 :: 		{Lock=1;}
	BSF         PORTD+0, 6 
L_State3140:
;FirmV_0_7_0.c,835 :: 		if((OverloadCheckFlag1==1)&&(Events.Overload.b0==1)&&(M1isSlow==0))
	MOVF        _OverloadCheckFlag1+0, 0 
	XORLW       1
	BTFSS       STATUS+0, 2 
	GOTO        L_State3143
	BTFSS       _Events+5, 0 
	GOTO        L_State3143
	MOVF        _M1isSlow+0, 0 
	XORLW       0
	BTFSS       STATUS+0, 2 
	GOTO        L_State3143
L__State3894:
;FirmV_0_7_0.c,836 :: 		{StopMotor(1); StopMotor(2); State=5;OverloadCheckFlag1=0;OverloadCheckFlag2=0;Logger("S3 Motor1 Collision",1);ClearTasks(9);
	MOVLW       1
	MOVWF       FARG_StopMotor+0 
	CALL        _StopMotor+0, 0
	MOVLW       2
	MOVWF       FARG_StopMotor+0 
	CALL        _StopMotor+0, 0
	MOVLW       5
	MOVWF       _State+0 
	CLRF        _OverloadCheckFlag1+0 
	CLRF        _OverloadCheckFlag2+0 
	MOVLW       ?lstr18_FirmV_0_7_0+0
	MOVWF       FARG_Logger_text+0 
	MOVLW       hi_addr(?lstr18_FirmV_0_7_0+0)
	MOVWF       FARG_Logger_text+1 
	MOVLW       1
	MOVWF       FARG_Logger_TimeStampFlag+0 
	CALL        _Logger+0, 0
	MOVLW       9
	MOVWF       FARG_ClearTasks+0 
	CALL        _ClearTasks+0, 0
;FirmV_0_7_0.c,837 :: 		memcpy(LCDLine1,_ErrOverload,16);LCDUpdateFlag=1;LCDLines=1;}
	MOVLW       _LCDLine1+0
	MOVWF       FARG_memcpy_d1+0 
	MOVLW       hi_addr(_LCDLine1+0)
	MOVWF       FARG_memcpy_d1+1 
	MOVLW       __errOverload+0
	MOVWF       FARG_memcpy_s1+0 
	MOVLW       hi_addr(__errOverload+0)
	MOVWF       FARG_memcpy_s1+1 
	MOVLW       16
	MOVWF       FARG_memcpy_n+0 
	MOVLW       0
	MOVWF       FARG_memcpy_n+1 
	CALL        _memcpy+0, 0
	MOVLW       1
	MOVWF       _LCDUpdateFlag+0 
	MOVLW       1
	MOVWF       _LCDLines+0 
L_State3143:
;FirmV_0_7_0.c,839 :: 		if((OverloadCheckFlag2==1)&&(Events.Overload.b1==1)&&(M2isSlow==0))
	MOVF        _OverloadCheckFlag2+0, 0 
	XORLW       1
	BTFSS       STATUS+0, 2 
	GOTO        L_State3146
	BTFSS       _Events+5, 1 
	GOTO        L_State3146
	MOVF        _M2isSlow+0, 0 
	XORLW       0
	BTFSS       STATUS+0, 2 
	GOTO        L_State3146
L__State3893:
;FirmV_0_7_0.c,840 :: 		{StopMotor(1); StopMotor(2); State=5;OverloadCheckFlag1=0;OverloadCheckFlag2=0;Logger("S3 Motor2 Collision",1);ClearTasks(9);
	MOVLW       1
	MOVWF       FARG_StopMotor+0 
	CALL        _StopMotor+0, 0
	MOVLW       2
	MOVWF       FARG_StopMotor+0 
	CALL        _StopMotor+0, 0
	MOVLW       5
	MOVWF       _State+0 
	CLRF        _OverloadCheckFlag1+0 
	CLRF        _OverloadCheckFlag2+0 
	MOVLW       ?lstr19_FirmV_0_7_0+0
	MOVWF       FARG_Logger_text+0 
	MOVLW       hi_addr(?lstr19_FirmV_0_7_0+0)
	MOVWF       FARG_Logger_text+1 
	MOVLW       1
	MOVWF       FARG_Logger_TimeStampFlag+0 
	CALL        _Logger+0, 0
	MOVLW       9
	MOVWF       FARG_ClearTasks+0 
	CALL        _ClearTasks+0, 0
;FirmV_0_7_0.c,841 :: 		memcpy(LCDLine1,_ErrOverload,16);LCDUpdateFlag=1;LCDLines=1;}
	MOVLW       _LCDLine1+0
	MOVWF       FARG_memcpy_d1+0 
	MOVLW       hi_addr(_LCDLine1+0)
	MOVWF       FARG_memcpy_d1+1 
	MOVLW       __errOverload+0
	MOVWF       FARG_memcpy_s1+0 
	MOVLW       hi_addr(__errOverload+0)
	MOVWF       FARG_memcpy_s1+1 
	MOVLW       16
	MOVWF       FARG_memcpy_n+0 
	MOVLW       0
	MOVWF       FARG_memcpy_n+1 
	CALL        _memcpy+0, 0
	MOVLW       1
	MOVWF       _LCDUpdateFlag+0 
	MOVLW       1
	MOVWF       _LCDLines+0 
L_State3146:
;FirmV_0_7_0.c,843 :: 		if((Door2OpenTime==0)||(ActiveDoors==1))
	MOVF        _Door2OpenTime+0, 0 
	XORLW       0
	BTFSC       STATUS+0, 2 
	GOTO        L__State3892
	MOVF        _ActiveDoors+0, 0 
	XORLW       1
	BTFSC       STATUS+0, 2 
	GOTO        L__State3892
	GOTO        L_State3149
L__State3892:
;FirmV_0_7_0.c,844 :: 		OpenDone.b1=0;
	BCF         _OpenDone+0, 1 
L_State3149:
;FirmV_0_7_0.c,846 :: 		if(KeyNoiseEliminator>=NoiseEliminatorTreshold)
	MOVLW       3
	SUBWF       _KeyNoiseEliminator+0, 0 
	BTFSS       STATUS+0, 0 
	GOTO        L_State3150
;FirmV_0_7_0.c,849 :: 		if((Events.Photocell.b0==1)&&(OpenPhEnable))
	BTFSS       _Events+6, 0 
	GOTO        L_State3153
	MOVF        _OpenPhEnable+0, 1 
	BTFSC       STATUS+0, 2 
	GOTO        L_State3153
L__State3891:
;FirmV_0_7_0.c,850 :: 		{StopMotor(1); StopMotor(2);OverloadCheckFlag1=0;OverloadCheckFlag2=0; State=5;Logger("S3 Photocell Int",1);ClearTasks(9);
	MOVLW       1
	MOVWF       FARG_StopMotor+0 
	CALL        _StopMotor+0, 0
	MOVLW       2
	MOVWF       FARG_StopMotor+0 
	CALL        _StopMotor+0, 0
	CLRF        _OverloadCheckFlag1+0 
	CLRF        _OverloadCheckFlag2+0 
	MOVLW       5
	MOVWF       _State+0 
	MOVLW       ?lstr20_FirmV_0_7_0+0
	MOVWF       FARG_Logger_text+0 
	MOVLW       hi_addr(?lstr20_FirmV_0_7_0+0)
	MOVWF       FARG_Logger_text+1 
	MOVLW       1
	MOVWF       FARG_Logger_TimeStampFlag+0 
	CALL        _Logger+0, 0
	MOVLW       9
	MOVWF       FARG_ClearTasks+0 
	CALL        _ClearTasks+0, 0
;FirmV_0_7_0.c,851 :: 		memcpy(LCDLine1,_ErrPhoto,16);LCDUpdateFlag=1;LCDLines=1;}
	MOVLW       _LCDLine1+0
	MOVWF       FARG_memcpy_d1+0 
	MOVLW       hi_addr(_LCDLine1+0)
	MOVWF       FARG_memcpy_d1+1 
	MOVLW       __errPhoto+0
	MOVWF       FARG_memcpy_s1+0 
	MOVLW       hi_addr(__errPhoto+0)
	MOVWF       FARG_memcpy_s1+1 
	MOVLW       16
	MOVWF       FARG_memcpy_n+0 
	MOVLW       0
	MOVWF       FARG_memcpy_n+1 
	CALL        _memcpy+0, 0
	MOVLW       1
	MOVWF       _LCDUpdateFlag+0 
	MOVLW       1
	MOVWF       _LCDLines+0 
L_State3153:
;FirmV_0_7_0.c,853 :: 		if(Events.Remote!=0)
	MOVF        _Events+4, 0 
	XORLW       0
	BTFSC       STATUS+0, 2 
	GOTO        L_State3154
;FirmV_0_7_0.c,854 :: 		{StopMotor(1); StopMotor(2);OverloadCheckFlag1=0;OverloadCheckFlag2=0; State=5;Logger("S3 Remote Stoped",1);ClearTasks(9);
	MOVLW       1
	MOVWF       FARG_StopMotor+0 
	CALL        _StopMotor+0, 0
	MOVLW       2
	MOVWF       FARG_StopMotor+0 
	CALL        _StopMotor+0, 0
	CLRF        _OverloadCheckFlag1+0 
	CLRF        _OverloadCheckFlag2+0 
	MOVLW       5
	MOVWF       _State+0 
	MOVLW       ?lstr21_FirmV_0_7_0+0
	MOVWF       FARG_Logger_text+0 
	MOVLW       hi_addr(?lstr21_FirmV_0_7_0+0)
	MOVWF       FARG_Logger_text+1 
	MOVLW       1
	MOVWF       FARG_Logger_TimeStampFlag+0 
	CALL        _Logger+0, 0
	MOVLW       9
	MOVWF       FARG_ClearTasks+0 
	CALL        _ClearTasks+0, 0
;FirmV_0_7_0.c,855 :: 		memcpy(LCDLine1,_ErrRemote,16);LCDUpdateFlag=1;LCDLines=1;}
	MOVLW       _LCDLine1+0
	MOVWF       FARG_memcpy_d1+0 
	MOVLW       hi_addr(_LCDLine1+0)
	MOVWF       FARG_memcpy_d1+1 
	MOVLW       __errRemote+0
	MOVWF       FARG_memcpy_s1+0 
	MOVLW       hi_addr(__errRemote+0)
	MOVWF       FARG_memcpy_s1+1 
	MOVLW       16
	MOVWF       FARG_memcpy_n+0 
	MOVLW       0
	MOVWF       FARG_memcpy_n+1 
	CALL        _memcpy+0, 0
	MOVLW       1
	MOVWF       _LCDUpdateFlag+0 
	MOVLW       1
	MOVWF       _LCDLines+0 
L_State3154:
;FirmV_0_7_0.c,857 :: 		if((Events.Limiter==1)&&(LimiterEnable))
	MOVF        _Events+7, 0 
	XORLW       1
	BTFSS       STATUS+0, 2 
	GOTO        L_State3157
	MOVF        _LimiterEnable+0, 1 
	BTFSC       STATUS+0, 2 
	GOTO        L_State3157
L__State3890:
;FirmV_0_7_0.c,858 :: 		{StopMotor(1); StopMotor(2);OverloadCheckFlag1=0;OverloadCheckFlag2=0; State=5;Logger("S3 Limit Switch Stoped",1);ClearTasks(9);
	MOVLW       1
	MOVWF       FARG_StopMotor+0 
	CALL        _StopMotor+0, 0
	MOVLW       2
	MOVWF       FARG_StopMotor+0 
	CALL        _StopMotor+0, 0
	CLRF        _OverloadCheckFlag1+0 
	CLRF        _OverloadCheckFlag2+0 
	MOVLW       5
	MOVWF       _State+0 
	MOVLW       ?lstr22_FirmV_0_7_0+0
	MOVWF       FARG_Logger_text+0 
	MOVLW       hi_addr(?lstr22_FirmV_0_7_0+0)
	MOVWF       FARG_Logger_text+1 
	MOVLW       1
	MOVWF       FARG_Logger_TimeStampFlag+0 
	CALL        _Logger+0, 0
	MOVLW       9
	MOVWF       FARG_ClearTasks+0 
	CALL        _ClearTasks+0, 0
;FirmV_0_7_0.c,859 :: 		memcpy(LCDLine1,_ErrLimit,16);LCDUpdateFlag=1;LCDLines=1;}
	MOVLW       _LCDLine1+0
	MOVWF       FARG_memcpy_d1+0 
	MOVLW       hi_addr(_LCDLine1+0)
	MOVWF       FARG_memcpy_d1+1 
	MOVLW       __errLimit+0
	MOVWF       FARG_memcpy_s1+0 
	MOVLW       hi_addr(__errLimit+0)
	MOVWF       FARG_memcpy_s1+1 
	MOVLW       16
	MOVWF       FARG_memcpy_n+0 
	MOVLW       0
	MOVWF       FARG_memcpy_n+1 
	CALL        _memcpy+0, 0
	MOVLW       1
	MOVWF       _LCDUpdateFlag+0 
	MOVLW       1
	MOVWF       _LCDLines+0 
L_State3157:
;FirmV_0_7_0.c,860 :: 		}
L_State3150:
;FirmV_0_7_0.c,862 :: 		if(OpenDone==0)
	MOVF        _OpenDone+0, 0 
	XORLW       0
	BTFSS       STATUS+0, 2 
	GOTO        L_State3158
;FirmV_0_7_0.c,863 :: 		if(LockEnable)
	MOVF        _LockEnable+0, 1 
	BTFSC       STATUS+0, 2 
	GOTO        L_State3159
;FirmV_0_7_0.c,864 :: 		{StartMotor(1,_Close);StartMotor(2,_Close);SetMotorSpeed(1,Motor2FullSpeed);OverloadCheckFlag1=0; M1isSlow=0;SetMotorSpeed(Motor1FullSpeed,1);OverloadCheckFlag2=0; M2isSlow=0;
	MOVLW       1
	MOVWF       FARG_StartMotor+0 
	CLRF        FARG_StartMotor+0 
	CALL        _StartMotor+0, 0
	MOVLW       2
	MOVWF       FARG_StartMotor+0 
	CLRF        FARG_StartMotor+0 
	CALL        _StartMotor+0, 0
	MOVLW       1
	MOVWF       FARG_SetMotorSpeed+0 
	MOVF        _Motor2FullSpeed+0, 0 
	MOVWF       FARG_SetMotorSpeed+0 
	CALL        _SetMotorSpeed+0, 0
	CLRF        _OverloadCheckFlag1+0 
	CLRF        _M1isSlow+0 
	MOVF        _Motor1FullSpeed+0, 0 
	MOVWF       FARG_SetMotorSpeed+0 
	MOVLW       1
	MOVWF       FARG_SetMotorSpeed+0 
	CALL        _SetMotorSpeed+0, 0
	CLRF        _OverloadCheckFlag2+0 
	CLRF        _M2isSlow+0 
;FirmV_0_7_0.c,865 :: 		AddTask(ms500+RelaseTime,3);AddTask(ms500+RelaseTime,4);AddTask(ms500+1+RelaseTime,13);OpenDone.b2=1;}
	MOVLW       1
	ADDWF       _ms500+0, 0 
	MOVWF       FARG_AddTask+0 
	MOVLW       0
	ADDWFC      _ms500+1, 0 
	MOVWF       FARG_AddTask+1 
	MOVLW       0
	ADDWFC      _ms500+2, 0 
	MOVWF       FARG_AddTask+2 
	MOVLW       0
	ADDWFC      _ms500+3, 0 
	MOVWF       FARG_AddTask+3 
	MOVLW       3
	MOVWF       FARG_AddTask+0 
	CALL        _AddTask+0, 0
	MOVLW       1
	ADDWF       _ms500+0, 0 
	MOVWF       FARG_AddTask+0 
	MOVLW       0
	ADDWFC      _ms500+1, 0 
	MOVWF       FARG_AddTask+1 
	MOVLW       0
	ADDWFC      _ms500+2, 0 
	MOVWF       FARG_AddTask+2 
	MOVLW       0
	ADDWFC      _ms500+3, 0 
	MOVWF       FARG_AddTask+3 
	MOVLW       4
	MOVWF       FARG_AddTask+0 
	CALL        _AddTask+0, 0
	MOVLW       1
	ADDWF       _ms500+0, 0 
	MOVWF       FARG_AddTask+0 
	MOVLW       0
	ADDWFC      _ms500+1, 0 
	MOVWF       FARG_AddTask+1 
	MOVLW       0
	ADDWFC      _ms500+2, 0 
	MOVWF       FARG_AddTask+2 
	MOVLW       0
	ADDWFC      _ms500+3, 0 
	MOVWF       FARG_AddTask+3 
	MOVLW       1
	ADDWF       FARG_AddTask+0, 1 
	MOVLW       0
	ADDWFC      FARG_AddTask+1, 1 
	ADDWFC      FARG_AddTask+2, 1 
	ADDWFC      FARG_AddTask+3, 1 
	MOVLW       13
	MOVWF       FARG_AddTask+0 
	CALL        _AddTask+0, 0
	BSF         _OpenDone+0, 2 
	GOTO        L_State3160
L_State3159:
;FirmV_0_7_0.c,867 :: 		{AddTask(ms500+1,13);OpenDone.b2=1;}
	MOVLW       1
	ADDWF       _ms500+0, 0 
	MOVWF       FARG_AddTask+0 
	MOVLW       0
	ADDWFC      _ms500+1, 0 
	MOVWF       FARG_AddTask+1 
	MOVLW       0
	ADDWFC      _ms500+2, 0 
	MOVWF       FARG_AddTask+2 
	MOVLW       0
	ADDWFC      _ms500+3, 0 
	MOVWF       FARG_AddTask+3 
	MOVLW       13
	MOVWF       FARG_AddTask+0 
	CALL        _AddTask+0, 0
	BSF         _OpenDone+0, 2 
L_State3160:
L_State3158:
;FirmV_0_7_0.c,869 :: 		if(CheckTask(13))
	MOVLW       13
	MOVWF       FARG_CheckTask+0 
	CALL        _CheckTask+0, 0
	MOVF        R0, 1 
	BTFSC       STATUS+0, 2 
	GOTO        L_State3161
;FirmV_0_7_0.c,870 :: 		{State=2; PrevAC=0;PassFlag=0;ClearTasks(9);memcpy(LCDLine1,_open,16);memcpy(LCDLine2,_blank,16);LCDUpdateFlag=1;LCDLines=2;}
	MOVLW       2
	MOVWF       _State+0 
	CLRF        _PrevAC+0 
	CLRF        _PassFlag+0 
	MOVLW       9
	MOVWF       FARG_ClearTasks+0 
	CALL        _ClearTasks+0, 0
	MOVLW       _LCDLine1+0
	MOVWF       FARG_memcpy_d1+0 
	MOVLW       hi_addr(_LCDLine1+0)
	MOVWF       FARG_memcpy_d1+1 
	MOVLW       __open+0
	MOVWF       FARG_memcpy_s1+0 
	MOVLW       hi_addr(__open+0)
	MOVWF       FARG_memcpy_s1+1 
	MOVLW       16
	MOVWF       FARG_memcpy_n+0 
	MOVLW       0
	MOVWF       FARG_memcpy_n+1 
	CALL        _memcpy+0, 0
	MOVLW       _LCDLine2+0
	MOVWF       FARG_memcpy_d1+0 
	MOVLW       hi_addr(_LCDLine2+0)
	MOVWF       FARG_memcpy_d1+1 
	MOVLW       __Blank+0
	MOVWF       FARG_memcpy_s1+0 
	MOVLW       hi_addr(__Blank+0)
	MOVWF       FARG_memcpy_s1+1 
	MOVLW       16
	MOVWF       FARG_memcpy_n+0 
	MOVLW       0
	MOVWF       FARG_memcpy_n+1 
	CALL        _memcpy+0, 0
	MOVLW       1
	MOVWF       _LCDUpdateFlag+0 
	MOVLW       2
	MOVWF       _LCDLines+0 
L_State3161:
;FirmV_0_7_0.c,872 :: 		if((State==5)||(State==6))
	MOVF        _State+0, 0 
	XORLW       5
	BTFSC       STATUS+0, 2 
	GOTO        L__State3889
	MOVF        _State+0, 0 
	XORLW       6
	BTFSC       STATUS+0, 2 
	GOTO        L__State3889
	GOTO        L_State3164
L__State3889:
;FirmV_0_7_0.c,873 :: 		{ClearTasks(0);if(AutoCloseTime!=0){AddTask(ms500+AutoCloseTime,9);AutoClosePauseFlag=0;PrevAC=0;Logger("S3 Autoclose Renewed",1);}}
	CLRF        FARG_ClearTasks+0 
	CALL        _ClearTasks+0, 0
	MOVLW       0
	XORWF       _AutoCloseTime+1, 0 
	BTFSS       STATUS+0, 2 
	GOTO        L__State31019
	MOVLW       0
	XORWF       _AutoCloseTime+0, 0 
L__State31019:
	BTFSC       STATUS+0, 2 
	GOTO        L_State3165
	MOVF        _AutoCloseTime+0, 0 
	ADDWF       _ms500+0, 0 
	MOVWF       FARG_AddTask+0 
	MOVF        _AutoCloseTime+1, 0 
	ADDWFC      _ms500+1, 0 
	MOVWF       FARG_AddTask+1 
	MOVLW       0
	ADDWFC      _ms500+2, 0 
	MOVWF       FARG_AddTask+2 
	MOVLW       0
	ADDWFC      _ms500+3, 0 
	MOVWF       FARG_AddTask+3 
	MOVLW       9
	MOVWF       FARG_AddTask+0 
	CALL        _AddTask+0, 0
	CLRF        _AutoClosePauseFlag+0 
	CLRF        _PrevAC+0 
	MOVLW       ?lstr23_FirmV_0_7_0+0
	MOVWF       FARG_Logger_text+0 
	MOVLW       hi_addr(?lstr23_FirmV_0_7_0+0)
	MOVWF       FARG_Logger_text+1 
	MOVLW       1
	MOVWF       FARG_Logger_TimeStampFlag+0 
	CALL        _Logger+0, 0
L_State3165:
L_State3164:
;FirmV_0_7_0.c,875 :: 		}
L_end_State3:
	RETURN      0
; end of _State3

_State4:

;FirmV_0_7_0.c,889 :: 		void State4()
;FirmV_0_7_0.c,891 :: 		Flasher=1;
	BSF         PORTD+0, 7 
;FirmV_0_7_0.c,892 :: 		FlashFlag=1;
	MOVLW       1
	MOVWF       _FlashFlag+0 
;FirmV_0_7_0.c,895 :: 		if(CheckTask(1))
	MOVLW       1
	MOVWF       FARG_CheckTask+0 
	CALL        _CheckTask+0, 0
	MOVF        R0, 1 
	BTFSC       STATUS+0, 2 
	GOTO        L_State4166
;FirmV_0_7_0.c,896 :: 		{StartMotor(1,_Close);Logger("S4 Motor1Start",1);}
	MOVLW       1
	MOVWF       FARG_StartMotor+0 
	CLRF        FARG_StartMotor+0 
	CALL        _StartMotor+0, 0
	MOVLW       ?lstr24_FirmV_0_7_0+0
	MOVWF       FARG_Logger_text+0 
	MOVLW       hi_addr(?lstr24_FirmV_0_7_0+0)
	MOVWF       FARG_Logger_text+1 
	MOVLW       1
	MOVWF       FARG_Logger_TimeStampFlag+0 
	CALL        _Logger+0, 0
L_State4166:
;FirmV_0_7_0.c,898 :: 		if(CheckTask(2))
	MOVLW       2
	MOVWF       FARG_CheckTask+0 
	CALL        _CheckTask+0, 0
	MOVF        R0, 1 
	BTFSC       STATUS+0, 2 
	GOTO        L_State4167
;FirmV_0_7_0.c,899 :: 		{StartMotor(2,_Close);Logger("S4 Motor2Start",1);memcpy(LCDLine1,_closing,16);memcpy(LCDLine2,_Blank,16);LCDUpdateFlag=1;LCDLines=1;}
	MOVLW       2
	MOVWF       FARG_StartMotor+0 
	CLRF        FARG_StartMotor+0 
	CALL        _StartMotor+0, 0
	MOVLW       ?lstr25_FirmV_0_7_0+0
	MOVWF       FARG_Logger_text+0 
	MOVLW       hi_addr(?lstr25_FirmV_0_7_0+0)
	MOVWF       FARG_Logger_text+1 
	MOVLW       1
	MOVWF       FARG_Logger_TimeStampFlag+0 
	CALL        _Logger+0, 0
	MOVLW       _LCDLine1+0
	MOVWF       FARG_memcpy_d1+0 
	MOVLW       hi_addr(_LCDLine1+0)
	MOVWF       FARG_memcpy_d1+1 
	MOVLW       __closing+0
	MOVWF       FARG_memcpy_s1+0 
	MOVLW       hi_addr(__closing+0)
	MOVWF       FARG_memcpy_s1+1 
	MOVLW       16
	MOVWF       FARG_memcpy_n+0 
	MOVLW       0
	MOVWF       FARG_memcpy_n+1 
	CALL        _memcpy+0, 0
	MOVLW       _LCDLine2+0
	MOVWF       FARG_memcpy_d1+0 
	MOVLW       hi_addr(_LCDLine2+0)
	MOVWF       FARG_memcpy_d1+1 
	MOVLW       __Blank+0
	MOVWF       FARG_memcpy_s1+0 
	MOVLW       hi_addr(__Blank+0)
	MOVWF       FARG_memcpy_s1+1 
	MOVLW       16
	MOVWF       FARG_memcpy_n+0 
	MOVLW       0
	MOVWF       FARG_memcpy_n+1 
	CALL        _memcpy+0, 0
	MOVLW       1
	MOVWF       _LCDUpdateFlag+0 
	MOVLW       1
	MOVWF       _LCDLines+0 
L_State4167:
;FirmV_0_7_0.c,901 :: 		if(CheckTask(10))
	MOVLW       10
	MOVWF       FARG_CheckTask+0 
	CALL        _CheckTask+0, 0
	MOVF        R0, 1 
	BTFSC       STATUS+0, 2 
	GOTO        L_State4168
;FirmV_0_7_0.c,902 :: 		{OverloadCheckFlag1=1; OverloadInit(1);Logger("S4 M1 Overload Check",1);}
	MOVLW       1
	MOVWF       _OverloadCheckFlag1+0 
	MOVLW       1
	MOVWF       FARG_OverloadInit+0 
	CALL        _OverloadInit+0, 0
	MOVLW       ?lstr26_FirmV_0_7_0+0
	MOVWF       FARG_Logger_text+0 
	MOVLW       hi_addr(?lstr26_FirmV_0_7_0+0)
	MOVWF       FARG_Logger_text+1 
	MOVLW       1
	MOVWF       FARG_Logger_TimeStampFlag+0 
	CALL        _Logger+0, 0
L_State4168:
;FirmV_0_7_0.c,904 :: 		if(CheckTask(11))
	MOVLW       11
	MOVWF       FARG_CheckTask+0 
	CALL        _CheckTask+0, 0
	MOVF        R0, 1 
	BTFSC       STATUS+0, 2 
	GOTO        L_State4169
;FirmV_0_7_0.c,905 :: 		{OverloadCheckFlag2=1; OverloadInit(2);Logger("S4 M2 Overload Check",1);}
	MOVLW       1
	MOVWF       _OverloadCheckFlag2+0 
	MOVLW       2
	MOVWF       FARG_OverloadInit+0 
	CALL        _OverloadInit+0, 0
	MOVLW       ?lstr27_FirmV_0_7_0+0
	MOVWF       FARG_Logger_text+0 
	MOVLW       hi_addr(?lstr27_FirmV_0_7_0+0)
	MOVWF       FARG_Logger_text+1 
	MOVLW       1
	MOVWF       FARG_Logger_TimeStampFlag+0 
	CALL        _Logger+0, 0
L_State4169:
;FirmV_0_7_0.c,907 :: 		if(CheckTask(5))
	MOVLW       5
	MOVWF       FARG_CheckTask+0 
	CALL        _CheckTask+0, 0
	MOVF        R0, 1 
	BTFSC       STATUS+0, 2 
	GOTO        L_State4170
;FirmV_0_7_0.c,908 :: 		{SetMotorSpeed(1,Motor2FullSpeed); OverloadCheckFlag1=0; M1isSlow=0;Logger("S4 M1 Speed UP",1);}
	MOVLW       1
	MOVWF       FARG_SetMotorSpeed+0 
	MOVF        _Motor2FullSpeed+0, 0 
	MOVWF       FARG_SetMotorSpeed+0 
	CALL        _SetMotorSpeed+0, 0
	CLRF        _OverloadCheckFlag1+0 
	CLRF        _M1isSlow+0 
	MOVLW       ?lstr28_FirmV_0_7_0+0
	MOVWF       FARG_Logger_text+0 
	MOVLW       hi_addr(?lstr28_FirmV_0_7_0+0)
	MOVWF       FARG_Logger_text+1 
	MOVLW       1
	MOVWF       FARG_Logger_TimeStampFlag+0 
	CALL        _Logger+0, 0
L_State4170:
;FirmV_0_7_0.c,910 :: 		if(CheckTask(7))
	MOVLW       7
	MOVWF       FARG_CheckTask+0 
	CALL        _CheckTask+0, 0
	MOVF        R0, 1 
	BTFSC       STATUS+0, 2 
	GOTO        L_State4171
;FirmV_0_7_0.c,911 :: 		{SetMotorSpeed(0,Motor2FullSpeed); OverloadCheckFlag1=0; M1isSlow=1;Logger("S4 M1 Speed Down",1);}
	CLRF        FARG_SetMotorSpeed+0 
	MOVF        _Motor2FullSpeed+0, 0 
	MOVWF       FARG_SetMotorSpeed+0 
	CALL        _SetMotorSpeed+0, 0
	CLRF        _OverloadCheckFlag1+0 
	MOVLW       1
	MOVWF       _M1isSlow+0 
	MOVLW       ?lstr29_FirmV_0_7_0+0
	MOVWF       FARG_Logger_text+0 
	MOVLW       hi_addr(?lstr29_FirmV_0_7_0+0)
	MOVWF       FARG_Logger_text+1 
	MOVLW       1
	MOVWF       FARG_Logger_TimeStampFlag+0 
	CALL        _Logger+0, 0
L_State4171:
;FirmV_0_7_0.c,913 :: 		if(CheckTask(6))
	MOVLW       6
	MOVWF       FARG_CheckTask+0 
	CALL        _CheckTask+0, 0
	MOVF        R0, 1 
	BTFSC       STATUS+0, 2 
	GOTO        L_State4172
;FirmV_0_7_0.c,914 :: 		{SetMotorSpeed(Motor1FullSpeed,1); M2isSlow=0;Logger("S4 M2 Speed UP",1);}
	MOVF        _Motor1FullSpeed+0, 0 
	MOVWF       FARG_SetMotorSpeed+0 
	MOVLW       1
	MOVWF       FARG_SetMotorSpeed+0 
	CALL        _SetMotorSpeed+0, 0
	CLRF        _M2isSlow+0 
	MOVLW       ?lstr30_FirmV_0_7_0+0
	MOVWF       FARG_Logger_text+0 
	MOVLW       hi_addr(?lstr30_FirmV_0_7_0+0)
	MOVWF       FARG_Logger_text+1 
	MOVLW       1
	MOVWF       FARG_Logger_TimeStampFlag+0 
	CALL        _Logger+0, 0
L_State4172:
;FirmV_0_7_0.c,916 :: 		if(CheckTask(8))
	MOVLW       8
	MOVWF       FARG_CheckTask+0 
	CALL        _CheckTask+0, 0
	MOVF        R0, 1 
	BTFSC       STATUS+0, 2 
	GOTO        L_State4173
;FirmV_0_7_0.c,917 :: 		{SetMotorSpeed(Motor1FullSpeed,0); M2isSlow=1;Logger("S4 M2 Speed Down",1);}
	MOVF        _Motor1FullSpeed+0, 0 
	MOVWF       FARG_SetMotorSpeed+0 
	CLRF        FARG_SetMotorSpeed+0 
	CALL        _SetMotorSpeed+0, 0
	MOVLW       1
	MOVWF       _M2isSlow+0 
	MOVLW       ?lstr31_FirmV_0_7_0+0
	MOVWF       FARG_Logger_text+0 
	MOVLW       hi_addr(?lstr31_FirmV_0_7_0+0)
	MOVWF       FARG_Logger_text+1 
	MOVLW       1
	MOVWF       FARG_Logger_TimeStampFlag+0 
	CALL        _Logger+0, 0
L_State4173:
;FirmV_0_7_0.c,919 :: 		if(CheckTask(3))
	MOVLW       3
	MOVWF       FARG_CheckTask+0 
	CALL        _CheckTask+0, 0
	MOVF        R0, 1 
	BTFSC       STATUS+0, 2 
	GOTO        L_State4174
;FirmV_0_7_0.c,920 :: 		{CloseDone.b0=0; StopMotor(1);Logger("S4 M1 Stoped",1);}
	BCF         _CloseDone+0, 0 
	MOVLW       1
	MOVWF       FARG_StopMotor+0 
	CALL        _StopMotor+0, 0
	MOVLW       ?lstr32_FirmV_0_7_0+0
	MOVWF       FARG_Logger_text+0 
	MOVLW       hi_addr(?lstr32_FirmV_0_7_0+0)
	MOVWF       FARG_Logger_text+1 
	MOVLW       1
	MOVWF       FARG_Logger_TimeStampFlag+0 
	CALL        _Logger+0, 0
L_State4174:
;FirmV_0_7_0.c,922 :: 		if(CheckTask(4))
	MOVLW       4
	MOVWF       FARG_CheckTask+0 
	CALL        _CheckTask+0, 0
	MOVF        R0, 1 
	BTFSC       STATUS+0, 2 
	GOTO        L_State4175
;FirmV_0_7_0.c,923 :: 		{CloseDone.b1=0; StopMotor(2);Logger("S4 M2 Stoped",1);}
	BCF         _CloseDone+0, 1 
	MOVLW       2
	MOVWF       FARG_StopMotor+0 
	CALL        _StopMotor+0, 0
	MOVLW       ?lstr33_FirmV_0_7_0+0
	MOVWF       FARG_Logger_text+0 
	MOVLW       hi_addr(?lstr33_FirmV_0_7_0+0)
	MOVWF       FARG_Logger_text+1 
	MOVLW       1
	MOVWF       FARG_Logger_TimeStampFlag+0 
	CALL        _Logger+0, 0
L_State4175:
;FirmV_0_7_0.c,925 :: 		if((OverloadCheckFlag1==1)&&(Events.Overload.b0==1)&&(M1isSlow==0))
	MOVF        _OverloadCheckFlag1+0, 0 
	XORLW       1
	BTFSS       STATUS+0, 2 
	GOTO        L_State4178
	BTFSS       _Events+5, 0 
	GOTO        L_State4178
	MOVF        _M1isSlow+0, 0 
	XORLW       0
	BTFSS       STATUS+0, 2 
	GOTO        L_State4178
L__State4899:
;FirmV_0_7_0.c,926 :: 		{StopMotor(1); StopMotor(2); State=6;OverloadCheckFlag1=0;OverloadCheckFlag2=0;Logger("S4 M1 Overloaded",1);ClearTasks(9);
	MOVLW       1
	MOVWF       FARG_StopMotor+0 
	CALL        _StopMotor+0, 0
	MOVLW       2
	MOVWF       FARG_StopMotor+0 
	CALL        _StopMotor+0, 0
	MOVLW       6
	MOVWF       _State+0 
	CLRF        _OverloadCheckFlag1+0 
	CLRF        _OverloadCheckFlag2+0 
	MOVLW       ?lstr34_FirmV_0_7_0+0
	MOVWF       FARG_Logger_text+0 
	MOVLW       hi_addr(?lstr34_FirmV_0_7_0+0)
	MOVWF       FARG_Logger_text+1 
	MOVLW       1
	MOVWF       FARG_Logger_TimeStampFlag+0 
	CALL        _Logger+0, 0
	MOVLW       9
	MOVWF       FARG_ClearTasks+0 
	CALL        _ClearTasks+0, 0
;FirmV_0_7_0.c,927 :: 		memcpy(LCDLine1,_ErrOverload,16);LCDUpdateFlag=1;LCDLines=1;}
	MOVLW       _LCDLine1+0
	MOVWF       FARG_memcpy_d1+0 
	MOVLW       hi_addr(_LCDLine1+0)
	MOVWF       FARG_memcpy_d1+1 
	MOVLW       __errOverload+0
	MOVWF       FARG_memcpy_s1+0 
	MOVLW       hi_addr(__errOverload+0)
	MOVWF       FARG_memcpy_s1+1 
	MOVLW       16
	MOVWF       FARG_memcpy_n+0 
	MOVLW       0
	MOVWF       FARG_memcpy_n+1 
	CALL        _memcpy+0, 0
	MOVLW       1
	MOVWF       _LCDUpdateFlag+0 
	MOVLW       1
	MOVWF       _LCDLines+0 
L_State4178:
;FirmV_0_7_0.c,929 :: 		if((OverloadCheckFlag2==1)&&(Events.Overload.b1==1)&&(M2isSlow==0))
	MOVF        _OverloadCheckFlag2+0, 0 
	XORLW       1
	BTFSS       STATUS+0, 2 
	GOTO        L_State4181
	BTFSS       _Events+5, 1 
	GOTO        L_State4181
	MOVF        _M2isSlow+0, 0 
	XORLW       0
	BTFSS       STATUS+0, 2 
	GOTO        L_State4181
L__State4898:
;FirmV_0_7_0.c,930 :: 		{StopMotor(1); StopMotor(2); State=6;OverloadCheckFlag1=0;OverloadCheckFlag2=0;Logger("S4 M2 Overloaded",1);ClearTasks(9);
	MOVLW       1
	MOVWF       FARG_StopMotor+0 
	CALL        _StopMotor+0, 0
	MOVLW       2
	MOVWF       FARG_StopMotor+0 
	CALL        _StopMotor+0, 0
	MOVLW       6
	MOVWF       _State+0 
	CLRF        _OverloadCheckFlag1+0 
	CLRF        _OverloadCheckFlag2+0 
	MOVLW       ?lstr35_FirmV_0_7_0+0
	MOVWF       FARG_Logger_text+0 
	MOVLW       hi_addr(?lstr35_FirmV_0_7_0+0)
	MOVWF       FARG_Logger_text+1 
	MOVLW       1
	MOVWF       FARG_Logger_TimeStampFlag+0 
	CALL        _Logger+0, 0
	MOVLW       9
	MOVWF       FARG_ClearTasks+0 
	CALL        _ClearTasks+0, 0
;FirmV_0_7_0.c,931 :: 		memcpy(LCDLine1,_ErrOverload,16);LCDUpdateFlag=1;LCDLines=1;}
	MOVLW       _LCDLine1+0
	MOVWF       FARG_memcpy_d1+0 
	MOVLW       hi_addr(_LCDLine1+0)
	MOVWF       FARG_memcpy_d1+1 
	MOVLW       __errOverload+0
	MOVWF       FARG_memcpy_s1+0 
	MOVLW       hi_addr(__errOverload+0)
	MOVWF       FARG_memcpy_s1+1 
	MOVLW       16
	MOVWF       FARG_memcpy_n+0 
	MOVLW       0
	MOVWF       FARG_memcpy_n+1 
	CALL        _memcpy+0, 0
	MOVLW       1
	MOVWF       _LCDUpdateFlag+0 
	MOVLW       1
	MOVWF       _LCDLines+0 
L_State4181:
;FirmV_0_7_0.c,933 :: 		if((Door2OpenTime==0)||(ActiveDoors==1))
	MOVF        _Door2OpenTime+0, 0 
	XORLW       0
	BTFSC       STATUS+0, 2 
	GOTO        L__State4897
	MOVF        _ActiveDoors+0, 0 
	XORLW       1
	BTFSC       STATUS+0, 2 
	GOTO        L__State4897
	GOTO        L_State4184
L__State4897:
;FirmV_0_7_0.c,934 :: 		CloseDone.b1=0;
	BCF         _CloseDone+0, 1 
L_State4184:
;FirmV_0_7_0.c,936 :: 		if(KeyNoiseEliminator>=NoiseEliminatorTreshold)
	MOVLW       3
	SUBWF       _KeyNoiseEliminator+0, 0 
	BTFSS       STATUS+0, 0 
	GOTO        L_State4185
;FirmV_0_7_0.c,939 :: 		if((Events.Photocell.b0==1))
	BTFSS       _Events+6, 0 
	GOTO        L_State4186
;FirmV_0_7_0.c,940 :: 		{StopMotor(1); StopMotor(2); OverloadCheckFlag1=0;OverloadCheckFlag2=0;State=6;PhotocellOpenFlag=1;Logger("S4 Photocell Int",1);ClearTasks(0);
	MOVLW       1
	MOVWF       FARG_StopMotor+0 
	CALL        _StopMotor+0, 0
	MOVLW       2
	MOVWF       FARG_StopMotor+0 
	CALL        _StopMotor+0, 0
	CLRF        _OverloadCheckFlag1+0 
	CLRF        _OverloadCheckFlag2+0 
	MOVLW       6
	MOVWF       _State+0 
	MOVLW       1
	MOVWF       _PhotocellOpenFlag+0 
	MOVLW       ?lstr36_FirmV_0_7_0+0
	MOVWF       FARG_Logger_text+0 
	MOVLW       hi_addr(?lstr36_FirmV_0_7_0+0)
	MOVWF       FARG_Logger_text+1 
	MOVLW       1
	MOVWF       FARG_Logger_TimeStampFlag+0 
	CALL        _Logger+0, 0
	CLRF        FARG_ClearTasks+0 
	CALL        _ClearTasks+0, 0
;FirmV_0_7_0.c,941 :: 		memcpy(LCDLine1,_ErrPhoto,16);LCDUpdateFlag=1;LCDLines=1;}
	MOVLW       _LCDLine1+0
	MOVWF       FARG_memcpy_d1+0 
	MOVLW       hi_addr(_LCDLine1+0)
	MOVWF       FARG_memcpy_d1+1 
	MOVLW       __errPhoto+0
	MOVWF       FARG_memcpy_s1+0 
	MOVLW       hi_addr(__errPhoto+0)
	MOVWF       FARG_memcpy_s1+1 
	MOVLW       16
	MOVWF       FARG_memcpy_n+0 
	MOVLW       0
	MOVWF       FARG_memcpy_n+1 
	CALL        _memcpy+0, 0
	MOVLW       1
	MOVWF       _LCDUpdateFlag+0 
	MOVLW       1
	MOVWF       _LCDLines+0 
L_State4186:
;FirmV_0_7_0.c,943 :: 		if((Events.Limiter==2)&&(LimiterEnable))
	MOVF        _Events+7, 0 
	XORLW       2
	BTFSS       STATUS+0, 2 
	GOTO        L_State4189
	MOVF        _LimiterEnable+0, 1 
	BTFSC       STATUS+0, 2 
	GOTO        L_State4189
L__State4896:
;FirmV_0_7_0.c,944 :: 		{StopMotor(1); StopMotor(2); State=6;OverloadCheckFlag1=0;OverloadCheckFlag2=0;Logger("S4 Limit Switch Stop",1);ClearTasks(9);
	MOVLW       1
	MOVWF       FARG_StopMotor+0 
	CALL        _StopMotor+0, 0
	MOVLW       2
	MOVWF       FARG_StopMotor+0 
	CALL        _StopMotor+0, 0
	MOVLW       6
	MOVWF       _State+0 
	CLRF        _OverloadCheckFlag1+0 
	CLRF        _OverloadCheckFlag2+0 
	MOVLW       ?lstr37_FirmV_0_7_0+0
	MOVWF       FARG_Logger_text+0 
	MOVLW       hi_addr(?lstr37_FirmV_0_7_0+0)
	MOVWF       FARG_Logger_text+1 
	MOVLW       1
	MOVWF       FARG_Logger_TimeStampFlag+0 
	CALL        _Logger+0, 0
	MOVLW       9
	MOVWF       FARG_ClearTasks+0 
	CALL        _ClearTasks+0, 0
;FirmV_0_7_0.c,945 :: 		memcpy(LCDLine1,_ErrLimit,16);LCDUpdateFlag=1;LCDLines=1;}
	MOVLW       _LCDLine1+0
	MOVWF       FARG_memcpy_d1+0 
	MOVLW       hi_addr(_LCDLine1+0)
	MOVWF       FARG_memcpy_d1+1 
	MOVLW       __errLimit+0
	MOVWF       FARG_memcpy_s1+0 
	MOVLW       hi_addr(__errLimit+0)
	MOVWF       FARG_memcpy_s1+1 
	MOVLW       16
	MOVWF       FARG_memcpy_n+0 
	MOVLW       0
	MOVWF       FARG_memcpy_n+1 
	CALL        _memcpy+0, 0
	MOVLW       1
	MOVWF       _LCDUpdateFlag+0 
	MOVLW       1
	MOVWF       _LCDLines+0 
L_State4189:
;FirmV_0_7_0.c,947 :: 		if((Events.Remote!=0))
	MOVF        _Events+4, 0 
	XORLW       0
	BTFSC       STATUS+0, 2 
	GOTO        L_State4190
;FirmV_0_7_0.c,948 :: 		{StopMotor(1); StopMotor(2); State=6;OverloadCheckFlag1=0;OverloadCheckFlag2=0;Logger("S4 Remote Pressed",1);ClearTasks(9);
	MOVLW       1
	MOVWF       FARG_StopMotor+0 
	CALL        _StopMotor+0, 0
	MOVLW       2
	MOVWF       FARG_StopMotor+0 
	CALL        _StopMotor+0, 0
	MOVLW       6
	MOVWF       _State+0 
	CLRF        _OverloadCheckFlag1+0 
	CLRF        _OverloadCheckFlag2+0 
	MOVLW       ?lstr38_FirmV_0_7_0+0
	MOVWF       FARG_Logger_text+0 
	MOVLW       hi_addr(?lstr38_FirmV_0_7_0+0)
	MOVWF       FARG_Logger_text+1 
	MOVLW       1
	MOVWF       FARG_Logger_TimeStampFlag+0 
	CALL        _Logger+0, 0
	MOVLW       9
	MOVWF       FARG_ClearTasks+0 
	CALL        _ClearTasks+0, 0
;FirmV_0_7_0.c,949 :: 		memcpy(LCDLine1,_ErrRemote,16);LCDUpdateFlag=1;LCDLines=1;}
	MOVLW       _LCDLine1+0
	MOVWF       FARG_memcpy_d1+0 
	MOVLW       hi_addr(_LCDLine1+0)
	MOVWF       FARG_memcpy_d1+1 
	MOVLW       __errRemote+0
	MOVWF       FARG_memcpy_s1+0 
	MOVLW       hi_addr(__errRemote+0)
	MOVWF       FARG_memcpy_s1+1 
	MOVLW       16
	MOVWF       FARG_memcpy_n+0 
	MOVLW       0
	MOVWF       FARG_memcpy_n+1 
	CALL        _memcpy+0, 0
	MOVLW       1
	MOVWF       _LCDUpdateFlag+0 
	MOVLW       1
	MOVWF       _LCDLines+0 
L_State4190:
;FirmV_0_7_0.c,950 :: 		}
L_State4185:
;FirmV_0_7_0.c,953 :: 		if(CloseDone==0)
	MOVF        _CloseDone+0, 0 
	XORLW       0
	BTFSS       STATUS+0, 2 
	GOTO        L_State4191
;FirmV_0_7_0.c,954 :: 		if(LockEnable)
	MOVF        _LockEnable+0, 1 
	BTFSC       STATUS+0, 2 
	GOTO        L_State4192
;FirmV_0_7_0.c,955 :: 		{StartMotor(1,_Open);AddTask(ms500+1,14);SetMotorSpeed(1,Motor2FullSpeed);OverloadCheckFlag1=0;M1isSlow=0;SetMotorSpeed(Motor1FullSpeed,1);OverloadCheckFlag2=0;M2isSlow=0;
	MOVLW       1
	MOVWF       FARG_StartMotor+0 
	MOVLW       1
	MOVWF       FARG_StartMotor+0 
	CALL        _StartMotor+0, 0
	MOVLW       1
	ADDWF       _ms500+0, 0 
	MOVWF       FARG_AddTask+0 
	MOVLW       0
	ADDWFC      _ms500+1, 0 
	MOVWF       FARG_AddTask+1 
	MOVLW       0
	ADDWFC      _ms500+2, 0 
	MOVWF       FARG_AddTask+2 
	MOVLW       0
	ADDWFC      _ms500+3, 0 
	MOVWF       FARG_AddTask+3 
	MOVLW       14
	MOVWF       FARG_AddTask+0 
	CALL        _AddTask+0, 0
	MOVLW       1
	MOVWF       FARG_SetMotorSpeed+0 
	MOVF        _Motor2FullSpeed+0, 0 
	MOVWF       FARG_SetMotorSpeed+0 
	CALL        _SetMotorSpeed+0, 0
	CLRF        _OverloadCheckFlag1+0 
	CLRF        _M1isSlow+0 
	MOVF        _Motor1FullSpeed+0, 0 
	MOVWF       FARG_SetMotorSpeed+0 
	MOVLW       1
	MOVWF       FARG_SetMotorSpeed+0 
	CALL        _SetMotorSpeed+0, 0
	CLRF        _OverloadCheckFlag2+0 
	CLRF        _M2isSlow+0 
;FirmV_0_7_0.c,956 :: 		AddTask(ms500+RelaseTime,3);AddTask(ms500+1+RelaseTime,4);AddTask(ms500+1+RelaseTime,13);CloseDone.b2=1;}
	MOVLW       1
	ADDWF       _ms500+0, 0 
	MOVWF       FARG_AddTask+0 
	MOVLW       0
	ADDWFC      _ms500+1, 0 
	MOVWF       FARG_AddTask+1 
	MOVLW       0
	ADDWFC      _ms500+2, 0 
	MOVWF       FARG_AddTask+2 
	MOVLW       0
	ADDWFC      _ms500+3, 0 
	MOVWF       FARG_AddTask+3 
	MOVLW       3
	MOVWF       FARG_AddTask+0 
	CALL        _AddTask+0, 0
	MOVLW       1
	ADDWF       _ms500+0, 0 
	MOVWF       FARG_AddTask+0 
	MOVLW       0
	ADDWFC      _ms500+1, 0 
	MOVWF       FARG_AddTask+1 
	MOVLW       0
	ADDWFC      _ms500+2, 0 
	MOVWF       FARG_AddTask+2 
	MOVLW       0
	ADDWFC      _ms500+3, 0 
	MOVWF       FARG_AddTask+3 
	MOVLW       1
	ADDWF       FARG_AddTask+0, 1 
	MOVLW       0
	ADDWFC      FARG_AddTask+1, 1 
	ADDWFC      FARG_AddTask+2, 1 
	ADDWFC      FARG_AddTask+3, 1 
	MOVLW       4
	MOVWF       FARG_AddTask+0 
	CALL        _AddTask+0, 0
	MOVLW       1
	ADDWF       _ms500+0, 0 
	MOVWF       FARG_AddTask+0 
	MOVLW       0
	ADDWFC      _ms500+1, 0 
	MOVWF       FARG_AddTask+1 
	MOVLW       0
	ADDWFC      _ms500+2, 0 
	MOVWF       FARG_AddTask+2 
	MOVLW       0
	ADDWFC      _ms500+3, 0 
	MOVWF       FARG_AddTask+3 
	MOVLW       1
	ADDWF       FARG_AddTask+0, 1 
	MOVLW       0
	ADDWFC      FARG_AddTask+1, 1 
	ADDWFC      FARG_AddTask+2, 1 
	ADDWFC      FARG_AddTask+3, 1 
	MOVLW       13
	MOVWF       FARG_AddTask+0 
	CALL        _AddTask+0, 0
	BSF         _CloseDone+0, 2 
	GOTO        L_State4193
L_State4192:
;FirmV_0_7_0.c,958 :: 		{AddTask(ms500+1,13);CloseDone.b2=1;}
	MOVLW       1
	ADDWF       _ms500+0, 0 
	MOVWF       FARG_AddTask+0 
	MOVLW       0
	ADDWFC      _ms500+1, 0 
	MOVWF       FARG_AddTask+1 
	MOVLW       0
	ADDWFC      _ms500+2, 0 
	MOVWF       FARG_AddTask+2 
	MOVLW       0
	ADDWFC      _ms500+3, 0 
	MOVWF       FARG_AddTask+3 
	MOVLW       13
	MOVWF       FARG_AddTask+0 
	CALL        _AddTask+0, 0
	BSF         _CloseDone+0, 2 
L_State4193:
L_State4191:
;FirmV_0_7_0.c,960 :: 		if(CheckTask(14))
	MOVLW       14
	MOVWF       FARG_CheckTask+0 
	CALL        _CheckTask+0, 0
	MOVF        R0, 1 
	BTFSC       STATUS+0, 2 
	GOTO        L_State4194
;FirmV_0_7_0.c,961 :: 		StartMotor(2,_Open);
	MOVLW       2
	MOVWF       FARG_StartMotor+0 
	MOVLW       1
	MOVWF       FARG_StartMotor+0 
	CALL        _StartMotor+0, 0
L_State4194:
;FirmV_0_7_0.c,963 :: 		if(CheckTask(13))
	MOVLW       13
	MOVWF       FARG_CheckTask+0 
	CALL        _CheckTask+0, 0
	MOVF        R0, 1 
	BTFSC       STATUS+0, 2 
	GOTO        L_State4195
;FirmV_0_7_0.c,964 :: 		{State=1; PassFlag=0;PrevAC=0;ClearTasks(9);memcpy(LCDLine1,_close,16);memcpy(LCDLine2,_Blank,16);LCDUpdateFlag=1;LCDLines=1;}
	MOVLW       1
	MOVWF       _State+0 
	CLRF        _PassFlag+0 
	CLRF        _PrevAC+0 
	MOVLW       9
	MOVWF       FARG_ClearTasks+0 
	CALL        _ClearTasks+0, 0
	MOVLW       _LCDLine1+0
	MOVWF       FARG_memcpy_d1+0 
	MOVLW       hi_addr(_LCDLine1+0)
	MOVWF       FARG_memcpy_d1+1 
	MOVLW       __close+0
	MOVWF       FARG_memcpy_s1+0 
	MOVLW       hi_addr(__close+0)
	MOVWF       FARG_memcpy_s1+1 
	MOVLW       16
	MOVWF       FARG_memcpy_n+0 
	MOVLW       0
	MOVWF       FARG_memcpy_n+1 
	CALL        _memcpy+0, 0
	MOVLW       _LCDLine2+0
	MOVWF       FARG_memcpy_d1+0 
	MOVLW       hi_addr(_LCDLine2+0)
	MOVWF       FARG_memcpy_d1+1 
	MOVLW       __Blank+0
	MOVWF       FARG_memcpy_s1+0 
	MOVLW       hi_addr(__Blank+0)
	MOVWF       FARG_memcpy_s1+1 
	MOVLW       16
	MOVWF       FARG_memcpy_n+0 
	MOVLW       0
	MOVWF       FARG_memcpy_n+1 
	CALL        _memcpy+0, 0
	MOVLW       1
	MOVWF       _LCDUpdateFlag+0 
	MOVLW       1
	MOVWF       _LCDLines+0 
L_State4195:
;FirmV_0_7_0.c,966 :: 		if((State==5)||(State==6))
	MOVF        _State+0, 0 
	XORLW       5
	BTFSC       STATUS+0, 2 
	GOTO        L__State4895
	MOVF        _State+0, 0 
	XORLW       6
	BTFSC       STATUS+0, 2 
	GOTO        L__State4895
	GOTO        L_State4198
L__State4895:
;FirmV_0_7_0.c,967 :: 		{ClearTasks(0);if(AutoCloseTime!=0){PrevAC=0;AddTask(ms500+AutoCloseTime,9);AutoClosePauseFlag=0;Logger("S4 Autoclose Renewed",1);}}
	CLRF        FARG_ClearTasks+0 
	CALL        _ClearTasks+0, 0
	MOVLW       0
	XORWF       _AutoCloseTime+1, 0 
	BTFSS       STATUS+0, 2 
	GOTO        L__State41021
	MOVLW       0
	XORWF       _AutoCloseTime+0, 0 
L__State41021:
	BTFSC       STATUS+0, 2 
	GOTO        L_State4199
	CLRF        _PrevAC+0 
	MOVF        _AutoCloseTime+0, 0 
	ADDWF       _ms500+0, 0 
	MOVWF       FARG_AddTask+0 
	MOVF        _AutoCloseTime+1, 0 
	ADDWFC      _ms500+1, 0 
	MOVWF       FARG_AddTask+1 
	MOVLW       0
	ADDWFC      _ms500+2, 0 
	MOVWF       FARG_AddTask+2 
	MOVLW       0
	ADDWFC      _ms500+3, 0 
	MOVWF       FARG_AddTask+3 
	MOVLW       9
	MOVWF       FARG_AddTask+0 
	CALL        _AddTask+0, 0
	CLRF        _AutoClosePauseFlag+0 
	MOVLW       ?lstr39_FirmV_0_7_0+0
	MOVWF       FARG_Logger_text+0 
	MOVLW       hi_addr(?lstr39_FirmV_0_7_0+0)
	MOVWF       FARG_Logger_text+1 
	MOVLW       1
	MOVWF       FARG_Logger_TimeStampFlag+0 
	CALL        _Logger+0, 0
L_State4199:
L_State4198:
;FirmV_0_7_0.c,969 :: 		}
L_end_State4:
	RETURN      0
; end of _State4

_State5:

;FirmV_0_7_0.c,984 :: 		void State5()
;FirmV_0_7_0.c,986 :: 		char delay=2;
	MOVLW       2
	MOVWF       State5_delay_L0+0 
;FirmV_0_7_0.c,987 :: 		Flasher=0;
	BCF         PORTD+0, 7 
;FirmV_0_7_0.c,988 :: 		FlashFlag=0;
	CLRF        _FlashFlag+0 
;FirmV_0_7_0.c,990 :: 		if(ReturnAutoclose()!=PrevAC)
	CALL        _ReturnAutoclose+0, 0
	MOVF        R0, 0 
	XORWF       _PrevAC+0, 0 
	BTFSC       STATUS+0, 2 
	GOTO        L_State5200
;FirmV_0_7_0.c,992 :: 		LCDFlashFlag=0;
	CLRF        _LCDFlashFlag+0 
;FirmV_0_7_0.c,993 :: 		PrevAC=ReturnAutoclose();
	CALL        _ReturnAutoclose+0, 0
	MOVF        R0, 0 
	MOVWF       _PrevAC+0 
;FirmV_0_7_0.c,994 :: 		charValueToStr_AC(PrevAC,LCDLine2+11);
	MOVF        R0, 0 
	MOVWF       FARG_charValueToStr_AC+0 
	MOVLW       _LCDLine2+11
	MOVWF       FARG_charValueToStr_AC+0 
	MOVLW       hi_addr(_LCDLine2+11)
	MOVWF       FARG_charValueToStr_AC+1 
	CALL        _charValueToStr_AC+0, 0
;FirmV_0_7_0.c,995 :: 		memcpy(LCDLine2,"Close after",11);
	MOVLW       _LCDLine2+0
	MOVWF       FARG_memcpy_d1+0 
	MOVLW       hi_addr(_LCDLine2+0)
	MOVWF       FARG_memcpy_d1+1 
	MOVLW       ?lstr40_FirmV_0_7_0+0
	MOVWF       FARG_memcpy_s1+0 
	MOVLW       hi_addr(?lstr40_FirmV_0_7_0+0)
	MOVWF       FARG_memcpy_s1+1 
	MOVLW       11
	MOVWF       FARG_memcpy_n+0 
	MOVLW       0
	MOVWF       FARG_memcpy_n+1 
	CALL        _memcpy+0, 0
;FirmV_0_7_0.c,996 :: 		LCDUpdateFlag=1;
	MOVLW       1
	MOVWF       _LCDUpdateFlag+0 
;FirmV_0_7_0.c,997 :: 		LCDLines=2;
	MOVLW       2
	MOVWF       _LCDLines+0 
;FirmV_0_7_0.c,998 :: 		}
L_State5200:
;FirmV_0_7_0.c,1000 :: 		if((Events.Remote!=0)||(CheckTask(9)==1))
	MOVF        _Events+4, 0 
	XORLW       0
	BTFSS       STATUS+0, 2 
	GOTO        L__State5904
	MOVLW       9
	MOVWF       FARG_CheckTask+0 
	CALL        _CheckTask+0, 0
	MOVF        R0, 0 
	XORLW       1
	BTFSC       STATUS+0, 2 
	GOTO        L__State5904
	GOTO        L_State5203
L__State5904:
;FirmV_0_7_0.c,1002 :: 		if((Door2CloseTime==0)||(ActiveDoors==1))
	MOVF        _Door2CloseTime+0, 0 
	XORLW       0
	BTFSC       STATUS+0, 2 
	GOTO        L__State5903
	MOVF        _ActiveDoors+0, 0 
	XORLW       1
	BTFSC       STATUS+0, 2 
	GOTO        L__State5903
	GOTO        L_State5206
L__State5903:
;FirmV_0_7_0.c,1004 :: 		ClearTasks(0);
	CLRF        FARG_ClearTasks+0 
	CALL        _ClearTasks+0, 0
;FirmV_0_7_0.c,1005 :: 		temp=ms500+delay;
	MOVF        State5_delay_L0+0, 0 
	ADDWF       _ms500+0, 0 
	MOVWF       R0 
	MOVLW       0
	ADDWFC      _ms500+1, 0 
	MOVWF       R1 
	MOVLW       0
	ADDWFC      _ms500+2, 0 
	MOVWF       R2 
	MOVLW       0
	ADDWFC      _ms500+3, 0 
	MOVWF       R3 
	MOVF        R0, 0 
	MOVWF       _temp+0 
	MOVF        R1, 0 
	MOVWF       _temp+1 
	MOVF        R2, 0 
	MOVWF       _temp+2 
	MOVF        R3, 0 
	MOVWF       _temp+3 
;FirmV_0_7_0.c,1006 :: 		AddTask(temp,1);
	MOVF        R0, 0 
	MOVWF       FARG_AddTask+0 
	MOVF        R1, 0 
	MOVWF       FARG_AddTask+1 
	MOVF        R2, 0 
	MOVWF       FARG_AddTask+2 
	MOVF        R3, 0 
	MOVWF       FARG_AddTask+3 
	MOVLW       1
	MOVWF       FARG_AddTask+0 
	CALL        _AddTask+0, 0
;FirmV_0_7_0.c,1007 :: 		AddTask(temp,5);
	MOVF        _temp+0, 0 
	MOVWF       FARG_AddTask+0 
	MOVF        _temp+1, 0 
	MOVWF       FARG_AddTask+1 
	MOVF        _temp+2, 0 
	MOVWF       FARG_AddTask+2 
	MOVF        _temp+3, 0 
	MOVWF       FARG_AddTask+3 
	MOVLW       5
	MOVWF       FARG_AddTask+0 
	CALL        _AddTask+0, 0
;FirmV_0_7_0.c,1008 :: 		M1isSlow=0;//speed up
	CLRF        _M1isSlow+0 
;FirmV_0_7_0.c,1009 :: 		temp=ms500+OverloadDelay+delay;
	MOVLW       6
	ADDWF       _ms500+0, 0 
	MOVWF       R0 
	MOVLW       0
	ADDWFC      _ms500+1, 0 
	MOVWF       R1 
	MOVLW       0
	ADDWFC      _ms500+2, 0 
	MOVWF       R2 
	MOVLW       0
	ADDWFC      _ms500+3, 0 
	MOVWF       R3 
	MOVF        State5_delay_L0+0, 0 
	ADDWF       R0, 1 
	MOVLW       0
	ADDWFC      R1, 1 
	ADDWFC      R2, 1 
	ADDWFC      R3, 1 
	MOVF        R0, 0 
	MOVWF       _temp+0 
	MOVF        R1, 0 
	MOVWF       _temp+1 
	MOVF        R2, 0 
	MOVWF       _temp+2 
	MOVF        R3, 0 
	MOVWF       _temp+3 
;FirmV_0_7_0.c,1010 :: 		AddTask(temp,10); //overload check
	MOVF        R0, 0 
	MOVWF       FARG_AddTask+0 
	MOVF        R1, 0 
	MOVWF       FARG_AddTask+1 
	MOVF        R2, 0 
	MOVWF       FARG_AddTask+2 
	MOVF        R3, 0 
	MOVWF       FARG_AddTask+3 
	MOVLW       10
	MOVWF       FARG_AddTask+0 
	CALL        _AddTask+0, 0
;FirmV_0_7_0.c,1011 :: 		temp=ms500+Door1CloseTime+delay;
	MOVF        _Door1CloseTime+0, 0 
	ADDWF       _ms500+0, 0 
	MOVWF       R0 
	MOVLW       0
	ADDWFC      _ms500+1, 0 
	MOVWF       R1 
	MOVLW       0
	ADDWFC      _ms500+2, 0 
	MOVWF       R2 
	MOVLW       0
	ADDWFC      _ms500+3, 0 
	MOVWF       R3 
	MOVF        State5_delay_L0+0, 0 
	ADDWF       R0, 1 
	MOVLW       0
	ADDWFC      R1, 1 
	ADDWFC      R2, 1 
	ADDWFC      R3, 1 
	MOVF        R0, 0 
	MOVWF       _temp+0 
	MOVF        R1, 0 
	MOVWF       _temp+1 
	MOVF        R2, 0 
	MOVWF       _temp+2 
	MOVF        R3, 0 
	MOVWF       _temp+3 
;FirmV_0_7_0.c,1012 :: 		AddTask(temp,3);//Stop motor
	MOVF        R0, 0 
	MOVWF       FARG_AddTask+0 
	MOVF        R1, 0 
	MOVWF       FARG_AddTask+1 
	MOVF        R2, 0 
	MOVWF       FARG_AddTask+2 
	MOVF        R3, 0 
	MOVWF       FARG_AddTask+3 
	MOVLW       3
	MOVWF       FARG_AddTask+0 
	CALL        _AddTask+0, 0
;FirmV_0_7_0.c,1013 :: 		}
L_State5206:
;FirmV_0_7_0.c,1014 :: 		if((Door2CloseTime!=0)&&(ActiveDoors==2))
	MOVF        _Door2CloseTime+0, 0 
	XORLW       0
	BTFSC       STATUS+0, 2 
	GOTO        L_State5209
	MOVF        _ActiveDoors+0, 0 
	XORLW       2
	BTFSS       STATUS+0, 2 
	GOTO        L_State5209
L__State5902:
;FirmV_0_7_0.c,1016 :: 		ClearTasks(9);
	MOVLW       9
	MOVWF       FARG_ClearTasks+0 
	CALL        _ClearTasks+0, 0
;FirmV_0_7_0.c,1017 :: 		temp=ms500+delay;
	MOVF        State5_delay_L0+0, 0 
	ADDWF       _ms500+0, 0 
	MOVWF       R0 
	MOVLW       0
	ADDWFC      _ms500+1, 0 
	MOVWF       R1 
	MOVLW       0
	ADDWFC      _ms500+2, 0 
	MOVWF       R2 
	MOVLW       0
	ADDWFC      _ms500+3, 0 
	MOVWF       R3 
	MOVF        R0, 0 
	MOVWF       _temp+0 
	MOVF        R1, 0 
	MOVWF       _temp+1 
	MOVF        R2, 0 
	MOVWF       _temp+2 
	MOVF        R3, 0 
	MOVWF       _temp+3 
;FirmV_0_7_0.c,1018 :: 		AddTask(temp,2);
	MOVF        R0, 0 
	MOVWF       FARG_AddTask+0 
	MOVF        R1, 0 
	MOVWF       FARG_AddTask+1 
	MOVF        R2, 0 
	MOVWF       FARG_AddTask+2 
	MOVF        R3, 0 
	MOVWF       FARG_AddTask+3 
	MOVLW       2
	MOVWF       FARG_AddTask+0 
	CALL        _AddTask+0, 0
;FirmV_0_7_0.c,1019 :: 		AddTask(temp,6);
	MOVF        _temp+0, 0 
	MOVWF       FARG_AddTask+0 
	MOVF        _temp+1, 0 
	MOVWF       FARG_AddTask+1 
	MOVF        _temp+2, 0 
	MOVWF       FARG_AddTask+2 
	MOVF        _temp+3, 0 
	MOVWF       FARG_AddTask+3 
	MOVLW       6
	MOVWF       FARG_AddTask+0 
	CALL        _AddTask+0, 0
;FirmV_0_7_0.c,1020 :: 		M1isSlow=0;//speed up
	CLRF        _M1isSlow+0 
;FirmV_0_7_0.c,1021 :: 		temp=ms500+OverloadDelay+delay;
	MOVLW       6
	ADDWF       _ms500+0, 0 
	MOVWF       R0 
	MOVLW       0
	ADDWFC      _ms500+1, 0 
	MOVWF       R1 
	MOVLW       0
	ADDWFC      _ms500+2, 0 
	MOVWF       R2 
	MOVLW       0
	ADDWFC      _ms500+3, 0 
	MOVWF       R3 
	MOVF        State5_delay_L0+0, 0 
	ADDWF       R0, 1 
	MOVLW       0
	ADDWFC      R1, 1 
	ADDWFC      R2, 1 
	ADDWFC      R3, 1 
	MOVF        R0, 0 
	MOVWF       _temp+0 
	MOVF        R1, 0 
	MOVWF       _temp+1 
	MOVF        R2, 0 
	MOVWF       _temp+2 
	MOVF        R3, 0 
	MOVWF       _temp+3 
;FirmV_0_7_0.c,1022 :: 		AddTask(temp,11); //overload check
	MOVF        R0, 0 
	MOVWF       FARG_AddTask+0 
	MOVF        R1, 0 
	MOVWF       FARG_AddTask+1 
	MOVF        R2, 0 
	MOVWF       FARG_AddTask+2 
	MOVF        R3, 0 
	MOVWF       FARG_AddTask+3 
	MOVLW       11
	MOVWF       FARG_AddTask+0 
	CALL        _AddTask+0, 0
;FirmV_0_7_0.c,1023 :: 		temp=ms500+Door1CloseTime+delay;
	MOVF        _Door1CloseTime+0, 0 
	ADDWF       _ms500+0, 0 
	MOVWF       R0 
	MOVLW       0
	ADDWFC      _ms500+1, 0 
	MOVWF       R1 
	MOVLW       0
	ADDWFC      _ms500+2, 0 
	MOVWF       R2 
	MOVLW       0
	ADDWFC      _ms500+3, 0 
	MOVWF       R3 
	MOVF        State5_delay_L0+0, 0 
	ADDWF       R0, 1 
	MOVLW       0
	ADDWFC      R1, 1 
	ADDWFC      R2, 1 
	ADDWFC      R3, 1 
	MOVF        R0, 0 
	MOVWF       _temp+0 
	MOVF        R1, 0 
	MOVWF       _temp+1 
	MOVF        R2, 0 
	MOVWF       _temp+2 
	MOVF        R3, 0 
	MOVWF       _temp+3 
;FirmV_0_7_0.c,1024 :: 		AddTask(temp,4);//Stop motor
	MOVF        R0, 0 
	MOVWF       FARG_AddTask+0 
	MOVF        R1, 0 
	MOVWF       FARG_AddTask+1 
	MOVF        R2, 0 
	MOVWF       FARG_AddTask+2 
	MOVF        R3, 0 
	MOVWF       FARG_AddTask+3 
	MOVLW       4
	MOVWF       FARG_AddTask+0 
	CALL        _AddTask+0, 0
;FirmV_0_7_0.c,1029 :: 		temp=ms500+ActionTimeDiff+delay;
	MOVF        _ActionTimeDiff+0, 0 
	ADDWF       _ms500+0, 0 
	MOVWF       R0 
	MOVLW       0
	ADDWFC      _ms500+1, 0 
	MOVWF       R1 
	MOVLW       0
	ADDWFC      _ms500+2, 0 
	MOVWF       R2 
	MOVLW       0
	ADDWFC      _ms500+3, 0 
	MOVWF       R3 
	MOVF        State5_delay_L0+0, 0 
	ADDWF       R0, 1 
	MOVLW       0
	ADDWFC      R1, 1 
	ADDWFC      R2, 1 
	ADDWFC      R3, 1 
	MOVF        R0, 0 
	MOVWF       _temp+0 
	MOVF        R1, 0 
	MOVWF       _temp+1 
	MOVF        R2, 0 
	MOVWF       _temp+2 
	MOVF        R3, 0 
	MOVWF       _temp+3 
;FirmV_0_7_0.c,1030 :: 		AddTask(temp,1);
	MOVF        R0, 0 
	MOVWF       FARG_AddTask+0 
	MOVF        R1, 0 
	MOVWF       FARG_AddTask+1 
	MOVF        R2, 0 
	MOVWF       FARG_AddTask+2 
	MOVF        R3, 0 
	MOVWF       FARG_AddTask+3 
	MOVLW       1
	MOVWF       FARG_AddTask+0 
	CALL        _AddTask+0, 0
;FirmV_0_7_0.c,1031 :: 		temp=ms500+ActionTimeDiff+delay;
	MOVF        _ActionTimeDiff+0, 0 
	ADDWF       _ms500+0, 0 
	MOVWF       R0 
	MOVLW       0
	ADDWFC      _ms500+1, 0 
	MOVWF       R1 
	MOVLW       0
	ADDWFC      _ms500+2, 0 
	MOVWF       R2 
	MOVLW       0
	ADDWFC      _ms500+3, 0 
	MOVWF       R3 
	MOVF        State5_delay_L0+0, 0 
	ADDWF       R0, 1 
	MOVLW       0
	ADDWFC      R1, 1 
	ADDWFC      R2, 1 
	ADDWFC      R3, 1 
	MOVF        R0, 0 
	MOVWF       _temp+0 
	MOVF        R1, 0 
	MOVWF       _temp+1 
	MOVF        R2, 0 
	MOVWF       _temp+2 
	MOVF        R3, 0 
	MOVWF       _temp+3 
;FirmV_0_7_0.c,1032 :: 		AddTask(temp,5);
	MOVF        R0, 0 
	MOVWF       FARG_AddTask+0 
	MOVF        R1, 0 
	MOVWF       FARG_AddTask+1 
	MOVF        R2, 0 
	MOVWF       FARG_AddTask+2 
	MOVF        R3, 0 
	MOVWF       FARG_AddTask+3 
	MOVLW       5
	MOVWF       FARG_AddTask+0 
	CALL        _AddTask+0, 0
;FirmV_0_7_0.c,1033 :: 		M2isSlow=0;//speed up
	CLRF        _M2isSlow+0 
;FirmV_0_7_0.c,1034 :: 		temp=ms500+ActionTimeDiff+OverloadDelay+delay;
	MOVF        _ActionTimeDiff+0, 0 
	ADDWF       _ms500+0, 0 
	MOVWF       R0 
	MOVLW       0
	ADDWFC      _ms500+1, 0 
	MOVWF       R1 
	MOVLW       0
	ADDWFC      _ms500+2, 0 
	MOVWF       R2 
	MOVLW       0
	ADDWFC      _ms500+3, 0 
	MOVWF       R3 
	MOVLW       6
	ADDWF       R0, 1 
	MOVLW       0
	ADDWFC      R1, 1 
	ADDWFC      R2, 1 
	ADDWFC      R3, 1 
	MOVF        State5_delay_L0+0, 0 
	ADDWF       R0, 1 
	MOVLW       0
	ADDWFC      R1, 1 
	ADDWFC      R2, 1 
	ADDWFC      R3, 1 
	MOVF        R0, 0 
	MOVWF       _temp+0 
	MOVF        R1, 0 
	MOVWF       _temp+1 
	MOVF        R2, 0 
	MOVWF       _temp+2 
	MOVF        R3, 0 
	MOVWF       _temp+3 
;FirmV_0_7_0.c,1035 :: 		AddTask(temp,10); //overload check
	MOVF        R0, 0 
	MOVWF       FARG_AddTask+0 
	MOVF        R1, 0 
	MOVWF       FARG_AddTask+1 
	MOVF        R2, 0 
	MOVWF       FARG_AddTask+2 
	MOVF        R3, 0 
	MOVWF       FARG_AddTask+3 
	MOVLW       10
	MOVWF       FARG_AddTask+0 
	CALL        _AddTask+0, 0
;FirmV_0_7_0.c,1036 :: 		temp=ms500+Door2CloseTime+delay+ActionTimeDiff;
	MOVF        _Door2CloseTime+0, 0 
	ADDWF       _ms500+0, 0 
	MOVWF       R0 
	MOVLW       0
	ADDWFC      _ms500+1, 0 
	MOVWF       R1 
	MOVLW       0
	ADDWFC      _ms500+2, 0 
	MOVWF       R2 
	MOVLW       0
	ADDWFC      _ms500+3, 0 
	MOVWF       R3 
	MOVF        State5_delay_L0+0, 0 
	ADDWF       R0, 1 
	MOVLW       0
	ADDWFC      R1, 1 
	ADDWFC      R2, 1 
	ADDWFC      R3, 1 
	MOVF        _ActionTimeDiff+0, 0 
	ADDWF       R0, 1 
	MOVLW       0
	ADDWFC      R1, 1 
	ADDWFC      R2, 1 
	ADDWFC      R3, 1 
	MOVF        R0, 0 
	MOVWF       _temp+0 
	MOVF        R1, 0 
	MOVWF       _temp+1 
	MOVF        R2, 0 
	MOVWF       _temp+2 
	MOVF        R3, 0 
	MOVWF       _temp+3 
;FirmV_0_7_0.c,1037 :: 		AddTask(temp,3);//Stop motor
	MOVF        R0, 0 
	MOVWF       FARG_AddTask+0 
	MOVF        R1, 0 
	MOVWF       FARG_AddTask+1 
	MOVF        R2, 0 
	MOVWF       FARG_AddTask+2 
	MOVF        R3, 0 
	MOVWF       FARG_AddTask+3 
	MOVLW       3
	MOVWF       FARG_AddTask+0 
	CALL        _AddTask+0, 0
;FirmV_0_7_0.c,1038 :: 		}
L_State5209:
;FirmV_0_7_0.c,1039 :: 		CloseDone=3;
	MOVLW       3
	MOVWF       _CloseDone+0 
;FirmV_0_7_0.c,1040 :: 		OverloadCheckFlag1=0;
	CLRF        _OverloadCheckFlag1+0 
;FirmV_0_7_0.c,1041 :: 		OverloadCheckFlag2=0;
	CLRF        _OverloadCheckFlag2+0 
;FirmV_0_7_0.c,1042 :: 		KeyNoiseEliminator=0;
	CLRF        _KeyNoiseEliminator+0 
;FirmV_0_7_0.c,1043 :: 		AutoClosePauseFlag=0;
	CLRF        _AutoClosePauseFlag+0 
;FirmV_0_7_0.c,1044 :: 		State=7;
	MOVLW       7
	MOVWF       _State+0 
;FirmV_0_7_0.c,1045 :: 		}
L_State5203:
;FirmV_0_7_0.c,1047 :: 		if((Events.Photocell.b0==1)&&(AutoCloseTime!=0)&&(PassFlag==0))
	BTFSS       _Events+6, 0 
	GOTO        L_State5212
	MOVLW       0
	XORWF       _AutoCloseTime+1, 0 
	BTFSS       STATUS+0, 2 
	GOTO        L__State51023
	MOVLW       0
	XORWF       _AutoCloseTime+0, 0 
L__State51023:
	BTFSC       STATUS+0, 2 
	GOTO        L_State5212
	MOVF        _PassFlag+0, 0 
	XORLW       0
	BTFSS       STATUS+0, 2 
	GOTO        L_State5212
L__State5901:
;FirmV_0_7_0.c,1048 :: 		{PassFlag=1; AutoClosePauseFlag=1;Logger("S5 Auto Close Paused",1);}
	MOVLW       1
	MOVWF       _PassFlag+0 
	MOVLW       1
	MOVWF       _AutoClosePauseFlag+0 
	MOVLW       ?lstr41_FirmV_0_7_0+0
	MOVWF       FARG_Logger_text+0 
	MOVLW       hi_addr(?lstr41_FirmV_0_7_0+0)
	MOVWF       FARG_Logger_text+1 
	MOVLW       1
	MOVWF       FARG_Logger_TimeStampFlag+0 
	CALL        _Logger+0, 0
L_State5212:
;FirmV_0_7_0.c,1050 :: 		if((PassFlag==1)&&(Events.Photocell.b0==0)&&(AutoCloseTime!=0))
	MOVF        _PassFlag+0, 0 
	XORLW       1
	BTFSS       STATUS+0, 2 
	GOTO        L_State5215
	BTFSC       _Events+6, 0 
	GOTO        L_State5215
	MOVLW       0
	XORWF       _AutoCloseTime+1, 0 
	BTFSS       STATUS+0, 2 
	GOTO        L__State51024
	MOVLW       0
	XORWF       _AutoCloseTime+0, 0 
L__State51024:
	BTFSC       STATUS+0, 2 
	GOTO        L_State5215
L__State5900:
;FirmV_0_7_0.c,1053 :: 		{AutoClosePauseFlag=0;PassFlag=0;Logger("S5 Auto Close Resumed",1);}
	CLRF        _AutoClosePauseFlag+0 
	CLRF        _PassFlag+0 
	MOVLW       ?lstr42_FirmV_0_7_0+0
	MOVWF       FARG_Logger_text+0 
	MOVLW       hi_addr(?lstr42_FirmV_0_7_0+0)
	MOVWF       FARG_Logger_text+1 
	MOVLW       1
	MOVWF       FARG_Logger_TimeStampFlag+0 
	CALL        _Logger+0, 0
;FirmV_0_7_0.c,1054 :: 		}
L_State5215:
;FirmV_0_7_0.c,1056 :: 		}
L_end_State5:
	RETURN      0
; end of _State5

_State6:

;FirmV_0_7_0.c,1076 :: 		void State6()
;FirmV_0_7_0.c,1080 :: 		char delay=3;
	MOVLW       3
	MOVWF       State6_delay_L0+0 
;FirmV_0_7_0.c,1081 :: 		Flasher=0;
	BCF         PORTD+0, 7 
;FirmV_0_7_0.c,1082 :: 		FlashFlag=0;
	CLRF        _FlashFlag+0 
;FirmV_0_7_0.c,1084 :: 		if(ReturnAutoclose()!=PrevAC)
	CALL        _ReturnAutoclose+0, 0
	MOVF        R0, 0 
	XORWF       _PrevAC+0, 0 
	BTFSC       STATUS+0, 2 
	GOTO        L_State6217
;FirmV_0_7_0.c,1086 :: 		LCDFlashFlag=0;
	CLRF        _LCDFlashFlag+0 
;FirmV_0_7_0.c,1087 :: 		PrevAC=ReturnAutoclose();
	CALL        _ReturnAutoclose+0, 0
	MOVF        R0, 0 
	MOVWF       _PrevAC+0 
;FirmV_0_7_0.c,1088 :: 		charValueToStr_AC(PrevAC,LCDLine2+11);
	MOVF        R0, 0 
	MOVWF       FARG_charValueToStr_AC+0 
	MOVLW       _LCDLine2+11
	MOVWF       FARG_charValueToStr_AC+0 
	MOVLW       hi_addr(_LCDLine2+11)
	MOVWF       FARG_charValueToStr_AC+1 
	CALL        _charValueToStr_AC+0, 0
;FirmV_0_7_0.c,1089 :: 		memcpy(LCDLine2,"Close after",11);
	MOVLW       _LCDLine2+0
	MOVWF       FARG_memcpy_d1+0 
	MOVLW       hi_addr(_LCDLine2+0)
	MOVWF       FARG_memcpy_d1+1 
	MOVLW       ?lstr43_FirmV_0_7_0+0
	MOVWF       FARG_memcpy_s1+0 
	MOVLW       hi_addr(?lstr43_FirmV_0_7_0+0)
	MOVWF       FARG_memcpy_s1+1 
	MOVLW       11
	MOVWF       FARG_memcpy_n+0 
	MOVLW       0
	MOVWF       FARG_memcpy_n+1 
	CALL        _memcpy+0, 0
;FirmV_0_7_0.c,1090 :: 		LCDUpdateFlag=1;
	MOVLW       1
	MOVWF       _LCDUpdateFlag+0 
;FirmV_0_7_0.c,1091 :: 		LCDLines=2;
	MOVLW       2
	MOVWF       _LCDLines+0 
;FirmV_0_7_0.c,1092 :: 		}
L_State6217:
;FirmV_0_7_0.c,1095 :: 		if((Events.Remote!=0)||(PhotocellOpenFlag))
	MOVF        _Events+4, 0 
	XORLW       0
	BTFSS       STATUS+0, 2 
	GOTO        L__State6910
	MOVF        _PhotocellOpenFlag+0, 1 
	BTFSS       STATUS+0, 2 
	GOTO        L__State6910
	GOTO        L_State6220
L__State6910:
;FirmV_0_7_0.c,1097 :: 		PhotocellOpenFlag=0;
	CLRF        _PhotocellOpenFlag+0 
;FirmV_0_7_0.c,1098 :: 		Flasher=1;
	BSF         PORTD+0, 7 
;FirmV_0_7_0.c,1099 :: 		FlashFlag=1;
	MOVLW       1
	MOVWF       _FlashFlag+0 
;FirmV_0_7_0.c,1100 :: 		ClearTasks(0);
	CLRF        FARG_ClearTasks+0 
	CALL        _ClearTasks+0, 0
;FirmV_0_7_0.c,1101 :: 		if(Lockenable)
	MOVF        _LockEnable+0, 1 
	BTFSC       STATUS+0, 2 
	GOTO        L_State6221
;FirmV_0_7_0.c,1102 :: 		AddTask(ms500+1,12);
	MOVLW       1
	ADDWF       _ms500+0, 0 
	MOVWF       FARG_AddTask+0 
	MOVLW       0
	ADDWFC      _ms500+1, 0 
	MOVWF       FARG_AddTask+1 
	MOVLW       0
	ADDWFC      _ms500+2, 0 
	MOVWF       FARG_AddTask+2 
	MOVLW       0
	ADDWFC      _ms500+3, 0 
	MOVWF       FARG_AddTask+3 
	MOVLW       12
	MOVWF       FARG_AddTask+0 
	CALL        _AddTask+0, 0
L_State6221:
;FirmV_0_7_0.c,1103 :: 		temp=ms500+delay;
	MOVF        State6_delay_L0+0, 0 
	ADDWF       _ms500+0, 0 
	MOVWF       R0 
	MOVLW       0
	ADDWFC      _ms500+1, 0 
	MOVWF       R1 
	MOVLW       0
	ADDWFC      _ms500+2, 0 
	MOVWF       R2 
	MOVLW       0
	ADDWFC      _ms500+3, 0 
	MOVWF       R3 
	MOVF        R0, 0 
	MOVWF       _temp+0 
	MOVF        R1, 0 
	MOVWF       _temp+1 
	MOVF        R2, 0 
	MOVWF       _temp+2 
	MOVF        R3, 0 
	MOVWF       _temp+3 
;FirmV_0_7_0.c,1104 :: 		AddTask(temp,1);
	MOVF        R0, 0 
	MOVWF       FARG_AddTask+0 
	MOVF        R1, 0 
	MOVWF       FARG_AddTask+1 
	MOVF        R2, 0 
	MOVWF       FARG_AddTask+2 
	MOVF        R3, 0 
	MOVWF       FARG_AddTask+3 
	MOVLW       1
	MOVWF       FARG_AddTask+0 
	CALL        _AddTask+0, 0
;FirmV_0_7_0.c,1105 :: 		AddTask(temp,5);
	MOVF        _temp+0, 0 
	MOVWF       FARG_AddTask+0 
	MOVF        _temp+1, 0 
	MOVWF       FARG_AddTask+1 
	MOVF        _temp+2, 0 
	MOVWF       FARG_AddTask+2 
	MOVF        _temp+3, 0 
	MOVWF       FARG_AddTask+3 
	MOVLW       5
	MOVWF       FARG_AddTask+0 
	CALL        _AddTask+0, 0
;FirmV_0_7_0.c,1106 :: 		M1isSlow=0;//speed up
	CLRF        _M1isSlow+0 
;FirmV_0_7_0.c,1107 :: 		temp=ms500+OverloadDelay+delay;
	MOVLW       6
	ADDWF       _ms500+0, 0 
	MOVWF       R0 
	MOVLW       0
	ADDWFC      _ms500+1, 0 
	MOVWF       R1 
	MOVLW       0
	ADDWFC      _ms500+2, 0 
	MOVWF       R2 
	MOVLW       0
	ADDWFC      _ms500+3, 0 
	MOVWF       R3 
	MOVF        State6_delay_L0+0, 0 
	ADDWF       R0, 1 
	MOVLW       0
	ADDWFC      R1, 1 
	ADDWFC      R2, 1 
	ADDWFC      R3, 1 
	MOVF        R0, 0 
	MOVWF       _temp+0 
	MOVF        R1, 0 
	MOVWF       _temp+1 
	MOVF        R2, 0 
	MOVWF       _temp+2 
	MOVF        R3, 0 
	MOVWF       _temp+3 
;FirmV_0_7_0.c,1108 :: 		AddTask(temp,10); //overload check
	MOVF        R0, 0 
	MOVWF       FARG_AddTask+0 
	MOVF        R1, 0 
	MOVWF       FARG_AddTask+1 
	MOVF        R2, 0 
	MOVWF       FARG_AddTask+2 
	MOVF        R3, 0 
	MOVWF       FARG_AddTask+3 
	MOVLW       10
	MOVWF       FARG_AddTask+0 
	CALL        _AddTask+0, 0
;FirmV_0_7_0.c,1109 :: 		temp=ms500+Door1OpenTime+delay;
	MOVF        _Door1OpenTime+0, 0 
	ADDWF       _ms500+0, 0 
	MOVWF       R0 
	MOVLW       0
	ADDWFC      _ms500+1, 0 
	MOVWF       R1 
	MOVLW       0
	ADDWFC      _ms500+2, 0 
	MOVWF       R2 
	MOVLW       0
	ADDWFC      _ms500+3, 0 
	MOVWF       R3 
	MOVF        State6_delay_L0+0, 0 
	ADDWF       R0, 1 
	MOVLW       0
	ADDWFC      R1, 1 
	ADDWFC      R2, 1 
	ADDWFC      R3, 1 
	MOVF        R0, 0 
	MOVWF       _temp+0 
	MOVF        R1, 0 
	MOVWF       _temp+1 
	MOVF        R2, 0 
	MOVWF       _temp+2 
	MOVF        R3, 0 
	MOVWF       _temp+3 
;FirmV_0_7_0.c,1110 :: 		AddTask(temp,3);//Stop motor
	MOVF        R0, 0 
	MOVWF       FARG_AddTask+0 
	MOVF        R1, 0 
	MOVWF       FARG_AddTask+1 
	MOVF        R2, 0 
	MOVWF       FARG_AddTask+2 
	MOVF        R3, 0 
	MOVWF       FARG_AddTask+3 
	MOVLW       3
	MOVWF       FARG_AddTask+0 
	CALL        _AddTask+0, 0
;FirmV_0_7_0.c,1111 :: 		if((Door2OpenTime!=0)&&(ActiveDoors==2))
	MOVF        _Door2OpenTime+0, 0 
	XORLW       0
	BTFSC       STATUS+0, 2 
	GOTO        L_State6224
	MOVF        _ActiveDoors+0, 0 
	XORLW       2
	BTFSS       STATUS+0, 2 
	GOTO        L_State6224
L__State6909:
;FirmV_0_7_0.c,1113 :: 		AddTask(ms500+ActionTimeDiff+delay,2);
	MOVF        _ActionTimeDiff+0, 0 
	ADDWF       _ms500+0, 0 
	MOVWF       FARG_AddTask+0 
	MOVLW       0
	ADDWFC      _ms500+1, 0 
	MOVWF       FARG_AddTask+1 
	MOVLW       0
	ADDWFC      _ms500+2, 0 
	MOVWF       FARG_AddTask+2 
	MOVLW       0
	ADDWFC      _ms500+3, 0 
	MOVWF       FARG_AddTask+3 
	MOVF        State6_delay_L0+0, 0 
	ADDWF       FARG_AddTask+0, 1 
	MOVLW       0
	ADDWFC      FARG_AddTask+1, 1 
	ADDWFC      FARG_AddTask+2, 1 
	ADDWFC      FARG_AddTask+3, 1 
	MOVLW       2
	MOVWF       FARG_AddTask+0 
	CALL        _AddTask+0, 0
;FirmV_0_7_0.c,1114 :: 		AddTask(ms500+ActionTimeDiff+delay,6);
	MOVF        _ActionTimeDiff+0, 0 
	ADDWF       _ms500+0, 0 
	MOVWF       FARG_AddTask+0 
	MOVLW       0
	ADDWFC      _ms500+1, 0 
	MOVWF       FARG_AddTask+1 
	MOVLW       0
	ADDWFC      _ms500+2, 0 
	MOVWF       FARG_AddTask+2 
	MOVLW       0
	ADDWFC      _ms500+3, 0 
	MOVWF       FARG_AddTask+3 
	MOVF        State6_delay_L0+0, 0 
	ADDWF       FARG_AddTask+0, 1 
	MOVLW       0
	ADDWFC      FARG_AddTask+1, 1 
	ADDWFC      FARG_AddTask+2, 1 
	ADDWFC      FARG_AddTask+3, 1 
	MOVLW       6
	MOVWF       FARG_AddTask+0 
	CALL        _AddTask+0, 0
;FirmV_0_7_0.c,1115 :: 		M2isSlow=0;//speed up
	CLRF        _M2isSlow+0 
;FirmV_0_7_0.c,1116 :: 		AddTask(ms500+ActionTimeDiff+OverloadDelay+delay,11); //overload check
	MOVF        _ActionTimeDiff+0, 0 
	ADDWF       _ms500+0, 0 
	MOVWF       FARG_AddTask+0 
	MOVLW       0
	ADDWFC      _ms500+1, 0 
	MOVWF       FARG_AddTask+1 
	MOVLW       0
	ADDWFC      _ms500+2, 0 
	MOVWF       FARG_AddTask+2 
	MOVLW       0
	ADDWFC      _ms500+3, 0 
	MOVWF       FARG_AddTask+3 
	MOVLW       6
	ADDWF       FARG_AddTask+0, 1 
	MOVLW       0
	ADDWFC      FARG_AddTask+1, 1 
	ADDWFC      FARG_AddTask+2, 1 
	ADDWFC      FARG_AddTask+3, 1 
	MOVF        State6_delay_L0+0, 0 
	ADDWF       FARG_AddTask+0, 1 
	MOVLW       0
	ADDWFC      FARG_AddTask+1, 1 
	ADDWFC      FARG_AddTask+2, 1 
	ADDWFC      FARG_AddTask+3, 1 
	MOVLW       11
	MOVWF       FARG_AddTask+0 
	CALL        _AddTask+0, 0
;FirmV_0_7_0.c,1117 :: 		AddTask(ms500+Door2OpenTime+ActionTimeDiff+delay,4);//Stop motor
	MOVF        _Door2OpenTime+0, 0 
	ADDWF       _ms500+0, 0 
	MOVWF       FARG_AddTask+0 
	MOVLW       0
	ADDWFC      _ms500+1, 0 
	MOVWF       FARG_AddTask+1 
	MOVLW       0
	ADDWFC      _ms500+2, 0 
	MOVWF       FARG_AddTask+2 
	MOVLW       0
	ADDWFC      _ms500+3, 0 
	MOVWF       FARG_AddTask+3 
	MOVF        _ActionTimeDiff+0, 0 
	ADDWF       FARG_AddTask+0, 1 
	MOVLW       0
	ADDWFC      FARG_AddTask+1, 1 
	ADDWFC      FARG_AddTask+2, 1 
	ADDWFC      FARG_AddTask+3, 1 
	MOVF        State6_delay_L0+0, 0 
	ADDWF       FARG_AddTask+0, 1 
	MOVLW       0
	ADDWFC      FARG_AddTask+1, 1 
	ADDWFC      FARG_AddTask+2, 1 
	ADDWFC      FARG_AddTask+3, 1 
	MOVLW       4
	MOVWF       FARG_AddTask+0 
	CALL        _AddTask+0, 0
;FirmV_0_7_0.c,1118 :: 		}
L_State6224:
;FirmV_0_7_0.c,1121 :: 		OpenDone=3;
	MOVLW       3
	MOVWF       _OpenDone+0 
;FirmV_0_7_0.c,1122 :: 		OverloadCheckFlag1=0;
	CLRF        _OverloadCheckFlag1+0 
;FirmV_0_7_0.c,1123 :: 		OverloadCheckFlag2=0;
	CLRF        _OverloadCheckFlag2+0 
;FirmV_0_7_0.c,1124 :: 		PassFlag=0;
	CLRF        _PassFlag+0 
;FirmV_0_7_0.c,1125 :: 		KeyNoiseEliminator=0;
	CLRF        _KeyNoiseEliminator+0 
;FirmV_0_7_0.c,1126 :: 		AutoClosePauseFlag=0;
	CLRF        _AutoClosePauseFlag+0 
;FirmV_0_7_0.c,1127 :: 		State=8;
	MOVLW       8
	MOVWF       _State+0 
;FirmV_0_7_0.c,1128 :: 		}
L_State6220:
;FirmV_0_7_0.c,1131 :: 		if(CheckTask(9)==1)
	MOVLW       9
	MOVWF       FARG_CheckTask+0 
	CALL        _CheckTask+0, 0
	MOVF        R0, 0 
	XORLW       1
	BTFSS       STATUS+0, 2 
	GOTO        L_State6225
;FirmV_0_7_0.c,1133 :: 		if((Door2CloseTime==0)||(ActiveDoors==1))
	MOVF        _Door2CloseTime+0, 0 
	XORLW       0
	BTFSC       STATUS+0, 2 
	GOTO        L__State6908
	MOVF        _ActiveDoors+0, 0 
	XORLW       1
	BTFSC       STATUS+0, 2 
	GOTO        L__State6908
	GOTO        L_State6228
L__State6908:
;FirmV_0_7_0.c,1135 :: 		ClearTasks(0);
	CLRF        FARG_ClearTasks+0 
	CALL        _ClearTasks+0, 0
;FirmV_0_7_0.c,1136 :: 		temp=ms500+delay;
	MOVF        State6_delay_L0+0, 0 
	ADDWF       _ms500+0, 0 
	MOVWF       R0 
	MOVLW       0
	ADDWFC      _ms500+1, 0 
	MOVWF       R1 
	MOVLW       0
	ADDWFC      _ms500+2, 0 
	MOVWF       R2 
	MOVLW       0
	ADDWFC      _ms500+3, 0 
	MOVWF       R3 
	MOVF        R0, 0 
	MOVWF       _temp+0 
	MOVF        R1, 0 
	MOVWF       _temp+1 
	MOVF        R2, 0 
	MOVWF       _temp+2 
	MOVF        R3, 0 
	MOVWF       _temp+3 
;FirmV_0_7_0.c,1137 :: 		AddTask(temp,1);
	MOVF        R0, 0 
	MOVWF       FARG_AddTask+0 
	MOVF        R1, 0 
	MOVWF       FARG_AddTask+1 
	MOVF        R2, 0 
	MOVWF       FARG_AddTask+2 
	MOVF        R3, 0 
	MOVWF       FARG_AddTask+3 
	MOVLW       1
	MOVWF       FARG_AddTask+0 
	CALL        _AddTask+0, 0
;FirmV_0_7_0.c,1138 :: 		AddTask(temp,5);
	MOVF        _temp+0, 0 
	MOVWF       FARG_AddTask+0 
	MOVF        _temp+1, 0 
	MOVWF       FARG_AddTask+1 
	MOVF        _temp+2, 0 
	MOVWF       FARG_AddTask+2 
	MOVF        _temp+3, 0 
	MOVWF       FARG_AddTask+3 
	MOVLW       5
	MOVWF       FARG_AddTask+0 
	CALL        _AddTask+0, 0
;FirmV_0_7_0.c,1139 :: 		M1isSlow=0;//speed up
	CLRF        _M1isSlow+0 
;FirmV_0_7_0.c,1140 :: 		temp=ms500+OverloadDelay+delay;
	MOVLW       6
	ADDWF       _ms500+0, 0 
	MOVWF       R0 
	MOVLW       0
	ADDWFC      _ms500+1, 0 
	MOVWF       R1 
	MOVLW       0
	ADDWFC      _ms500+2, 0 
	MOVWF       R2 
	MOVLW       0
	ADDWFC      _ms500+3, 0 
	MOVWF       R3 
	MOVF        State6_delay_L0+0, 0 
	ADDWF       R0, 1 
	MOVLW       0
	ADDWFC      R1, 1 
	ADDWFC      R2, 1 
	ADDWFC      R3, 1 
	MOVF        R0, 0 
	MOVWF       _temp+0 
	MOVF        R1, 0 
	MOVWF       _temp+1 
	MOVF        R2, 0 
	MOVWF       _temp+2 
	MOVF        R3, 0 
	MOVWF       _temp+3 
;FirmV_0_7_0.c,1141 :: 		AddTask(temp,10); //overload check
	MOVF        R0, 0 
	MOVWF       FARG_AddTask+0 
	MOVF        R1, 0 
	MOVWF       FARG_AddTask+1 
	MOVF        R2, 0 
	MOVWF       FARG_AddTask+2 
	MOVF        R3, 0 
	MOVWF       FARG_AddTask+3 
	MOVLW       10
	MOVWF       FARG_AddTask+0 
	CALL        _AddTask+0, 0
;FirmV_0_7_0.c,1142 :: 		temp=ms500+Door1CloseTime+delay;
	MOVF        _Door1CloseTime+0, 0 
	ADDWF       _ms500+0, 0 
	MOVWF       R0 
	MOVLW       0
	ADDWFC      _ms500+1, 0 
	MOVWF       R1 
	MOVLW       0
	ADDWFC      _ms500+2, 0 
	MOVWF       R2 
	MOVLW       0
	ADDWFC      _ms500+3, 0 
	MOVWF       R3 
	MOVF        State6_delay_L0+0, 0 
	ADDWF       R0, 1 
	MOVLW       0
	ADDWFC      R1, 1 
	ADDWFC      R2, 1 
	ADDWFC      R3, 1 
	MOVF        R0, 0 
	MOVWF       _temp+0 
	MOVF        R1, 0 
	MOVWF       _temp+1 
	MOVF        R2, 0 
	MOVWF       _temp+2 
	MOVF        R3, 0 
	MOVWF       _temp+3 
;FirmV_0_7_0.c,1143 :: 		AddTask(temp,3);//Stop motor
	MOVF        R0, 0 
	MOVWF       FARG_AddTask+0 
	MOVF        R1, 0 
	MOVWF       FARG_AddTask+1 
	MOVF        R2, 0 
	MOVWF       FARG_AddTask+2 
	MOVF        R3, 0 
	MOVWF       FARG_AddTask+3 
	MOVLW       3
	MOVWF       FARG_AddTask+0 
	CALL        _AddTask+0, 0
;FirmV_0_7_0.c,1144 :: 		}
L_State6228:
;FirmV_0_7_0.c,1145 :: 		if((Door2CloseTime!=0)&&(ActiveDoors==2))
	MOVF        _Door2CloseTime+0, 0 
	XORLW       0
	BTFSC       STATUS+0, 2 
	GOTO        L_State6231
	MOVF        _ActiveDoors+0, 0 
	XORLW       2
	BTFSS       STATUS+0, 2 
	GOTO        L_State6231
L__State6907:
;FirmV_0_7_0.c,1147 :: 		ClearTasks(0);
	CLRF        FARG_ClearTasks+0 
	CALL        _ClearTasks+0, 0
;FirmV_0_7_0.c,1148 :: 		temp=ms500+delay;
	MOVF        State6_delay_L0+0, 0 
	ADDWF       _ms500+0, 0 
	MOVWF       R0 
	MOVLW       0
	ADDWFC      _ms500+1, 0 
	MOVWF       R1 
	MOVLW       0
	ADDWFC      _ms500+2, 0 
	MOVWF       R2 
	MOVLW       0
	ADDWFC      _ms500+3, 0 
	MOVWF       R3 
	MOVF        R0, 0 
	MOVWF       _temp+0 
	MOVF        R1, 0 
	MOVWF       _temp+1 
	MOVF        R2, 0 
	MOVWF       _temp+2 
	MOVF        R3, 0 
	MOVWF       _temp+3 
;FirmV_0_7_0.c,1149 :: 		AddTask(temp,2);
	MOVF        R0, 0 
	MOVWF       FARG_AddTask+0 
	MOVF        R1, 0 
	MOVWF       FARG_AddTask+1 
	MOVF        R2, 0 
	MOVWF       FARG_AddTask+2 
	MOVF        R3, 0 
	MOVWF       FARG_AddTask+3 
	MOVLW       2
	MOVWF       FARG_AddTask+0 
	CALL        _AddTask+0, 0
;FirmV_0_7_0.c,1150 :: 		AddTask(temp,6);
	MOVF        _temp+0, 0 
	MOVWF       FARG_AddTask+0 
	MOVF        _temp+1, 0 
	MOVWF       FARG_AddTask+1 
	MOVF        _temp+2, 0 
	MOVWF       FARG_AddTask+2 
	MOVF        _temp+3, 0 
	MOVWF       FARG_AddTask+3 
	MOVLW       6
	MOVWF       FARG_AddTask+0 
	CALL        _AddTask+0, 0
;FirmV_0_7_0.c,1151 :: 		M1isSlow=0;//speed up
	CLRF        _M1isSlow+0 
;FirmV_0_7_0.c,1152 :: 		temp=ms500+OverloadDelay+delay;
	MOVLW       6
	ADDWF       _ms500+0, 0 
	MOVWF       R0 
	MOVLW       0
	ADDWFC      _ms500+1, 0 
	MOVWF       R1 
	MOVLW       0
	ADDWFC      _ms500+2, 0 
	MOVWF       R2 
	MOVLW       0
	ADDWFC      _ms500+3, 0 
	MOVWF       R3 
	MOVF        State6_delay_L0+0, 0 
	ADDWF       R0, 1 
	MOVLW       0
	ADDWFC      R1, 1 
	ADDWFC      R2, 1 
	ADDWFC      R3, 1 
	MOVF        R0, 0 
	MOVWF       _temp+0 
	MOVF        R1, 0 
	MOVWF       _temp+1 
	MOVF        R2, 0 
	MOVWF       _temp+2 
	MOVF        R3, 0 
	MOVWF       _temp+3 
;FirmV_0_7_0.c,1153 :: 		AddTask(temp,11); //overload check
	MOVF        R0, 0 
	MOVWF       FARG_AddTask+0 
	MOVF        R1, 0 
	MOVWF       FARG_AddTask+1 
	MOVF        R2, 0 
	MOVWF       FARG_AddTask+2 
	MOVF        R3, 0 
	MOVWF       FARG_AddTask+3 
	MOVLW       11
	MOVWF       FARG_AddTask+0 
	CALL        _AddTask+0, 0
;FirmV_0_7_0.c,1154 :: 		temp=ms500+Door1CloseTime+delay;
	MOVF        _Door1CloseTime+0, 0 
	ADDWF       _ms500+0, 0 
	MOVWF       R0 
	MOVLW       0
	ADDWFC      _ms500+1, 0 
	MOVWF       R1 
	MOVLW       0
	ADDWFC      _ms500+2, 0 
	MOVWF       R2 
	MOVLW       0
	ADDWFC      _ms500+3, 0 
	MOVWF       R3 
	MOVF        State6_delay_L0+0, 0 
	ADDWF       R0, 1 
	MOVLW       0
	ADDWFC      R1, 1 
	ADDWFC      R2, 1 
	ADDWFC      R3, 1 
	MOVF        R0, 0 
	MOVWF       _temp+0 
	MOVF        R1, 0 
	MOVWF       _temp+1 
	MOVF        R2, 0 
	MOVWF       _temp+2 
	MOVF        R3, 0 
	MOVWF       _temp+3 
;FirmV_0_7_0.c,1155 :: 		AddTask(temp,4);//Stop motor
	MOVF        R0, 0 
	MOVWF       FARG_AddTask+0 
	MOVF        R1, 0 
	MOVWF       FARG_AddTask+1 
	MOVF        R2, 0 
	MOVWF       FARG_AddTask+2 
	MOVF        R3, 0 
	MOVWF       FARG_AddTask+3 
	MOVLW       4
	MOVWF       FARG_AddTask+0 
	CALL        _AddTask+0, 0
;FirmV_0_7_0.c,1160 :: 		temp=ms500+ActionTimeDiff+delay;
	MOVF        _ActionTimeDiff+0, 0 
	ADDWF       _ms500+0, 0 
	MOVWF       R0 
	MOVLW       0
	ADDWFC      _ms500+1, 0 
	MOVWF       R1 
	MOVLW       0
	ADDWFC      _ms500+2, 0 
	MOVWF       R2 
	MOVLW       0
	ADDWFC      _ms500+3, 0 
	MOVWF       R3 
	MOVF        State6_delay_L0+0, 0 
	ADDWF       R0, 1 
	MOVLW       0
	ADDWFC      R1, 1 
	ADDWFC      R2, 1 
	ADDWFC      R3, 1 
	MOVF        R0, 0 
	MOVWF       _temp+0 
	MOVF        R1, 0 
	MOVWF       _temp+1 
	MOVF        R2, 0 
	MOVWF       _temp+2 
	MOVF        R3, 0 
	MOVWF       _temp+3 
;FirmV_0_7_0.c,1161 :: 		AddTask(temp,1);
	MOVF        R0, 0 
	MOVWF       FARG_AddTask+0 
	MOVF        R1, 0 
	MOVWF       FARG_AddTask+1 
	MOVF        R2, 0 
	MOVWF       FARG_AddTask+2 
	MOVF        R3, 0 
	MOVWF       FARG_AddTask+3 
	MOVLW       1
	MOVWF       FARG_AddTask+0 
	CALL        _AddTask+0, 0
;FirmV_0_7_0.c,1162 :: 		temp=ms500+ActionTimeDiff+delay;
	MOVF        _ActionTimeDiff+0, 0 
	ADDWF       _ms500+0, 0 
	MOVWF       R0 
	MOVLW       0
	ADDWFC      _ms500+1, 0 
	MOVWF       R1 
	MOVLW       0
	ADDWFC      _ms500+2, 0 
	MOVWF       R2 
	MOVLW       0
	ADDWFC      _ms500+3, 0 
	MOVWF       R3 
	MOVF        State6_delay_L0+0, 0 
	ADDWF       R0, 1 
	MOVLW       0
	ADDWFC      R1, 1 
	ADDWFC      R2, 1 
	ADDWFC      R3, 1 
	MOVF        R0, 0 
	MOVWF       _temp+0 
	MOVF        R1, 0 
	MOVWF       _temp+1 
	MOVF        R2, 0 
	MOVWF       _temp+2 
	MOVF        R3, 0 
	MOVWF       _temp+3 
;FirmV_0_7_0.c,1163 :: 		AddTask(temp,5);
	MOVF        R0, 0 
	MOVWF       FARG_AddTask+0 
	MOVF        R1, 0 
	MOVWF       FARG_AddTask+1 
	MOVF        R2, 0 
	MOVWF       FARG_AddTask+2 
	MOVF        R3, 0 
	MOVWF       FARG_AddTask+3 
	MOVLW       5
	MOVWF       FARG_AddTask+0 
	CALL        _AddTask+0, 0
;FirmV_0_7_0.c,1164 :: 		M2isSlow=0;//speed up
	CLRF        _M2isSlow+0 
;FirmV_0_7_0.c,1165 :: 		temp=ms500+ActionTimeDiff+OverloadDelay+delay;
	MOVF        _ActionTimeDiff+0, 0 
	ADDWF       _ms500+0, 0 
	MOVWF       R0 
	MOVLW       0
	ADDWFC      _ms500+1, 0 
	MOVWF       R1 
	MOVLW       0
	ADDWFC      _ms500+2, 0 
	MOVWF       R2 
	MOVLW       0
	ADDWFC      _ms500+3, 0 
	MOVWF       R3 
	MOVLW       6
	ADDWF       R0, 1 
	MOVLW       0
	ADDWFC      R1, 1 
	ADDWFC      R2, 1 
	ADDWFC      R3, 1 
	MOVF        State6_delay_L0+0, 0 
	ADDWF       R0, 1 
	MOVLW       0
	ADDWFC      R1, 1 
	ADDWFC      R2, 1 
	ADDWFC      R3, 1 
	MOVF        R0, 0 
	MOVWF       _temp+0 
	MOVF        R1, 0 
	MOVWF       _temp+1 
	MOVF        R2, 0 
	MOVWF       _temp+2 
	MOVF        R3, 0 
	MOVWF       _temp+3 
;FirmV_0_7_0.c,1166 :: 		AddTask(temp,10); //overload check
	MOVF        R0, 0 
	MOVWF       FARG_AddTask+0 
	MOVF        R1, 0 
	MOVWF       FARG_AddTask+1 
	MOVF        R2, 0 
	MOVWF       FARG_AddTask+2 
	MOVF        R3, 0 
	MOVWF       FARG_AddTask+3 
	MOVLW       10
	MOVWF       FARG_AddTask+0 
	CALL        _AddTask+0, 0
;FirmV_0_7_0.c,1167 :: 		temp=ms500+Door2CloseTime+delay+ActionTimeDiff;
	MOVF        _Door2CloseTime+0, 0 
	ADDWF       _ms500+0, 0 
	MOVWF       R0 
	MOVLW       0
	ADDWFC      _ms500+1, 0 
	MOVWF       R1 
	MOVLW       0
	ADDWFC      _ms500+2, 0 
	MOVWF       R2 
	MOVLW       0
	ADDWFC      _ms500+3, 0 
	MOVWF       R3 
	MOVF        State6_delay_L0+0, 0 
	ADDWF       R0, 1 
	MOVLW       0
	ADDWFC      R1, 1 
	ADDWFC      R2, 1 
	ADDWFC      R3, 1 
	MOVF        _ActionTimeDiff+0, 0 
	ADDWF       R0, 1 
	MOVLW       0
	ADDWFC      R1, 1 
	ADDWFC      R2, 1 
	ADDWFC      R3, 1 
	MOVF        R0, 0 
	MOVWF       _temp+0 
	MOVF        R1, 0 
	MOVWF       _temp+1 
	MOVF        R2, 0 
	MOVWF       _temp+2 
	MOVF        R3, 0 
	MOVWF       _temp+3 
;FirmV_0_7_0.c,1168 :: 		AddTask(temp,3);//Stop motor
	MOVF        R0, 0 
	MOVWF       FARG_AddTask+0 
	MOVF        R1, 0 
	MOVWF       FARG_AddTask+1 
	MOVF        R2, 0 
	MOVWF       FARG_AddTask+2 
	MOVF        R3, 0 
	MOVWF       FARG_AddTask+3 
	MOVLW       3
	MOVWF       FARG_AddTask+0 
	CALL        _AddTask+0, 0
;FirmV_0_7_0.c,1169 :: 		}
L_State6231:
;FirmV_0_7_0.c,1170 :: 		CloseDone=3;
	MOVLW       3
	MOVWF       _CloseDone+0 
;FirmV_0_7_0.c,1171 :: 		OverloadCheckFlag1=0;
	CLRF        _OverloadCheckFlag1+0 
;FirmV_0_7_0.c,1172 :: 		OverloadCheckFlag2=0;
	CLRF        _OverloadCheckFlag2+0 
;FirmV_0_7_0.c,1173 :: 		PassFlag=0;
	CLRF        _PassFlag+0 
;FirmV_0_7_0.c,1174 :: 		KeyNoiseEliminator=0;
	CLRF        _KeyNoiseEliminator+0 
;FirmV_0_7_0.c,1175 :: 		AutoClosePauseFlag=0;
	CLRF        _AutoClosePauseFlag+0 
;FirmV_0_7_0.c,1176 :: 		State=7;
	MOVLW       7
	MOVWF       _State+0 
;FirmV_0_7_0.c,1177 :: 		}
L_State6225:
;FirmV_0_7_0.c,1179 :: 		if((Events.Photocell.b0==1)&&(AutoCloseTime!=0)&&(PassFlag==0))
	BTFSS       _Events+6, 0 
	GOTO        L_State6234
	MOVLW       0
	XORWF       _AutoCloseTime+1, 0 
	BTFSS       STATUS+0, 2 
	GOTO        L__State61026
	MOVLW       0
	XORWF       _AutoCloseTime+0, 0 
L__State61026:
	BTFSC       STATUS+0, 2 
	GOTO        L_State6234
	MOVF        _PassFlag+0, 0 
	XORLW       0
	BTFSS       STATUS+0, 2 
	GOTO        L_State6234
L__State6906:
;FirmV_0_7_0.c,1180 :: 		{PassFlag=1; AutoClosePauseFlag=1;Logger("S6 Auto Close Paused",1);}
	MOVLW       1
	MOVWF       _PassFlag+0 
	MOVLW       1
	MOVWF       _AutoClosePauseFlag+0 
	MOVLW       ?lstr44_FirmV_0_7_0+0
	MOVWF       FARG_Logger_text+0 
	MOVLW       hi_addr(?lstr44_FirmV_0_7_0+0)
	MOVWF       FARG_Logger_text+1 
	MOVLW       1
	MOVWF       FARG_Logger_TimeStampFlag+0 
	CALL        _Logger+0, 0
L_State6234:
;FirmV_0_7_0.c,1182 :: 		if((PassFlag==1)&&(Events.Photocell.b0==0)&&(AutoCloseTime!=0))
	MOVF        _PassFlag+0, 0 
	XORLW       1
	BTFSS       STATUS+0, 2 
	GOTO        L_State6237
	BTFSC       _Events+6, 0 
	GOTO        L_State6237
	MOVLW       0
	XORWF       _AutoCloseTime+1, 0 
	BTFSS       STATUS+0, 2 
	GOTO        L__State61027
	MOVLW       0
	XORWF       _AutoCloseTime+0, 0 
L__State61027:
	BTFSC       STATUS+0, 2 
	GOTO        L_State6237
L__State6905:
;FirmV_0_7_0.c,1184 :: 		{AutoClosePauseFlag=0;PassFlag=0;Logger("S6 Auto Close Resumed",1);}
	CLRF        _AutoClosePauseFlag+0 
	CLRF        _PassFlag+0 
	MOVLW       ?lstr45_FirmV_0_7_0+0
	MOVWF       FARG_Logger_text+0 
	MOVLW       hi_addr(?lstr45_FirmV_0_7_0+0)
	MOVWF       FARG_Logger_text+1 
	MOVLW       1
	MOVWF       FARG_Logger_TimeStampFlag+0 
	CALL        _Logger+0, 0
;FirmV_0_7_0.c,1185 :: 		}
L_State6237:
;FirmV_0_7_0.c,1187 :: 		}
L_end_State6:
	RETURN      0
; end of _State6

_State7:

;FirmV_0_7_0.c,1209 :: 		void State7()
;FirmV_0_7_0.c,1211 :: 		Flasher=1;
	BSF         PORTD+0, 7 
;FirmV_0_7_0.c,1212 :: 		FlashFlag=1;
	MOVLW       1
	MOVWF       _FlashFlag+0 
;FirmV_0_7_0.c,1214 :: 		if(CheckTask(1))
	MOVLW       1
	MOVWF       FARG_CheckTask+0 
	CALL        _CheckTask+0, 0
	MOVF        R0, 1 
	BTFSC       STATUS+0, 2 
	GOTO        L_State7239
;FirmV_0_7_0.c,1215 :: 		{StartMotor(1,_Close);Logger("S7 Motor1Start",1);}
	MOVLW       1
	MOVWF       FARG_StartMotor+0 
	CLRF        FARG_StartMotor+0 
	CALL        _StartMotor+0, 0
	MOVLW       ?lstr46_FirmV_0_7_0+0
	MOVWF       FARG_Logger_text+0 
	MOVLW       hi_addr(?lstr46_FirmV_0_7_0+0)
	MOVWF       FARG_Logger_text+1 
	MOVLW       1
	MOVWF       FARG_Logger_TimeStampFlag+0 
	CALL        _Logger+0, 0
L_State7239:
;FirmV_0_7_0.c,1217 :: 		if(CheckTask(2))
	MOVLW       2
	MOVWF       FARG_CheckTask+0 
	CALL        _CheckTask+0, 0
	MOVF        R0, 1 
	BTFSC       STATUS+0, 2 
	GOTO        L_State7240
;FirmV_0_7_0.c,1218 :: 		{StartMotor(2,_Close);Logger("S7 Motor2Start",1);memcpy(LCDLine1,_closing,16);memcpy(LCDLine2,_Blank,16);LCDUpdateFlag=1;LCDLines=1;}
	MOVLW       2
	MOVWF       FARG_StartMotor+0 
	CLRF        FARG_StartMotor+0 
	CALL        _StartMotor+0, 0
	MOVLW       ?lstr47_FirmV_0_7_0+0
	MOVWF       FARG_Logger_text+0 
	MOVLW       hi_addr(?lstr47_FirmV_0_7_0+0)
	MOVWF       FARG_Logger_text+1 
	MOVLW       1
	MOVWF       FARG_Logger_TimeStampFlag+0 
	CALL        _Logger+0, 0
	MOVLW       _LCDLine1+0
	MOVWF       FARG_memcpy_d1+0 
	MOVLW       hi_addr(_LCDLine1+0)
	MOVWF       FARG_memcpy_d1+1 
	MOVLW       __closing+0
	MOVWF       FARG_memcpy_s1+0 
	MOVLW       hi_addr(__closing+0)
	MOVWF       FARG_memcpy_s1+1 
	MOVLW       16
	MOVWF       FARG_memcpy_n+0 
	MOVLW       0
	MOVWF       FARG_memcpy_n+1 
	CALL        _memcpy+0, 0
	MOVLW       _LCDLine2+0
	MOVWF       FARG_memcpy_d1+0 
	MOVLW       hi_addr(_LCDLine2+0)
	MOVWF       FARG_memcpy_d1+1 
	MOVLW       __Blank+0
	MOVWF       FARG_memcpy_s1+0 
	MOVLW       hi_addr(__Blank+0)
	MOVWF       FARG_memcpy_s1+1 
	MOVLW       16
	MOVWF       FARG_memcpy_n+0 
	MOVLW       0
	MOVWF       FARG_memcpy_n+1 
	CALL        _memcpy+0, 0
	MOVLW       1
	MOVWF       _LCDUpdateFlag+0 
	MOVLW       1
	MOVWF       _LCDLines+0 
L_State7240:
;FirmV_0_7_0.c,1220 :: 		if(CheckTask(10))
	MOVLW       10
	MOVWF       FARG_CheckTask+0 
	CALL        _CheckTask+0, 0
	MOVF        R0, 1 
	BTFSC       STATUS+0, 2 
	GOTO        L_State7241
;FirmV_0_7_0.c,1221 :: 		{OverloadCheckFlag1=1; OverloadInit(1);Logger("S7 M1 Overload Check",1);}
	MOVLW       1
	MOVWF       _OverloadCheckFlag1+0 
	MOVLW       1
	MOVWF       FARG_OverloadInit+0 
	CALL        _OverloadInit+0, 0
	MOVLW       ?lstr48_FirmV_0_7_0+0
	MOVWF       FARG_Logger_text+0 
	MOVLW       hi_addr(?lstr48_FirmV_0_7_0+0)
	MOVWF       FARG_Logger_text+1 
	MOVLW       1
	MOVWF       FARG_Logger_TimeStampFlag+0 
	CALL        _Logger+0, 0
L_State7241:
;FirmV_0_7_0.c,1223 :: 		if(CheckTask(11))
	MOVLW       11
	MOVWF       FARG_CheckTask+0 
	CALL        _CheckTask+0, 0
	MOVF        R0, 1 
	BTFSC       STATUS+0, 2 
	GOTO        L_State7242
;FirmV_0_7_0.c,1224 :: 		{OverloadCheckFlag2=1; OverloadInit(2);Logger("S7 M2 Overload Check",1);}
	MOVLW       1
	MOVWF       _OverloadCheckFlag2+0 
	MOVLW       2
	MOVWF       FARG_OverloadInit+0 
	CALL        _OverloadInit+0, 0
	MOVLW       ?lstr49_FirmV_0_7_0+0
	MOVWF       FARG_Logger_text+0 
	MOVLW       hi_addr(?lstr49_FirmV_0_7_0+0)
	MOVWF       FARG_Logger_text+1 
	MOVLW       1
	MOVWF       FARG_Logger_TimeStampFlag+0 
	CALL        _Logger+0, 0
L_State7242:
;FirmV_0_7_0.c,1226 :: 		if(CheckTask(5))
	MOVLW       5
	MOVWF       FARG_CheckTask+0 
	CALL        _CheckTask+0, 0
	MOVF        R0, 1 
	BTFSC       STATUS+0, 2 
	GOTO        L_State7243
;FirmV_0_7_0.c,1227 :: 		{SetMotorSpeed(1,Motor2FullSpeed); M1isSlow=0;Logger("S7 M1 Speed UP",1);}
	MOVLW       1
	MOVWF       FARG_SetMotorSpeed+0 
	MOVF        _Motor2FullSpeed+0, 0 
	MOVWF       FARG_SetMotorSpeed+0 
	CALL        _SetMotorSpeed+0, 0
	CLRF        _M1isSlow+0 
	MOVLW       ?lstr50_FirmV_0_7_0+0
	MOVWF       FARG_Logger_text+0 
	MOVLW       hi_addr(?lstr50_FirmV_0_7_0+0)
	MOVWF       FARG_Logger_text+1 
	MOVLW       1
	MOVWF       FARG_Logger_TimeStampFlag+0 
	CALL        _Logger+0, 0
L_State7243:
;FirmV_0_7_0.c,1229 :: 		if(CheckTask(6))
	MOVLW       6
	MOVWF       FARG_CheckTask+0 
	CALL        _CheckTask+0, 0
	MOVF        R0, 1 
	BTFSC       STATUS+0, 2 
	GOTO        L_State7244
;FirmV_0_7_0.c,1230 :: 		{SetMotorSpeed(Motor1FullSpeed,1); M2isSlow=0;Logger("S7 M2 Speed UP",1);}
	MOVF        _Motor1FullSpeed+0, 0 
	MOVWF       FARG_SetMotorSpeed+0 
	MOVLW       1
	MOVWF       FARG_SetMotorSpeed+0 
	CALL        _SetMotorSpeed+0, 0
	CLRF        _M2isSlow+0 
	MOVLW       ?lstr51_FirmV_0_7_0+0
	MOVWF       FARG_Logger_text+0 
	MOVLW       hi_addr(?lstr51_FirmV_0_7_0+0)
	MOVWF       FARG_Logger_text+1 
	MOVLW       1
	MOVWF       FARG_Logger_TimeStampFlag+0 
	CALL        _Logger+0, 0
L_State7244:
;FirmV_0_7_0.c,1232 :: 		if((CheckTask(3)||((OverloadCheckFlag1==1)&&(Events.Overload.b0==1)))&&(CloseDone.b0))
	MOVLW       3
	MOVWF       FARG_CheckTask+0 
	CALL        _CheckTask+0, 0
	MOVF        R0, 1 
	BTFSS       STATUS+0, 2 
	GOTO        L__State7918
	MOVF        _OverloadCheckFlag1+0, 0 
	XORLW       1
	BTFSS       STATUS+0, 2 
	GOTO        L__State7919
	BTFSS       _Events+5, 0 
	GOTO        L__State7919
	GOTO        L__State7918
L__State7919:
	GOTO        L_State7251
L__State7918:
	BTFSS       _CloseDone+0, 0 
	GOTO        L_State7251
L__State7917:
;FirmV_0_7_0.c,1233 :: 		{CloseDone.b0=0; StopMotor(1);Logger("S7 M1 Stoped",1);}
	BCF         _CloseDone+0, 0 
	MOVLW       1
	MOVWF       FARG_StopMotor+0 
	CALL        _StopMotor+0, 0
	MOVLW       ?lstr52_FirmV_0_7_0+0
	MOVWF       FARG_Logger_text+0 
	MOVLW       hi_addr(?lstr52_FirmV_0_7_0+0)
	MOVWF       FARG_Logger_text+1 
	MOVLW       1
	MOVWF       FARG_Logger_TimeStampFlag+0 
	CALL        _Logger+0, 0
L_State7251:
;FirmV_0_7_0.c,1235 :: 		if((CheckTask(4)||((OverloadCheckFlag2==1)&&(Events.Overload.b1==1)))&&(CloseDone.b1))
	MOVLW       4
	MOVWF       FARG_CheckTask+0 
	CALL        _CheckTask+0, 0
	MOVF        R0, 1 
	BTFSS       STATUS+0, 2 
	GOTO        L__State7915
	MOVF        _OverloadCheckFlag2+0, 0 
	XORLW       1
	BTFSS       STATUS+0, 2 
	GOTO        L__State7916
	BTFSS       _Events+5, 1 
	GOTO        L__State7916
	GOTO        L__State7915
L__State7916:
	GOTO        L_State7258
L__State7915:
	BTFSS       _CloseDone+0, 1 
	GOTO        L_State7258
L__State7914:
;FirmV_0_7_0.c,1236 :: 		{CloseDone.b1=0; StopMotor(2);Logger("S7 M2 Stoped",1);}
	BCF         _CloseDone+0, 1 
	MOVLW       2
	MOVWF       FARG_StopMotor+0 
	CALL        _StopMotor+0, 0
	MOVLW       ?lstr53_FirmV_0_7_0+0
	MOVWF       FARG_Logger_text+0 
	MOVLW       hi_addr(?lstr53_FirmV_0_7_0+0)
	MOVWF       FARG_Logger_text+1 
	MOVLW       1
	MOVWF       FARG_Logger_TimeStampFlag+0 
	CALL        _Logger+0, 0
L_State7258:
;FirmV_0_7_0.c,1238 :: 		if((Door2OpenTime==0)||(ActiveDoors==1))
	MOVF        _Door2OpenTime+0, 0 
	XORLW       0
	BTFSC       STATUS+0, 2 
	GOTO        L__State7913
	MOVF        _ActiveDoors+0, 0 
	XORLW       1
	BTFSC       STATUS+0, 2 
	GOTO        L__State7913
	GOTO        L_State7261
L__State7913:
;FirmV_0_7_0.c,1239 :: 		CloseDone.b1=0;
	BCF         _CloseDone+0, 1 
L_State7261:
;FirmV_0_7_0.c,1242 :: 		if(KeyNoiseEliminator>=NoiseEliminatorTreshold)
	MOVLW       3
	SUBWF       _KeyNoiseEliminator+0, 0 
	BTFSS       STATUS+0, 0 
	GOTO        L_State7262
;FirmV_0_7_0.c,1244 :: 		if((Events.Photocell.b0==1))
	BTFSS       _Events+6, 0 
	GOTO        L_State7263
;FirmV_0_7_0.c,1245 :: 		{StopMotor(1); StopMotor(2); OverloadCheckFlag1=0;OverloadCheckFlag2=0;State=6;PhotocellOpenFlag=1;Logger("S7 Photocell Int",1);ClearTasks(9);
	MOVLW       1
	MOVWF       FARG_StopMotor+0 
	CALL        _StopMotor+0, 0
	MOVLW       2
	MOVWF       FARG_StopMotor+0 
	CALL        _StopMotor+0, 0
	CLRF        _OverloadCheckFlag1+0 
	CLRF        _OverloadCheckFlag2+0 
	MOVLW       6
	MOVWF       _State+0 
	MOVLW       1
	MOVWF       _PhotocellOpenFlag+0 
	MOVLW       ?lstr54_FirmV_0_7_0+0
	MOVWF       FARG_Logger_text+0 
	MOVLW       hi_addr(?lstr54_FirmV_0_7_0+0)
	MOVWF       FARG_Logger_text+1 
	MOVLW       1
	MOVWF       FARG_Logger_TimeStampFlag+0 
	CALL        _Logger+0, 0
	MOVLW       9
	MOVWF       FARG_ClearTasks+0 
	CALL        _ClearTasks+0, 0
;FirmV_0_7_0.c,1246 :: 		memcpy(LCDLine1,_ErrPhoto,16);LCDUpdateFlag=1;LCDLines=1;}
	MOVLW       _LCDLine1+0
	MOVWF       FARG_memcpy_d1+0 
	MOVLW       hi_addr(_LCDLine1+0)
	MOVWF       FARG_memcpy_d1+1 
	MOVLW       __errPhoto+0
	MOVWF       FARG_memcpy_s1+0 
	MOVLW       hi_addr(__errPhoto+0)
	MOVWF       FARG_memcpy_s1+1 
	MOVLW       16
	MOVWF       FARG_memcpy_n+0 
	MOVLW       0
	MOVWF       FARG_memcpy_n+1 
	CALL        _memcpy+0, 0
	MOVLW       1
	MOVWF       _LCDUpdateFlag+0 
	MOVLW       1
	MOVWF       _LCDLines+0 
L_State7263:
;FirmV_0_7_0.c,1248 :: 		if((Events.Remote!=0))
	MOVF        _Events+4, 0 
	XORLW       0
	BTFSC       STATUS+0, 2 
	GOTO        L_State7264
;FirmV_0_7_0.c,1249 :: 		{StopMotor(1); StopMotor(2); State=6;OverloadCheckFlag1=0;OverloadCheckFlag2=0;Logger("S7 Remote Pressed",1);ClearTasks(9);
	MOVLW       1
	MOVWF       FARG_StopMotor+0 
	CALL        _StopMotor+0, 0
	MOVLW       2
	MOVWF       FARG_StopMotor+0 
	CALL        _StopMotor+0, 0
	MOVLW       6
	MOVWF       _State+0 
	CLRF        _OverloadCheckFlag1+0 
	CLRF        _OverloadCheckFlag2+0 
	MOVLW       ?lstr55_FirmV_0_7_0+0
	MOVWF       FARG_Logger_text+0 
	MOVLW       hi_addr(?lstr55_FirmV_0_7_0+0)
	MOVWF       FARG_Logger_text+1 
	MOVLW       1
	MOVWF       FARG_Logger_TimeStampFlag+0 
	CALL        _Logger+0, 0
	MOVLW       9
	MOVWF       FARG_ClearTasks+0 
	CALL        _ClearTasks+0, 0
;FirmV_0_7_0.c,1250 :: 		memcpy(LCDLine1,_ErrRemote,16);LCDUpdateFlag=1;LCDLines=1;}
	MOVLW       _LCDLine1+0
	MOVWF       FARG_memcpy_d1+0 
	MOVLW       hi_addr(_LCDLine1+0)
	MOVWF       FARG_memcpy_d1+1 
	MOVLW       __errRemote+0
	MOVWF       FARG_memcpy_s1+0 
	MOVLW       hi_addr(__errRemote+0)
	MOVWF       FARG_memcpy_s1+1 
	MOVLW       16
	MOVWF       FARG_memcpy_n+0 
	MOVLW       0
	MOVWF       FARG_memcpy_n+1 
	CALL        _memcpy+0, 0
	MOVLW       1
	MOVWF       _LCDUpdateFlag+0 
	MOVLW       1
	MOVWF       _LCDLines+0 
L_State7264:
;FirmV_0_7_0.c,1252 :: 		if((Events.Limiter==2)&&(LimiterEnable))
	MOVF        _Events+7, 0 
	XORLW       2
	BTFSS       STATUS+0, 2 
	GOTO        L_State7267
	MOVF        _LimiterEnable+0, 1 
	BTFSC       STATUS+0, 2 
	GOTO        L_State7267
L__State7912:
;FirmV_0_7_0.c,1253 :: 		{StopMotor(1); StopMotor(2); State=6;OverloadCheckFlag1=0;OverloadCheckFlag2=0;Logger("S7 Limit Switch Stop",1);ClearTasks(9);
	MOVLW       1
	MOVWF       FARG_StopMotor+0 
	CALL        _StopMotor+0, 0
	MOVLW       2
	MOVWF       FARG_StopMotor+0 
	CALL        _StopMotor+0, 0
	MOVLW       6
	MOVWF       _State+0 
	CLRF        _OverloadCheckFlag1+0 
	CLRF        _OverloadCheckFlag2+0 
	MOVLW       ?lstr56_FirmV_0_7_0+0
	MOVWF       FARG_Logger_text+0 
	MOVLW       hi_addr(?lstr56_FirmV_0_7_0+0)
	MOVWF       FARG_Logger_text+1 
	MOVLW       1
	MOVWF       FARG_Logger_TimeStampFlag+0 
	CALL        _Logger+0, 0
	MOVLW       9
	MOVWF       FARG_ClearTasks+0 
	CALL        _ClearTasks+0, 0
;FirmV_0_7_0.c,1254 :: 		memcpy(LCDLine2,_ErrLimit,16);LCDUpdateFlag=1;LCDLines=1;}
	MOVLW       _LCDLine2+0
	MOVWF       FARG_memcpy_d1+0 
	MOVLW       hi_addr(_LCDLine2+0)
	MOVWF       FARG_memcpy_d1+1 
	MOVLW       __errLimit+0
	MOVWF       FARG_memcpy_s1+0 
	MOVLW       hi_addr(__errLimit+0)
	MOVWF       FARG_memcpy_s1+1 
	MOVLW       16
	MOVWF       FARG_memcpy_n+0 
	MOVLW       0
	MOVWF       FARG_memcpy_n+1 
	CALL        _memcpy+0, 0
	MOVLW       1
	MOVWF       _LCDUpdateFlag+0 
	MOVLW       1
	MOVWF       _LCDLines+0 
L_State7267:
;FirmV_0_7_0.c,1255 :: 		}
L_State7262:
;FirmV_0_7_0.c,1258 :: 		if(CloseDone==0)
	MOVF        _CloseDone+0, 0 
	XORLW       0
	BTFSS       STATUS+0, 2 
	GOTO        L_State7268
;FirmV_0_7_0.c,1259 :: 		if(LockEnable)
	MOVF        _LockEnable+0, 1 
	BTFSC       STATUS+0, 2 
	GOTO        L_State7269
;FirmV_0_7_0.c,1260 :: 		{StartMotor(1,_Open);AddTask(ms500+1,14);SetMotorSpeed(1,Motor2FullSpeed);OverloadCheckFlag1=0; M1isSlow=0;SetMotorSpeed(Motor1FullSpeed,1);OverloadCheckFlag2=0; M2isSlow=0;
	MOVLW       1
	MOVWF       FARG_StartMotor+0 
	MOVLW       1
	MOVWF       FARG_StartMotor+0 
	CALL        _StartMotor+0, 0
	MOVLW       1
	ADDWF       _ms500+0, 0 
	MOVWF       FARG_AddTask+0 
	MOVLW       0
	ADDWFC      _ms500+1, 0 
	MOVWF       FARG_AddTask+1 
	MOVLW       0
	ADDWFC      _ms500+2, 0 
	MOVWF       FARG_AddTask+2 
	MOVLW       0
	ADDWFC      _ms500+3, 0 
	MOVWF       FARG_AddTask+3 
	MOVLW       14
	MOVWF       FARG_AddTask+0 
	CALL        _AddTask+0, 0
	MOVLW       1
	MOVWF       FARG_SetMotorSpeed+0 
	MOVF        _Motor2FullSpeed+0, 0 
	MOVWF       FARG_SetMotorSpeed+0 
	CALL        _SetMotorSpeed+0, 0
	CLRF        _OverloadCheckFlag1+0 
	CLRF        _M1isSlow+0 
	MOVF        _Motor1FullSpeed+0, 0 
	MOVWF       FARG_SetMotorSpeed+0 
	MOVLW       1
	MOVWF       FARG_SetMotorSpeed+0 
	CALL        _SetMotorSpeed+0, 0
	CLRF        _OverloadCheckFlag2+0 
	CLRF        _M2isSlow+0 
;FirmV_0_7_0.c,1261 :: 		AddTask(ms500+RelaseTime,3);AddTask(ms500+1+RelaseTime,4);AddTask(ms500+1+RelaseTime,13);CloseDone.b2=1;}
	MOVLW       1
	ADDWF       _ms500+0, 0 
	MOVWF       FARG_AddTask+0 
	MOVLW       0
	ADDWFC      _ms500+1, 0 
	MOVWF       FARG_AddTask+1 
	MOVLW       0
	ADDWFC      _ms500+2, 0 
	MOVWF       FARG_AddTask+2 
	MOVLW       0
	ADDWFC      _ms500+3, 0 
	MOVWF       FARG_AddTask+3 
	MOVLW       3
	MOVWF       FARG_AddTask+0 
	CALL        _AddTask+0, 0
	MOVLW       1
	ADDWF       _ms500+0, 0 
	MOVWF       FARG_AddTask+0 
	MOVLW       0
	ADDWFC      _ms500+1, 0 
	MOVWF       FARG_AddTask+1 
	MOVLW       0
	ADDWFC      _ms500+2, 0 
	MOVWF       FARG_AddTask+2 
	MOVLW       0
	ADDWFC      _ms500+3, 0 
	MOVWF       FARG_AddTask+3 
	MOVLW       1
	ADDWF       FARG_AddTask+0, 1 
	MOVLW       0
	ADDWFC      FARG_AddTask+1, 1 
	ADDWFC      FARG_AddTask+2, 1 
	ADDWFC      FARG_AddTask+3, 1 
	MOVLW       4
	MOVWF       FARG_AddTask+0 
	CALL        _AddTask+0, 0
	MOVLW       1
	ADDWF       _ms500+0, 0 
	MOVWF       FARG_AddTask+0 
	MOVLW       0
	ADDWFC      _ms500+1, 0 
	MOVWF       FARG_AddTask+1 
	MOVLW       0
	ADDWFC      _ms500+2, 0 
	MOVWF       FARG_AddTask+2 
	MOVLW       0
	ADDWFC      _ms500+3, 0 
	MOVWF       FARG_AddTask+3 
	MOVLW       1
	ADDWF       FARG_AddTask+0, 1 
	MOVLW       0
	ADDWFC      FARG_AddTask+1, 1 
	ADDWFC      FARG_AddTask+2, 1 
	ADDWFC      FARG_AddTask+3, 1 
	MOVLW       13
	MOVWF       FARG_AddTask+0 
	CALL        _AddTask+0, 0
	BSF         _CloseDone+0, 2 
	GOTO        L_State7270
L_State7269:
;FirmV_0_7_0.c,1263 :: 		{AddTask(ms500+1,13);CloseDone.b2=1;}
	MOVLW       1
	ADDWF       _ms500+0, 0 
	MOVWF       FARG_AddTask+0 
	MOVLW       0
	ADDWFC      _ms500+1, 0 
	MOVWF       FARG_AddTask+1 
	MOVLW       0
	ADDWFC      _ms500+2, 0 
	MOVWF       FARG_AddTask+2 
	MOVLW       0
	ADDWFC      _ms500+3, 0 
	MOVWF       FARG_AddTask+3 
	MOVLW       13
	MOVWF       FARG_AddTask+0 
	CALL        _AddTask+0, 0
	BSF         _CloseDone+0, 2 
L_State7270:
L_State7268:
;FirmV_0_7_0.c,1265 :: 		if(CheckTask(14))
	MOVLW       14
	MOVWF       FARG_CheckTask+0 
	CALL        _CheckTask+0, 0
	MOVF        R0, 1 
	BTFSC       STATUS+0, 2 
	GOTO        L_State7271
;FirmV_0_7_0.c,1266 :: 		StartMotor(2,_Open);
	MOVLW       2
	MOVWF       FARG_StartMotor+0 
	MOVLW       1
	MOVWF       FARG_StartMotor+0 
	CALL        _StartMotor+0, 0
L_State7271:
;FirmV_0_7_0.c,1268 :: 		if(CheckTask(13))
	MOVLW       13
	MOVWF       FARG_CheckTask+0 
	CALL        _CheckTask+0, 0
	MOVF        R0, 1 
	BTFSC       STATUS+0, 2 
	GOTO        L_State7272
;FirmV_0_7_0.c,1269 :: 		{State=1; PassFlag=0;PrevAC=0;ClearTasks(9);memcpy(LCDLine1,_close,16);memcpy(LCDLine2,_Blank,16);LCDUpdateFlag=1;LCDLines=1;}
	MOVLW       1
	MOVWF       _State+0 
	CLRF        _PassFlag+0 
	CLRF        _PrevAC+0 
	MOVLW       9
	MOVWF       FARG_ClearTasks+0 
	CALL        _ClearTasks+0, 0
	MOVLW       _LCDLine1+0
	MOVWF       FARG_memcpy_d1+0 
	MOVLW       hi_addr(_LCDLine1+0)
	MOVWF       FARG_memcpy_d1+1 
	MOVLW       __close+0
	MOVWF       FARG_memcpy_s1+0 
	MOVLW       hi_addr(__close+0)
	MOVWF       FARG_memcpy_s1+1 
	MOVLW       16
	MOVWF       FARG_memcpy_n+0 
	MOVLW       0
	MOVWF       FARG_memcpy_n+1 
	CALL        _memcpy+0, 0
	MOVLW       _LCDLine2+0
	MOVWF       FARG_memcpy_d1+0 
	MOVLW       hi_addr(_LCDLine2+0)
	MOVWF       FARG_memcpy_d1+1 
	MOVLW       __Blank+0
	MOVWF       FARG_memcpy_s1+0 
	MOVLW       hi_addr(__Blank+0)
	MOVWF       FARG_memcpy_s1+1 
	MOVLW       16
	MOVWF       FARG_memcpy_n+0 
	MOVLW       0
	MOVWF       FARG_memcpy_n+1 
	CALL        _memcpy+0, 0
	MOVLW       1
	MOVWF       _LCDUpdateFlag+0 
	MOVLW       1
	MOVWF       _LCDLines+0 
L_State7272:
;FirmV_0_7_0.c,1271 :: 		if((State==5)||(State==6))
	MOVF        _State+0, 0 
	XORLW       5
	BTFSC       STATUS+0, 2 
	GOTO        L__State7911
	MOVF        _State+0, 0 
	XORLW       6
	BTFSC       STATUS+0, 2 
	GOTO        L__State7911
	GOTO        L_State7275
L__State7911:
;FirmV_0_7_0.c,1272 :: 		{ClearTasks(0);if(AutoCloseTime!=0){AddTask(ms500+AutoCloseTime,9);AutoClosePauseFlag=0;PrevAC=0;Logger("S7 Autoclose Renewed",1);}}
	CLRF        FARG_ClearTasks+0 
	CALL        _ClearTasks+0, 0
	MOVLW       0
	XORWF       _AutoCloseTime+1, 0 
	BTFSS       STATUS+0, 2 
	GOTO        L__State71029
	MOVLW       0
	XORWF       _AutoCloseTime+0, 0 
L__State71029:
	BTFSC       STATUS+0, 2 
	GOTO        L_State7276
	MOVF        _AutoCloseTime+0, 0 
	ADDWF       _ms500+0, 0 
	MOVWF       FARG_AddTask+0 
	MOVF        _AutoCloseTime+1, 0 
	ADDWFC      _ms500+1, 0 
	MOVWF       FARG_AddTask+1 
	MOVLW       0
	ADDWFC      _ms500+2, 0 
	MOVWF       FARG_AddTask+2 
	MOVLW       0
	ADDWFC      _ms500+3, 0 
	MOVWF       FARG_AddTask+3 
	MOVLW       9
	MOVWF       FARG_AddTask+0 
	CALL        _AddTask+0, 0
	CLRF        _AutoClosePauseFlag+0 
	CLRF        _PrevAC+0 
	MOVLW       ?lstr57_FirmV_0_7_0+0
	MOVWF       FARG_Logger_text+0 
	MOVLW       hi_addr(?lstr57_FirmV_0_7_0+0)
	MOVWF       FARG_Logger_text+1 
	MOVLW       1
	MOVWF       FARG_Logger_TimeStampFlag+0 
	CALL        _Logger+0, 0
L_State7276:
L_State7275:
;FirmV_0_7_0.c,1275 :: 		}
L_end_State7:
	RETURN      0
; end of _State7

_State8:

;FirmV_0_7_0.c,1292 :: 		void State8()
;FirmV_0_7_0.c,1294 :: 		Flasher=1;
	BSF         PORTD+0, 7 
;FirmV_0_7_0.c,1295 :: 		FlashFlag=1;
	MOVLW       1
	MOVWF       _FlashFlag+0 
;FirmV_0_7_0.c,1297 :: 		if(CheckTask(1))
	MOVLW       1
	MOVWF       FARG_CheckTask+0 
	CALL        _CheckTask+0, 0
	MOVF        R0, 1 
	BTFSC       STATUS+0, 2 
	GOTO        L_State8277
;FirmV_0_7_0.c,1298 :: 		{StartMotor(1,_Open);Logger("S8 Motor1Start",1); Lock=0;memcpy(LCDLine1,_opening,16);memcpy(LCDLine2,_Blank,16);LCDUpdateFlag=1;LCDLines=1;}
	MOVLW       1
	MOVWF       FARG_StartMotor+0 
	MOVLW       1
	MOVWF       FARG_StartMotor+0 
	CALL        _StartMotor+0, 0
	MOVLW       ?lstr58_FirmV_0_7_0+0
	MOVWF       FARG_Logger_text+0 
	MOVLW       hi_addr(?lstr58_FirmV_0_7_0+0)
	MOVWF       FARG_Logger_text+1 
	MOVLW       1
	MOVWF       FARG_Logger_TimeStampFlag+0 
	CALL        _Logger+0, 0
	BCF         PORTD+0, 6 
	MOVLW       _LCDLine1+0
	MOVWF       FARG_memcpy_d1+0 
	MOVLW       hi_addr(_LCDLine1+0)
	MOVWF       FARG_memcpy_d1+1 
	MOVLW       __opening+0
	MOVWF       FARG_memcpy_s1+0 
	MOVLW       hi_addr(__opening+0)
	MOVWF       FARG_memcpy_s1+1 
	MOVLW       16
	MOVWF       FARG_memcpy_n+0 
	MOVLW       0
	MOVWF       FARG_memcpy_n+1 
	CALL        _memcpy+0, 0
	MOVLW       _LCDLine2+0
	MOVWF       FARG_memcpy_d1+0 
	MOVLW       hi_addr(_LCDLine2+0)
	MOVWF       FARG_memcpy_d1+1 
	MOVLW       __Blank+0
	MOVWF       FARG_memcpy_s1+0 
	MOVLW       hi_addr(__Blank+0)
	MOVWF       FARG_memcpy_s1+1 
	MOVLW       16
	MOVWF       FARG_memcpy_n+0 
	MOVLW       0
	MOVWF       FARG_memcpy_n+1 
	CALL        _memcpy+0, 0
	MOVLW       1
	MOVWF       _LCDUpdateFlag+0 
	MOVLW       1
	MOVWF       _LCDLines+0 
L_State8277:
;FirmV_0_7_0.c,1300 :: 		if(CheckTask(2))
	MOVLW       2
	MOVWF       FARG_CheckTask+0 
	CALL        _CheckTask+0, 0
	MOVF        R0, 1 
	BTFSC       STATUS+0, 2 
	GOTO        L_State8278
;FirmV_0_7_0.c,1301 :: 		{StartMotor(2,_Open);Logger("S8 Motor2Start",1); Lock=0;}
	MOVLW       2
	MOVWF       FARG_StartMotor+0 
	MOVLW       1
	MOVWF       FARG_StartMotor+0 
	CALL        _StartMotor+0, 0
	MOVLW       ?lstr59_FirmV_0_7_0+0
	MOVWF       FARG_Logger_text+0 
	MOVLW       hi_addr(?lstr59_FirmV_0_7_0+0)
	MOVWF       FARG_Logger_text+1 
	MOVLW       1
	MOVWF       FARG_Logger_TimeStampFlag+0 
	CALL        _Logger+0, 0
	BCF         PORTD+0, 6 
L_State8278:
;FirmV_0_7_0.c,1303 :: 		if(CheckTask(10))
	MOVLW       10
	MOVWF       FARG_CheckTask+0 
	CALL        _CheckTask+0, 0
	MOVF        R0, 1 
	BTFSC       STATUS+0, 2 
	GOTO        L_State8279
;FirmV_0_7_0.c,1304 :: 		{OverloadCheckFlag1=1; OverloadInit(1);Logger("S8 Overflow Flag1 Set",1);}
	MOVLW       1
	MOVWF       _OverloadCheckFlag1+0 
	MOVLW       1
	MOVWF       FARG_OverloadInit+0 
	CALL        _OverloadInit+0, 0
	MOVLW       ?lstr60_FirmV_0_7_0+0
	MOVWF       FARG_Logger_text+0 
	MOVLW       hi_addr(?lstr60_FirmV_0_7_0+0)
	MOVWF       FARG_Logger_text+1 
	MOVLW       1
	MOVWF       FARG_Logger_TimeStampFlag+0 
	CALL        _Logger+0, 0
L_State8279:
;FirmV_0_7_0.c,1306 :: 		if(CheckTask(11))
	MOVLW       11
	MOVWF       FARG_CheckTask+0 
	CALL        _CheckTask+0, 0
	MOVF        R0, 1 
	BTFSC       STATUS+0, 2 
	GOTO        L_State8280
;FirmV_0_7_0.c,1307 :: 		{OverloadCheckFlag2=1; OverloadInit(2);Logger("S8 Overflow Flag2 Set",1);}
	MOVLW       1
	MOVWF       _OverloadCheckFlag2+0 
	MOVLW       2
	MOVWF       FARG_OverloadInit+0 
	CALL        _OverloadInit+0, 0
	MOVLW       ?lstr61_FirmV_0_7_0+0
	MOVWF       FARG_Logger_text+0 
	MOVLW       hi_addr(?lstr61_FirmV_0_7_0+0)
	MOVWF       FARG_Logger_text+1 
	MOVLW       1
	MOVWF       FARG_Logger_TimeStampFlag+0 
	CALL        _Logger+0, 0
L_State8280:
;FirmV_0_7_0.c,1309 :: 		if(CheckTask(5))
	MOVLW       5
	MOVWF       FARG_CheckTask+0 
	CALL        _CheckTask+0, 0
	MOVF        R0, 1 
	BTFSC       STATUS+0, 2 
	GOTO        L_State8281
;FirmV_0_7_0.c,1310 :: 		{SetMotorSpeed(1,Motor2FullSpeed); M1isSlow=0;Logger("S8 Motor1 Fast",1);}
	MOVLW       1
	MOVWF       FARG_SetMotorSpeed+0 
	MOVF        _Motor2FullSpeed+0, 0 
	MOVWF       FARG_SetMotorSpeed+0 
	CALL        _SetMotorSpeed+0, 0
	CLRF        _M1isSlow+0 
	MOVLW       ?lstr62_FirmV_0_7_0+0
	MOVWF       FARG_Logger_text+0 
	MOVLW       hi_addr(?lstr62_FirmV_0_7_0+0)
	MOVWF       FARG_Logger_text+1 
	MOVLW       1
	MOVWF       FARG_Logger_TimeStampFlag+0 
	CALL        _Logger+0, 0
L_State8281:
;FirmV_0_7_0.c,1312 :: 		if(CheckTask(6))
	MOVLW       6
	MOVWF       FARG_CheckTask+0 
	CALL        _CheckTask+0, 0
	MOVF        R0, 1 
	BTFSC       STATUS+0, 2 
	GOTO        L_State8282
;FirmV_0_7_0.c,1313 :: 		{SetMotorSpeed(Motor1FullSpeed,1); M2isSlow=0;Logger("S8 Motor2 Fast",1);}
	MOVF        _Motor1FullSpeed+0, 0 
	MOVWF       FARG_SetMotorSpeed+0 
	MOVLW       1
	MOVWF       FARG_SetMotorSpeed+0 
	CALL        _SetMotorSpeed+0, 0
	CLRF        _M2isSlow+0 
	MOVLW       ?lstr63_FirmV_0_7_0+0
	MOVWF       FARG_Logger_text+0 
	MOVLW       hi_addr(?lstr63_FirmV_0_7_0+0)
	MOVWF       FARG_Logger_text+1 
	MOVLW       1
	MOVWF       FARG_Logger_TimeStampFlag+0 
	CALL        _Logger+0, 0
L_State8282:
;FirmV_0_7_0.c,1315 :: 		if((CheckTask(3)||((OverloadCheckFlag1==1)&&(Events.Overload.b0==1)))&&(OpenDone.b0))
	MOVLW       3
	MOVWF       FARG_CheckTask+0 
	CALL        _CheckTask+0, 0
	MOVF        R0, 1 
	BTFSS       STATUS+0, 2 
	GOTO        L__State8928
	MOVF        _OverloadCheckFlag1+0, 0 
	XORLW       1
	BTFSS       STATUS+0, 2 
	GOTO        L__State8929
	BTFSS       _Events+5, 0 
	GOTO        L__State8929
	GOTO        L__State8928
L__State8929:
	GOTO        L_State8289
L__State8928:
	BTFSS       _OpenDone+0, 0 
	GOTO        L_State8289
L__State8927:
;FirmV_0_7_0.c,1316 :: 		{OpenDone.b0=0; StopMotor(1);Logger("S8 Motor1 Stop",1);}
	BCF         _OpenDone+0, 0 
	MOVLW       1
	MOVWF       FARG_StopMotor+0 
	CALL        _StopMotor+0, 0
	MOVLW       ?lstr64_FirmV_0_7_0+0
	MOVWF       FARG_Logger_text+0 
	MOVLW       hi_addr(?lstr64_FirmV_0_7_0+0)
	MOVWF       FARG_Logger_text+1 
	MOVLW       1
	MOVWF       FARG_Logger_TimeStampFlag+0 
	CALL        _Logger+0, 0
L_State8289:
;FirmV_0_7_0.c,1318 :: 		if((CheckTask(4)||((OverloadCheckFlag2==1)&&(Events.Overload.b1==1)))&&(OpenDone.b1))
	MOVLW       4
	MOVWF       FARG_CheckTask+0 
	CALL        _CheckTask+0, 0
	MOVF        R0, 1 
	BTFSS       STATUS+0, 2 
	GOTO        L__State8925
	MOVF        _OverloadCheckFlag2+0, 0 
	XORLW       1
	BTFSS       STATUS+0, 2 
	GOTO        L__State8926
	BTFSS       _Events+5, 1 
	GOTO        L__State8926
	GOTO        L__State8925
L__State8926:
	GOTO        L_State8296
L__State8925:
	BTFSS       _OpenDone+0, 1 
	GOTO        L_State8296
L__State8924:
;FirmV_0_7_0.c,1319 :: 		{OpenDone.b1=0; StopMotor(2);Logger("S8 Motor2 Stop",1);}
	BCF         _OpenDone+0, 1 
	MOVLW       2
	MOVWF       FARG_StopMotor+0 
	CALL        _StopMotor+0, 0
	MOVLW       ?lstr65_FirmV_0_7_0+0
	MOVWF       FARG_Logger_text+0 
	MOVLW       hi_addr(?lstr65_FirmV_0_7_0+0)
	MOVWF       FARG_Logger_text+1 
	MOVLW       1
	MOVWF       FARG_Logger_TimeStampFlag+0 
	CALL        _Logger+0, 0
L_State8296:
;FirmV_0_7_0.c,1321 :: 		if(CheckTask(12))
	MOVLW       12
	MOVWF       FARG_CheckTask+0 
	CALL        _CheckTask+0, 0
	MOVF        R0, 1 
	BTFSC       STATUS+0, 2 
	GOTO        L_State8297
;FirmV_0_7_0.c,1322 :: 		{Lock=1;}
	BSF         PORTD+0, 6 
L_State8297:
;FirmV_0_7_0.c,1324 :: 		if((Door2OpenTime==0)||(ActiveDoors==1))
	MOVF        _Door2OpenTime+0, 0 
	XORLW       0
	BTFSC       STATUS+0, 2 
	GOTO        L__State8923
	MOVF        _ActiveDoors+0, 0 
	XORLW       1
	BTFSC       STATUS+0, 2 
	GOTO        L__State8923
	GOTO        L_State8300
L__State8923:
;FirmV_0_7_0.c,1325 :: 		OpenDone.b1=0;
	BCF         _OpenDone+0, 1 
L_State8300:
;FirmV_0_7_0.c,1328 :: 		if(KeyNoiseEliminator>=NoiseEliminatorTreshold)
	MOVLW       3
	SUBWF       _KeyNoiseEliminator+0, 0 
	BTFSS       STATUS+0, 0 
	GOTO        L_State8301
;FirmV_0_7_0.c,1330 :: 		if((Events.Photocell.b0==1)&&(OpenPhEnable))
	BTFSS       _Events+6, 0 
	GOTO        L_State8304
	MOVF        _OpenPhEnable+0, 1 
	BTFSC       STATUS+0, 2 
	GOTO        L_State8304
L__State8922:
;FirmV_0_7_0.c,1331 :: 		{StopMotor(1); StopMotor(2);OverloadCheckFlag1=0;OverloadCheckFlag2=0; State=5;Logger("S8 Photocell Int",1);ClearTasks(9);
	MOVLW       1
	MOVWF       FARG_StopMotor+0 
	CALL        _StopMotor+0, 0
	MOVLW       2
	MOVWF       FARG_StopMotor+0 
	CALL        _StopMotor+0, 0
	CLRF        _OverloadCheckFlag1+0 
	CLRF        _OverloadCheckFlag2+0 
	MOVLW       5
	MOVWF       _State+0 
	MOVLW       ?lstr66_FirmV_0_7_0+0
	MOVWF       FARG_Logger_text+0 
	MOVLW       hi_addr(?lstr66_FirmV_0_7_0+0)
	MOVWF       FARG_Logger_text+1 
	MOVLW       1
	MOVWF       FARG_Logger_TimeStampFlag+0 
	CALL        _Logger+0, 0
	MOVLW       9
	MOVWF       FARG_ClearTasks+0 
	CALL        _ClearTasks+0, 0
;FirmV_0_7_0.c,1332 :: 		memcpy(LCDLine1,_ErrPhoto,16);LCDUpdateFlag=1;LCDLines=1;}
	MOVLW       _LCDLine1+0
	MOVWF       FARG_memcpy_d1+0 
	MOVLW       hi_addr(_LCDLine1+0)
	MOVWF       FARG_memcpy_d1+1 
	MOVLW       __errPhoto+0
	MOVWF       FARG_memcpy_s1+0 
	MOVLW       hi_addr(__errPhoto+0)
	MOVWF       FARG_memcpy_s1+1 
	MOVLW       16
	MOVWF       FARG_memcpy_n+0 
	MOVLW       0
	MOVWF       FARG_memcpy_n+1 
	CALL        _memcpy+0, 0
	MOVLW       1
	MOVWF       _LCDUpdateFlag+0 
	MOVLW       1
	MOVWF       _LCDLines+0 
L_State8304:
;FirmV_0_7_0.c,1334 :: 		if((Events.Remote!=0))
	MOVF        _Events+4, 0 
	XORLW       0
	BTFSC       STATUS+0, 2 
	GOTO        L_State8305
;FirmV_0_7_0.c,1335 :: 		{StopMotor(1); StopMotor(2); State=5;OverloadCheckFlag1=0;OverloadCheckFlag2=0; Logger("S8 Motors Stoped (Remote)",1);ClearTasks(9);
	MOVLW       1
	MOVWF       FARG_StopMotor+0 
	CALL        _StopMotor+0, 0
	MOVLW       2
	MOVWF       FARG_StopMotor+0 
	CALL        _StopMotor+0, 0
	MOVLW       5
	MOVWF       _State+0 
	CLRF        _OverloadCheckFlag1+0 
	CLRF        _OverloadCheckFlag2+0 
	MOVLW       ?lstr67_FirmV_0_7_0+0
	MOVWF       FARG_Logger_text+0 
	MOVLW       hi_addr(?lstr67_FirmV_0_7_0+0)
	MOVWF       FARG_Logger_text+1 
	MOVLW       1
	MOVWF       FARG_Logger_TimeStampFlag+0 
	CALL        _Logger+0, 0
	MOVLW       9
	MOVWF       FARG_ClearTasks+0 
	CALL        _ClearTasks+0, 0
;FirmV_0_7_0.c,1336 :: 		memcpy(LCDLine1,_ErrRemote,16);LCDUpdateFlag=1;LCDLines=1;}
	MOVLW       _LCDLine1+0
	MOVWF       FARG_memcpy_d1+0 
	MOVLW       hi_addr(_LCDLine1+0)
	MOVWF       FARG_memcpy_d1+1 
	MOVLW       __errRemote+0
	MOVWF       FARG_memcpy_s1+0 
	MOVLW       hi_addr(__errRemote+0)
	MOVWF       FARG_memcpy_s1+1 
	MOVLW       16
	MOVWF       FARG_memcpy_n+0 
	MOVLW       0
	MOVWF       FARG_memcpy_n+1 
	CALL        _memcpy+0, 0
	MOVLW       1
	MOVWF       _LCDUpdateFlag+0 
	MOVLW       1
	MOVWF       _LCDLines+0 
L_State8305:
;FirmV_0_7_0.c,1338 :: 		if((Events.Limiter==1)&&(LimiterEnable))
	MOVF        _Events+7, 0 
	XORLW       1
	BTFSS       STATUS+0, 2 
	GOTO        L_State8308
	MOVF        _LimiterEnable+0, 1 
	BTFSC       STATUS+0, 2 
	GOTO        L_State8308
L__State8921:
;FirmV_0_7_0.c,1339 :: 		{StopMotor(1); StopMotor(2); State=5;OverloadCheckFlag1=0;OverloadCheckFlag2=0; Logger("S8 Limit Switch Stop",1);ClearTasks(9);
	MOVLW       1
	MOVWF       FARG_StopMotor+0 
	CALL        _StopMotor+0, 0
	MOVLW       2
	MOVWF       FARG_StopMotor+0 
	CALL        _StopMotor+0, 0
	MOVLW       5
	MOVWF       _State+0 
	CLRF        _OverloadCheckFlag1+0 
	CLRF        _OverloadCheckFlag2+0 
	MOVLW       ?lstr68_FirmV_0_7_0+0
	MOVWF       FARG_Logger_text+0 
	MOVLW       hi_addr(?lstr68_FirmV_0_7_0+0)
	MOVWF       FARG_Logger_text+1 
	MOVLW       1
	MOVWF       FARG_Logger_TimeStampFlag+0 
	CALL        _Logger+0, 0
	MOVLW       9
	MOVWF       FARG_ClearTasks+0 
	CALL        _ClearTasks+0, 0
;FirmV_0_7_0.c,1340 :: 		memcpy(LCDLine1,_ErrLimit,16);LCDUpdateFlag=1;LCDLines=1;}
	MOVLW       _LCDLine1+0
	MOVWF       FARG_memcpy_d1+0 
	MOVLW       hi_addr(_LCDLine1+0)
	MOVWF       FARG_memcpy_d1+1 
	MOVLW       __errLimit+0
	MOVWF       FARG_memcpy_s1+0 
	MOVLW       hi_addr(__errLimit+0)
	MOVWF       FARG_memcpy_s1+1 
	MOVLW       16
	MOVWF       FARG_memcpy_n+0 
	MOVLW       0
	MOVWF       FARG_memcpy_n+1 
	CALL        _memcpy+0, 0
	MOVLW       1
	MOVWF       _LCDUpdateFlag+0 
	MOVLW       1
	MOVWF       _LCDLines+0 
L_State8308:
;FirmV_0_7_0.c,1341 :: 		}
L_State8301:
;FirmV_0_7_0.c,1343 :: 		if(OpenDone==0)
	MOVF        _OpenDone+0, 0 
	XORLW       0
	BTFSS       STATUS+0, 2 
	GOTO        L_State8309
;FirmV_0_7_0.c,1345 :: 		if(AutoCloseTime!=0)
	MOVLW       0
	XORWF       _AutoCloseTime+1, 0 
	BTFSS       STATUS+0, 2 
	GOTO        L__State81031
	MOVLW       0
	XORWF       _AutoCloseTime+0, 0 
L__State81031:
	BTFSC       STATUS+0, 2 
	GOTO        L_State8310
;FirmV_0_7_0.c,1346 :: 		{AddTask(ms500+AutoCloseTime,9);}
	MOVF        _AutoCloseTime+0, 0 
	ADDWF       _ms500+0, 0 
	MOVWF       FARG_AddTask+0 
	MOVF        _AutoCloseTime+1, 0 
	ADDWFC      _ms500+1, 0 
	MOVWF       FARG_AddTask+1 
	MOVLW       0
	ADDWFC      _ms500+2, 0 
	MOVWF       FARG_AddTask+2 
	MOVLW       0
	ADDWFC      _ms500+3, 0 
	MOVWF       FARG_AddTask+3 
	MOVLW       9
	MOVWF       FARG_AddTask+0 
	CALL        _AddTask+0, 0
L_State8310:
;FirmV_0_7_0.c,1347 :: 		if(LockEnable)
	MOVF        _LockEnable+0, 1 
	BTFSC       STATUS+0, 2 
	GOTO        L_State8311
;FirmV_0_7_0.c,1348 :: 		{StartMotor(1,_Close);StartMotor(2,_Close);SetMotorSpeed(1,Motor2FullSpeed);OverloadCheckFlag1=0; M1isSlow=0;SetMotorSpeed(Motor1FullSpeed,1);OverloadCheckFlag2=0; M2isSlow=0;
	MOVLW       1
	MOVWF       FARG_StartMotor+0 
	CLRF        FARG_StartMotor+0 
	CALL        _StartMotor+0, 0
	MOVLW       2
	MOVWF       FARG_StartMotor+0 
	CLRF        FARG_StartMotor+0 
	CALL        _StartMotor+0, 0
	MOVLW       1
	MOVWF       FARG_SetMotorSpeed+0 
	MOVF        _Motor2FullSpeed+0, 0 
	MOVWF       FARG_SetMotorSpeed+0 
	CALL        _SetMotorSpeed+0, 0
	CLRF        _OverloadCheckFlag1+0 
	CLRF        _M1isSlow+0 
	MOVF        _Motor1FullSpeed+0, 0 
	MOVWF       FARG_SetMotorSpeed+0 
	MOVLW       1
	MOVWF       FARG_SetMotorSpeed+0 
	CALL        _SetMotorSpeed+0, 0
	CLRF        _OverloadCheckFlag2+0 
	CLRF        _M2isSlow+0 
;FirmV_0_7_0.c,1349 :: 		AddTask(ms500+RelaseTime,3);AddTask(ms500+RelaseTime,4);AddTask(ms500+1+RelaseTime,13);OpenDone.b2=1;}
	MOVLW       1
	ADDWF       _ms500+0, 0 
	MOVWF       FARG_AddTask+0 
	MOVLW       0
	ADDWFC      _ms500+1, 0 
	MOVWF       FARG_AddTask+1 
	MOVLW       0
	ADDWFC      _ms500+2, 0 
	MOVWF       FARG_AddTask+2 
	MOVLW       0
	ADDWFC      _ms500+3, 0 
	MOVWF       FARG_AddTask+3 
	MOVLW       3
	MOVWF       FARG_AddTask+0 
	CALL        _AddTask+0, 0
	MOVLW       1
	ADDWF       _ms500+0, 0 
	MOVWF       FARG_AddTask+0 
	MOVLW       0
	ADDWFC      _ms500+1, 0 
	MOVWF       FARG_AddTask+1 
	MOVLW       0
	ADDWFC      _ms500+2, 0 
	MOVWF       FARG_AddTask+2 
	MOVLW       0
	ADDWFC      _ms500+3, 0 
	MOVWF       FARG_AddTask+3 
	MOVLW       4
	MOVWF       FARG_AddTask+0 
	CALL        _AddTask+0, 0
	MOVLW       1
	ADDWF       _ms500+0, 0 
	MOVWF       FARG_AddTask+0 
	MOVLW       0
	ADDWFC      _ms500+1, 0 
	MOVWF       FARG_AddTask+1 
	MOVLW       0
	ADDWFC      _ms500+2, 0 
	MOVWF       FARG_AddTask+2 
	MOVLW       0
	ADDWFC      _ms500+3, 0 
	MOVWF       FARG_AddTask+3 
	MOVLW       1
	ADDWF       FARG_AddTask+0, 1 
	MOVLW       0
	ADDWFC      FARG_AddTask+1, 1 
	ADDWFC      FARG_AddTask+2, 1 
	ADDWFC      FARG_AddTask+3, 1 
	MOVLW       13
	MOVWF       FARG_AddTask+0 
	CALL        _AddTask+0, 0
	BSF         _OpenDone+0, 2 
	GOTO        L_State8312
L_State8311:
;FirmV_0_7_0.c,1351 :: 		{AddTask(ms500+1,13);OpenDone.b2=1;}
	MOVLW       1
	ADDWF       _ms500+0, 0 
	MOVWF       FARG_AddTask+0 
	MOVLW       0
	ADDWFC      _ms500+1, 0 
	MOVWF       FARG_AddTask+1 
	MOVLW       0
	ADDWFC      _ms500+2, 0 
	MOVWF       FARG_AddTask+2 
	MOVLW       0
	ADDWFC      _ms500+3, 0 
	MOVWF       FARG_AddTask+3 
	MOVLW       13
	MOVWF       FARG_AddTask+0 
	CALL        _AddTask+0, 0
	BSF         _OpenDone+0, 2 
L_State8312:
;FirmV_0_7_0.c,1352 :: 		}
L_State8309:
;FirmV_0_7_0.c,1355 :: 		if(CheckTask(13))
	MOVLW       13
	MOVWF       FARG_CheckTask+0 
	CALL        _CheckTask+0, 0
	MOVF        R0, 1 
	BTFSC       STATUS+0, 2 
	GOTO        L_State8313
;FirmV_0_7_0.c,1356 :: 		{State=2; PassFlag=0;PrevAC=0;ClearTasks(9);memcpy(LCDLine1,_open,16);memcpy(LCDLine2,_Blank,16);LCDUpdateFlag=1;LCDLines=2;}
	MOVLW       2
	MOVWF       _State+0 
	CLRF        _PassFlag+0 
	CLRF        _PrevAC+0 
	MOVLW       9
	MOVWF       FARG_ClearTasks+0 
	CALL        _ClearTasks+0, 0
	MOVLW       _LCDLine1+0
	MOVWF       FARG_memcpy_d1+0 
	MOVLW       hi_addr(_LCDLine1+0)
	MOVWF       FARG_memcpy_d1+1 
	MOVLW       __open+0
	MOVWF       FARG_memcpy_s1+0 
	MOVLW       hi_addr(__open+0)
	MOVWF       FARG_memcpy_s1+1 
	MOVLW       16
	MOVWF       FARG_memcpy_n+0 
	MOVLW       0
	MOVWF       FARG_memcpy_n+1 
	CALL        _memcpy+0, 0
	MOVLW       _LCDLine2+0
	MOVWF       FARG_memcpy_d1+0 
	MOVLW       hi_addr(_LCDLine2+0)
	MOVWF       FARG_memcpy_d1+1 
	MOVLW       __Blank+0
	MOVWF       FARG_memcpy_s1+0 
	MOVLW       hi_addr(__Blank+0)
	MOVWF       FARG_memcpy_s1+1 
	MOVLW       16
	MOVWF       FARG_memcpy_n+0 
	MOVLW       0
	MOVWF       FARG_memcpy_n+1 
	CALL        _memcpy+0, 0
	MOVLW       1
	MOVWF       _LCDUpdateFlag+0 
	MOVLW       2
	MOVWF       _LCDLines+0 
L_State8313:
;FirmV_0_7_0.c,1358 :: 		if((State==5)||(State==6))
	MOVF        _State+0, 0 
	XORLW       5
	BTFSC       STATUS+0, 2 
	GOTO        L__State8920
	MOVF        _State+0, 0 
	XORLW       6
	BTFSC       STATUS+0, 2 
	GOTO        L__State8920
	GOTO        L_State8316
L__State8920:
;FirmV_0_7_0.c,1359 :: 		{ClearTasks(0);if(AutoCloseTime!=0){AddTask(ms500+AutoCloseTime,9);AutoClosePauseFlag=0;PrevAC=0;Logger("S8 Autoclose Renewed",1);}}
	CLRF        FARG_ClearTasks+0 
	CALL        _ClearTasks+0, 0
	MOVLW       0
	XORWF       _AutoCloseTime+1, 0 
	BTFSS       STATUS+0, 2 
	GOTO        L__State81032
	MOVLW       0
	XORWF       _AutoCloseTime+0, 0 
L__State81032:
	BTFSC       STATUS+0, 2 
	GOTO        L_State8317
	MOVF        _AutoCloseTime+0, 0 
	ADDWF       _ms500+0, 0 
	MOVWF       FARG_AddTask+0 
	MOVF        _AutoCloseTime+1, 0 
	ADDWFC      _ms500+1, 0 
	MOVWF       FARG_AddTask+1 
	MOVLW       0
	ADDWFC      _ms500+2, 0 
	MOVWF       FARG_AddTask+2 
	MOVLW       0
	ADDWFC      _ms500+3, 0 
	MOVWF       FARG_AddTask+3 
	MOVLW       9
	MOVWF       FARG_AddTask+0 
	CALL        _AddTask+0, 0
	CLRF        _AutoClosePauseFlag+0 
	CLRF        _PrevAC+0 
	MOVLW       ?lstr69_FirmV_0_7_0+0
	MOVWF       FARG_Logger_text+0 
	MOVLW       hi_addr(?lstr69_FirmV_0_7_0+0)
	MOVWF       FARG_Logger_text+1 
	MOVLW       1
	MOVWF       FARG_Logger_TimeStampFlag+0 
	CALL        _Logger+0, 0
L_State8317:
L_State8316:
;FirmV_0_7_0.c,1362 :: 		}
L_end_State8:
	RETURN      0
; end of _State8

_LCDUpdater:

;FirmV_0_7_0.c,1371 :: 		void LCDUpdater()
;FirmV_0_7_0.c,1376 :: 		if(LCDUpdateFlag==1)
	MOVF        _LCDUpdateFlag+0, 0 
	XORLW       1
	BTFSS       STATUS+0, 2 
	GOTO        L_LCDUpdater318
;FirmV_0_7_0.c,1378 :: 		if(LCDLines!=line)
	MOVF        _LCDLines+0, 0 
	XORWF       LCDUpdater_line_L0+0, 0 
	BTFSC       STATUS+0, 2 
	GOTO        L_LCDUpdater319
;FirmV_0_7_0.c,1380 :: 		line=LCDLines;
	MOVF        _LCDLines+0, 0 
	MOVWF       LCDUpdater_line_L0+0 
;FirmV_0_7_0.c,1381 :: 		LCD_init(LCDLines);
	MOVF        _LCDLines+0, 0 
	MOVWF       FARG_LCD_Init+0 
	CALL        _LCD_Init+0, 0
;FirmV_0_7_0.c,1382 :: 		delay_ms(50);
	MOVLW       3
	MOVWF       R11, 0
	MOVLW       138
	MOVWF       R12, 0
	MOVLW       85
	MOVWF       R13, 0
L_LCDUpdater320:
	DECFSZ      R13, 1, 1
	BRA         L_LCDUpdater320
	DECFSZ      R12, 1, 1
	BRA         L_LCDUpdater320
	DECFSZ      R11, 1, 1
	BRA         L_LCDUpdater320
	NOP
	NOP
;FirmV_0_7_0.c,1383 :: 		}
L_LCDUpdater319:
;FirmV_0_7_0.c,1384 :: 		lcd_out(1,0,LCDLine1);
	MOVLW       1
	MOVWF       FARG_LCD_out+0 
	CLRF        FARG_LCD_out+0 
	MOVLW       _LCDLine1+0
	MOVWF       FARG_LCD_out+0 
	MOVLW       hi_addr(_LCDLine1+0)
	MOVWF       FARG_LCD_out+1 
	CALL        _LCD_out+0, 0
;FirmV_0_7_0.c,1385 :: 		if(!LCDFlash)
	MOVF        _LCDFlash+0, 1 
	BTFSS       STATUS+0, 2 
	GOTO        L_LCDUpdater321
;FirmV_0_7_0.c,1386 :: 		lcd_out(2,0,LCDLine2);
	MOVLW       2
	MOVWF       FARG_LCD_out+0 
	CLRF        FARG_LCD_out+0 
	MOVLW       _LCDLine2+0
	MOVWF       FARG_LCD_out+0 
	MOVLW       hi_addr(_LCDLine2+0)
	MOVWF       FARG_LCD_out+1 
	CALL        _LCD_out+0, 0
	GOTO        L_LCDUpdater322
L_LCDUpdater321:
;FirmV_0_7_0.c,1388 :: 		UpdateWhenFlashing=1;
	MOVLW       1
	MOVWF       LCDUpdater_UpdateWhenFlashing_L0+0 
L_LCDUpdater322:
;FirmV_0_7_0.c,1389 :: 		LCDUpdateFlag=0;
	CLRF        _LCDUpdateFlag+0 
;FirmV_0_7_0.c,1390 :: 		}
L_LCDUpdater318:
;FirmV_0_7_0.c,1392 :: 		if(LCDFlash)
	MOVF        _LCDFlash+0, 1 
	BTFSC       STATUS+0, 2 
	GOTO        L_LCDUpdater323
;FirmV_0_7_0.c,1394 :: 		if(((LCDFlashFlag)&&(LastLCDFlashState==0))||((LastLCDFlashState)&&(UpdatewhenFlashing)))
	MOVF        _LCDFlashFlag+0, 1 
	BTFSC       STATUS+0, 2 
	GOTO        L__LCDUpdater935
	MOVF        LCDUpdater_LastLCDFlashState_L0+0, 0 
	XORLW       0
	BTFSS       STATUS+0, 2 
	GOTO        L__LCDUpdater935
	GOTO        L__LCDUpdater933
L__LCDUpdater935:
	MOVF        LCDUpdater_LastLCDFlashState_L0+0, 1 
	BTFSC       STATUS+0, 2 
	GOTO        L__LCDUpdater934
	MOVF        LCDUpdater_UpdateWhenFlashing_L0+0, 1 
	BTFSC       STATUS+0, 2 
	GOTO        L__LCDUpdater934
	GOTO        L__LCDUpdater933
L__LCDUpdater934:
	GOTO        L_LCDUpdater330
L__LCDUpdater933:
;FirmV_0_7_0.c,1395 :: 		{memcpy(LCDLineTemp,LCDLine2,16);LCDLineTemp[0]='>';LCDLineTemp[1]='>';LCDLineTemp[2]='>';LCDLineTemp[13]='<';LCDLineTemp[14]='<';LCDLineTemp[15]='<';lcd_out(2,0,LCDLineTemp);LastLCDFlashState=1;UpdatewhenFlashing=0;}
	MOVLW       LCDUpdater_LCDLineTemp_L0+0
	MOVWF       FARG_memcpy_d1+0 
	MOVLW       hi_addr(LCDUpdater_LCDLineTemp_L0+0)
	MOVWF       FARG_memcpy_d1+1 
	MOVLW       _LCDLine2+0
	MOVWF       FARG_memcpy_s1+0 
	MOVLW       hi_addr(_LCDLine2+0)
	MOVWF       FARG_memcpy_s1+1 
	MOVLW       16
	MOVWF       FARG_memcpy_n+0 
	MOVLW       0
	MOVWF       FARG_memcpy_n+1 
	CALL        _memcpy+0, 0
	MOVLW       62
	MOVWF       LCDUpdater_LCDLineTemp_L0+0 
	MOVLW       62
	MOVWF       LCDUpdater_LCDLineTemp_L0+1 
	MOVLW       62
	MOVWF       LCDUpdater_LCDLineTemp_L0+2 
	MOVLW       60
	MOVWF       LCDUpdater_LCDLineTemp_L0+13 
	MOVLW       60
	MOVWF       LCDUpdater_LCDLineTemp_L0+14 
	MOVLW       60
	MOVWF       LCDUpdater_LCDLineTemp_L0+15 
	MOVLW       2
	MOVWF       FARG_LCD_out+0 
	CLRF        FARG_LCD_out+0 
	MOVLW       LCDUpdater_LCDLineTemp_L0+0
	MOVWF       FARG_LCD_out+0 
	MOVLW       hi_addr(LCDUpdater_LCDLineTemp_L0+0)
	MOVWF       FARG_LCD_out+1 
	CALL        _LCD_out+0, 0
	MOVLW       1
	MOVWF       LCDUpdater_LastLCDFlashState_L0+0 
	CLRF        LCDUpdater_UpdateWhenFlashing_L0+0 
L_LCDUpdater330:
;FirmV_0_7_0.c,1396 :: 		if(((!LCDFlashFlag)&&(LastLCDFlashState!=0))||((!LastLCDFlashState)&&(UpdatewhenFlashing)))
	MOVF        _LCDFlashFlag+0, 1 
	BTFSS       STATUS+0, 2 
	GOTO        L__LCDUpdater932
	MOVF        LCDUpdater_LastLCDFlashState_L0+0, 0 
	XORLW       0
	BTFSC       STATUS+0, 2 
	GOTO        L__LCDUpdater932
	GOTO        L__LCDUpdater930
L__LCDUpdater932:
	MOVF        LCDUpdater_LastLCDFlashState_L0+0, 1 
	BTFSS       STATUS+0, 2 
	GOTO        L__LCDUpdater931
	MOVF        LCDUpdater_UpdateWhenFlashing_L0+0, 1 
	BTFSC       STATUS+0, 2 
	GOTO        L__LCDUpdater931
	GOTO        L__LCDUpdater930
L__LCDUpdater931:
	GOTO        L_LCDUpdater337
L__LCDUpdater930:
;FirmV_0_7_0.c,1397 :: 		{lcd_out(2,0,LCDLine2);LastLCDFlashState=0;UpdatewhenFlashing=0;}
	MOVLW       2
	MOVWF       FARG_LCD_out+0 
	CLRF        FARG_LCD_out+0 
	MOVLW       _LCDLine2+0
	MOVWF       FARG_LCD_out+0 
	MOVLW       hi_addr(_LCDLine2+0)
	MOVWF       FARG_LCD_out+1 
	CALL        _LCD_out+0, 0
	CLRF        LCDUpdater_LastLCDFlashState_L0+0 
	CLRF        LCDUpdater_UpdateWhenFlashing_L0+0 
L_LCDUpdater337:
;FirmV_0_7_0.c,1398 :: 		}
L_LCDUpdater323:
;FirmV_0_7_0.c,1401 :: 		}
L_end_LCDUpdater:
	RETURN      0
; end of _LCDUpdater

_Init:

;FirmV_0_7_0.c,1421 :: 		void Init()
;FirmV_0_7_0.c,1423 :: 		char i=0;
	CLRF        Init_i_L0+0 
;FirmV_0_7_0.c,1425 :: 		porta=0;
	CLRF        PORTA+0 
;FirmV_0_7_0.c,1426 :: 		portb=0;
	CLRF        PORTB+0 
;FirmV_0_7_0.c,1427 :: 		portc=0;
	CLRF        PORTC+0 
;FirmV_0_7_0.c,1428 :: 		portd=0;
	CLRF        PORTD+0 
;FirmV_0_7_0.c,1429 :: 		porte=0;
	CLRF        PORTE+0 
;FirmV_0_7_0.c,1430 :: 		trisa=0b101111;
	MOVLW       47
	MOVWF       TRISA+0 
;FirmV_0_7_0.c,1431 :: 		trisb=0b00000111;
	MOVLW       7
	MOVWF       TRISB+0 
;FirmV_0_7_0.c,1432 :: 		trisc=0b10000100;
	MOVLW       132
	MOVWF       TRISC+0 
;FirmV_0_7_0.c,1433 :: 		trisd=0b00111111;
	MOVLW       63
	MOVWF       TRISD+0 
;FirmV_0_7_0.c,1434 :: 		trise=0b001;
	MOVLW       1
	MOVWF       TRISE+0 
;FirmV_0_7_0.c,1435 :: 		adcon1=0b1100;  // an6, an5 and an7 is digital
	MOVLW       12
	MOVWF       ADCON1+0 
;FirmV_0_7_0.c,1441 :: 		LCDBackLight=1;
	BSF         PORTA+0, 4 
;FirmV_0_7_0.c,1442 :: 		I2C1_init(100000);
	MOVLW       100
	MOVWF       SSPADD+0 
	CALL        _I2C1_Init+0, 0
;FirmV_0_7_0.c,1444 :: 		delay_ms(100);
	MOVLW       6
	MOVWF       R11, 0
	MOVLW       19
	MOVWF       R12, 0
	MOVLW       173
	MOVWF       R13, 0
L_Init338:
	DECFSZ      R13, 1, 1
	BRA         L_Init338
	DECFSZ      R12, 1, 1
	BRA         L_Init338
	DECFSZ      R11, 1, 1
	BRA         L_Init338
	NOP
	NOP
;FirmV_0_7_0.c,1446 :: 		LCD_init(1);
	MOVLW       1
	MOVWF       FARG_LCD_Init+0 
	CALL        _LCD_Init+0, 0
;FirmV_0_7_0.c,1447 :: 		LCDLines=1;
	MOVLW       1
	MOVWF       _LCDLines+0 
;FirmV_0_7_0.c,1448 :: 		delay_ms(300);
	MOVLW       16
	MOVWF       R11, 0
	MOVLW       57
	MOVWF       R12, 0
	MOVLW       13
	MOVWF       R13, 0
L_Init339:
	DECFSZ      R13, 1, 1
	BRA         L_Init339
	DECFSZ      R12, 1, 1
	BRA         L_Init339
	DECFSZ      R11, 1, 1
	BRA         L_Init339
	NOP
	NOP
;FirmV_0_7_0.c,1449 :: 		SetContrast(20);
	MOVLW       20
	MOVWF       FARG_SetContrast+0 
	CALL        _SetContrast+0, 0
;FirmV_0_7_0.c,1452 :: 		ms500=0;
	CLRF        _ms500+0 
	CLRF        _ms500+1 
	CLRF        _ms500+2 
	CLRF        _ms500+3 
;FirmV_0_7_0.c,1453 :: 		t0con=0b10000101; //enable tmr0 and prescalar
	MOVLW       133
	MOVWF       T0CON+0 
;FirmV_0_7_0.c,1454 :: 		intcon.b7=1;   //global int enable
	BSF         INTCON+0, 7 
;FirmV_0_7_0.c,1455 :: 		intcon.b5=1;  //tmr0 int enable
	BSF         INTCON+0, 5 
;FirmV_0_7_0.c,1456 :: 		intcon.b2=0; //tmr0 flag
	BCF         INTCON+0, 2 
;FirmV_0_7_0.c,1457 :: 		tmr0h=0xF3;
	MOVLW       243
	MOVWF       TMR0H+0 
;FirmV_0_7_0.c,1458 :: 		tmr0l=0xCA;
	MOVLW       202
	MOVWF       TMR0L+0 
;FirmV_0_7_0.c,1462 :: 		t1con=0b00011000;
	MOVLW       24
	MOVWF       T1CON+0 
;FirmV_0_7_0.c,1463 :: 		PEIE_GIEL_bit=1;
	BSF         PEIE_GIEL_bit+0, BitPos(PEIE_GIEL_bit+0) 
;FirmV_0_7_0.c,1464 :: 		TMR1IP_bit=1;
	BSF         TMR1IP_bit+0, BitPos(TMR1IP_bit+0) 
;FirmV_0_7_0.c,1465 :: 		TMR1IF_bit=0;
	BCF         TMR1IF_bit+0, BitPos(TMR1IF_bit+0) 
;FirmV_0_7_0.c,1466 :: 		TMR1IE_bit=0;
	BCF         TMR1IE_bit+0, BitPos(TMR1IE_bit+0) 
;FirmV_0_7_0.c,1470 :: 		t2con=0b00011011;
	MOVLW       27
	MOVWF       T2CON+0 
;FirmV_0_7_0.c,1471 :: 		PEIE_GIEL_bit=1;
	BSF         PEIE_GIEL_bit+0, BitPos(PEIE_GIEL_bit+0) 
;FirmV_0_7_0.c,1472 :: 		TMR2IP_bit=1;
	BSF         TMR2IP_bit+0, BitPos(TMR2IP_bit+0) 
;FirmV_0_7_0.c,1473 :: 		TMR2IF_bit=0;
	BCF         TMR2IF_bit+0, BitPos(TMR2IF_bit+0) 
;FirmV_0_7_0.c,1474 :: 		TMR2IE_bit=0;
	BCF         TMR2IE_bit+0, BitPos(TMR2IE_bit+0) 
;FirmV_0_7_0.c,1475 :: 		PR2=117;
	MOVLW       117
	MOVWF       PR2+0 
;FirmV_0_7_0.c,1479 :: 		t3con=0b00001000;
	MOVLW       8
	MOVWF       T3CON+0 
;FirmV_0_7_0.c,1480 :: 		PEIE_GIEL_bit=1;
	BSF         PEIE_GIEL_bit+0, BitPos(PEIE_GIEL_bit+0) 
;FirmV_0_7_0.c,1481 :: 		TMR3IP_bit=1;
	BSF         TMR3IP_bit+0, BitPos(TMR3IP_bit+0) 
;FirmV_0_7_0.c,1482 :: 		TMR3IF_bit=0;
	BCF         TMR3IF_bit+0, BitPos(TMR3IF_bit+0) 
;FirmV_0_7_0.c,1483 :: 		TMR3IE_bit=0;
	BCF         TMR3IE_bit+0, BitPos(TMR3IE_bit+0) 
;FirmV_0_7_0.c,1487 :: 		INT1IP_bit=1;
	BSF         INT1IP_bit+0, BitPos(INT1IP_bit+0) 
;FirmV_0_7_0.c,1488 :: 		INT1E_bit=1;
	BSF         INT1E_bit+0, BitPos(INT1E_bit+0) 
;FirmV_0_7_0.c,1489 :: 		INT1F_bit=0;
	BCF         INT1F_bit+0, BitPos(INT1F_bit+0) 
;FirmV_0_7_0.c,1490 :: 		INT2IP_bit=1;
	BSF         INT2IP_bit+0, BitPos(INT2IP_bit+0) 
;FirmV_0_7_0.c,1491 :: 		INT2E_bit=1;
	BSF         INT2E_bit+0, BitPos(INT2E_bit+0) 
;FirmV_0_7_0.c,1492 :: 		INT2F_bit=0;
	BCF         INT2F_bit+0, BitPos(INT2F_bit+0) 
;FirmV_0_7_0.c,1493 :: 		INTEDG1_bit=1;
	BSF         INTEDG1_bit+0, BitPos(INTEDG1_bit+0) 
;FirmV_0_7_0.c,1494 :: 		INTEDG2_bit=1;
	BSF         INTEDG2_bit+0, BitPos(INTEDG2_bit+0) 
;FirmV_0_7_0.c,1497 :: 		INT0F_bit=0;
	BCF         INT0F_bit+0, BitPos(INT0F_bit+0) 
;FirmV_0_7_0.c,1498 :: 		INT0E_bit=0;
	BCF         INT0E_bit+0, BitPos(INT0E_bit+0) 
;FirmV_0_7_0.c,1501 :: 		for(i=0;i<20;i++)
	CLRF        Init_i_L0+0 
L_Init340:
	MOVLW       20
	SUBWF       Init_i_L0+0, 0 
	BTFSC       STATUS+0, 0 
	GOTO        L_Init341
;FirmV_0_7_0.c,1502 :: 		Tasks[i].Expired=1;
	MOVLW       7
	MOVWF       R0 
	MOVLW       0
	MOVWF       R1 
	MOVF        Init_i_L0+0, 0 
	MOVWF       R4 
	MOVLW       0
	MOVWF       R5 
	CALL        _Mul_16X16_U+0, 0
	MOVLW       _Tasks+0
	ADDWF       R0, 1 
	MOVLW       hi_addr(_Tasks+0)
	ADDWFC      R1, 1 
	MOVLW       5
	ADDWF       R0, 0 
	MOVWF       FSR1 
	MOVLW       0
	ADDWFC      R1, 0 
	MOVWF       FSR1H 
	MOVLW       1
	MOVWF       POSTINC1+0 
;FirmV_0_7_0.c,1501 :: 		for(i=0;i<20;i++)
	INCF        Init_i_L0+0, 1 
;FirmV_0_7_0.c,1502 :: 		Tasks[i].Expired=1;
	GOTO        L_Init340
L_Init341:
;FirmV_0_7_0.c,1505 :: 		Events.Keys=0;
	CLRF        _Events+0 
;FirmV_0_7_0.c,1506 :: 		Events.Task1=0;
	CLRF        _Events+1 
;FirmV_0_7_0.c,1507 :: 		Events.Task2=0;
	CLRF        _Events+2 
;FirmV_0_7_0.c,1508 :: 		Events.Task3=0;
	CLRF        _Events+3 
;FirmV_0_7_0.c,1509 :: 		Events.Remote=0;
	CLRF        _Events+4 
;FirmV_0_7_0.c,1510 :: 		Events.Overload=0;
	CLRF        _Events+5 
;FirmV_0_7_0.c,1511 :: 		Events.Photocell=0;
	CLRF        _Events+6 
;FirmV_0_7_0.c,1514 :: 		State=0;
	CLRF        _State+0 
;FirmV_0_7_0.c,1517 :: 		UART1_init(115200);
	BSF         BAUDCON+0, 3, 0
	CLRF        SPBRGH+0 
	MOVLW       86
	MOVWF       SPBRG+0 
	BSF         TXSTA+0, 2, 0
	CALL        _UART1_Init+0, 0
;FirmV_0_7_0.c,1520 :: 		LoadConfigs();
	CALL        _LoadConfigs+0, 0
;FirmV_0_7_0.c,1524 :: 		}
L_end_Init:
	RETURN      0
; end of _Init

_TaskManager:

;FirmV_0_7_0.c,1538 :: 		void TaskManager()
;FirmV_0_7_0.c,1540 :: 		char i=0;
	CLRF        TaskManager_i_L0+0 
;FirmV_0_7_0.c,1541 :: 		for(i=0;i<20;i++)
	CLRF        TaskManager_i_L0+0 
L_TaskManager343:
	MOVLW       20
	SUBWF       TaskManager_i_L0+0, 0 
	BTFSC       STATUS+0, 0 
	GOTO        L_TaskManager344
;FirmV_0_7_0.c,1542 :: 		if((Tasks[i].Expired==0)&&(Tasks[i].Time==ms500)&&(Tasks[i].Fired==0))
	MOVLW       7
	MOVWF       R0 
	MOVLW       0
	MOVWF       R1 
	MOVF        TaskManager_i_L0+0, 0 
	MOVWF       R4 
	MOVLW       0
	MOVWF       R5 
	CALL        _Mul_16X16_U+0, 0
	MOVLW       _Tasks+0
	ADDWF       R0, 1 
	MOVLW       hi_addr(_Tasks+0)
	ADDWFC      R1, 1 
	MOVLW       5
	ADDWF       R0, 0 
	MOVWF       FSR0 
	MOVLW       0
	ADDWFC      R1, 0 
	MOVWF       FSR0H 
	MOVF        POSTINC0+0, 0 
	XORLW       0
	BTFSS       STATUS+0, 2 
	GOTO        L_TaskManager348
	MOVLW       7
	MOVWF       R0 
	MOVLW       0
	MOVWF       R1 
	MOVF        TaskManager_i_L0+0, 0 
	MOVWF       R4 
	MOVLW       0
	MOVWF       R5 
	CALL        _Mul_16X16_U+0, 0
	MOVLW       _Tasks+0
	ADDWF       R0, 1 
	MOVLW       hi_addr(_Tasks+0)
	ADDWFC      R1, 1 
	MOVLW       1
	ADDWF       R0, 0 
	MOVWF       FSR0 
	MOVLW       0
	ADDWFC      R1, 0 
	MOVWF       FSR0H 
	MOVF        POSTINC0+0, 0 
	MOVWF       R1 
	MOVF        POSTINC0+0, 0 
	MOVWF       R2 
	MOVF        POSTINC0+0, 0 
	MOVWF       R3 
	MOVF        POSTINC0+0, 0 
	MOVWF       R4 
	MOVF        R4, 0 
	XORWF       _ms500+3, 0 
	BTFSS       STATUS+0, 2 
	GOTO        L__TaskManager1036
	MOVF        R3, 0 
	XORWF       _ms500+2, 0 
	BTFSS       STATUS+0, 2 
	GOTO        L__TaskManager1036
	MOVF        R2, 0 
	XORWF       _ms500+1, 0 
	BTFSS       STATUS+0, 2 
	GOTO        L__TaskManager1036
	MOVF        R1, 0 
	XORWF       _ms500+0, 0 
L__TaskManager1036:
	BTFSS       STATUS+0, 2 
	GOTO        L_TaskManager348
	MOVLW       7
	MOVWF       R0 
	MOVLW       0
	MOVWF       R1 
	MOVF        TaskManager_i_L0+0, 0 
	MOVWF       R4 
	MOVLW       0
	MOVWF       R5 
	CALL        _Mul_16X16_U+0, 0
	MOVLW       _Tasks+0
	ADDWF       R0, 1 
	MOVLW       hi_addr(_Tasks+0)
	ADDWFC      R1, 1 
	MOVLW       6
	ADDWF       R0, 0 
	MOVWF       FSR0 
	MOVLW       0
	ADDWFC      R1, 0 
	MOVWF       FSR0H 
	MOVF        POSTINC0+0, 0 
	XORLW       0
	BTFSS       STATUS+0, 2 
	GOTO        L_TaskManager348
L__TaskManager936:
;FirmV_0_7_0.c,1543 :: 		Tasks[i].Fired=1;
	MOVLW       7
	MOVWF       R0 
	MOVLW       0
	MOVWF       R1 
	MOVF        TaskManager_i_L0+0, 0 
	MOVWF       R4 
	MOVLW       0
	MOVWF       R5 
	CALL        _Mul_16X16_U+0, 0
	MOVLW       _Tasks+0
	ADDWF       R0, 1 
	MOVLW       hi_addr(_Tasks+0)
	ADDWFC      R1, 1 
	MOVLW       6
	ADDWF       R0, 0 
	MOVWF       FSR1 
	MOVLW       0
	ADDWFC      R1, 0 
	MOVWF       FSR1H 
	MOVLW       1
	MOVWF       POSTINC1+0 
L_TaskManager348:
;FirmV_0_7_0.c,1541 :: 		for(i=0;i<20;i++)
	INCF        TaskManager_i_L0+0, 1 
;FirmV_0_7_0.c,1543 :: 		Tasks[i].Fired=1;
	GOTO        L_TaskManager343
L_TaskManager344:
;FirmV_0_7_0.c,1544 :: 		}
L_end_TaskManager:
	RETURN      0
; end of _TaskManager

_AddTask:

;FirmV_0_7_0.c,1556 :: 		void AddTask(unsigned long OccTime,char tcode)
;FirmV_0_7_0.c,1559 :: 		for(i=0;i<20;i++)
	CLRF        AddTask_i_L0+0 
L_AddTask349:
	MOVLW       20
	SUBWF       AddTask_i_L0+0, 0 
	BTFSC       STATUS+0, 0 
	GOTO        L_AddTask350
;FirmV_0_7_0.c,1560 :: 		if(Tasks[i].Expired==1)
	MOVLW       7
	MOVWF       R0 
	MOVLW       0
	MOVWF       R1 
	MOVF        AddTask_i_L0+0, 0 
	MOVWF       R4 
	MOVLW       0
	MOVWF       R5 
	CALL        _Mul_16X16_U+0, 0
	MOVLW       _Tasks+0
	ADDWF       R0, 1 
	MOVLW       hi_addr(_Tasks+0)
	ADDWFC      R1, 1 
	MOVLW       5
	ADDWF       R0, 0 
	MOVWF       FSR0 
	MOVLW       0
	ADDWFC      R1, 0 
	MOVWF       FSR0H 
	MOVF        POSTINC0+0, 0 
	XORLW       1
	BTFSS       STATUS+0, 2 
	GOTO        L_AddTask352
;FirmV_0_7_0.c,1562 :: 		Tasks[i].TaskCode=tcode;
	MOVLW       7
	MOVWF       R0 
	MOVLW       0
	MOVWF       R1 
	MOVF        AddTask_i_L0+0, 0 
	MOVWF       R4 
	MOVLW       0
	MOVWF       R5 
	CALL        _Mul_16X16_U+0, 0
	MOVLW       _Tasks+0
	ADDWF       R0, 0 
	MOVWF       FSR1 
	MOVLW       hi_addr(_Tasks+0)
	ADDWFC      R1, 0 
	MOVWF       FSR1H 
	MOVF        FARG_AddTask_tcode+0, 0 
	MOVWF       POSTINC1+0 
;FirmV_0_7_0.c,1563 :: 		Tasks[i].Time=OccTime;
	MOVLW       7
	MOVWF       R0 
	MOVLW       0
	MOVWF       R1 
	MOVF        AddTask_i_L0+0, 0 
	MOVWF       R4 
	MOVLW       0
	MOVWF       R5 
	CALL        _Mul_16X16_U+0, 0
	MOVLW       _Tasks+0
	ADDWF       R0, 1 
	MOVLW       hi_addr(_Tasks+0)
	ADDWFC      R1, 1 
	MOVLW       1
	ADDWF       R0, 0 
	MOVWF       FSR1 
	MOVLW       0
	ADDWFC      R1, 0 
	MOVWF       FSR1H 
	MOVF        FARG_AddTask_OccTime+0, 0 
	MOVWF       POSTINC1+0 
	MOVF        FARG_AddTask_OccTime+1, 0 
	MOVWF       POSTINC1+0 
	MOVF        FARG_AddTask_OccTime+2, 0 
	MOVWF       POSTINC1+0 
	MOVF        FARG_AddTask_OccTime+3, 0 
	MOVWF       POSTINC1+0 
;FirmV_0_7_0.c,1564 :: 		Tasks[i].Expired=0;
	MOVLW       7
	MOVWF       R0 
	MOVLW       0
	MOVWF       R1 
	MOVF        AddTask_i_L0+0, 0 
	MOVWF       R4 
	MOVLW       0
	MOVWF       R5 
	CALL        _Mul_16X16_U+0, 0
	MOVLW       _Tasks+0
	ADDWF       R0, 1 
	MOVLW       hi_addr(_Tasks+0)
	ADDWFC      R1, 1 
	MOVLW       5
	ADDWF       R0, 0 
	MOVWF       FSR1 
	MOVLW       0
	ADDWFC      R1, 0 
	MOVWF       FSR1H 
	CLRF        POSTINC1+0 
;FirmV_0_7_0.c,1565 :: 		Tasks[i].Fired=0;
	MOVLW       7
	MOVWF       R0 
	MOVLW       0
	MOVWF       R1 
	MOVF        AddTask_i_L0+0, 0 
	MOVWF       R4 
	MOVLW       0
	MOVWF       R5 
	CALL        _Mul_16X16_U+0, 0
	MOVLW       _Tasks+0
	ADDWF       R0, 1 
	MOVLW       hi_addr(_Tasks+0)
	ADDWFC      R1, 1 
	MOVLW       6
	ADDWF       R0, 0 
	MOVWF       FSR1 
	MOVLW       0
	ADDWFC      R1, 0 
	MOVWF       FSR1H 
	CLRF        POSTINC1+0 
;FirmV_0_7_0.c,1566 :: 		break;
	GOTO        L_AddTask350
;FirmV_0_7_0.c,1567 :: 		}
L_AddTask352:
;FirmV_0_7_0.c,1559 :: 		for(i=0;i<20;i++)
	INCF        AddTask_i_L0+0, 1 
;FirmV_0_7_0.c,1567 :: 		}
	GOTO        L_AddTask349
L_AddTask350:
;FirmV_0_7_0.c,1568 :: 		}
L_end_AddTask:
	RETURN      0
; end of _AddTask

_EventHandler:

;FirmV_0_7_0.c,1578 :: 		void EventHandler()
;FirmV_0_7_0.c,1581 :: 		Events.ExternalKeys=GetExternalKeysState();
	CALL        _GetExternalKeysState+0, 0
	MOVF        R0, 0 
	MOVWF       _Events+8 
;FirmV_0_7_0.c,1582 :: 		Events.Limiter=GetLimitSwitchState();
	CALL        _GetLimitSwitchState+0, 0
	MOVF        R0, 0 
	MOVWF       _Events+7 
;FirmV_0_7_0.c,1583 :: 		Events.Keys=GetKeysState();
	CALL        _GetKeysState+0, 0
	MOVF        R0, 0 
	MOVWF       _Events+0 
;FirmV_0_7_0.c,1584 :: 		Events.Remote=GetRemoteState();
	CALL        _GetRemoteState+0, 0
	MOVF        R0, 0 
	MOVWF       _Events+4 
;FirmV_0_7_0.c,1585 :: 		Events.Overload=GetOverloadState();
	CALL        _GetOverloadState+0, 0
	MOVF        R0, 0 
	MOVWF       _Events+5 
;FirmV_0_7_0.c,1586 :: 		Events.Photocell=GetPhotocellState();
	CALL        _GetPhotocellState+0, 0
	MOVF        R0, 0 
	MOVWF       _Events+6 
;FirmV_0_7_0.c,1588 :: 		for(i=0;i<20;i++)
	CLRF        EventHandler_i_L0+0 
L_EventHandler353:
	MOVLW       20
	SUBWF       EventHandler_i_L0+0, 0 
	BTFSC       STATUS+0, 0 
	GOTO        L_EventHandler354
;FirmV_0_7_0.c,1589 :: 		if((Tasks[i].Expired==0)&&(Tasks[i].Fired==1))
	MOVLW       7
	MOVWF       R0 
	MOVLW       0
	MOVWF       R1 
	MOVF        EventHandler_i_L0+0, 0 
	MOVWF       R4 
	MOVLW       0
	MOVWF       R5 
	CALL        _Mul_16X16_U+0, 0
	MOVLW       _Tasks+0
	ADDWF       R0, 1 
	MOVLW       hi_addr(_Tasks+0)
	ADDWFC      R1, 1 
	MOVLW       5
	ADDWF       R0, 0 
	MOVWF       FSR0 
	MOVLW       0
	ADDWFC      R1, 0 
	MOVWF       FSR0H 
	MOVF        POSTINC0+0, 0 
	XORLW       0
	BTFSS       STATUS+0, 2 
	GOTO        L_EventHandler358
	MOVLW       7
	MOVWF       R0 
	MOVLW       0
	MOVWF       R1 
	MOVF        EventHandler_i_L0+0, 0 
	MOVWF       R4 
	MOVLW       0
	MOVWF       R5 
	CALL        _Mul_16X16_U+0, 0
	MOVLW       _Tasks+0
	ADDWF       R0, 1 
	MOVLW       hi_addr(_Tasks+0)
	ADDWFC      R1, 1 
	MOVLW       6
	ADDWF       R0, 0 
	MOVWF       FSR0 
	MOVLW       0
	ADDWFC      R1, 0 
	MOVWF       FSR0H 
	MOVF        POSTINC0+0, 0 
	XORLW       1
	BTFSS       STATUS+0, 2 
	GOTO        L_EventHandler358
L__EventHandler937:
;FirmV_0_7_0.c,1591 :: 		if(Events.Task1==0)
	MOVF        _Events+1, 0 
	XORLW       0
	BTFSS       STATUS+0, 2 
	GOTO        L_EventHandler359
;FirmV_0_7_0.c,1592 :: 		{Events.Task1=Tasks[i].TaskCode; Tasks[i].Expired=1;Tasks[i].Fired=0;}
	MOVLW       7
	MOVWF       R0 
	MOVLW       0
	MOVWF       R1 
	MOVF        EventHandler_i_L0+0, 0 
	MOVWF       R4 
	MOVLW       0
	MOVWF       R5 
	CALL        _Mul_16X16_U+0, 0
	MOVLW       _Tasks+0
	ADDWF       R0, 0 
	MOVWF       R2 
	MOVLW       hi_addr(_Tasks+0)
	ADDWFC      R1, 0 
	MOVWF       R3 
	MOVFF       R2, FSR0
	MOVFF       R3, FSR0H
	MOVF        POSTINC0+0, 0 
	MOVWF       R0 
	MOVF        R0, 0 
	MOVWF       _Events+1 
	MOVLW       5
	ADDWF       R2, 0 
	MOVWF       FSR1 
	MOVLW       0
	ADDWFC      R3, 0 
	MOVWF       FSR1H 
	MOVLW       1
	MOVWF       POSTINC1+0 
	MOVLW       7
	MOVWF       R0 
	MOVLW       0
	MOVWF       R1 
	MOVF        EventHandler_i_L0+0, 0 
	MOVWF       R4 
	MOVLW       0
	MOVWF       R5 
	CALL        _Mul_16X16_U+0, 0
	MOVLW       _Tasks+0
	ADDWF       R0, 1 
	MOVLW       hi_addr(_Tasks+0)
	ADDWFC      R1, 1 
	MOVLW       6
	ADDWF       R0, 0 
	MOVWF       FSR1 
	MOVLW       0
	ADDWFC      R1, 0 
	MOVWF       FSR1H 
	CLRF        POSTINC1+0 
	GOTO        L_EventHandler360
L_EventHandler359:
;FirmV_0_7_0.c,1593 :: 		else if(Events.Task2==0)
	MOVF        _Events+2, 0 
	XORLW       0
	BTFSS       STATUS+0, 2 
	GOTO        L_EventHandler361
;FirmV_0_7_0.c,1594 :: 		{Events.Task2=Tasks[i].TaskCode;Tasks[i].Expired=1;Tasks[i].Fired=0;}
	MOVLW       7
	MOVWF       R0 
	MOVLW       0
	MOVWF       R1 
	MOVF        EventHandler_i_L0+0, 0 
	MOVWF       R4 
	MOVLW       0
	MOVWF       R5 
	CALL        _Mul_16X16_U+0, 0
	MOVLW       _Tasks+0
	ADDWF       R0, 0 
	MOVWF       R2 
	MOVLW       hi_addr(_Tasks+0)
	ADDWFC      R1, 0 
	MOVWF       R3 
	MOVFF       R2, FSR0
	MOVFF       R3, FSR0H
	MOVF        POSTINC0+0, 0 
	MOVWF       R0 
	MOVF        R0, 0 
	MOVWF       _Events+2 
	MOVLW       5
	ADDWF       R2, 0 
	MOVWF       FSR1 
	MOVLW       0
	ADDWFC      R3, 0 
	MOVWF       FSR1H 
	MOVLW       1
	MOVWF       POSTINC1+0 
	MOVLW       7
	MOVWF       R0 
	MOVLW       0
	MOVWF       R1 
	MOVF        EventHandler_i_L0+0, 0 
	MOVWF       R4 
	MOVLW       0
	MOVWF       R5 
	CALL        _Mul_16X16_U+0, 0
	MOVLW       _Tasks+0
	ADDWF       R0, 1 
	MOVLW       hi_addr(_Tasks+0)
	ADDWFC      R1, 1 
	MOVLW       6
	ADDWF       R0, 0 
	MOVWF       FSR1 
	MOVLW       0
	ADDWFC      R1, 0 
	MOVWF       FSR1H 
	CLRF        POSTINC1+0 
	GOTO        L_EventHandler362
L_EventHandler361:
;FirmV_0_7_0.c,1595 :: 		else if(Events.Task3==0)
	MOVF        _Events+3, 0 
	XORLW       0
	BTFSS       STATUS+0, 2 
	GOTO        L_EventHandler363
;FirmV_0_7_0.c,1596 :: 		{Events.Task3=Tasks[i].TaskCode;Tasks[i].Expired=1;Tasks[i].Fired=0;}
	MOVLW       7
	MOVWF       R0 
	MOVLW       0
	MOVWF       R1 
	MOVF        EventHandler_i_L0+0, 0 
	MOVWF       R4 
	MOVLW       0
	MOVWF       R5 
	CALL        _Mul_16X16_U+0, 0
	MOVLW       _Tasks+0
	ADDWF       R0, 0 
	MOVWF       R2 
	MOVLW       hi_addr(_Tasks+0)
	ADDWFC      R1, 0 
	MOVWF       R3 
	MOVFF       R2, FSR0
	MOVFF       R3, FSR0H
	MOVF        POSTINC0+0, 0 
	MOVWF       R0 
	MOVF        R0, 0 
	MOVWF       _Events+3 
	MOVLW       5
	ADDWF       R2, 0 
	MOVWF       FSR1 
	MOVLW       0
	ADDWFC      R3, 0 
	MOVWF       FSR1H 
	MOVLW       1
	MOVWF       POSTINC1+0 
	MOVLW       7
	MOVWF       R0 
	MOVLW       0
	MOVWF       R1 
	MOVF        EventHandler_i_L0+0, 0 
	MOVWF       R4 
	MOVLW       0
	MOVWF       R5 
	CALL        _Mul_16X16_U+0, 0
	MOVLW       _Tasks+0
	ADDWF       R0, 1 
	MOVLW       hi_addr(_Tasks+0)
	ADDWFC      R1, 1 
	MOVLW       6
	ADDWF       R0, 0 
	MOVWF       FSR1 
	MOVLW       0
	ADDWFC      R1, 0 
	MOVWF       FSR1H 
	CLRF        POSTINC1+0 
L_EventHandler363:
L_EventHandler362:
L_EventHandler360:
;FirmV_0_7_0.c,1597 :: 		}
L_EventHandler358:
;FirmV_0_7_0.c,1588 :: 		for(i=0;i<20;i++)
	INCF        EventHandler_i_L0+0, 1 
;FirmV_0_7_0.c,1597 :: 		}
	GOTO        L_EventHandler353
L_EventHandler354:
;FirmV_0_7_0.c,1598 :: 		}
L_end_EventHandler:
	RETURN      0
; end of _EventHandler

_GetKeysState:

;FirmV_0_7_0.c,1608 :: 		char GetKeysState()
;FirmV_0_7_0.c,1610 :: 		unsigned res=0;
;FirmV_0_7_0.c,1614 :: 		char resch=0,fin;
	CLRF        GetKeysState_resch_L0+0 
;FirmV_0_7_0.c,1615 :: 		resch.b0=~KeyDown;
	BTFSC       PORTD+0, 5 
	GOTO        L__GetKeysState1040
	BSF         GetKeysState_resch_L0+0, 0 
	GOTO        L__GetKeysState1041
L__GetKeysState1040:
	BCF         GetKeysState_resch_L0+0, 0 
L__GetKeysState1041:
;FirmV_0_7_0.c,1616 :: 		resch.b1=~KeyMenu;
	BTFSC       PORTE+0, 0 
	GOTO        L__GetKeysState1042
	BSF         GetKeysState_resch_L0+0, 1 
	GOTO        L__GetKeysState1043
L__GetKeysState1042:
	BCF         GetKeysState_resch_L0+0, 1 
L__GetKeysState1043:
;FirmV_0_7_0.c,1617 :: 		resch.b2=~KeyUp;
	BTFSC       PORTD+0, 4 
	GOTO        L__GetKeysState1044
	BSF         GetKeysState_resch_L0+0, 2 
	GOTO        L__GetKeysState1045
L__GetKeysState1044:
	BCF         GetKeysState_resch_L0+0, 2 
L__GetKeysState1045:
;FirmV_0_7_0.c,1619 :: 		if(DebouncingDelayUnpress<DebouncingFix)
	MOVLW       5
	SUBWF       _DebouncingDelayUnpress+0, 0 
	BTFSC       STATUS+0, 0 
	GOTO        L_GetKeysState364
;FirmV_0_7_0.c,1620 :: 		resch=0;
	CLRF        GetKeysState_resch_L0+0 
L_GetKeysState364:
;FirmV_0_7_0.c,1622 :: 		if((resch==0))
	MOVF        GetKeysState_resch_L0+0, 0 
	XORLW       0
	BTFSS       STATUS+0, 2 
	GOTO        L_GetKeysState365
;FirmV_0_7_0.c,1624 :: 		if(Pressed==0)
	MOVF        _Pressed+0, 0 
	XORLW       0
	BTFSS       STATUS+0, 2 
	GOTO        L_GetKeysState366
;FirmV_0_7_0.c,1625 :: 		{Repeat=0;RepeatCount=0;Pressed=0;fin=0;RepeatRate=0;}
	CLRF        GetKeysState_Repeat_L0+0 
	CLRF        GetKeysState_RepeatCount_L0+0 
	CLRF        _Pressed+0 
	CLRF        GetKeysState_fin_L0+0 
	CLRF        GetKeysState_RepeatRate_L0+0 
L_GetKeysState366:
;FirmV_0_7_0.c,1626 :: 		if(Pressed==1)
	MOVF        _Pressed+0, 0 
	XORLW       1
	BTFSS       STATUS+0, 2 
	GOTO        L_GetKeysState367
;FirmV_0_7_0.c,1627 :: 		if(DebouncingDelayPress>=DebouncingFix)
	MOVLW       5
	SUBWF       _DebouncingDelayPress+0, 0 
	BTFSS       STATUS+0, 0 
	GOTO        L_GetKeysState368
;FirmV_0_7_0.c,1628 :: 		{Repeat=0;RepeatCount=0;Pressed=0;fin=0;RepeatRate=0;DebouncingDelayUnpress=0;}
	CLRF        GetKeysState_Repeat_L0+0 
	CLRF        GetKeysState_RepeatCount_L0+0 
	CLRF        _Pressed+0 
	CLRF        GetKeysState_fin_L0+0 
	CLRF        GetKeysState_RepeatRate_L0+0 
	CLRF        _DebouncingDelayUnpress+0 
L_GetKeysState368:
L_GetKeysState367:
;FirmV_0_7_0.c,1629 :: 		}
L_GetKeysState365:
;FirmV_0_7_0.c,1634 :: 		if((Repeat==1)&&(KeyFlag>=RepeatSpeed))
	MOVF        GetKeysState_Repeat_L0+0, 0 
	XORLW       1
	BTFSS       STATUS+0, 2 
	GOTO        L_GetKeysState371
	MOVF        GetKeysState_RepeatSpeed_L0+0, 0 
	SUBWF       _KeyFlag+0, 0 
	BTFSS       STATUS+0, 0 
	GOTO        L_GetKeysState371
L__GetKeysState942:
;FirmV_0_7_0.c,1635 :: 		{RepeatRate=1;KeyFlag=0;if(RepeatCount<25)RepeatCount=RepeatCount+1;}
	MOVLW       1
	MOVWF       GetKeysState_RepeatRate_L0+0 
	CLRF        _KeyFlag+0 
	MOVLW       25
	SUBWF       GetKeysState_RepeatCount_L0+0, 0 
	BTFSC       STATUS+0, 0 
	GOTO        L_GetKeysState372
	INCF        GetKeysState_RepeatCount_L0+0, 1 
L_GetKeysState372:
L_GetKeysState371:
;FirmV_0_7_0.c,1639 :: 		if((resch!=0)&&(Pressed==1)&&(Repeat==0)&&(ms500==PressTime+KeyRepeatDelay))
	MOVF        GetKeysState_resch_L0+0, 0 
	XORLW       0
	BTFSC       STATUS+0, 2 
	GOTO        L_GetKeysState375
	MOVF        _Pressed+0, 0 
	XORLW       1
	BTFSS       STATUS+0, 2 
	GOTO        L_GetKeysState375
	MOVF        GetKeysState_Repeat_L0+0, 0 
	XORLW       0
	BTFSS       STATUS+0, 2 
	GOTO        L_GetKeysState375
	MOVLW       2
	ADDWF       GetKeysState_PressTime_L0+0, 0 
	MOVWF       R1 
	MOVLW       0
	ADDWFC      GetKeysState_PressTime_L0+1, 0 
	MOVWF       R2 
	MOVLW       0
	ADDWFC      GetKeysState_PressTime_L0+2, 0 
	MOVWF       R3 
	MOVLW       0
	ADDWFC      GetKeysState_PressTime_L0+3, 0 
	MOVWF       R4 
	MOVF        _ms500+3, 0 
	XORWF       R4, 0 
	BTFSS       STATUS+0, 2 
	GOTO        L__GetKeysState1046
	MOVF        _ms500+2, 0 
	XORWF       R3, 0 
	BTFSS       STATUS+0, 2 
	GOTO        L__GetKeysState1046
	MOVF        _ms500+1, 0 
	XORWF       R2, 0 
	BTFSS       STATUS+0, 2 
	GOTO        L__GetKeysState1046
	MOVF        _ms500+0, 0 
	XORWF       R1, 0 
L__GetKeysState1046:
	BTFSS       STATUS+0, 2 
	GOTO        L_GetKeysState375
L__GetKeysState941:
;FirmV_0_7_0.c,1640 :: 		{Repeat=1;KeyFlag=0;}
	MOVLW       1
	MOVWF       GetKeysState_Repeat_L0+0 
	CLRF        _KeyFlag+0 
L_GetKeysState375:
;FirmV_0_7_0.c,1642 :: 		if((resch!=0)&&(Pressed==1)&&(Repeat==0))
	MOVF        GetKeysState_resch_L0+0, 0 
	XORLW       0
	BTFSC       STATUS+0, 2 
	GOTO        L_GetKeysState378
	MOVF        _Pressed+0, 0 
	XORLW       1
	BTFSS       STATUS+0, 2 
	GOTO        L_GetKeysState378
	MOVF        GetKeysState_Repeat_L0+0, 0 
	XORLW       0
	BTFSS       STATUS+0, 2 
	GOTO        L_GetKeysState378
L__GetKeysState940:
;FirmV_0_7_0.c,1643 :: 		fin=0;
	CLRF        GetKeysState_fin_L0+0 
L_GetKeysState378:
;FirmV_0_7_0.c,1645 :: 		if((resch!=0)&&(Pressed==1)&&(Repeat==1))
	MOVF        GetKeysState_resch_L0+0, 0 
	XORLW       0
	BTFSC       STATUS+0, 2 
	GOTO        L_GetKeysState381
	MOVF        _Pressed+0, 0 
	XORLW       1
	BTFSS       STATUS+0, 2 
	GOTO        L_GetKeysState381
	MOVF        GetKeysState_Repeat_L0+0, 0 
	XORLW       1
	BTFSS       STATUS+0, 2 
	GOTO        L_GetKeysState381
L__GetKeysState939:
;FirmV_0_7_0.c,1646 :: 		{fin=resch*RepeatRate;RepeatRate=0;}
	MOVF        GetKeysState_resch_L0+0, 0 
	MULWF       GetKeysState_RepeatRate_L0+0 
	MOVF        PRODL+0, 0 
	MOVWF       GetKeysState_fin_L0+0 
	CLRF        GetKeysState_RepeatRate_L0+0 
L_GetKeysState381:
;FirmV_0_7_0.c,1649 :: 		if((resch!=0)&&(Pressed==0))
	MOVF        GetKeysState_resch_L0+0, 0 
	XORLW       0
	BTFSC       STATUS+0, 2 
	GOTO        L_GetKeysState384
	MOVF        _Pressed+0, 0 
	XORLW       0
	BTFSS       STATUS+0, 2 
	GOTO        L_GetKeysState384
L__GetKeysState938:
;FirmV_0_7_0.c,1650 :: 		{fin=resch; Pressed=1;PressTime=ms500;DebouncingDelayPress=0;}
	MOVF        GetKeysState_resch_L0+0, 0 
	MOVWF       GetKeysState_fin_L0+0 
	MOVLW       1
	MOVWF       _Pressed+0 
	MOVF        _ms500+0, 0 
	MOVWF       GetKeysState_PressTime_L0+0 
	MOVF        _ms500+1, 0 
	MOVWF       GetKeysState_PressTime_L0+1 
	MOVF        _ms500+2, 0 
	MOVWF       GetKeysState_PressTime_L0+2 
	MOVF        _ms500+3, 0 
	MOVWF       GetKeysState_PressTime_L0+3 
	CLRF        _DebouncingDelayPress+0 
L_GetKeysState384:
;FirmV_0_7_0.c,1653 :: 		if(fin != 0)
	MOVF        GetKeysState_fin_L0+0, 0 
	XORLW       0
	BTFSC       STATUS+0, 2 
	GOTO        L_GetKeysState385
;FirmV_0_7_0.c,1654 :: 		BuzzFlag=1;
	MOVLW       1
	MOVWF       _BuzzFlag+0 
L_GetKeysState385:
;FirmV_0_7_0.c,1656 :: 		return fin;
	MOVF        GetKeysState_fin_L0+0, 0 
	MOVWF       R0 
;FirmV_0_7_0.c,1657 :: 		}
L_end_GetKeysState:
	RETURN      0
; end of _GetKeysState

_GetExternalKeysState:

;FirmV_0_7_0.c,1667 :: 		char GetExternalKeysState()
;FirmV_0_7_0.c,1669 :: 		char out=0;
	CLRF        GetExternalKeysState_out_L0+0 
;FirmV_0_7_0.c,1670 :: 		if(KeyUp==0)
	BTFSC       PORTD+0, 4 
	GOTO        L_GetExternalKeysState386
;FirmV_0_7_0.c,1671 :: 		out.b0=1;
	BSF         GetExternalKeysState_out_L0+0, 0 
L_GetExternalKeysState386:
;FirmV_0_7_0.c,1672 :: 		if(KeyDown==0)
	BTFSC       PORTD+0, 5 
	GOTO        L_GetExternalKeysState387
;FirmV_0_7_0.c,1673 :: 		out.b1=1;
	BSF         GetExternalKeysState_out_L0+0, 1 
L_GetExternalKeysState387:
;FirmV_0_7_0.c,1674 :: 		return out;
	MOVF        GetExternalKeysState_out_L0+0, 0 
	MOVWF       R0 
;FirmV_0_7_0.c,1675 :: 		}
L_end_GetExternalKeysState:
	RETURN      0
; end of _GetExternalKeysState

_GetLimitSwitchState:

;FirmV_0_7_0.c,1688 :: 		char GetLimitSwitchState()
;FirmV_0_7_0.c,1690 :: 		if((Limit1==0)||(Limit2==0))
	BTFSS       PORTD+0, 0 
	GOTO        L__GetLimitSwitchState945
	BTFSS       PORTD+0, 1 
	GOTO        L__GetLimitSwitchState945
	GOTO        L_GetLimitSwitchState390
L__GetLimitSwitchState945:
;FirmV_0_7_0.c,1692 :: 		if(LimitCounter <= 100)
	MOVF        _LimitCounter+0, 0 
	SUBLW       100
	BTFSS       STATUS+0, 0 
	GOTO        L_GetLimitSwitchState391
;FirmV_0_7_0.c,1693 :: 		LimitCounter=LimitCounter+1;
	INCF        _LimitCounter+0, 1 
L_GetLimitSwitchState391:
;FirmV_0_7_0.c,1694 :: 		}
	GOTO        L_GetLimitSwitchState392
L_GetLimitSwitchState390:
;FirmV_0_7_0.c,1696 :: 		LimitCounter=0;
	CLRF        _LimitCounter+0 
L_GetLimitSwitchState392:
;FirmV_0_7_0.c,1698 :: 		if((LimitCounter >100) && (Limit1 == 0))
	MOVF        _LimitCounter+0, 0 
	SUBLW       100
	BTFSC       STATUS+0, 0 
	GOTO        L_GetLimitSwitchState395
	BTFSC       PORTD+0, 0 
	GOTO        L_GetLimitSwitchState395
L__GetLimitSwitchState944:
;FirmV_0_7_0.c,1699 :: 		return 1;
	MOVLW       1
	MOVWF       R0 
	GOTO        L_end_GetLimitSwitchState
L_GetLimitSwitchState395:
;FirmV_0_7_0.c,1700 :: 		if((LimitCounter >100) && (Limit2 == 0))
	MOVF        _LimitCounter+0, 0 
	SUBLW       100
	BTFSC       STATUS+0, 0 
	GOTO        L_GetLimitSwitchState398
	BTFSC       PORTD+0, 1 
	GOTO        L_GetLimitSwitchState398
L__GetLimitSwitchState943:
;FirmV_0_7_0.c,1701 :: 		return 2;
	MOVLW       2
	MOVWF       R0 
	GOTO        L_end_GetLimitSwitchState
L_GetLimitSwitchState398:
;FirmV_0_7_0.c,1702 :: 		return 0;
	CLRF        R0 
;FirmV_0_7_0.c,1703 :: 		}
L_end_GetLimitSwitchState:
	RETURN      0
; end of _GetLimitSwitchState

_GetRemoteState:

;FirmV_0_7_0.c,1712 :: 		char GetRemoteState()
;FirmV_0_7_0.c,1714 :: 		char res=0;
	CLRF        GetRemoteState_res_L0+0 
;FirmV_0_7_0.c,1715 :: 		res.b0=RemoteAFlag.b0;
	BTFSC       _RemoteAFlag+0, 0 
	GOTO        L__GetRemoteState1050
	BCF         GetRemoteState_res_L0+0, 0 
	GOTO        L__GetRemoteState1051
L__GetRemoteState1050:
	BSF         GetRemoteState_res_L0+0, 0 
L__GetRemoteState1051:
;FirmV_0_7_0.c,1716 :: 		res.b1=RemoteBFlag.b0;
	BTFSC       _RemoteBFlag+0, 0 
	GOTO        L__GetRemoteState1052
	BCF         GetRemoteState_res_L0+0, 1 
	GOTO        L__GetRemoteState1053
L__GetRemoteState1052:
	BSF         GetRemoteState_res_L0+0, 1 
L__GetRemoteState1053:
;FirmV_0_7_0.c,1717 :: 		RemoteAFlag=0;
	CLRF        _RemoteAFlag+0 
;FirmV_0_7_0.c,1718 :: 		RemoteBFlag=0;
	CLRF        _RemoteBFlag+0 
;FirmV_0_7_0.c,1721 :: 		if(State<20)
	MOVLW       20
	SUBWF       _State+0, 0 
	BTFSC       STATUS+0, 0 
	GOTO        L_GetRemoteState399
;FirmV_0_7_0.c,1723 :: 		res.b0=res.b0|Events.Keys.b2;//up key
	BTFSC       GetRemoteState_res_L0+0, 0 
	GOTO        L__GetRemoteState1054
	BTFSC       _Events+0, 2 
	GOTO        L__GetRemoteState1054
	BCF         GetRemoteState_res_L0+0, 0 
	GOTO        L__GetRemoteState1055
L__GetRemoteState1054:
	BSF         GetRemoteState_res_L0+0, 0 
L__GetRemoteState1055:
;FirmV_0_7_0.c,1724 :: 		res.b1=res.b1|Events.Keys.b0;//down key
	BTFSC       GetRemoteState_res_L0+0, 1 
	GOTO        L__GetRemoteState1056
	BTFSC       _Events+0, 0 
	GOTO        L__GetRemoteState1056
	BCF         GetRemoteState_res_L0+0, 1 
	GOTO        L__GetRemoteState1057
L__GetRemoteState1056:
	BSF         GetRemoteState_res_L0+0, 1 
L__GetRemoteState1057:
;FirmV_0_7_0.c,1725 :: 		}
L_GetRemoteState399:
;FirmV_0_7_0.c,1727 :: 		return res;
	MOVF        GetRemoteState_res_L0+0, 0 
	MOVWF       R0 
;FirmV_0_7_0.c,1728 :: 		}
L_end_GetRemoteState:
	RETURN      0
; end of _GetRemoteState

_GetOverloadState:

;FirmV_0_7_0.c,1738 :: 		char GetOverloadState()
;FirmV_0_7_0.c,1740 :: 		char res=0;
	CLRF        GetOverloadState_res_L0+0 
;FirmV_0_7_0.c,1742 :: 		VCapM1=ADC_Read(0);
	CLRF        FARG_ADC_Read_channel+0 
	CALL        _ADC_Read+0, 0
	MOVF        R0, 0 
	MOVWF       _VCapM1+0 
	MOVF        R1, 0 
	MOVWF       _VCapM1+1 
;FirmV_0_7_0.c,1743 :: 		VCapM2=ADC_Read(1);
	MOVLW       1
	MOVWF       FARG_ADC_Read_channel+0 
	CALL        _ADC_Read+0, 0
	MOVF        R0, 0 
	MOVWF       _VCapM2+0 
	MOVF        R1, 0 
	MOVWF       _VCapM2+1 
;FirmV_0_7_0.c,1746 :: 		if(OverloadCheckFlag1==0)
	MOVF        _OverloadCheckFlag1+0, 0 
	XORLW       0
	BTFSS       STATUS+0, 2 
	GOTO        L_GetOverloadState400
;FirmV_0_7_0.c,1747 :: 		OverloadCounter1=0;
	CLRF        _OverloadCounter1+0 
	CLRF        _OverloadCounter1+1 
L_GetOverloadState400:
;FirmV_0_7_0.c,1749 :: 		if(OverloadCheckFlag2==0)
	MOVF        _OverloadCheckFlag2+0, 0 
	XORLW       0
	BTFSS       STATUS+0, 2 
	GOTO        L_GetOverloadState401
;FirmV_0_7_0.c,1750 :: 		OverloadCounter2=0;
	CLRF        _OverloadCounter2+0 
	CLRF        _OverloadCounter2+1 
L_GetOverloadState401:
;FirmV_0_7_0.c,1753 :: 		if(Motor1FullSpeed!=0)
	MOVF        _Motor1FullSpeed+0, 0 
	XORLW       0
	BTFSC       STATUS+0, 2 
	GOTO        L_GetOverloadState402
;FirmV_0_7_0.c,1757 :: 		if(VCapM1<OverloadTreshold1)
	MOVF        _OverloadTreshold1+1, 0 
	SUBWF       _VCapM1+1, 0 
	BTFSS       STATUS+0, 2 
	GOTO        L__GetOverloadState1059
	MOVF        _OverloadTreshold1+0, 0 
	SUBWF       _VCapM1+0, 0 
L__GetOverloadState1059:
	BTFSC       STATUS+0, 0 
	GOTO        L_GetOverloadState403
;FirmV_0_7_0.c,1759 :: 		if(OverloadCounter1<65530)
	MOVLW       255
	SUBWF       _OverloadCounter1+1, 0 
	BTFSS       STATUS+0, 2 
	GOTO        L__GetOverloadState1060
	MOVLW       250
	SUBWF       _OverloadCounter1+0, 0 
L__GetOverloadState1060:
	BTFSC       STATUS+0, 0 
	GOTO        L_GetOverloadState404
;FirmV_0_7_0.c,1760 :: 		OverloadCounter1=OverloadCounter1+1;
	INFSNZ      _OverloadCounter1+0, 1 
	INCF        _OverloadCounter1+1, 1 
L_GetOverloadState404:
;FirmV_0_7_0.c,1761 :: 		}
	GOTO        L_GetOverloadState405
L_GetOverloadState403:
;FirmV_0_7_0.c,1764 :: 		if(OverloadCounter1>0)
	MOVLW       0
	MOVWF       R0 
	MOVF        _OverloadCounter1+1, 0 
	SUBWF       R0, 0 
	BTFSS       STATUS+0, 2 
	GOTO        L__GetOverloadState1061
	MOVF        _OverloadCounter1+0, 0 
	SUBLW       0
L__GetOverloadState1061:
	BTFSC       STATUS+0, 0 
	GOTO        L_GetOverloadState406
;FirmV_0_7_0.c,1765 :: 		OverloadCounter1=OverloadCounter1-1;
	MOVLW       1
	SUBWF       _OverloadCounter1+0, 1 
	MOVLW       0
	SUBWFB      _OverloadCounter1+1, 1 
L_GetOverloadState406:
;FirmV_0_7_0.c,1766 :: 		}
L_GetOverloadState405:
;FirmV_0_7_0.c,1767 :: 		}
	GOTO        L_GetOverloadState407
L_GetOverloadState402:
;FirmV_0_7_0.c,1769 :: 		{OverloadCounter1=0;}
	CLRF        _OverloadCounter1+0 
	CLRF        _OverloadCounter1+1 
L_GetOverloadState407:
;FirmV_0_7_0.c,1771 :: 		if (OverloadCounter1>OverloadDuration1)
	MOVF        _OverloadCounter1+1, 0 
	SUBWF       _OverloadDuration1+1, 0 
	BTFSS       STATUS+0, 2 
	GOTO        L__GetOverloadState1062
	MOVF        _OverloadCounter1+0, 0 
	SUBWF       _OverloadDuration1+0, 0 
L__GetOverloadState1062:
	BTFSC       STATUS+0, 0 
	GOTO        L_GetOverloadState408
;FirmV_0_7_0.c,1772 :: 		res.b0=1;
	BSF         GetOverloadState_res_L0+0, 0 
L_GetOverloadState408:
;FirmV_0_7_0.c,1777 :: 		if(Motor2FullSpeed!=0)
	MOVF        _Motor2FullSpeed+0, 0 
	XORLW       0
	BTFSC       STATUS+0, 2 
	GOTO        L_GetOverloadState409
;FirmV_0_7_0.c,1779 :: 		if(VCapM2<OverloadTreshold2)
	MOVF        _OverloadTreshold2+1, 0 
	SUBWF       _VCapM2+1, 0 
	BTFSS       STATUS+0, 2 
	GOTO        L__GetOverloadState1063
	MOVF        _OverloadTreshold2+0, 0 
	SUBWF       _VCapM2+0, 0 
L__GetOverloadState1063:
	BTFSC       STATUS+0, 0 
	GOTO        L_GetOverloadState410
;FirmV_0_7_0.c,1781 :: 		if(OverloadCounter2<65530)
	MOVLW       255
	SUBWF       _OverloadCounter2+1, 0 
	BTFSS       STATUS+0, 2 
	GOTO        L__GetOverloadState1064
	MOVLW       250
	SUBWF       _OverloadCounter2+0, 0 
L__GetOverloadState1064:
	BTFSC       STATUS+0, 0 
	GOTO        L_GetOverloadState411
;FirmV_0_7_0.c,1782 :: 		OverloadCounter2=OverloadCounter2+1;
	INFSNZ      _OverloadCounter2+0, 1 
	INCF        _OverloadCounter2+1, 1 
L_GetOverloadState411:
;FirmV_0_7_0.c,1783 :: 		}
	GOTO        L_GetOverloadState412
L_GetOverloadState410:
;FirmV_0_7_0.c,1786 :: 		if(OverloadCounter2>0)
	MOVLW       0
	MOVWF       R0 
	MOVF        _OverloadCounter2+1, 0 
	SUBWF       R0, 0 
	BTFSS       STATUS+0, 2 
	GOTO        L__GetOverloadState1065
	MOVF        _OverloadCounter2+0, 0 
	SUBLW       0
L__GetOverloadState1065:
	BTFSC       STATUS+0, 0 
	GOTO        L_GetOverloadState413
;FirmV_0_7_0.c,1787 :: 		OverloadCounter2=OverloadCounter2-1;
	MOVLW       1
	SUBWF       _OverloadCounter2+0, 1 
	MOVLW       0
	SUBWFB      _OverloadCounter2+1, 1 
L_GetOverloadState413:
;FirmV_0_7_0.c,1788 :: 		}
L_GetOverloadState412:
;FirmV_0_7_0.c,1789 :: 		}
	GOTO        L_GetOverloadState414
L_GetOverloadState409:
;FirmV_0_7_0.c,1791 :: 		{OverloadCounter2=0;}
	CLRF        _OverloadCounter2+0 
	CLRF        _OverloadCounter2+1 
L_GetOverloadState414:
;FirmV_0_7_0.c,1794 :: 		if (OverloadCounter2>OverloadDuration2)
	MOVF        _OverloadCounter2+1, 0 
	SUBWF       _OverloadDuration2+1, 0 
	BTFSS       STATUS+0, 2 
	GOTO        L__GetOverloadState1066
	MOVF        _OverloadCounter2+0, 0 
	SUBWF       _OverloadDuration2+0, 0 
L__GetOverloadState1066:
	BTFSC       STATUS+0, 0 
	GOTO        L_GetOverloadState415
;FirmV_0_7_0.c,1795 :: 		res.b1=1;
	BSF         GetOverloadState_res_L0+0, 1 
L_GetOverloadState415:
;FirmV_0_7_0.c,1797 :: 		return res;
	MOVF        GetOverloadState_res_L0+0, 0 
	MOVWF       R0 
;FirmV_0_7_0.c,1798 :: 		}
L_end_GetOverloadState:
	RETURN      0
; end of _GetOverloadState

_GetPhotocellState:

;FirmV_0_7_0.c,1811 :: 		char GetPhotocellState()
;FirmV_0_7_0.c,1813 :: 		if(Phcell2==0)
	BTFSC       PORTD+0, 2 
	GOTO        L_GetPhotocellState416
;FirmV_0_7_0.c,1814 :: 		{if(PhotocellCount<=20)PhotocellCount=PhotocellCount+1;}
	MOVF        _PhotocellCount+0, 0 
	SUBLW       20
	BTFSS       STATUS+0, 0 
	GOTO        L_GetPhotocellState417
	INCF        _PhotocellCount+0, 1 
L_GetPhotocellState417:
	GOTO        L_GetPhotocellState418
L_GetPhotocellState416:
;FirmV_0_7_0.c,1816 :: 		{PhotocellCount=0;}
	CLRF        _PhotocellCount+0 
L_GetPhotocellState418:
;FirmV_0_7_0.c,1817 :: 		if(PhotocellCount>=20)
	MOVLW       20
	SUBWF       _PhotocellCount+0, 0 
	BTFSS       STATUS+0, 0 
	GOTO        L_GetPhotocellState419
;FirmV_0_7_0.c,1818 :: 		return 1;
	MOVLW       1
	MOVWF       R0 
	GOTO        L_end_GetPhotocellState
L_GetPhotocellState419:
;FirmV_0_7_0.c,1820 :: 		return 0;
	CLRF        R0 
;FirmV_0_7_0.c,1821 :: 		}
L_end_GetPhotocellState:
	RETURN      0
; end of _GetPhotocellState

_SetMotorSpeed:

;FirmV_0_7_0.c,1833 :: 		void SetMotorSpeed(char M1FullSpeed,char M2FullSpeed)
;FirmV_0_7_0.c,1835 :: 		if((M1FullSpeed==0)||(M2FullSpeed==0))
	MOVF        FARG_SetMotorSpeed_M1FullSpeed+0, 0 
	XORLW       0
	BTFSC       STATUS+0, 2 
	GOTO        L__SetMotorSpeed946
	MOVF        FARG_SetMotorSpeed_M2FullSpeed+0, 0 
	XORLW       0
	BTFSC       STATUS+0, 2 
	GOTO        L__SetMotorSpeed946
	GOTO        L_SetMotorSpeed423
L__SetMotorSpeed946:
;FirmV_0_7_0.c,1836 :: 		INT0E_bit=1;
	BSF         INT0E_bit+0, BitPos(INT0E_bit+0) 
	GOTO        L_SetMotorSpeed424
L_SetMotorSpeed423:
;FirmV_0_7_0.c,1838 :: 		INT0E_bit=0;
	BCF         INT0E_bit+0, BitPos(INT0E_bit+0) 
L_SetMotorSpeed424:
;FirmV_0_7_0.c,1840 :: 		Motor1FullSpeed=M1FullSpeed;
	MOVF        FARG_SetMotorSpeed_M1FullSpeed+0, 0 
	MOVWF       _Motor1FullSpeed+0 
;FirmV_0_7_0.c,1841 :: 		Motor2FullSpeed=M2FullSpeed;
	MOVF        FARG_SetMotorSpeed_M2FullSpeed+0, 0 
	MOVWF       _Motor2FullSpeed+0 
;FirmV_0_7_0.c,1842 :: 		}
L_end_SetMotorSpeed:
	RETURN      0
; end of _SetMotorSpeed

_OverloadInit:

;FirmV_0_7_0.c,1853 :: 		void OverloadInit(char ch)
;FirmV_0_7_0.c,1855 :: 		if(ch==1)
	MOVF        FARG_OverloadInit_ch+0, 0 
	XORLW       1
	BTFSS       STATUS+0, 2 
	GOTO        L_OverloadInit425
;FirmV_0_7_0.c,1857 :: 		OverloadCounter1=0;
	CLRF        _OverloadCounter1+0 
	CLRF        _OverloadCounter1+1 
;FirmV_0_7_0.c,1858 :: 		Events.Overload.b0=0;
	BCF         _Events+5, 0 
;FirmV_0_7_0.c,1859 :: 		}
L_OverloadInit425:
;FirmV_0_7_0.c,1861 :: 		if(ch==2)
	MOVF        FARG_OverloadInit_ch+0, 0 
	XORLW       2
	BTFSS       STATUS+0, 2 
	GOTO        L_OverloadInit426
;FirmV_0_7_0.c,1863 :: 		OverloadCounter2=0;
	CLRF        _OverloadCounter2+0 
	CLRF        _OverloadCounter2+1 
;FirmV_0_7_0.c,1864 :: 		Events.Overload.b1=0;
	BCF         _Events+5, 1 
;FirmV_0_7_0.c,1865 :: 		}
L_OverloadInit426:
;FirmV_0_7_0.c,1866 :: 		}
L_end_OverloadInit:
	RETURN      0
; end of _OverloadInit

_SaveConfigs:

;FirmV_0_7_0.c,1877 :: 		void SaveConfigs()
;FirmV_0_7_0.c,1880 :: 		EEPROM_Write(1,Door1OpenTime);
	MOVLW       1
	MOVWF       FARG_EEPROM_Write_address+0 
	MOVLW       0
	MOVWF       FARG_EEPROM_Write_address+1 
	MOVF        _Door1OpenTime+0, 0 
	MOVWF       FARG_EEPROM_Write_data_+0 
	CALL        _EEPROM_Write+0, 0
;FirmV_0_7_0.c,1881 :: 		EEPROM_Write(2,Door2OpenTime);
	MOVLW       2
	MOVWF       FARG_EEPROM_Write_address+0 
	MOVLW       0
	MOVWF       FARG_EEPROM_Write_address+1 
	MOVF        _Door2OpenTime+0, 0 
	MOVWF       FARG_EEPROM_Write_data_+0 
	CALL        _EEPROM_Write+0, 0
;FirmV_0_7_0.c,1882 :: 		EEPROM_Write(3,Door1CloseTime);
	MOVLW       3
	MOVWF       FARG_EEPROM_Write_address+0 
	MOVLW       0
	MOVWF       FARG_EEPROM_Write_address+1 
	MOVF        _Door1CloseTime+0, 0 
	MOVWF       FARG_EEPROM_Write_data_+0 
	CALL        _EEPROM_Write+0, 0
;FirmV_0_7_0.c,1883 :: 		EEPROM_Write(4,Door2CloseTime);
	MOVLW       4
	MOVWF       FARG_EEPROM_Write_address+0 
	MOVLW       0
	MOVWF       FARG_EEPROM_Write_address+1 
	MOVF        _Door2CloseTime+0, 0 
	MOVWF       FARG_EEPROM_Write_data_+0 
	CALL        _EEPROM_Write+0, 0
;FirmV_0_7_0.c,1884 :: 		EEPROM_Write(5,ActionTimeDiff);
	MOVLW       5
	MOVWF       FARG_EEPROM_Write_address+0 
	MOVLW       0
	MOVWF       FARG_EEPROM_Write_address+1 
	MOVF        _ActionTimeDiff+0, 0 
	MOVWF       FARG_EEPROM_Write_data_+0 
	CALL        _EEPROM_Write+0, 0
;FirmV_0_7_0.c,1885 :: 		EEPROM_Write(6,OpenSoftStartTime);
	MOVLW       6
	MOVWF       FARG_EEPROM_Write_address+0 
	MOVLW       0
	MOVWF       FARG_EEPROM_Write_address+1 
	MOVF        _OpenSoftStartTime+0, 0 
	MOVWF       FARG_EEPROM_Write_data_+0 
	CALL        _EEPROM_Write+0, 0
;FirmV_0_7_0.c,1886 :: 		EEPROM_Write(7,OpenSoftStopTime);
	MOVLW       7
	MOVWF       FARG_EEPROM_Write_address+0 
	MOVLW       0
	MOVWF       FARG_EEPROM_Write_address+1 
	MOVF        _OpenSoftStopTime+0, 0 
	MOVWF       FARG_EEPROM_Write_data_+0 
	CALL        _EEPROM_Write+0, 0
;FirmV_0_7_0.c,1887 :: 		EEPROM_Write(8,CloseSoftStartTime);
	MOVLW       8
	MOVWF       FARG_EEPROM_Write_address+0 
	MOVLW       0
	MOVWF       FARG_EEPROM_Write_address+1 
	MOVF        _CloseSoftStartTime+0, 0 
	MOVWF       FARG_EEPROM_Write_data_+0 
	CALL        _EEPROM_Write+0, 0
;FirmV_0_7_0.c,1888 :: 		EEPROM_Write(9,CloseSoftStopTime);
	MOVLW       9
	MOVWF       FARG_EEPROM_Write_address+0 
	MOVLW       0
	MOVWF       FARG_EEPROM_Write_address+1 
	MOVF        _CloseSoftStopTime+0, 0 
	MOVWF       FARG_EEPROM_Write_data_+0 
	CALL        _EEPROM_Write+0, 0
;FirmV_0_7_0.c,1889 :: 		EEPROM_Write(10,Hi(AutoCloseTime));
	MOVLW       10
	MOVWF       FARG_EEPROM_Write_address+0 
	MOVLW       0
	MOVWF       FARG_EEPROM_Write_address+1 
	MOVF        _AutoCloseTime+1, 0 
	MOVWF       FARG_EEPROM_Write_data_+0 
	CALL        _EEPROM_Write+0, 0
;FirmV_0_7_0.c,1890 :: 		EEPROM_Write(11,Lo(AutoCloseTime));
	MOVLW       11
	MOVWF       FARG_EEPROM_Write_address+0 
	MOVLW       0
	MOVWF       FARG_EEPROM_Write_address+1 
	MOVF        _AutoCloseTime+0, 0 
	MOVWF       FARG_EEPROM_Write_data_+0 
	CALL        _EEPROM_Write+0, 0
;FirmV_0_7_0.c,1891 :: 		EEPROM_Write(12,OverloadSens1);
	MOVLW       12
	MOVWF       FARG_EEPROM_Write_address+0 
	MOVLW       0
	MOVWF       FARG_EEPROM_Write_address+1 
	MOVF        _OverloadSens1+0, 0 
	MOVWF       FARG_EEPROM_Write_data_+0 
	CALL        _EEPROM_Write+0, 0
;FirmV_0_7_0.c,1892 :: 		EEPROM_Write(13,CloseAfterPass);
	MOVLW       13
	MOVWF       FARG_EEPROM_Write_address+0 
	MOVLW       0
	MOVWF       FARG_EEPROM_Write_address+1 
	MOVF        _CloseAfterPass+0, 0 
	MOVWF       FARG_EEPROM_Write_data_+0 
	CALL        _EEPROM_Write+0, 0
;FirmV_0_7_0.c,1893 :: 		EEPROM_Write(14,LockForce);
	MOVLW       14
	MOVWF       FARG_EEPROM_Write_address+0 
	MOVLW       0
	MOVWF       FARG_EEPROM_Write_address+1 
	MOVF        _LockForce+0, 0 
	MOVWF       FARG_EEPROM_Write_data_+0 
	CALL        _EEPROM_Write+0, 0
;FirmV_0_7_0.c,1894 :: 		EEPROM_Write(15,OpenPhEnable);
	MOVLW       15
	MOVWF       FARG_EEPROM_Write_address+0 
	MOVLW       0
	MOVWF       FARG_EEPROM_Write_address+1 
	MOVF        _OpenPhEnable+0, 0 
	MOVWF       FARG_EEPROM_Write_data_+0 
	CALL        _EEPROM_Write+0, 0
;FirmV_0_7_0.c,1895 :: 		EEPROM_Write(16,LimiterEnable);
	MOVLW       16
	MOVWF       FARG_EEPROM_Write_address+0 
	MOVLW       0
	MOVWF       FARG_EEPROM_Write_address+1 
	MOVF        _LimiterEnable+0, 0 
	MOVWF       FARG_EEPROM_Write_data_+0 
	CALL        _EEPROM_Write+0, 0
;FirmV_0_7_0.c,1896 :: 		EEPROM_Write(17,LockEnable);
	MOVLW       17
	MOVWF       FARG_EEPROM_Write_address+0 
	MOVLW       0
	MOVWF       FARG_EEPROM_Write_address+1 
	MOVF        _LockEnable+0, 0 
	MOVWF       FARG_EEPROM_Write_data_+0 
	CALL        _EEPROM_Write+0, 0
;FirmV_0_7_0.c,1897 :: 		EEPROM_Write(18,OverloadTime1);
	MOVLW       18
	MOVWF       FARG_EEPROM_Write_address+0 
	MOVLW       0
	MOVWF       FARG_EEPROM_Write_address+1 
	MOVF        _OverloadTime1+0, 0 
	MOVWF       FARG_EEPROM_Write_data_+0 
	CALL        _EEPROM_Write+0, 0
;FirmV_0_7_0.c,1898 :: 		EEPROM_Write(19,OverloadSens2);
	MOVLW       19
	MOVWF       FARG_EEPROM_Write_address+0 
	MOVLW       0
	MOVWF       FARG_EEPROM_Write_address+1 
	MOVF        _OverloadSens2+0, 0 
	MOVWF       FARG_EEPROM_Write_data_+0 
	CALL        _EEPROM_Write+0, 0
;FirmV_0_7_0.c,1899 :: 		EEPROM_Write(20,OverloadTime2);
	MOVLW       20
	MOVWF       FARG_EEPROM_Write_address+0 
	MOVLW       0
	MOVWF       FARG_EEPROM_Write_address+1 
	MOVF        _OverloadTime2+0, 0 
	MOVWF       FARG_EEPROM_Write_data_+0 
	CALL        _EEPROM_Write+0, 0
;FirmV_0_7_0.c,1900 :: 		EEPROM_Write(21,M1SoftPower);
	MOVLW       21
	MOVWF       FARG_EEPROM_Write_address+0 
	MOVLW       0
	MOVWF       FARG_EEPROM_Write_address+1 
	MOVF        _M1SoftPower+0, 0 
	MOVWF       FARG_EEPROM_Write_data_+0 
	CALL        _EEPROM_Write+0, 0
;FirmV_0_7_0.c,1901 :: 		EEPROM_Write(22,M2SoftPower);
	MOVLW       22
	MOVWF       FARG_EEPROM_Write_address+0 
	MOVLW       0
	MOVWF       FARG_EEPROM_Write_address+1 
	MOVF        _M2SoftPower+0, 0 
	MOVWF       FARG_EEPROM_Write_data_+0 
	CALL        _EEPROM_Write+0, 0
;FirmV_0_7_0.c,1902 :: 		SetOverloadParams(OverloadSens1,OverloadTime1,OverloadSens2,OverloadTime2);
	MOVF        _OverloadSens1+0, 0 
	MOVWF       FARG_SetOverloadParams+0 
	MOVF        _OverloadTime1+0, 0 
	MOVWF       FARG_SetOverloadParams+0 
	MOVF        _OverloadSens2+0, 0 
	MOVWF       FARG_SetOverloadParams+0 
	MOVF        _OverloadTime2+0, 0 
	MOVWF       FARG_SetOverloadParams+0 
	CALL        _SetOverloadParams+0, 0
;FirmV_0_7_0.c,1903 :: 		SetSoftPower();
	CALL        _SetSoftPower+0, 0
;FirmV_0_7_0.c,1905 :: 		}
L_end_SaveConfigs:
	RETURN      0
; end of _SaveConfigs

_LoadConfigs:

;FirmV_0_7_0.c,1918 :: 		void LoadConfigs()
;FirmV_0_7_0.c,1920 :: 		Door1OpenTime=EEPROM_Read(1);
	MOVLW       1
	MOVWF       FARG_EEPROM_Read_address+0 
	MOVLW       0
	MOVWF       FARG_EEPROM_Read_address+1 
	CALL        _EEPROM_Read+0, 0
	MOVF        R0, 0 
	MOVWF       _Door1OpenTime+0 
;FirmV_0_7_0.c,1921 :: 		Door2OpenTime=EEPROM_Read(2);
	MOVLW       2
	MOVWF       FARG_EEPROM_Read_address+0 
	MOVLW       0
	MOVWF       FARG_EEPROM_Read_address+1 
	CALL        _EEPROM_Read+0, 0
	MOVF        R0, 0 
	MOVWF       _Door2OpenTime+0 
;FirmV_0_7_0.c,1922 :: 		Door1CloseTime=EEPROM_Read(3);
	MOVLW       3
	MOVWF       FARG_EEPROM_Read_address+0 
	MOVLW       0
	MOVWF       FARG_EEPROM_Read_address+1 
	CALL        _EEPROM_Read+0, 0
	MOVF        R0, 0 
	MOVWF       _Door1CloseTime+0 
;FirmV_0_7_0.c,1923 :: 		Door2CloseTime=EEPROM_Read(4);
	MOVLW       4
	MOVWF       FARG_EEPROM_Read_address+0 
	MOVLW       0
	MOVWF       FARG_EEPROM_Read_address+1 
	CALL        _EEPROM_Read+0, 0
	MOVF        R0, 0 
	MOVWF       _Door2CloseTime+0 
;FirmV_0_7_0.c,1924 :: 		ActionTimeDiff=EEPROM_Read(5);
	MOVLW       5
	MOVWF       FARG_EEPROM_Read_address+0 
	MOVLW       0
	MOVWF       FARG_EEPROM_Read_address+1 
	CALL        _EEPROM_Read+0, 0
	MOVF        R0, 0 
	MOVWF       _ActionTimeDiff+0 
;FirmV_0_7_0.c,1925 :: 		OpenSoftStartTime=EEPROM_Read(6);
	MOVLW       6
	MOVWF       FARG_EEPROM_Read_address+0 
	MOVLW       0
	MOVWF       FARG_EEPROM_Read_address+1 
	CALL        _EEPROM_Read+0, 0
	MOVF        R0, 0 
	MOVWF       _OpenSoftStartTime+0 
;FirmV_0_7_0.c,1926 :: 		OpenSoftStopTime=EEPROM_Read(7);
	MOVLW       7
	MOVWF       FARG_EEPROM_Read_address+0 
	MOVLW       0
	MOVWF       FARG_EEPROM_Read_address+1 
	CALL        _EEPROM_Read+0, 0
	MOVF        R0, 0 
	MOVWF       _OpenSoftStopTime+0 
;FirmV_0_7_0.c,1927 :: 		CloseSoftStartTime=EEPROM_Read(8);
	MOVLW       8
	MOVWF       FARG_EEPROM_Read_address+0 
	MOVLW       0
	MOVWF       FARG_EEPROM_Read_address+1 
	CALL        _EEPROM_Read+0, 0
	MOVF        R0, 0 
	MOVWF       _CloseSoftStartTime+0 
;FirmV_0_7_0.c,1928 :: 		CloseSoftStopTime=EEPROM_Read(9);
	MOVLW       9
	MOVWF       FARG_EEPROM_Read_address+0 
	MOVLW       0
	MOVWF       FARG_EEPROM_Read_address+1 
	CALL        _EEPROM_Read+0, 0
	MOVF        R0, 0 
	MOVWF       _CloseSoftStopTime+0 
;FirmV_0_7_0.c,1929 :: 		AutoCloseTime=EEPROM_Read(10);
	MOVLW       10
	MOVWF       FARG_EEPROM_Read_address+0 
	MOVLW       0
	MOVWF       FARG_EEPROM_Read_address+1 
	CALL        _EEPROM_Read+0, 0
	MOVF        R0, 0 
	MOVWF       _AutoCloseTime+0 
	MOVLW       0
	MOVWF       _AutoCloseTime+1 
;FirmV_0_7_0.c,1930 :: 		AutoCloseTime=AutoCloseTime<<8;
	MOVF        _AutoCloseTime+0, 0 
	MOVWF       _AutoCloseTime+1 
	CLRF        _AutoCloseTime+0 
;FirmV_0_7_0.c,1931 :: 		AutoCloseTime=AutocloseTime|EEPROM_Read(11);
	MOVLW       11
	MOVWF       FARG_EEPROM_Read_address+0 
	MOVLW       0
	MOVWF       FARG_EEPROM_Read_address+1 
	CALL        _EEPROM_Read+0, 0
	MOVF        R0, 0 
	IORWF       _AutoCloseTime+0, 1 
	MOVLW       0
	IORWF       _AutoCloseTime+1, 1 
;FirmV_0_7_0.c,1932 :: 		OverloadSens1=EEPROM_Read(12);
	MOVLW       12
	MOVWF       FARG_EEPROM_Read_address+0 
	MOVLW       0
	MOVWF       FARG_EEPROM_Read_address+1 
	CALL        _EEPROM_Read+0, 0
	MOVF        R0, 0 
	MOVWF       _OverloadSens1+0 
;FirmV_0_7_0.c,1933 :: 		CloseAfterPass=EEPROM_Read(13);
	MOVLW       13
	MOVWF       FARG_EEPROM_Read_address+0 
	MOVLW       0
	MOVWF       FARG_EEPROM_Read_address+1 
	CALL        _EEPROM_Read+0, 0
	MOVF        R0, 0 
	MOVWF       _CloseAfterPass+0 
;FirmV_0_7_0.c,1934 :: 		LockForce=EEPROM_Read(14);
	MOVLW       14
	MOVWF       FARG_EEPROM_Read_address+0 
	MOVLW       0
	MOVWF       FARG_EEPROM_Read_address+1 
	CALL        _EEPROM_Read+0, 0
	MOVF        R0, 0 
	MOVWF       _LockForce+0 
;FirmV_0_7_0.c,1935 :: 		OpenPhEnable=EEPROM_Read(15);
	MOVLW       15
	MOVWF       FARG_EEPROM_Read_address+0 
	MOVLW       0
	MOVWF       FARG_EEPROM_Read_address+1 
	CALL        _EEPROM_Read+0, 0
	MOVF        R0, 0 
	MOVWF       _OpenPhEnable+0 
;FirmV_0_7_0.c,1936 :: 		LimiterEnable=EEPROM_Read(16);
	MOVLW       16
	MOVWF       FARG_EEPROM_Read_address+0 
	MOVLW       0
	MOVWF       FARG_EEPROM_Read_address+1 
	CALL        _EEPROM_Read+0, 0
	MOVF        R0, 0 
	MOVWF       _LimiterEnable+0 
;FirmV_0_7_0.c,1937 :: 		LockEnable=EEPROM_Read(17);
	MOVLW       17
	MOVWF       FARG_EEPROM_Read_address+0 
	MOVLW       0
	MOVWF       FARG_EEPROM_Read_address+1 
	CALL        _EEPROM_Read+0, 0
	MOVF        R0, 0 
	MOVWF       _LockEnable+0 
;FirmV_0_7_0.c,1938 :: 		OverloadTime1=EEPROM_Read(18);
	MOVLW       18
	MOVWF       FARG_EEPROM_Read_address+0 
	MOVLW       0
	MOVWF       FARG_EEPROM_Read_address+1 
	CALL        _EEPROM_Read+0, 0
	MOVF        R0, 0 
	MOVWF       _OverloadTime1+0 
;FirmV_0_7_0.c,1939 :: 		OverloadSens2=EEPROM_Read(19);
	MOVLW       19
	MOVWF       FARG_EEPROM_Read_address+0 
	MOVLW       0
	MOVWF       FARG_EEPROM_Read_address+1 
	CALL        _EEPROM_Read+0, 0
	MOVF        R0, 0 
	MOVWF       _OverloadSens2+0 
;FirmV_0_7_0.c,1940 :: 		OverloadTime2=EEPROM_Read(20);
	MOVLW       20
	MOVWF       FARG_EEPROM_Read_address+0 
	MOVLW       0
	MOVWF       FARG_EEPROM_Read_address+1 
	CALL        _EEPROM_Read+0, 0
	MOVF        R0, 0 
	MOVWF       _OverloadTime2+0 
;FirmV_0_7_0.c,1941 :: 		M1SoftPower=EEPROM_Read(21);
	MOVLW       21
	MOVWF       FARG_EEPROM_Read_address+0 
	MOVLW       0
	MOVWF       FARG_EEPROM_Read_address+1 
	CALL        _EEPROM_Read+0, 0
	MOVF        R0, 0 
	MOVWF       _M1SoftPower+0 
	MOVLW       0
	MOVWF       _M1SoftPower+1 
;FirmV_0_7_0.c,1942 :: 		M2SoftPower=EEPROM_Read(22);
	MOVLW       22
	MOVWF       FARG_EEPROM_Read_address+0 
	MOVLW       0
	MOVWF       FARG_EEPROM_Read_address+1 
	CALL        _EEPROM_Read+0, 0
	MOVF        R0, 0 
	MOVWF       _M2SoftPower+0 
	MOVLW       0
	MOVWF       _M2SoftPower+1 
;FirmV_0_7_0.c,1943 :: 		SetSoftPower();
	CALL        _SetSoftPower+0, 0
;FirmV_0_7_0.c,1944 :: 		SetOverloadParams(OverloadSens1,OverloadTime1,OverloadSens2,OverloadTime2);
	MOVF        _OverloadSens1+0, 0 
	MOVWF       FARG_SetOverloadParams+0 
	MOVF        _OverloadTime1+0, 0 
	MOVWF       FARG_SetOverloadParams+0 
	MOVF        _OverloadSens2+0, 0 
	MOVWF       FARG_SetOverloadParams+0 
	MOVF        _OverloadTime2+0, 0 
	MOVWF       FARG_SetOverloadParams+0 
	CALL        _SetOverloadParams+0, 0
;FirmV_0_7_0.c,1946 :: 		}
L_end_LoadConfigs:
	RETURN      0
; end of _LoadConfigs

_FactorySettings:

;FirmV_0_7_0.c,1959 :: 		void FactorySettings()
;FirmV_0_7_0.c,1961 :: 		Door1OpenTime=20;
	MOVLW       20
	MOVWF       _Door1OpenTime+0 
;FirmV_0_7_0.c,1962 :: 		Door1CloseTime=20;
	MOVLW       20
	MOVWF       _Door1CloseTime+0 
;FirmV_0_7_0.c,1963 :: 		Door2OpenTime=20;
	MOVLW       20
	MOVWF       _Door2OpenTime+0 
;FirmV_0_7_0.c,1964 :: 		Door2CloseTime=20;
	MOVLW       20
	MOVWF       _Door2CloseTime+0 
;FirmV_0_7_0.c,1965 :: 		OverloadSens1=7;
	MOVLW       7
	MOVWF       _OverloadSens1+0 
;FirmV_0_7_0.c,1966 :: 		OverloadTime1=2;
	MOVLW       2
	MOVWF       _OverloadTime1+0 
;FirmV_0_7_0.c,1967 :: 		OverloadSens2=7;
	MOVLW       7
	MOVWF       _OverloadSens2+0 
;FirmV_0_7_0.c,1968 :: 		OverloadTime2=2;
	MOVLW       2
	MOVWF       _OverloadTime2+0 
;FirmV_0_7_0.c,1969 :: 		SetOverloadParams(7,2,7,2);
	MOVLW       7
	MOVWF       FARG_SetOverloadParams+0 
	MOVLW       2
	MOVWF       FARG_SetOverloadParams+0 
	MOVLW       7
	MOVWF       FARG_SetOverloadParams+0 
	MOVLW       2
	MOVWF       FARG_SetOverloadParams+0 
	CALL        _SetOverloadParams+0, 0
;FirmV_0_7_0.c,1970 :: 		OpenSoftStopTime=10;
	MOVLW       10
	MOVWF       _OpenSoftStopTime+0 
;FirmV_0_7_0.c,1971 :: 		OpenSoftStartTime=4;
	MOVLW       4
	MOVWF       _OpenSoftStartTime+0 
;FirmV_0_7_0.c,1972 :: 		CloseSoftStopTime=10;
	MOVLW       10
	MOVWF       _CloseSoftStopTime+0 
;FirmV_0_7_0.c,1973 :: 		CloseSoftStartTime=4;
	MOVLW       4
	MOVWF       _CloseSoftStartTime+0 
;FirmV_0_7_0.c,1974 :: 		ActionTimeDiff=12;
	MOVLW       12
	MOVWF       _ActionTimeDiff+0 
;FirmV_0_7_0.c,1975 :: 		AutoCloseTime=0;
	CLRF        _AutoCloseTime+0 
	CLRF        _AutoCloseTime+1 
;FirmV_0_7_0.c,1976 :: 		LockForce=0;
	CLRF        _LockForce+0 
;FirmV_0_7_0.c,1977 :: 		OpenPhEnable=0;
	CLRF        _OpenPhEnable+0 
;FirmV_0_7_0.c,1978 :: 		LimiterEnable=0;
	CLRF        _LimiterEnable+0 
;FirmV_0_7_0.c,1979 :: 		CloseAfterPass=0;
	CLRF        _CloseAfterPass+0 
;FirmV_0_7_0.c,1980 :: 		LockEnable=1;
	MOVLW       1
	MOVWF       _LockEnable+0 
;FirmV_0_7_0.c,1982 :: 		SaveConfigs();
	CALL        _SaveConfigs+0, 0
;FirmV_0_7_0.c,1983 :: 		}
L_end_FactorySettings:
	RETURN      0
; end of _FactorySettings

_StartMotor:

;FirmV_0_7_0.c,1989 :: 		void StartMotor(char Mx,char Dir)
;FirmV_0_7_0.c,1991 :: 		if(Mx==1)
	MOVF        FARG_StartMotor_Mx+0, 0 
	XORLW       1
	BTFSS       STATUS+0, 2 
	GOTO        L_StartMotor427
;FirmV_0_7_0.c,1993 :: 		Motor1Dir=Dir;
	BTFSC       FARG_StartMotor_Dir+0, 0 
	GOTO        L__StartMotor1074
	BCF         PORTC+0, 1 
	GOTO        L__StartMotor1075
L__StartMotor1074:
	BSF         PORTC+0, 1 
L__StartMotor1075:
;FirmV_0_7_0.c,1994 :: 		delay_ms(100);
	MOVLW       6
	MOVWF       R11, 0
	MOVLW       19
	MOVWF       R12, 0
	MOVLW       173
	MOVWF       R13, 0
L_StartMotor428:
	DECFSZ      R13, 1, 1
	BRA         L_StartMotor428
	DECFSZ      R12, 1, 1
	BRA         L_StartMotor428
	DECFSZ      R11, 1, 1
	BRA         L_StartMotor428
	NOP
	NOP
;FirmV_0_7_0.c,1995 :: 		Motor1Start=1;
	MOVLW       1
	MOVWF       _Motor1Start+0 
;FirmV_0_7_0.c,1996 :: 		Motor1=1;
	BSF         PORTB+0, 3 
;FirmV_0_7_0.c,1997 :: 		}
L_StartMotor427:
;FirmV_0_7_0.c,1999 :: 		if(Mx==2)
	MOVF        FARG_StartMotor_Mx+0, 0 
	XORLW       2
	BTFSS       STATUS+0, 2 
	GOTO        L_StartMotor429
;FirmV_0_7_0.c,2001 :: 		Motor2Dir=Dir;
	BTFSC       FARG_StartMotor_Dir+0, 0 
	GOTO        L__StartMotor1076
	BCF         PORTC+0, 0 
	GOTO        L__StartMotor1077
L__StartMotor1076:
	BSF         PORTC+0, 0 
L__StartMotor1077:
;FirmV_0_7_0.c,2002 :: 		delay_ms(100);
	MOVLW       6
	MOVWF       R11, 0
	MOVLW       19
	MOVWF       R12, 0
	MOVLW       173
	MOVWF       R13, 0
L_StartMotor430:
	DECFSZ      R13, 1, 1
	BRA         L_StartMotor430
	DECFSZ      R12, 1, 1
	BRA         L_StartMotor430
	DECFSZ      R11, 1, 1
	BRA         L_StartMotor430
	NOP
	NOP
;FirmV_0_7_0.c,2003 :: 		Motor2Start=1;
	MOVLW       1
	MOVWF       _Motor2Start+0 
;FirmV_0_7_0.c,2004 :: 		Motor2=1;
	BSF         PORTB+0, 4 
;FirmV_0_7_0.c,2005 :: 		}
L_StartMotor429:
;FirmV_0_7_0.c,2006 :: 		}
L_end_StartMotor:
	RETURN      0
; end of _StartMotor

_StopMotor:

;FirmV_0_7_0.c,2009 :: 		void StopMotor(char Mx)
;FirmV_0_7_0.c,2011 :: 		if(Mx==1)
	MOVF        FARG_StopMotor_Mx+0, 0 
	XORLW       1
	BTFSS       STATUS+0, 2 
	GOTO        L_StopMotor431
;FirmV_0_7_0.c,2013 :: 		Motor1Start=0;
	CLRF        _Motor1Start+0 
;FirmV_0_7_0.c,2014 :: 		Motor1=0;
	BCF         PORTB+0, 3 
;FirmV_0_7_0.c,2015 :: 		}
L_StopMotor431:
;FirmV_0_7_0.c,2017 :: 		if(Mx==2)
	MOVF        FARG_StopMotor_Mx+0, 0 
	XORLW       2
	BTFSS       STATUS+0, 2 
	GOTO        L_StopMotor432
;FirmV_0_7_0.c,2019 :: 		Motor2Start=0;
	CLRF        _Motor2Start+0 
;FirmV_0_7_0.c,2020 :: 		Motor2=0;
	BCF         PORTB+0, 4 
;FirmV_0_7_0.c,2021 :: 		}
L_StopMotor432:
;FirmV_0_7_0.c,2022 :: 		}
L_end_StopMotor:
	RETURN      0
; end of _StopMotor

_CheckTask:

;FirmV_0_7_0.c,2034 :: 		char CheckTask(char TaskCode)
;FirmV_0_7_0.c,2036 :: 		if(Events.Task1==TaskCode)
	MOVF        _Events+1, 0 
	XORWF       FARG_CheckTask_TaskCode+0, 0 
	BTFSS       STATUS+0, 2 
	GOTO        L_CheckTask433
;FirmV_0_7_0.c,2037 :: 		{Events.Task1=0; return 1;}
	CLRF        _Events+1 
	MOVLW       1
	MOVWF       R0 
	GOTO        L_end_CheckTask
L_CheckTask433:
;FirmV_0_7_0.c,2039 :: 		if(Events.Task2==TaskCode)
	MOVF        _Events+2, 0 
	XORWF       FARG_CheckTask_TaskCode+0, 0 
	BTFSS       STATUS+0, 2 
	GOTO        L_CheckTask434
;FirmV_0_7_0.c,2040 :: 		{Events.Task2=0; return 1;}
	CLRF        _Events+2 
	MOVLW       1
	MOVWF       R0 
	GOTO        L_end_CheckTask
L_CheckTask434:
;FirmV_0_7_0.c,2042 :: 		if(Events.Task3==TaskCode)
	MOVF        _Events+3, 0 
	XORWF       FARG_CheckTask_TaskCode+0, 0 
	BTFSS       STATUS+0, 2 
	GOTO        L_CheckTask435
;FirmV_0_7_0.c,2043 :: 		{Events.Task3=0; return 1;}
	CLRF        _Events+3 
	MOVLW       1
	MOVWF       R0 
	GOTO        L_end_CheckTask
L_CheckTask435:
;FirmV_0_7_0.c,2045 :: 		return 0;
	CLRF        R0 
;FirmV_0_7_0.c,2047 :: 		}
L_end_CheckTask:
	RETURN      0
; end of _CheckTask

_ReturnAutoclose:

;FirmV_0_7_0.c,2055 :: 		char ReturnAutoclose()
;FirmV_0_7_0.c,2059 :: 		for(i=0;i<20;i++)
	CLRF        ReturnAutoclose_i_L0+0 
L_ReturnAutoclose436:
	MOVLW       20
	SUBWF       ReturnAutoclose_i_L0+0, 0 
	BTFSC       STATUS+0, 0 
	GOTO        L_ReturnAutoclose437
;FirmV_0_7_0.c,2061 :: 		if((Tasks[i].Expired==0)&&(Tasks[i].TaskCode==9))
	MOVLW       7
	MOVWF       R0 
	MOVLW       0
	MOVWF       R1 
	MOVF        ReturnAutoclose_i_L0+0, 0 
	MOVWF       R4 
	MOVLW       0
	MOVWF       R5 
	CALL        _Mul_16X16_U+0, 0
	MOVLW       _Tasks+0
	ADDWF       R0, 1 
	MOVLW       hi_addr(_Tasks+0)
	ADDWFC      R1, 1 
	MOVLW       5
	ADDWF       R0, 0 
	MOVWF       FSR0 
	MOVLW       0
	ADDWFC      R1, 0 
	MOVWF       FSR0H 
	MOVF        POSTINC0+0, 0 
	XORLW       0
	BTFSS       STATUS+0, 2 
	GOTO        L_ReturnAutoclose441
	MOVLW       7
	MOVWF       R0 
	MOVLW       0
	MOVWF       R1 
	MOVF        ReturnAutoclose_i_L0+0, 0 
	MOVWF       R4 
	MOVLW       0
	MOVWF       R5 
	CALL        _Mul_16X16_U+0, 0
	MOVLW       _Tasks+0
	ADDWF       R0, 0 
	MOVWF       FSR0 
	MOVLW       hi_addr(_Tasks+0)
	ADDWFC      R1, 0 
	MOVWF       FSR0H 
	MOVF        POSTINC0+0, 0 
	MOVWF       R1 
	MOVF        R1, 0 
	XORLW       9
	BTFSS       STATUS+0, 2 
	GOTO        L_ReturnAutoclose441
L__ReturnAutoclose947:
;FirmV_0_7_0.c,2062 :: 		{t=Tasks[i].Time;break;}
	MOVLW       7
	MOVWF       R0 
	MOVLW       0
	MOVWF       R1 
	MOVF        ReturnAutoclose_i_L0+0, 0 
	MOVWF       R4 
	MOVLW       0
	MOVWF       R5 
	CALL        _Mul_16X16_U+0, 0
	MOVLW       _Tasks+0
	ADDWF       R0, 1 
	MOVLW       hi_addr(_Tasks+0)
	ADDWFC      R1, 1 
	MOVLW       1
	ADDWF       R0, 0 
	MOVWF       FSR0 
	MOVLW       0
	ADDWFC      R1, 0 
	MOVWF       FSR0H 
	MOVF        POSTINC0+0, 0 
	MOVWF       ReturnAutoclose_t_L0+0 
	MOVF        POSTINC0+0, 0 
	MOVWF       ReturnAutoclose_t_L0+1 
	MOVF        POSTINC0+0, 0 
	MOVWF       ReturnAutoclose_t_L0+2 
	MOVF        POSTINC0+0, 0 
	MOVWF       ReturnAutoclose_t_L0+3 
	GOTO        L_ReturnAutoclose437
L_ReturnAutoclose441:
;FirmV_0_7_0.c,2059 :: 		for(i=0;i<20;i++)
	INCF        ReturnAutoclose_i_L0+0, 1 
;FirmV_0_7_0.c,2063 :: 		}
	GOTO        L_ReturnAutoclose436
L_ReturnAutoclose437:
;FirmV_0_7_0.c,2065 :: 		if(i>=20) i=0;
	MOVLW       20
	SUBWF       ReturnAutoclose_i_L0+0, 0 
	BTFSS       STATUS+0, 0 
	GOTO        L_ReturnAutoclose442
	CLRF        ReturnAutoclose_i_L0+0 
	GOTO        L_ReturnAutoclose443
L_ReturnAutoclose442:
;FirmV_0_7_0.c,2066 :: 		else i=t-ms500;
	MOVF        _ms500+0, 0 
	SUBWF       ReturnAutoclose_t_L0+0, 0 
	MOVWF       ReturnAutoclose_i_L0+0 
L_ReturnAutoclose443:
;FirmV_0_7_0.c,2067 :: 		return i;
	MOVF        ReturnAutoclose_i_L0+0, 0 
	MOVWF       R0 
;FirmV_0_7_0.c,2068 :: 		}
L_end_ReturnAutoclose:
	RETURN      0
; end of _ReturnAutoclose

_GetAutocloseTime:

;FirmV_0_7_0.c,2078 :: 		char GetAutocloseTime()
;FirmV_0_7_0.c,2082 :: 		for(i=0;i<20;i++)
	CLRF        GetAutocloseTime_i_L0+0 
L_GetAutocloseTime444:
	MOVLW       20
	SUBWF       GetAutocloseTime_i_L0+0, 0 
	BTFSC       STATUS+0, 0 
	GOTO        L_GetAutocloseTime445
;FirmV_0_7_0.c,2084 :: 		if((Tasks[i].Expired==0)&&(Tasks[i].TaskCode==9))
	MOVLW       7
	MOVWF       R0 
	MOVLW       0
	MOVWF       R1 
	MOVF        GetAutocloseTime_i_L0+0, 0 
	MOVWF       R4 
	MOVLW       0
	MOVWF       R5 
	CALL        _Mul_16X16_U+0, 0
	MOVLW       _Tasks+0
	ADDWF       R0, 1 
	MOVLW       hi_addr(_Tasks+0)
	ADDWFC      R1, 1 
	MOVLW       5
	ADDWF       R0, 0 
	MOVWF       FSR0 
	MOVLW       0
	ADDWFC      R1, 0 
	MOVWF       FSR0H 
	MOVF        POSTINC0+0, 0 
	XORLW       0
	BTFSS       STATUS+0, 2 
	GOTO        L_GetAutocloseTime449
	MOVLW       7
	MOVWF       R0 
	MOVLW       0
	MOVWF       R1 
	MOVF        GetAutocloseTime_i_L0+0, 0 
	MOVWF       R4 
	MOVLW       0
	MOVWF       R5 
	CALL        _Mul_16X16_U+0, 0
	MOVLW       _Tasks+0
	ADDWF       R0, 0 
	MOVWF       FSR0 
	MOVLW       hi_addr(_Tasks+0)
	ADDWFC      R1, 0 
	MOVWF       FSR0H 
	MOVF        POSTINC0+0, 0 
	MOVWF       R1 
	MOVF        R1, 0 
	XORLW       9
	BTFSS       STATUS+0, 2 
	GOTO        L_GetAutocloseTime449
L__GetAutocloseTime948:
;FirmV_0_7_0.c,2085 :: 		{t=Tasks[i].Time;Tasks[i].Expired=1;break;}
	MOVLW       7
	MOVWF       R0 
	MOVLW       0
	MOVWF       R1 
	MOVF        GetAutocloseTime_i_L0+0, 0 
	MOVWF       R4 
	MOVLW       0
	MOVWF       R5 
	CALL        _Mul_16X16_U+0, 0
	MOVLW       _Tasks+0
	ADDWF       R0, 1 
	MOVLW       hi_addr(_Tasks+0)
	ADDWFC      R1, 1 
	MOVLW       1
	ADDWF       R0, 0 
	MOVWF       FSR0 
	MOVLW       0
	ADDWFC      R1, 0 
	MOVWF       FSR0H 
	MOVF        POSTINC0+0, 0 
	MOVWF       GetAutocloseTime_t_L0+0 
	MOVF        POSTINC0+0, 0 
	MOVWF       GetAutocloseTime_t_L0+1 
	MOVF        POSTINC0+0, 0 
	MOVWF       GetAutocloseTime_t_L0+2 
	MOVF        POSTINC0+0, 0 
	MOVWF       GetAutocloseTime_t_L0+3 
	MOVLW       5
	ADDWF       R0, 0 
	MOVWF       FSR1 
	MOVLW       0
	ADDWFC      R1, 0 
	MOVWF       FSR1H 
	MOVLW       1
	MOVWF       POSTINC1+0 
	GOTO        L_GetAutocloseTime445
L_GetAutocloseTime449:
;FirmV_0_7_0.c,2082 :: 		for(i=0;i<20;i++)
	INCF        GetAutocloseTime_i_L0+0, 1 
;FirmV_0_7_0.c,2086 :: 		}
	GOTO        L_GetAutocloseTime444
L_GetAutocloseTime445:
;FirmV_0_7_0.c,2087 :: 		i=t-ms500;
	MOVF        _ms500+0, 0 
	SUBWF       GetAutocloseTime_t_L0+0, 0 
	MOVWF       R1 
	MOVF        R1, 0 
	MOVWF       GetAutocloseTime_i_L0+0 
;FirmV_0_7_0.c,2088 :: 		if(i>=20) i=0;
	MOVLW       20
	SUBWF       R1, 0 
	BTFSS       STATUS+0, 0 
	GOTO        L_GetAutocloseTime450
	CLRF        GetAutocloseTime_i_L0+0 
L_GetAutocloseTime450:
;FirmV_0_7_0.c,2089 :: 		return i;
	MOVF        GetAutocloseTime_i_L0+0, 0 
	MOVWF       R0 
;FirmV_0_7_0.c,2090 :: 		}
L_end_GetAutocloseTime:
	RETURN      0
; end of _GetAutocloseTime

_ClearTasks:

;FirmV_0_7_0.c,2107 :: 		void ClearTasks(char except)
;FirmV_0_7_0.c,2110 :: 		for(i=0;i<20;i++)
	CLRF        ClearTasks_i_L0+0 
L_ClearTasks451:
	MOVLW       20
	SUBWF       ClearTasks_i_L0+0, 0 
	BTFSC       STATUS+0, 0 
	GOTO        L_ClearTasks452
;FirmV_0_7_0.c,2111 :: 		if((Tasks[i].Expired==0)&&(Tasks[i].TaskCode!=except))
	MOVLW       7
	MOVWF       R0 
	MOVLW       0
	MOVWF       R1 
	MOVF        ClearTasks_i_L0+0, 0 
	MOVWF       R4 
	MOVLW       0
	MOVWF       R5 
	CALL        _Mul_16X16_U+0, 0
	MOVLW       _Tasks+0
	ADDWF       R0, 1 
	MOVLW       hi_addr(_Tasks+0)
	ADDWFC      R1, 1 
	MOVLW       5
	ADDWF       R0, 0 
	MOVWF       FSR0 
	MOVLW       0
	ADDWFC      R1, 0 
	MOVWF       FSR0H 
	MOVF        POSTINC0+0, 0 
	XORLW       0
	BTFSS       STATUS+0, 2 
	GOTO        L_ClearTasks456
	MOVLW       7
	MOVWF       R0 
	MOVLW       0
	MOVWF       R1 
	MOVF        ClearTasks_i_L0+0, 0 
	MOVWF       R4 
	MOVLW       0
	MOVWF       R5 
	CALL        _Mul_16X16_U+0, 0
	MOVLW       _Tasks+0
	ADDWF       R0, 0 
	MOVWF       FSR0 
	MOVLW       hi_addr(_Tasks+0)
	ADDWFC      R1, 0 
	MOVWF       FSR0H 
	MOVF        POSTINC0+0, 0 
	MOVWF       R1 
	MOVF        R1, 0 
	XORWF       FARG_ClearTasks_except+0, 0 
	BTFSC       STATUS+0, 2 
	GOTO        L_ClearTasks456
L__ClearTasks949:
;FirmV_0_7_0.c,2112 :: 		Tasks[i].Expired=1;
	MOVLW       7
	MOVWF       R0 
	MOVLW       0
	MOVWF       R1 
	MOVF        ClearTasks_i_L0+0, 0 
	MOVWF       R4 
	MOVLW       0
	MOVWF       R5 
	CALL        _Mul_16X16_U+0, 0
	MOVLW       _Tasks+0
	ADDWF       R0, 1 
	MOVLW       hi_addr(_Tasks+0)
	ADDWFC      R1, 1 
	MOVLW       5
	ADDWF       R0, 0 
	MOVWF       FSR1 
	MOVLW       0
	ADDWFC      R1, 0 
	MOVWF       FSR1H 
	MOVLW       1
	MOVWF       POSTINC1+0 
L_ClearTasks456:
;FirmV_0_7_0.c,2110 :: 		for(i=0;i<20;i++)
	INCF        ClearTasks_i_L0+0, 1 
;FirmV_0_7_0.c,2112 :: 		Tasks[i].Expired=1;
	GOTO        L_ClearTasks451
L_ClearTasks452:
;FirmV_0_7_0.c,2113 :: 		}
L_end_ClearTasks:
	RETURN      0
; end of _ClearTasks

_Menu0:

;FirmV_0_7_0.c,2128 :: 		void Menu0()
;FirmV_0_7_0.c,2130 :: 		LCDLines=2;
	MOVLW       2
	MOVWF       _LCDLines+0 
;FirmV_0_7_0.c,2131 :: 		memcpy(LCDLine2,"                ",16);
	MOVLW       _LCDLine2+0
	MOVWF       FARG_memcpy_d1+0 
	MOVLW       hi_addr(_LCDLine2+0)
	MOVWF       FARG_memcpy_d1+1 
	MOVLW       ?lstr70_FirmV_0_7_0+0
	MOVWF       FARG_memcpy_s1+0 
	MOVLW       hi_addr(?lstr70_FirmV_0_7_0+0)
	MOVWF       FARG_memcpy_s1+1 
	MOVLW       16
	MOVWF       FARG_memcpy_n+0 
	MOVLW       0
	MOVWF       FARG_memcpy_n+1 
	CALL        _memcpy+0, 0
;FirmV_0_7_0.c,2133 :: 		if(MenuPointer==0)
	MOVF        _MenuPointer+0, 0 
	XORLW       0
	BTFSS       STATUS+0, 2 
	GOTO        L_Menu0457
;FirmV_0_7_0.c,2134 :: 		{memcpy(LCDLine1,"00 Learning Mode",16);LCDUpdateFlag=1;
	MOVLW       _LCDLine1+0
	MOVWF       FARG_memcpy_d1+0 
	MOVLW       hi_addr(_LCDLine1+0)
	MOVWF       FARG_memcpy_d1+1 
	MOVLW       ?lstr71_FirmV_0_7_0+0
	MOVWF       FARG_memcpy_s1+0 
	MOVLW       hi_addr(?lstr71_FirmV_0_7_0+0)
	MOVWF       FARG_memcpy_s1+1 
	MOVLW       16
	MOVWF       FARG_memcpy_n+0 
	MOVLW       0
	MOVWF       FARG_memcpy_n+1 
	CALL        _memcpy+0, 0
	MOVLW       1
	MOVWF       _LCDUpdateFlag+0 
;FirmV_0_7_0.c,2135 :: 		if(LearningMode==0)memcpy(LCDLine2,"      Auto      ",16);
	MOVF        _LearningMode+0, 0 
	XORLW       0
	BTFSS       STATUS+0, 2 
	GOTO        L_Menu0458
	MOVLW       _LCDLine2+0
	MOVWF       FARG_memcpy_d1+0 
	MOVLW       hi_addr(_LCDLine2+0)
	MOVWF       FARG_memcpy_d1+1 
	MOVLW       ?lstr72_FirmV_0_7_0+0
	MOVWF       FARG_memcpy_s1+0 
	MOVLW       hi_addr(?lstr72_FirmV_0_7_0+0)
	MOVWF       FARG_memcpy_s1+1 
	MOVLW       16
	MOVWF       FARG_memcpy_n+0 
	MOVLW       0
	MOVWF       FARG_memcpy_n+1 
	CALL        _memcpy+0, 0
L_Menu0458:
;FirmV_0_7_0.c,2136 :: 		if(LearningMode==1)memcpy(LCDLine2,"     Manual     ",16);}
	MOVF        _LearningMode+0, 0 
	XORLW       1
	BTFSS       STATUS+0, 2 
	GOTO        L_Menu0459
	MOVLW       _LCDLine2+0
	MOVWF       FARG_memcpy_d1+0 
	MOVLW       hi_addr(_LCDLine2+0)
	MOVWF       FARG_memcpy_d1+1 
	MOVLW       ?lstr73_FirmV_0_7_0+0
	MOVWF       FARG_memcpy_s1+0 
	MOVLW       hi_addr(?lstr73_FirmV_0_7_0+0)
	MOVWF       FARG_memcpy_s1+1 
	MOVLW       16
	MOVWF       FARG_memcpy_n+0 
	MOVLW       0
	MOVWF       FARG_memcpy_n+1 
	CALL        _memcpy+0, 0
L_Menu0459:
L_Menu0457:
;FirmV_0_7_0.c,2138 :: 		if(MenuPointer==1)
	MOVF        _MenuPointer+0, 0 
	XORLW       1
	BTFSS       STATUS+0, 2 
	GOTO        L_Menu0460
;FirmV_0_7_0.c,2139 :: 		{memcpy(LCDLine1,"01 D1 Open Time ",16);LCDUpdateFlag=1;
	MOVLW       _LCDLine1+0
	MOVWF       FARG_memcpy_d1+0 
	MOVLW       hi_addr(_LCDLine1+0)
	MOVWF       FARG_memcpy_d1+1 
	MOVLW       ?lstr74_FirmV_0_7_0+0
	MOVWF       FARG_memcpy_s1+0 
	MOVLW       hi_addr(?lstr74_FirmV_0_7_0+0)
	MOVWF       FARG_memcpy_s1+1 
	MOVLW       16
	MOVWF       FARG_memcpy_n+0 
	MOVLW       0
	MOVWF       FARG_memcpy_n+1 
	CALL        _memcpy+0, 0
	MOVLW       1
	MOVWF       _LCDUpdateFlag+0 
;FirmV_0_7_0.c,2140 :: 		charValueToStr(Door1OpenTime,LCDLine2+6);}
	MOVF        _Door1OpenTime+0, 0 
	MOVWF       FARG_charValueToStr+0 
	MOVLW       _LCDLine2+6
	MOVWF       FARG_charValueToStr+0 
	MOVLW       hi_addr(_LCDLine2+6)
	MOVWF       FARG_charValueToStr+1 
	CALL        _charValueToStr+0, 0
L_Menu0460:
;FirmV_0_7_0.c,2142 :: 		if(MenuPointer==2)
	MOVF        _MenuPointer+0, 0 
	XORLW       2
	BTFSS       STATUS+0, 2 
	GOTO        L_Menu0461
;FirmV_0_7_0.c,2143 :: 		{memcpy(LCDLine1,"02 D2 Open Time ",16);LCDUpdateFlag=1;
	MOVLW       _LCDLine1+0
	MOVWF       FARG_memcpy_d1+0 
	MOVLW       hi_addr(_LCDLine1+0)
	MOVWF       FARG_memcpy_d1+1 
	MOVLW       ?lstr75_FirmV_0_7_0+0
	MOVWF       FARG_memcpy_s1+0 
	MOVLW       hi_addr(?lstr75_FirmV_0_7_0+0)
	MOVWF       FARG_memcpy_s1+1 
	MOVLW       16
	MOVWF       FARG_memcpy_n+0 
	MOVLW       0
	MOVWF       FARG_memcpy_n+1 
	CALL        _memcpy+0, 0
	MOVLW       1
	MOVWF       _LCDUpdateFlag+0 
;FirmV_0_7_0.c,2144 :: 		charValueToStr(Door2OpenTime,LCDLine2+6);}
	MOVF        _Door2OpenTime+0, 0 
	MOVWF       FARG_charValueToStr+0 
	MOVLW       _LCDLine2+6
	MOVWF       FARG_charValueToStr+0 
	MOVLW       hi_addr(_LCDLine2+6)
	MOVWF       FARG_charValueToStr+1 
	CALL        _charValueToStr+0, 0
L_Menu0461:
;FirmV_0_7_0.c,2146 :: 		if(MenuPointer==3)
	MOVF        _MenuPointer+0, 0 
	XORLW       3
	BTFSS       STATUS+0, 2 
	GOTO        L_Menu0462
;FirmV_0_7_0.c,2147 :: 		{memcpy(LCDLine1,"03 D1 Close Time",16);LCDUpdateFlag=1;
	MOVLW       _LCDLine1+0
	MOVWF       FARG_memcpy_d1+0 
	MOVLW       hi_addr(_LCDLine1+0)
	MOVWF       FARG_memcpy_d1+1 
	MOVLW       ?lstr76_FirmV_0_7_0+0
	MOVWF       FARG_memcpy_s1+0 
	MOVLW       hi_addr(?lstr76_FirmV_0_7_0+0)
	MOVWF       FARG_memcpy_s1+1 
	MOVLW       16
	MOVWF       FARG_memcpy_n+0 
	MOVLW       0
	MOVWF       FARG_memcpy_n+1 
	CALL        _memcpy+0, 0
	MOVLW       1
	MOVWF       _LCDUpdateFlag+0 
;FirmV_0_7_0.c,2148 :: 		charValueToStr(Door1CloseTime,LCDLine2+6);}
	MOVF        _Door1CloseTime+0, 0 
	MOVWF       FARG_charValueToStr+0 
	MOVLW       _LCDLine2+6
	MOVWF       FARG_charValueToStr+0 
	MOVLW       hi_addr(_LCDLine2+6)
	MOVWF       FARG_charValueToStr+1 
	CALL        _charValueToStr+0, 0
L_Menu0462:
;FirmV_0_7_0.c,2150 :: 		if(MenuPointer==4)
	MOVF        _MenuPointer+0, 0 
	XORLW       4
	BTFSS       STATUS+0, 2 
	GOTO        L_Menu0463
;FirmV_0_7_0.c,2151 :: 		{memcpy(LCDLine1,"04 D2 Close Time",16);LCDUpdateFlag=1;
	MOVLW       _LCDLine1+0
	MOVWF       FARG_memcpy_d1+0 
	MOVLW       hi_addr(_LCDLine1+0)
	MOVWF       FARG_memcpy_d1+1 
	MOVLW       ?lstr77_FirmV_0_7_0+0
	MOVWF       FARG_memcpy_s1+0 
	MOVLW       hi_addr(?lstr77_FirmV_0_7_0+0)
	MOVWF       FARG_memcpy_s1+1 
	MOVLW       16
	MOVWF       FARG_memcpy_n+0 
	MOVLW       0
	MOVWF       FARG_memcpy_n+1 
	CALL        _memcpy+0, 0
	MOVLW       1
	MOVWF       _LCDUpdateFlag+0 
;FirmV_0_7_0.c,2152 :: 		charValueToStr(Door2CloseTime,LCDLine2+6);}
	MOVF        _Door2CloseTime+0, 0 
	MOVWF       FARG_charValueToStr+0 
	MOVLW       _LCDLine2+6
	MOVWF       FARG_charValueToStr+0 
	MOVLW       hi_addr(_LCDLine2+6)
	MOVWF       FARG_charValueToStr+1 
	CALL        _charValueToStr+0, 0
L_Menu0463:
;FirmV_0_7_0.c,2154 :: 		if(MenuPointer==5)
	MOVF        _MenuPointer+0, 0 
	XORLW       5
	BTFSS       STATUS+0, 2 
	GOTO        L_Menu0464
;FirmV_0_7_0.c,2155 :: 		{memcpy(LCDLine1,"05 Op Soft Start",16);LCDUpdateFlag=1;
	MOVLW       _LCDLine1+0
	MOVWF       FARG_memcpy_d1+0 
	MOVLW       hi_addr(_LCDLine1+0)
	MOVWF       FARG_memcpy_d1+1 
	MOVLW       ?lstr78_FirmV_0_7_0+0
	MOVWF       FARG_memcpy_s1+0 
	MOVLW       hi_addr(?lstr78_FirmV_0_7_0+0)
	MOVWF       FARG_memcpy_s1+1 
	MOVLW       16
	MOVWF       FARG_memcpy_n+0 
	MOVLW       0
	MOVWF       FARG_memcpy_n+1 
	CALL        _memcpy+0, 0
	MOVLW       1
	MOVWF       _LCDUpdateFlag+0 
;FirmV_0_7_0.c,2156 :: 		charValueToStr(OpenSoftStartTime,LCDLine2+6);}
	MOVF        _OpenSoftStartTime+0, 0 
	MOVWF       FARG_charValueToStr+0 
	MOVLW       _LCDLine2+6
	MOVWF       FARG_charValueToStr+0 
	MOVLW       hi_addr(_LCDLine2+6)
	MOVWF       FARG_charValueToStr+1 
	CALL        _charValueToStr+0, 0
L_Menu0464:
;FirmV_0_7_0.c,2158 :: 		if(MenuPointer==6)
	MOVF        _MenuPointer+0, 0 
	XORLW       6
	BTFSS       STATUS+0, 2 
	GOTO        L_Menu0465
;FirmV_0_7_0.c,2159 :: 		{memcpy(LCDLine1,"06 Op Soft Stop ",16);LCDUpdateFlag=1;
	MOVLW       _LCDLine1+0
	MOVWF       FARG_memcpy_d1+0 
	MOVLW       hi_addr(_LCDLine1+0)
	MOVWF       FARG_memcpy_d1+1 
	MOVLW       ?lstr79_FirmV_0_7_0+0
	MOVWF       FARG_memcpy_s1+0 
	MOVLW       hi_addr(?lstr79_FirmV_0_7_0+0)
	MOVWF       FARG_memcpy_s1+1 
	MOVLW       16
	MOVWF       FARG_memcpy_n+0 
	MOVLW       0
	MOVWF       FARG_memcpy_n+1 
	CALL        _memcpy+0, 0
	MOVLW       1
	MOVWF       _LCDUpdateFlag+0 
;FirmV_0_7_0.c,2160 :: 		charValueToStr(OpenSoftStopTime,LCDLine2+6);}
	MOVF        _OpenSoftStopTime+0, 0 
	MOVWF       FARG_charValueToStr+0 
	MOVLW       _LCDLine2+6
	MOVWF       FARG_charValueToStr+0 
	MOVLW       hi_addr(_LCDLine2+6)
	MOVWF       FARG_charValueToStr+1 
	CALL        _charValueToStr+0, 0
L_Menu0465:
;FirmV_0_7_0.c,2162 :: 		if(MenuPointer==7)
	MOVF        _MenuPointer+0, 0 
	XORLW       7
	BTFSS       STATUS+0, 2 
	GOTO        L_Menu0466
;FirmV_0_7_0.c,2163 :: 		{memcpy(LCDLine1,"07 Cl Soft Start",16);LCDUpdateFlag=1;
	MOVLW       _LCDLine1+0
	MOVWF       FARG_memcpy_d1+0 
	MOVLW       hi_addr(_LCDLine1+0)
	MOVWF       FARG_memcpy_d1+1 
	MOVLW       ?lstr80_FirmV_0_7_0+0
	MOVWF       FARG_memcpy_s1+0 
	MOVLW       hi_addr(?lstr80_FirmV_0_7_0+0)
	MOVWF       FARG_memcpy_s1+1 
	MOVLW       16
	MOVWF       FARG_memcpy_n+0 
	MOVLW       0
	MOVWF       FARG_memcpy_n+1 
	CALL        _memcpy+0, 0
	MOVLW       1
	MOVWF       _LCDUpdateFlag+0 
;FirmV_0_7_0.c,2164 :: 		charValueToStr(CloseSoftStartTime,LCDLine2+6);}
	MOVF        _CloseSoftStartTime+0, 0 
	MOVWF       FARG_charValueToStr+0 
	MOVLW       _LCDLine2+6
	MOVWF       FARG_charValueToStr+0 
	MOVLW       hi_addr(_LCDLine2+6)
	MOVWF       FARG_charValueToStr+1 
	CALL        _charValueToStr+0, 0
L_Menu0466:
;FirmV_0_7_0.c,2166 :: 		if(MenuPointer==8)
	MOVF        _MenuPointer+0, 0 
	XORLW       8
	BTFSS       STATUS+0, 2 
	GOTO        L_Menu0467
;FirmV_0_7_0.c,2167 :: 		{memcpy(LCDLine1,"08 Cl Soft Stop ",16);LCDUpdateFlag=1;
	MOVLW       _LCDLine1+0
	MOVWF       FARG_memcpy_d1+0 
	MOVLW       hi_addr(_LCDLine1+0)
	MOVWF       FARG_memcpy_d1+1 
	MOVLW       ?lstr81_FirmV_0_7_0+0
	MOVWF       FARG_memcpy_s1+0 
	MOVLW       hi_addr(?lstr81_FirmV_0_7_0+0)
	MOVWF       FARG_memcpy_s1+1 
	MOVLW       16
	MOVWF       FARG_memcpy_n+0 
	MOVLW       0
	MOVWF       FARG_memcpy_n+1 
	CALL        _memcpy+0, 0
	MOVLW       1
	MOVWF       _LCDUpdateFlag+0 
;FirmV_0_7_0.c,2168 :: 		charValueToStr(CloseSoftStopTime,LCDLine2+6);}
	MOVF        _CloseSoftStopTime+0, 0 
	MOVWF       FARG_charValueToStr+0 
	MOVLW       _LCDLine2+6
	MOVWF       FARG_charValueToStr+0 
	MOVLW       hi_addr(_LCDLine2+6)
	MOVWF       FARG_charValueToStr+1 
	CALL        _charValueToStr+0, 0
L_Menu0467:
;FirmV_0_7_0.c,2170 :: 		if(MenuPointer==9)
	MOVF        _MenuPointer+0, 0 
	XORLW       9
	BTFSS       STATUS+0, 2 
	GOTO        L_Menu0468
;FirmV_0_7_0.c,2171 :: 		{memcpy(LCDLine1,"09 M1 Soft Power",16);LCDUpdateFlag=1;
	MOVLW       _LCDLine1+0
	MOVWF       FARG_memcpy_d1+0 
	MOVLW       hi_addr(_LCDLine1+0)
	MOVWF       FARG_memcpy_d1+1 
	MOVLW       ?lstr82_FirmV_0_7_0+0
	MOVWF       FARG_memcpy_s1+0 
	MOVLW       hi_addr(?lstr82_FirmV_0_7_0+0)
	MOVWF       FARG_memcpy_s1+1 
	MOVLW       16
	MOVWF       FARG_memcpy_n+0 
	MOVLW       0
	MOVWF       FARG_memcpy_n+1 
	CALL        _memcpy+0, 0
	MOVLW       1
	MOVWF       _LCDUpdateFlag+0 
;FirmV_0_7_0.c,2172 :: 		bytetostr(M1SoftPower,LCDLine2+6);}
	MOVF        _M1SoftPower+0, 0 
	MOVWF       FARG_ByteToStr_input+0 
	MOVLW       _LCDLine2+6
	MOVWF       FARG_ByteToStr_output+0 
	MOVLW       hi_addr(_LCDLine2+6)
	MOVWF       FARG_ByteToStr_output+1 
	CALL        _ByteToStr+0, 0
L_Menu0468:
;FirmV_0_7_0.c,2174 :: 		if(MenuPointer==10)
	MOVF        _MenuPointer+0, 0 
	XORLW       10
	BTFSS       STATUS+0, 2 
	GOTO        L_Menu0469
;FirmV_0_7_0.c,2175 :: 		{memcpy(LCDLine1,"10 M2 Soft Power",16);LCDUpdateFlag=1;
	MOVLW       _LCDLine1+0
	MOVWF       FARG_memcpy_d1+0 
	MOVLW       hi_addr(_LCDLine1+0)
	MOVWF       FARG_memcpy_d1+1 
	MOVLW       ?lstr83_FirmV_0_7_0+0
	MOVWF       FARG_memcpy_s1+0 
	MOVLW       hi_addr(?lstr83_FirmV_0_7_0+0)
	MOVWF       FARG_memcpy_s1+1 
	MOVLW       16
	MOVWF       FARG_memcpy_n+0 
	MOVLW       0
	MOVWF       FARG_memcpy_n+1 
	CALL        _memcpy+0, 0
	MOVLW       1
	MOVWF       _LCDUpdateFlag+0 
;FirmV_0_7_0.c,2176 :: 		bytetostr(M2SoftPower,LCDLine2+6);}
	MOVF        _M2SoftPower+0, 0 
	MOVWF       FARG_ByteToStr_input+0 
	MOVLW       _LCDLine2+6
	MOVWF       FARG_ByteToStr_output+0 
	MOVLW       hi_addr(_LCDLine2+6)
	MOVWF       FARG_ByteToStr_output+1 
	CALL        _ByteToStr+0, 0
L_Menu0469:
;FirmV_0_7_0.c,2178 :: 		if(MenuPointer==11)
	MOVF        _MenuPointer+0, 0 
	XORLW       11
	BTFSS       STATUS+0, 2 
	GOTO        L_Menu0470
;FirmV_0_7_0.c,2179 :: 		{memcpy(LCDLine1,"11 M1 Overl Sens",16);LCDUpdateFlag=1;
	MOVLW       _LCDLine1+0
	MOVWF       FARG_memcpy_d1+0 
	MOVLW       hi_addr(_LCDLine1+0)
	MOVWF       FARG_memcpy_d1+1 
	MOVLW       ?lstr84_FirmV_0_7_0+0
	MOVWF       FARG_memcpy_s1+0 
	MOVLW       hi_addr(?lstr84_FirmV_0_7_0+0)
	MOVWF       FARG_memcpy_s1+1 
	MOVLW       16
	MOVWF       FARG_memcpy_n+0 
	MOVLW       0
	MOVWF       FARG_memcpy_n+1 
	CALL        _memcpy+0, 0
	MOVLW       1
	MOVWF       _LCDUpdateFlag+0 
;FirmV_0_7_0.c,2180 :: 		bytetostr(OverloadSens1,LCDLine2+3);if(OverloadSens1>7)memcpy(LCDLine2+7,"250Kg-",6);else memcpy(LCDLine2+7,"250Kg+",6);}
	MOVF        _OverloadSens1+0, 0 
	MOVWF       FARG_ByteToStr_input+0 
	MOVLW       _LCDLine2+3
	MOVWF       FARG_ByteToStr_output+0 
	MOVLW       hi_addr(_LCDLine2+3)
	MOVWF       FARG_ByteToStr_output+1 
	CALL        _ByteToStr+0, 0
	MOVF        _OverloadSens1+0, 0 
	SUBLW       7
	BTFSC       STATUS+0, 0 
	GOTO        L_Menu0471
	MOVLW       _LCDLine2+7
	MOVWF       FARG_memcpy_d1+0 
	MOVLW       hi_addr(_LCDLine2+7)
	MOVWF       FARG_memcpy_d1+1 
	MOVLW       ?lstr85_FirmV_0_7_0+0
	MOVWF       FARG_memcpy_s1+0 
	MOVLW       hi_addr(?lstr85_FirmV_0_7_0+0)
	MOVWF       FARG_memcpy_s1+1 
	MOVLW       6
	MOVWF       FARG_memcpy_n+0 
	MOVLW       0
	MOVWF       FARG_memcpy_n+1 
	CALL        _memcpy+0, 0
	GOTO        L_Menu0472
L_Menu0471:
	MOVLW       _LCDLine2+7
	MOVWF       FARG_memcpy_d1+0 
	MOVLW       hi_addr(_LCDLine2+7)
	MOVWF       FARG_memcpy_d1+1 
	MOVLW       ?lstr86_FirmV_0_7_0+0
	MOVWF       FARG_memcpy_s1+0 
	MOVLW       hi_addr(?lstr86_FirmV_0_7_0+0)
	MOVWF       FARG_memcpy_s1+1 
	MOVLW       6
	MOVWF       FARG_memcpy_n+0 
	MOVLW       0
	MOVWF       FARG_memcpy_n+1 
	CALL        _memcpy+0, 0
L_Menu0472:
L_Menu0470:
;FirmV_0_7_0.c,2182 :: 		if(MenuPointer==12)
	MOVF        _MenuPointer+0, 0 
	XORLW       12
	BTFSS       STATUS+0, 2 
	GOTO        L_Menu0473
;FirmV_0_7_0.c,2183 :: 		{memcpy(LCDLine1,"12 M2 Overl Sens",16);LCDUpdateFlag=1;
	MOVLW       _LCDLine1+0
	MOVWF       FARG_memcpy_d1+0 
	MOVLW       hi_addr(_LCDLine1+0)
	MOVWF       FARG_memcpy_d1+1 
	MOVLW       ?lstr87_FirmV_0_7_0+0
	MOVWF       FARG_memcpy_s1+0 
	MOVLW       hi_addr(?lstr87_FirmV_0_7_0+0)
	MOVWF       FARG_memcpy_s1+1 
	MOVLW       16
	MOVWF       FARG_memcpy_n+0 
	MOVLW       0
	MOVWF       FARG_memcpy_n+1 
	CALL        _memcpy+0, 0
	MOVLW       1
	MOVWF       _LCDUpdateFlag+0 
;FirmV_0_7_0.c,2184 :: 		bytetostr(OverloadSens2,LCDLine2+3);if(OverloadSens2>7)memcpy(LCDLine2+7,"250Kg-",6);else memcpy(LCDLine2+7,"250Kg+",6);}
	MOVF        _OverloadSens2+0, 0 
	MOVWF       FARG_ByteToStr_input+0 
	MOVLW       _LCDLine2+3
	MOVWF       FARG_ByteToStr_output+0 
	MOVLW       hi_addr(_LCDLine2+3)
	MOVWF       FARG_ByteToStr_output+1 
	CALL        _ByteToStr+0, 0
	MOVF        _OverloadSens2+0, 0 
	SUBLW       7
	BTFSC       STATUS+0, 0 
	GOTO        L_Menu0474
	MOVLW       _LCDLine2+7
	MOVWF       FARG_memcpy_d1+0 
	MOVLW       hi_addr(_LCDLine2+7)
	MOVWF       FARG_memcpy_d1+1 
	MOVLW       ?lstr88_FirmV_0_7_0+0
	MOVWF       FARG_memcpy_s1+0 
	MOVLW       hi_addr(?lstr88_FirmV_0_7_0+0)
	MOVWF       FARG_memcpy_s1+1 
	MOVLW       6
	MOVWF       FARG_memcpy_n+0 
	MOVLW       0
	MOVWF       FARG_memcpy_n+1 
	CALL        _memcpy+0, 0
	GOTO        L_Menu0475
L_Menu0474:
	MOVLW       _LCDLine2+7
	MOVWF       FARG_memcpy_d1+0 
	MOVLW       hi_addr(_LCDLine2+7)
	MOVWF       FARG_memcpy_d1+1 
	MOVLW       ?lstr89_FirmV_0_7_0+0
	MOVWF       FARG_memcpy_s1+0 
	MOVLW       hi_addr(?lstr89_FirmV_0_7_0+0)
	MOVWF       FARG_memcpy_s1+1 
	MOVLW       6
	MOVWF       FARG_memcpy_n+0 
	MOVLW       0
	MOVWF       FARG_memcpy_n+1 
	CALL        _memcpy+0, 0
L_Menu0475:
L_Menu0473:
;FirmV_0_7_0.c,2186 :: 		if(MenuPointer==13)
	MOVF        _MenuPointer+0, 0 
	XORLW       13
	BTFSS       STATUS+0, 2 
	GOTO        L_Menu0476
;FirmV_0_7_0.c,2187 :: 		{memcpy(LCDLine1,"13 M1 Overl Time",16);LCDUpdateFlag=1;
	MOVLW       _LCDLine1+0
	MOVWF       FARG_memcpy_d1+0 
	MOVLW       hi_addr(_LCDLine1+0)
	MOVWF       FARG_memcpy_d1+1 
	MOVLW       ?lstr90_FirmV_0_7_0+0
	MOVWF       FARG_memcpy_s1+0 
	MOVLW       hi_addr(?lstr90_FirmV_0_7_0+0)
	MOVWF       FARG_memcpy_s1+1 
	MOVLW       16
	MOVWF       FARG_memcpy_n+0 
	MOVLW       0
	MOVWF       FARG_memcpy_n+1 
	CALL        _memcpy+0, 0
	MOVLW       1
	MOVWF       _LCDUpdateFlag+0 
;FirmV_0_7_0.c,2188 :: 		charValueToStr(OverloadTime1,LCDLine2+6);}
	MOVF        _OverloadTime1+0, 0 
	MOVWF       FARG_charValueToStr+0 
	MOVLW       _LCDLine2+6
	MOVWF       FARG_charValueToStr+0 
	MOVLW       hi_addr(_LCDLine2+6)
	MOVWF       FARG_charValueToStr+1 
	CALL        _charValueToStr+0, 0
L_Menu0476:
;FirmV_0_7_0.c,2190 :: 		if(MenuPointer==14)
	MOVF        _MenuPointer+0, 0 
	XORLW       14
	BTFSS       STATUS+0, 2 
	GOTO        L_Menu0477
;FirmV_0_7_0.c,2191 :: 		{memcpy(LCDLine1,"14 M2 Overl Time",16);LCDUpdateFlag=1;
	MOVLW       _LCDLine1+0
	MOVWF       FARG_memcpy_d1+0 
	MOVLW       hi_addr(_LCDLine1+0)
	MOVWF       FARG_memcpy_d1+1 
	MOVLW       ?lstr91_FirmV_0_7_0+0
	MOVWF       FARG_memcpy_s1+0 
	MOVLW       hi_addr(?lstr91_FirmV_0_7_0+0)
	MOVWF       FARG_memcpy_s1+1 
	MOVLW       16
	MOVWF       FARG_memcpy_n+0 
	MOVLW       0
	MOVWF       FARG_memcpy_n+1 
	CALL        _memcpy+0, 0
	MOVLW       1
	MOVWF       _LCDUpdateFlag+0 
;FirmV_0_7_0.c,2192 :: 		charValueToStr(OverloadTime2,LCDLine2+6);}
	MOVF        _OverloadTime2+0, 0 
	MOVWF       FARG_charValueToStr+0 
	MOVLW       _LCDLine2+6
	MOVWF       FARG_charValueToStr+0 
	MOVLW       hi_addr(_LCDLine2+6)
	MOVWF       FARG_charValueToStr+1 
	CALL        _charValueToStr+0, 0
L_Menu0477:
;FirmV_0_7_0.c,2194 :: 		if(MenuPointer==15)
	MOVF        _MenuPointer+0, 0 
	XORLW       15
	BTFSS       STATUS+0, 2 
	GOTO        L_Menu0478
;FirmV_0_7_0.c,2195 :: 		{memcpy(LCDLine1,"15 Interval Time",16);LCDUpdateFlag=1;
	MOVLW       _LCDLine1+0
	MOVWF       FARG_memcpy_d1+0 
	MOVLW       hi_addr(_LCDLine1+0)
	MOVWF       FARG_memcpy_d1+1 
	MOVLW       ?lstr92_FirmV_0_7_0+0
	MOVWF       FARG_memcpy_s1+0 
	MOVLW       hi_addr(?lstr92_FirmV_0_7_0+0)
	MOVWF       FARG_memcpy_s1+1 
	MOVLW       16
	MOVWF       FARG_memcpy_n+0 
	MOVLW       0
	MOVWF       FARG_memcpy_n+1 
	CALL        _memcpy+0, 0
	MOVLW       1
	MOVWF       _LCDUpdateFlag+0 
;FirmV_0_7_0.c,2196 :: 		charValueToStr(ActionTimeDiff,LCDLine2+6);}
	MOVF        _ActionTimeDiff+0, 0 
	MOVWF       FARG_charValueToStr+0 
	MOVLW       _LCDLine2+6
	MOVWF       FARG_charValueToStr+0 
	MOVLW       hi_addr(_LCDLine2+6)
	MOVWF       FARG_charValueToStr+1 
	CALL        _charValueToStr+0, 0
L_Menu0478:
;FirmV_0_7_0.c,2198 :: 		if(MenuPointer==16)
	MOVF        _MenuPointer+0, 0 
	XORLW       16
	BTFSS       STATUS+0, 2 
	GOTO        L_Menu0479
;FirmV_0_7_0.c,2199 :: 		{memcpy(LCDLine1,"16 Auto-close T ",16);LCDUpdateFlag=1;
	MOVLW       _LCDLine1+0
	MOVWF       FARG_memcpy_d1+0 
	MOVLW       hi_addr(_LCDLine1+0)
	MOVWF       FARG_memcpy_d1+1 
	MOVLW       ?lstr93_FirmV_0_7_0+0
	MOVWF       FARG_memcpy_s1+0 
	MOVLW       hi_addr(?lstr93_FirmV_0_7_0+0)
	MOVWF       FARG_memcpy_s1+1 
	MOVLW       16
	MOVWF       FARG_memcpy_n+0 
	MOVLW       0
	MOVWF       FARG_memcpy_n+1 
	CALL        _memcpy+0, 0
	MOVLW       1
	MOVWF       _LCDUpdateFlag+0 
;FirmV_0_7_0.c,2200 :: 		intValueToStr(AutoCloseTime,LCDLine2+4);}
	MOVF        _AutoCloseTime+0, 0 
	MOVWF       FARG_intValueToStr+0 
	MOVF        _AutoCloseTime+1, 0 
	MOVWF       FARG_intValueToStr+1 
	MOVLW       _LCDLine2+4
	MOVWF       FARG_intValueToStr+0 
	MOVLW       hi_addr(_LCDLine2+4)
	MOVWF       FARG_intValueToStr+1 
	CALL        _intValueToStr+0, 0
L_Menu0479:
;FirmV_0_7_0.c,2202 :: 		if(MenuPointer==17)
	MOVF        _MenuPointer+0, 0 
	XORLW       17
	BTFSS       STATUS+0, 2 
	GOTO        L_Menu0480
;FirmV_0_7_0.c,2203 :: 		{memcpy(LCDLine1,"17 Factory Reset",16);LCDUpdateFlag=1;}
	MOVLW       _LCDLine1+0
	MOVWF       FARG_memcpy_d1+0 
	MOVLW       hi_addr(_LCDLine1+0)
	MOVWF       FARG_memcpy_d1+1 
	MOVLW       ?lstr94_FirmV_0_7_0+0
	MOVWF       FARG_memcpy_s1+0 
	MOVLW       hi_addr(?lstr94_FirmV_0_7_0+0)
	MOVWF       FARG_memcpy_s1+1 
	MOVLW       16
	MOVWF       FARG_memcpy_n+0 
	MOVLW       0
	MOVWF       FARG_memcpy_n+1 
	CALL        _memcpy+0, 0
	MOVLW       1
	MOVWF       _LCDUpdateFlag+0 
L_Menu0480:
;FirmV_0_7_0.c,2205 :: 		if(MenuPointer==18)
	MOVF        _MenuPointer+0, 0 
	XORLW       18
	BTFSS       STATUS+0, 2 
	GOTO        L_Menu0481
;FirmV_0_7_0.c,2206 :: 		{memcpy(LCDLine1,"18 Open Photo En",16);LCDUpdateFlag=1;
	MOVLW       _LCDLine1+0
	MOVWF       FARG_memcpy_d1+0 
	MOVLW       hi_addr(_LCDLine1+0)
	MOVWF       FARG_memcpy_d1+1 
	MOVLW       ?lstr95_FirmV_0_7_0+0
	MOVWF       FARG_memcpy_s1+0 
	MOVLW       hi_addr(?lstr95_FirmV_0_7_0+0)
	MOVWF       FARG_memcpy_s1+1 
	MOVLW       16
	MOVWF       FARG_memcpy_n+0 
	MOVLW       0
	MOVWF       FARG_memcpy_n+1 
	CALL        _memcpy+0, 0
	MOVLW       1
	MOVWF       _LCDUpdateFlag+0 
;FirmV_0_7_0.c,2207 :: 		if(OpenPhEnable==0) memcpy(LCDLine2+6,"No     ",7);else memcpy(LCDLine2+6,"Yes     ",8);}
	MOVF        _OpenPhEnable+0, 0 
	XORLW       0
	BTFSS       STATUS+0, 2 
	GOTO        L_Menu0482
	MOVLW       _LCDLine2+6
	MOVWF       FARG_memcpy_d1+0 
	MOVLW       hi_addr(_LCDLine2+6)
	MOVWF       FARG_memcpy_d1+1 
	MOVLW       ?lstr96_FirmV_0_7_0+0
	MOVWF       FARG_memcpy_s1+0 
	MOVLW       hi_addr(?lstr96_FirmV_0_7_0+0)
	MOVWF       FARG_memcpy_s1+1 
	MOVLW       7
	MOVWF       FARG_memcpy_n+0 
	MOVLW       0
	MOVWF       FARG_memcpy_n+1 
	CALL        _memcpy+0, 0
	GOTO        L_Menu0483
L_Menu0482:
	MOVLW       _LCDLine2+6
	MOVWF       FARG_memcpy_d1+0 
	MOVLW       hi_addr(_LCDLine2+6)
	MOVWF       FARG_memcpy_d1+1 
	MOVLW       ?lstr97_FirmV_0_7_0+0
	MOVWF       FARG_memcpy_s1+0 
	MOVLW       hi_addr(?lstr97_FirmV_0_7_0+0)
	MOVWF       FARG_memcpy_s1+1 
	MOVLW       8
	MOVWF       FARG_memcpy_n+0 
	MOVLW       0
	MOVWF       FARG_memcpy_n+1 
	CALL        _memcpy+0, 0
L_Menu0483:
L_Menu0481:
;FirmV_0_7_0.c,2209 :: 		if(MenuPointer==19)
	MOVF        _MenuPointer+0, 0 
	XORLW       19
	BTFSS       STATUS+0, 2 
	GOTO        L_Menu0484
;FirmV_0_7_0.c,2210 :: 		{memcpy(LCDLine1,"19 Limit Enable ",16);LCDUpdateFlag=1;
	MOVLW       _LCDLine1+0
	MOVWF       FARG_memcpy_d1+0 
	MOVLW       hi_addr(_LCDLine1+0)
	MOVWF       FARG_memcpy_d1+1 
	MOVLW       ?lstr98_FirmV_0_7_0+0
	MOVWF       FARG_memcpy_s1+0 
	MOVLW       hi_addr(?lstr98_FirmV_0_7_0+0)
	MOVWF       FARG_memcpy_s1+1 
	MOVLW       16
	MOVWF       FARG_memcpy_n+0 
	MOVLW       0
	MOVWF       FARG_memcpy_n+1 
	CALL        _memcpy+0, 0
	MOVLW       1
	MOVWF       _LCDUpdateFlag+0 
;FirmV_0_7_0.c,2211 :: 		if(LimiterEnable==0) memcpy(LCDLine2+6,"No     ",7);else memcpy(LCDLine2+6,"Yes     ",8);}
	MOVF        _LimiterEnable+0, 0 
	XORLW       0
	BTFSS       STATUS+0, 2 
	GOTO        L_Menu0485
	MOVLW       _LCDLine2+6
	MOVWF       FARG_memcpy_d1+0 
	MOVLW       hi_addr(_LCDLine2+6)
	MOVWF       FARG_memcpy_d1+1 
	MOVLW       ?lstr99_FirmV_0_7_0+0
	MOVWF       FARG_memcpy_s1+0 
	MOVLW       hi_addr(?lstr99_FirmV_0_7_0+0)
	MOVWF       FARG_memcpy_s1+1 
	MOVLW       7
	MOVWF       FARG_memcpy_n+0 
	MOVLW       0
	MOVWF       FARG_memcpy_n+1 
	CALL        _memcpy+0, 0
	GOTO        L_Menu0486
L_Menu0485:
	MOVLW       _LCDLine2+6
	MOVWF       FARG_memcpy_d1+0 
	MOVLW       hi_addr(_LCDLine2+6)
	MOVWF       FARG_memcpy_d1+1 
	MOVLW       ?lstr100_FirmV_0_7_0+0
	MOVWF       FARG_memcpy_s1+0 
	MOVLW       hi_addr(?lstr100_FirmV_0_7_0+0)
	MOVWF       FARG_memcpy_s1+1 
	MOVLW       8
	MOVWF       FARG_memcpy_n+0 
	MOVLW       0
	MOVWF       FARG_memcpy_n+1 
	CALL        _memcpy+0, 0
L_Menu0486:
L_Menu0484:
;FirmV_0_7_0.c,2213 :: 		if(MenuPointer==20)
	MOVF        _MenuPointer+0, 0 
	XORLW       20
	BTFSS       STATUS+0, 2 
	GOTO        L_Menu0487
;FirmV_0_7_0.c,2214 :: 		{memcpy(LCDLine1,"20 Lock Enable  ",16);LCDUpdateFlag=1;
	MOVLW       _LCDLine1+0
	MOVWF       FARG_memcpy_d1+0 
	MOVLW       hi_addr(_LCDLine1+0)
	MOVWF       FARG_memcpy_d1+1 
	MOVLW       ?lstr101_FirmV_0_7_0+0
	MOVWF       FARG_memcpy_s1+0 
	MOVLW       hi_addr(?lstr101_FirmV_0_7_0+0)
	MOVWF       FARG_memcpy_s1+1 
	MOVLW       16
	MOVWF       FARG_memcpy_n+0 
	MOVLW       0
	MOVWF       FARG_memcpy_n+1 
	CALL        _memcpy+0, 0
	MOVLW       1
	MOVWF       _LCDUpdateFlag+0 
;FirmV_0_7_0.c,2215 :: 		if(LockEnable==0) memcpy(LCDLine2+6,"No     ",7);else memcpy(LCDLine2+6,"Yes     ",8);}
	MOVF        _LockEnable+0, 0 
	XORLW       0
	BTFSS       STATUS+0, 2 
	GOTO        L_Menu0488
	MOVLW       _LCDLine2+6
	MOVWF       FARG_memcpy_d1+0 
	MOVLW       hi_addr(_LCDLine2+6)
	MOVWF       FARG_memcpy_d1+1 
	MOVLW       ?lstr102_FirmV_0_7_0+0
	MOVWF       FARG_memcpy_s1+0 
	MOVLW       hi_addr(?lstr102_FirmV_0_7_0+0)
	MOVWF       FARG_memcpy_s1+1 
	MOVLW       7
	MOVWF       FARG_memcpy_n+0 
	MOVLW       0
	MOVWF       FARG_memcpy_n+1 
	CALL        _memcpy+0, 0
	GOTO        L_Menu0489
L_Menu0488:
	MOVLW       _LCDLine2+6
	MOVWF       FARG_memcpy_d1+0 
	MOVLW       hi_addr(_LCDLine2+6)
	MOVWF       FARG_memcpy_d1+1 
	MOVLW       ?lstr103_FirmV_0_7_0+0
	MOVWF       FARG_memcpy_s1+0 
	MOVLW       hi_addr(?lstr103_FirmV_0_7_0+0)
	MOVWF       FARG_memcpy_s1+1 
	MOVLW       8
	MOVWF       FARG_memcpy_n+0 
	MOVLW       0
	MOVWF       FARG_memcpy_n+1 
	CALL        _memcpy+0, 0
L_Menu0489:
L_Menu0487:
;FirmV_0_7_0.c,2217 :: 		if(MenuPointer==21)
	MOVF        _MenuPointer+0, 0 
	XORLW       21
	BTFSS       STATUS+0, 2 
	GOTO        L_Menu0490
;FirmV_0_7_0.c,2218 :: 		{memcpy(LCDLine1,"21 Lock Force   ",16);LCDUpdateFlag=1;
	MOVLW       _LCDLine1+0
	MOVWF       FARG_memcpy_d1+0 
	MOVLW       hi_addr(_LCDLine1+0)
	MOVWF       FARG_memcpy_d1+1 
	MOVLW       ?lstr104_FirmV_0_7_0+0
	MOVWF       FARG_memcpy_s1+0 
	MOVLW       hi_addr(?lstr104_FirmV_0_7_0+0)
	MOVWF       FARG_memcpy_s1+1 
	MOVLW       16
	MOVWF       FARG_memcpy_n+0 
	MOVLW       0
	MOVWF       FARG_memcpy_n+1 
	CALL        _memcpy+0, 0
	MOVLW       1
	MOVWF       _LCDUpdateFlag+0 
;FirmV_0_7_0.c,2219 :: 		if(LockForce==0) memcpy(LCDLine2+6,"No     ",7);else memcpy(LCDLine2+6,"Yes     ",8);}
	MOVF        _LockForce+0, 0 
	XORLW       0
	BTFSS       STATUS+0, 2 
	GOTO        L_Menu0491
	MOVLW       _LCDLine2+6
	MOVWF       FARG_memcpy_d1+0 
	MOVLW       hi_addr(_LCDLine2+6)
	MOVWF       FARG_memcpy_d1+1 
	MOVLW       ?lstr105_FirmV_0_7_0+0
	MOVWF       FARG_memcpy_s1+0 
	MOVLW       hi_addr(?lstr105_FirmV_0_7_0+0)
	MOVWF       FARG_memcpy_s1+1 
	MOVLW       7
	MOVWF       FARG_memcpy_n+0 
	MOVLW       0
	MOVWF       FARG_memcpy_n+1 
	CALL        _memcpy+0, 0
	GOTO        L_Menu0492
L_Menu0491:
	MOVLW       _LCDLine2+6
	MOVWF       FARG_memcpy_d1+0 
	MOVLW       hi_addr(_LCDLine2+6)
	MOVWF       FARG_memcpy_d1+1 
	MOVLW       ?lstr106_FirmV_0_7_0+0
	MOVWF       FARG_memcpy_s1+0 
	MOVLW       hi_addr(?lstr106_FirmV_0_7_0+0)
	MOVWF       FARG_memcpy_s1+1 
	MOVLW       8
	MOVWF       FARG_memcpy_n+0 
	MOVLW       0
	MOVWF       FARG_memcpy_n+1 
	CALL        _memcpy+0, 0
L_Menu0492:
L_Menu0490:
;FirmV_0_7_0.c,2221 :: 		if(MenuPointer==22)
	MOVF        _MenuPointer+0, 0 
	XORLW       22
	BTFSS       STATUS+0, 2 
	GOTO        L_Menu0493
;FirmV_0_7_0.c,2222 :: 		{memcpy(LCDLine1,"22 Au-Cl Pass   ",16);LCDUpdateFlag=1;
	MOVLW       _LCDLine1+0
	MOVWF       FARG_memcpy_d1+0 
	MOVLW       hi_addr(_LCDLine1+0)
	MOVWF       FARG_memcpy_d1+1 
	MOVLW       ?lstr107_FirmV_0_7_0+0
	MOVWF       FARG_memcpy_s1+0 
	MOVLW       hi_addr(?lstr107_FirmV_0_7_0+0)
	MOVWF       FARG_memcpy_s1+1 
	MOVLW       16
	MOVWF       FARG_memcpy_n+0 
	MOVLW       0
	MOVWF       FARG_memcpy_n+1 
	CALL        _memcpy+0, 0
	MOVLW       1
	MOVWF       _LCDUpdateFlag+0 
;FirmV_0_7_0.c,2223 :: 		charValueToStr(CloseAfterPass,LCDLine2+6);}
	MOVF        _CloseAfterPass+0, 0 
	MOVWF       FARG_charValueToStr+0 
	MOVLW       _LCDLine2+6
	MOVWF       FARG_charValueToStr+0 
	MOVLW       hi_addr(_LCDLine2+6)
	MOVWF       FARG_charValueToStr+1 
	CALL        _charValueToStr+0, 0
L_Menu0493:
;FirmV_0_7_0.c,2225 :: 		if(MenuPointer==23)
	MOVF        _MenuPointer+0, 0 
	XORLW       23
	BTFSS       STATUS+0, 2 
	GOTO        L_Menu0494
;FirmV_0_7_0.c,2226 :: 		{memcpy(LCDLine1,"23 Save Changes ",16);LCDUpdateFlag=1;}
	MOVLW       _LCDLine1+0
	MOVWF       FARG_memcpy_d1+0 
	MOVLW       hi_addr(_LCDLine1+0)
	MOVWF       FARG_memcpy_d1+1 
	MOVLW       ?lstr108_FirmV_0_7_0+0
	MOVWF       FARG_memcpy_s1+0 
	MOVLW       hi_addr(?lstr108_FirmV_0_7_0+0)
	MOVWF       FARG_memcpy_s1+1 
	MOVLW       16
	MOVWF       FARG_memcpy_n+0 
	MOVLW       0
	MOVWF       FARG_memcpy_n+1 
	CALL        _memcpy+0, 0
	MOVLW       1
	MOVWF       _LCDUpdateFlag+0 
L_Menu0494:
;FirmV_0_7_0.c,2228 :: 		if(MenuPointer==24)
	MOVF        _MenuPointer+0, 0 
	XORLW       24
	BTFSS       STATUS+0, 2 
	GOTO        L_Menu0495
;FirmV_0_7_0.c,2229 :: 		{memcpy(LCDLine1,"24 Discard Exit ",16);LCDUpdateFlag=1;}
	MOVLW       _LCDLine1+0
	MOVWF       FARG_memcpy_d1+0 
	MOVLW       hi_addr(_LCDLine1+0)
	MOVWF       FARG_memcpy_d1+1 
	MOVLW       ?lstr109_FirmV_0_7_0+0
	MOVWF       FARG_memcpy_s1+0 
	MOVLW       hi_addr(?lstr109_FirmV_0_7_0+0)
	MOVWF       FARG_memcpy_s1+1 
	MOVLW       16
	MOVWF       FARG_memcpy_n+0 
	MOVLW       0
	MOVWF       FARG_memcpy_n+1 
	CALL        _memcpy+0, 0
	MOVLW       1
	MOVWF       _LCDUpdateFlag+0 
L_Menu0495:
;FirmV_0_7_0.c,2232 :: 		State=101;
	MOVLW       101
	MOVWF       _State+0 
;FirmV_0_7_0.c,2233 :: 		}
L_end_Menu0:
	RETURN      0
; end of _Menu0

_About:

;FirmV_0_7_0.c,2241 :: 		void About()
;FirmV_0_7_0.c,2243 :: 		if((Events.Keys.b1==1))
	BTFSS       _Events+0, 1 
	GOTO        L_About496
;FirmV_0_7_0.c,2244 :: 		AboutCounter=AboutCounter+1;
	INCF        _AboutCounter+0, 1 
L_About496:
;FirmV_0_7_0.c,2246 :: 		if(AboutCounter==1)
	MOVF        _AboutCounter+0, 0 
	XORLW       1
	BTFSS       STATUS+0, 2 
	GOTO        L_About497
;FirmV_0_7_0.c,2247 :: 		{memcpy(LCDLine1,Crypto[2],16);
	MOVLW       _LCDLine1+0
	MOVWF       FARG_memcpy_d1+0 
	MOVLW       hi_addr(_LCDLine1+0)
	MOVWF       FARG_memcpy_d1+1 
	MOVLW       _crypto+32
	MOVWF       FARG_memcpy_s1+0 
	MOVLW       hi_addr(_crypto+32)
	MOVWF       FARG_memcpy_s1+1 
	MOVLW       16
	MOVWF       FARG_memcpy_n+0 
	MOVLW       0
	MOVWF       FARG_memcpy_n+1 
	CALL        _memcpy+0, 0
;FirmV_0_7_0.c,2248 :: 		memcpy(LCDLine2,Crypto[3],16);
	MOVLW       _LCDLine2+0
	MOVWF       FARG_memcpy_d1+0 
	MOVLW       hi_addr(_LCDLine2+0)
	MOVWF       FARG_memcpy_d1+1 
	MOVLW       _crypto+48
	MOVWF       FARG_memcpy_s1+0 
	MOVLW       hi_addr(_crypto+48)
	MOVWF       FARG_memcpy_s1+1 
	MOVLW       16
	MOVWF       FARG_memcpy_n+0 
	MOVLW       0
	MOVWF       FARG_memcpy_n+1 
	CALL        _memcpy+0, 0
;FirmV_0_7_0.c,2249 :: 		LCDUpdateFlag=1;
	MOVLW       1
	MOVWF       _LCDUpdateFlag+0 
;FirmV_0_7_0.c,2250 :: 		}
L_About497:
;FirmV_0_7_0.c,2252 :: 		if(AboutCounter==2)
	MOVF        _AboutCounter+0, 0 
	XORLW       2
	BTFSS       STATUS+0, 2 
	GOTO        L_About498
;FirmV_0_7_0.c,2253 :: 		{memcpy(LCDLine1,Crypto[4],16);
	MOVLW       _LCDLine1+0
	MOVWF       FARG_memcpy_d1+0 
	MOVLW       hi_addr(_LCDLine1+0)
	MOVWF       FARG_memcpy_d1+1 
	MOVLW       _crypto+64
	MOVWF       FARG_memcpy_s1+0 
	MOVLW       hi_addr(_crypto+64)
	MOVWF       FARG_memcpy_s1+1 
	MOVLW       16
	MOVWF       FARG_memcpy_n+0 
	MOVLW       0
	MOVWF       FARG_memcpy_n+1 
	CALL        _memcpy+0, 0
;FirmV_0_7_0.c,2254 :: 		memcpy(LCDLine2,Crypto[5],16);
	MOVLW       _LCDLine2+0
	MOVWF       FARG_memcpy_d1+0 
	MOVLW       hi_addr(_LCDLine2+0)
	MOVWF       FARG_memcpy_d1+1 
	MOVLW       _crypto+80
	MOVWF       FARG_memcpy_s1+0 
	MOVLW       hi_addr(_crypto+80)
	MOVWF       FARG_memcpy_s1+1 
	MOVLW       16
	MOVWF       FARG_memcpy_n+0 
	MOVLW       0
	MOVWF       FARG_memcpy_n+1 
	CALL        _memcpy+0, 0
;FirmV_0_7_0.c,2255 :: 		LCDUpdateFlag=1;
	MOVLW       1
	MOVWF       _LCDUpdateFlag+0 
;FirmV_0_7_0.c,2256 :: 		}
L_About498:
;FirmV_0_7_0.c,2258 :: 		if(AboutCounter==3)
	MOVF        _AboutCounter+0, 0 
	XORLW       3
	BTFSS       STATUS+0, 2 
	GOTO        L_About499
;FirmV_0_7_0.c,2259 :: 		{State=100;}
	MOVLW       100
	MOVWF       _State+0 
L_About499:
;FirmV_0_7_0.c,2260 :: 		}
L_end_About:
	RETURN      0
; end of _About

_Menu1:

;FirmV_0_7_0.c,2269 :: 		void Menu1()
;FirmV_0_7_0.c,2272 :: 		if((Events.Keys.b0==1))
	BTFSS       _Events+0, 0 
	GOTO        L_Menu1500
;FirmV_0_7_0.c,2273 :: 		{if(MenuPointer==0){MenuPointer=24;}else{MenuPointer=MenuPointer-1;}State=100;}
	MOVF        _MenuPointer+0, 0 
	XORLW       0
	BTFSS       STATUS+0, 2 
	GOTO        L_Menu1501
	MOVLW       24
	MOVWF       _MenuPointer+0 
	GOTO        L_Menu1502
L_Menu1501:
	DECF        _MenuPointer+0, 1 
L_Menu1502:
	MOVLW       100
	MOVWF       _State+0 
L_Menu1500:
;FirmV_0_7_0.c,2275 :: 		if((Events.Keys.b2==1))
	BTFSS       _Events+0, 2 
	GOTO        L_Menu1503
;FirmV_0_7_0.c,2276 :: 		{if(MenuPointer==24){MenuPointer=0;}else{MenuPointer=MenuPointer+1;}State=100;}
	MOVF        _MenuPointer+0, 0 
	XORLW       24
	BTFSS       STATUS+0, 2 
	GOTO        L_Menu1504
	CLRF        _MenuPointer+0 
	GOTO        L_Menu1505
L_Menu1504:
	INCF        _MenuPointer+0, 1 
L_Menu1505:
	MOVLW       100
	MOVWF       _State+0 
L_Menu1503:
;FirmV_0_7_0.c,2278 :: 		if((Events.Keys.b1==1))
	BTFSS       _Events+0, 1 
	GOTO        L_Menu1506
;FirmV_0_7_0.c,2279 :: 		{State=102;}
	MOVLW       102
	MOVWF       _State+0 
L_Menu1506:
;FirmV_0_7_0.c,2281 :: 		if(Events.Keys==0b101)
	MOVF        _Events+0, 0 
	XORLW       5
	BTFSS       STATUS+0, 2 
	GOTO        L_Menu1507
;FirmV_0_7_0.c,2282 :: 		{memcpy(LCDLine1,Crypto[0],16);AboutCounter=0;memcpy(LCDLine2,Crypto[1],16);LCDLines=2;LCDUpdateFlag=1;State=250;}
	MOVLW       _LCDLine1+0
	MOVWF       FARG_memcpy_d1+0 
	MOVLW       hi_addr(_LCDLine1+0)
	MOVWF       FARG_memcpy_d1+1 
	MOVLW       _crypto+0
	MOVWF       FARG_memcpy_s1+0 
	MOVLW       hi_addr(_crypto+0)
	MOVWF       FARG_memcpy_s1+1 
	MOVLW       16
	MOVWF       FARG_memcpy_n+0 
	MOVLW       0
	MOVWF       FARG_memcpy_n+1 
	CALL        _memcpy+0, 0
	CLRF        _AboutCounter+0 
	MOVLW       _LCDLine2+0
	MOVWF       FARG_memcpy_d1+0 
	MOVLW       hi_addr(_LCDLine2+0)
	MOVWF       FARG_memcpy_d1+1 
	MOVLW       _crypto+16
	MOVWF       FARG_memcpy_s1+0 
	MOVLW       hi_addr(_crypto+16)
	MOVWF       FARG_memcpy_s1+1 
	MOVLW       16
	MOVWF       FARG_memcpy_n+0 
	MOVLW       0
	MOVWF       FARG_memcpy_n+1 
	CALL        _memcpy+0, 0
	MOVLW       2
	MOVWF       _LCDLines+0 
	MOVLW       1
	MOVWF       _LCDUpdateFlag+0 
	MOVLW       250
	MOVWF       _State+0 
L_Menu1507:
;FirmV_0_7_0.c,2285 :: 		}
L_end_Menu1:
	RETURN      0
; end of _Menu1

_Menu2:

;FirmV_0_7_0.c,2293 :: 		void Menu2()
;FirmV_0_7_0.c,2296 :: 		LCDFlash=1;
	MOVLW       1
	MOVWF       _LCDFlash+0 
;FirmV_0_7_0.c,2298 :: 		if(Events.Keys.b1==1)
	BTFSS       _Events+0, 1 
	GOTO        L_Menu2508
;FirmV_0_7_0.c,2300 :: 		LCDFlash=0;LCDFlashFlag=0;State=101;;Menu0();
	CLRF        _LCDFlash+0 
	CLRF        _LCDFlashFlag+0 
	MOVLW       101
	MOVWF       _State+0 
	CALL        _Menu0+0, 0
;FirmV_0_7_0.c,2301 :: 		if(MenuPointer==0)
	MOVF        _MenuPointer+0, 0 
	XORLW       0
	BTFSS       STATUS+0, 2 
	GOTO        L_Menu2509
;FirmV_0_7_0.c,2303 :: 		LearnPhase=0;
	CLRF        _LearnPhase+0 
;FirmV_0_7_0.c,2304 :: 		if(LearningMode==0)
	MOVF        _LearningMode+0, 0 
	XORLW       0
	BTFSS       STATUS+0, 2 
	GOTO        L_Menu2510
;FirmV_0_7_0.c,2305 :: 		{State=200;LongBuzzFlag=1;}
	MOVLW       200
	MOVWF       _State+0 
	MOVLW       1
	MOVWF       _LongBuzzFlag+0 
L_Menu2510:
;FirmV_0_7_0.c,2306 :: 		if(LearningMode==1)
	MOVF        _LearningMode+0, 0 
	XORLW       1
	BTFSS       STATUS+0, 2 
	GOTO        L_Menu2511
;FirmV_0_7_0.c,2307 :: 		{State=201;LongBuzzFlag=1;}
	MOVLW       201
	MOVWF       _State+0 
	MOVLW       1
	MOVWF       _LongBuzzFlag+0 
L_Menu2511:
;FirmV_0_7_0.c,2308 :: 		}
L_Menu2509:
;FirmV_0_7_0.c,2309 :: 		}
L_Menu2508:
;FirmV_0_7_0.c,2312 :: 		if(MenuPointer==0)
	MOVF        _MenuPointer+0, 0 
	XORLW       0
	BTFSS       STATUS+0, 2 
	GOTO        L_Menu2512
;FirmV_0_7_0.c,2313 :: 		{ if((Events.Keys.b0==1)&&(LearningMode>0))
	BTFSS       _Events+0, 0 
	GOTO        L_Menu2515
	MOVF        _LearningMode+0, 0 
	SUBLW       0
	BTFSC       STATUS+0, 0 
	GOTO        L_Menu2515
L__Menu2993:
;FirmV_0_7_0.c,2314 :: 		{LearningMode=LearningMode-1;Menu0();State=102;}
	DECF        _LearningMode+0, 1 
	CALL        _Menu0+0, 0
	MOVLW       102
	MOVWF       _State+0 
L_Menu2515:
;FirmV_0_7_0.c,2315 :: 		if((Events.Keys.b2==1)&&(LearningMode<1))
	BTFSS       _Events+0, 2 
	GOTO        L_Menu2518
	MOVLW       1
	SUBWF       _LearningMode+0, 0 
	BTFSC       STATUS+0, 0 
	GOTO        L_Menu2518
L__Menu2992:
;FirmV_0_7_0.c,2316 :: 		{LearningMode=LearningMode+1;Menu0();State=102;}
	INCF        _LearningMode+0, 1 
	CALL        _Menu0+0, 0
	MOVLW       102
	MOVWF       _State+0 
L_Menu2518:
;FirmV_0_7_0.c,2317 :: 		}
L_Menu2512:
;FirmV_0_7_0.c,2321 :: 		if(MenuPointer==1)
	MOVF        _MenuPointer+0, 0 
	XORLW       1
	BTFSS       STATUS+0, 2 
	GOTO        L_Menu2519
;FirmV_0_7_0.c,2322 :: 		{ if((Events.Keys.b0==1)&&(Door1OpenTime>0))
	BTFSS       _Events+0, 0 
	GOTO        L_Menu2522
	MOVF        _Door1OpenTime+0, 0 
	SUBLW       0
	BTFSC       STATUS+0, 0 
	GOTO        L_Menu2522
L__Menu2991:
;FirmV_0_7_0.c,2323 :: 		{Door1OpenTime=Door1OpenTime-1;Menu0();State=102;}
	DECF        _Door1OpenTime+0, 1 
	CALL        _Menu0+0, 0
	MOVLW       102
	MOVWF       _State+0 
L_Menu2522:
;FirmV_0_7_0.c,2324 :: 		if((Events.Keys.b2==1)&&(Door1OpenTime<255))
	BTFSS       _Events+0, 2 
	GOTO        L_Menu2525
	MOVLW       255
	SUBWF       _Door1OpenTime+0, 0 
	BTFSC       STATUS+0, 0 
	GOTO        L_Menu2525
L__Menu2990:
;FirmV_0_7_0.c,2325 :: 		{Door1OpenTime=Door1OpenTime+1;Menu0();State=102;}
	INCF        _Door1OpenTime+0, 1 
	CALL        _Menu0+0, 0
	MOVLW       102
	MOVWF       _State+0 
L_Menu2525:
;FirmV_0_7_0.c,2326 :: 		}
L_Menu2519:
;FirmV_0_7_0.c,2330 :: 		if(MenuPointer==2)
	MOVF        _MenuPointer+0, 0 
	XORLW       2
	BTFSS       STATUS+0, 2 
	GOTO        L_Menu2526
;FirmV_0_7_0.c,2331 :: 		{ if((Events.Keys.b0==1)&&(Door2OpenTime>0))
	BTFSS       _Events+0, 0 
	GOTO        L_Menu2529
	MOVF        _Door2OpenTime+0, 0 
	SUBLW       0
	BTFSC       STATUS+0, 0 
	GOTO        L_Menu2529
L__Menu2989:
;FirmV_0_7_0.c,2332 :: 		{Door2OpenTime=Door2OpenTime-1;Menu0();State=102;}
	DECF        _Door2OpenTime+0, 1 
	CALL        _Menu0+0, 0
	MOVLW       102
	MOVWF       _State+0 
L_Menu2529:
;FirmV_0_7_0.c,2333 :: 		if((Events.Keys.b2==1)&&(Door2OpenTime<255))
	BTFSS       _Events+0, 2 
	GOTO        L_Menu2532
	MOVLW       255
	SUBWF       _Door2OpenTime+0, 0 
	BTFSC       STATUS+0, 0 
	GOTO        L_Menu2532
L__Menu2988:
;FirmV_0_7_0.c,2334 :: 		{Door2OpenTime=Door2OpenTime+1;Menu0();State=102;}
	INCF        _Door2OpenTime+0, 1 
	CALL        _Menu0+0, 0
	MOVLW       102
	MOVWF       _State+0 
L_Menu2532:
;FirmV_0_7_0.c,2335 :: 		}
L_Menu2526:
;FirmV_0_7_0.c,2338 :: 		if(MenuPointer==3)
	MOVF        _MenuPointer+0, 0 
	XORLW       3
	BTFSS       STATUS+0, 2 
	GOTO        L_Menu2533
;FirmV_0_7_0.c,2339 :: 		{ if((Events.Keys.b0==1)&&(Door1CloseTime>0))
	BTFSS       _Events+0, 0 
	GOTO        L_Menu2536
	MOVF        _Door1CloseTime+0, 0 
	SUBLW       0
	BTFSC       STATUS+0, 0 
	GOTO        L_Menu2536
L__Menu2987:
;FirmV_0_7_0.c,2340 :: 		{Door1CloseTime=Door1CloseTime-1;Menu0();State=102;}
	DECF        _Door1CloseTime+0, 1 
	CALL        _Menu0+0, 0
	MOVLW       102
	MOVWF       _State+0 
L_Menu2536:
;FirmV_0_7_0.c,2341 :: 		if((Events.Keys.b2==1)&&(Door1CloseTime<255))
	BTFSS       _Events+0, 2 
	GOTO        L_Menu2539
	MOVLW       255
	SUBWF       _Door1CloseTime+0, 0 
	BTFSC       STATUS+0, 0 
	GOTO        L_Menu2539
L__Menu2986:
;FirmV_0_7_0.c,2342 :: 		{Door1CloseTime=Door1CloseTime+1;Menu0();State=102;}
	INCF        _Door1CloseTime+0, 1 
	CALL        _Menu0+0, 0
	MOVLW       102
	MOVWF       _State+0 
L_Menu2539:
;FirmV_0_7_0.c,2343 :: 		}
L_Menu2533:
;FirmV_0_7_0.c,2346 :: 		if(MenuPointer==4)
	MOVF        _MenuPointer+0, 0 
	XORLW       4
	BTFSS       STATUS+0, 2 
	GOTO        L_Menu2540
;FirmV_0_7_0.c,2347 :: 		{ if((Events.Keys.b0==1)&&(Door2CloseTime>0))
	BTFSS       _Events+0, 0 
	GOTO        L_Menu2543
	MOVF        _Door2CloseTime+0, 0 
	SUBLW       0
	BTFSC       STATUS+0, 0 
	GOTO        L_Menu2543
L__Menu2985:
;FirmV_0_7_0.c,2348 :: 		{Door2CloseTime=Door2CloseTime-1;Menu0();State=102;}
	DECF        _Door2CloseTime+0, 1 
	CALL        _Menu0+0, 0
	MOVLW       102
	MOVWF       _State+0 
L_Menu2543:
;FirmV_0_7_0.c,2349 :: 		if((Events.Keys.b2==1)&&(Door2CloseTime<255))
	BTFSS       _Events+0, 2 
	GOTO        L_Menu2546
	MOVLW       255
	SUBWF       _Door2CloseTime+0, 0 
	BTFSC       STATUS+0, 0 
	GOTO        L_Menu2546
L__Menu2984:
;FirmV_0_7_0.c,2350 :: 		{Door2CloseTime=Door2CloseTime+1;Menu0();State=102;}
	INCF        _Door2CloseTime+0, 1 
	CALL        _Menu0+0, 0
	MOVLW       102
	MOVWF       _State+0 
L_Menu2546:
;FirmV_0_7_0.c,2351 :: 		}
L_Menu2540:
;FirmV_0_7_0.c,2355 :: 		if(MenuPointer==5)
	MOVF        _MenuPointer+0, 0 
	XORLW       5
	BTFSS       STATUS+0, 2 
	GOTO        L_Menu2547
;FirmV_0_7_0.c,2356 :: 		{ if((Events.Keys.b0==1)&&(OpenSoftStartTime>0))
	BTFSS       _Events+0, 0 
	GOTO        L_Menu2550
	MOVF        _OpenSoftStartTime+0, 0 
	SUBLW       0
	BTFSC       STATUS+0, 0 
	GOTO        L_Menu2550
L__Menu2983:
;FirmV_0_7_0.c,2357 :: 		{OpenSoftStartTime=OpenSoftStartTime-1;Menu0();State=102;}
	DECF        _OpenSoftStartTime+0, 1 
	CALL        _Menu0+0, 0
	MOVLW       102
	MOVWF       _State+0 
L_Menu2550:
;FirmV_0_7_0.c,2358 :: 		if((Events.Keys.b2==1)&&(OpenSoftStartTime<255))
	BTFSS       _Events+0, 2 
	GOTO        L_Menu2553
	MOVLW       255
	SUBWF       _OpenSoftStartTime+0, 0 
	BTFSC       STATUS+0, 0 
	GOTO        L_Menu2553
L__Menu2982:
;FirmV_0_7_0.c,2359 :: 		{OpenSoftStartTime=OpenSoftStartTime+1;Menu0();State=102;}
	INCF        _OpenSoftStartTime+0, 1 
	CALL        _Menu0+0, 0
	MOVLW       102
	MOVWF       _State+0 
L_Menu2553:
;FirmV_0_7_0.c,2360 :: 		}
L_Menu2547:
;FirmV_0_7_0.c,2363 :: 		if(MenuPointer==6)
	MOVF        _MenuPointer+0, 0 
	XORLW       6
	BTFSS       STATUS+0, 2 
	GOTO        L_Menu2554
;FirmV_0_7_0.c,2364 :: 		{ if((Events.Keys.b0==1)&&(OpenSoftStopTime>0))
	BTFSS       _Events+0, 0 
	GOTO        L_Menu2557
	MOVF        _OpenSoftStopTime+0, 0 
	SUBLW       0
	BTFSC       STATUS+0, 0 
	GOTO        L_Menu2557
L__Menu2981:
;FirmV_0_7_0.c,2365 :: 		{OpenSoftStopTime=OpenSoftStopTime-1;Menu0();State=102;}
	DECF        _OpenSoftStopTime+0, 1 
	CALL        _Menu0+0, 0
	MOVLW       102
	MOVWF       _State+0 
L_Menu2557:
;FirmV_0_7_0.c,2366 :: 		if((Events.Keys.b2==1)&&(OpenSoftStopTime<255))
	BTFSS       _Events+0, 2 
	GOTO        L_Menu2560
	MOVLW       255
	SUBWF       _OpenSoftStopTime+0, 0 
	BTFSC       STATUS+0, 0 
	GOTO        L_Menu2560
L__Menu2980:
;FirmV_0_7_0.c,2367 :: 		{OpenSoftStopTime=OpenSoftStopTime+1;Menu0();State=102;}
	INCF        _OpenSoftStopTime+0, 1 
	CALL        _Menu0+0, 0
	MOVLW       102
	MOVWF       _State+0 
L_Menu2560:
;FirmV_0_7_0.c,2368 :: 		}
L_Menu2554:
;FirmV_0_7_0.c,2371 :: 		if(MenuPointer==7)
	MOVF        _MenuPointer+0, 0 
	XORLW       7
	BTFSS       STATUS+0, 2 
	GOTO        L_Menu2561
;FirmV_0_7_0.c,2372 :: 		{ if((Events.Keys.b0==1)&&(CloseSoftStartTime>0))
	BTFSS       _Events+0, 0 
	GOTO        L_Menu2564
	MOVF        _CloseSoftStartTime+0, 0 
	SUBLW       0
	BTFSC       STATUS+0, 0 
	GOTO        L_Menu2564
L__Menu2979:
;FirmV_0_7_0.c,2373 :: 		{CloseSoftStartTime=CloseSoftStartTime-1;Menu0();State=102;}
	DECF        _CloseSoftStartTime+0, 1 
	CALL        _Menu0+0, 0
	MOVLW       102
	MOVWF       _State+0 
L_Menu2564:
;FirmV_0_7_0.c,2374 :: 		if((Events.Keys.b2==1)&&(CloseSoftStartTime<255))
	BTFSS       _Events+0, 2 
	GOTO        L_Menu2567
	MOVLW       255
	SUBWF       _CloseSoftStartTime+0, 0 
	BTFSC       STATUS+0, 0 
	GOTO        L_Menu2567
L__Menu2978:
;FirmV_0_7_0.c,2375 :: 		{CloseSoftStartTime=CloseSoftStartTime+1;Menu0();State=102;}
	INCF        _CloseSoftStartTime+0, 1 
	CALL        _Menu0+0, 0
	MOVLW       102
	MOVWF       _State+0 
L_Menu2567:
;FirmV_0_7_0.c,2376 :: 		}
L_Menu2561:
;FirmV_0_7_0.c,2379 :: 		if(MenuPointer==8)
	MOVF        _MenuPointer+0, 0 
	XORLW       8
	BTFSS       STATUS+0, 2 
	GOTO        L_Menu2568
;FirmV_0_7_0.c,2380 :: 		{ if((Events.Keys.b0==1)&&(CloseSoftStopTime>0))
	BTFSS       _Events+0, 0 
	GOTO        L_Menu2571
	MOVF        _CloseSoftStopTime+0, 0 
	SUBLW       0
	BTFSC       STATUS+0, 0 
	GOTO        L_Menu2571
L__Menu2977:
;FirmV_0_7_0.c,2381 :: 		{CloseSoftStopTime=CloseSoftStopTime-1;Menu0();State=102;}
	DECF        _CloseSoftStopTime+0, 1 
	CALL        _Menu0+0, 0
	MOVLW       102
	MOVWF       _State+0 
L_Menu2571:
;FirmV_0_7_0.c,2382 :: 		if((Events.Keys.b2==1)&&(CloseSoftStopTime<255))
	BTFSS       _Events+0, 2 
	GOTO        L_Menu2574
	MOVLW       255
	SUBWF       _CloseSoftStopTime+0, 0 
	BTFSC       STATUS+0, 0 
	GOTO        L_Menu2574
L__Menu2976:
;FirmV_0_7_0.c,2383 :: 		{CloseSoftStopTime=CloseSoftStopTime+1;Menu0();State=102;}
	INCF        _CloseSoftStopTime+0, 1 
	CALL        _Menu0+0, 0
	MOVLW       102
	MOVWF       _State+0 
L_Menu2574:
;FirmV_0_7_0.c,2384 :: 		}
L_Menu2568:
;FirmV_0_7_0.c,2388 :: 		if(MenuPointer==9)
	MOVF        _MenuPointer+0, 0 
	XORLW       9
	BTFSS       STATUS+0, 2 
	GOTO        L_Menu2575
;FirmV_0_7_0.c,2389 :: 		{ if((Events.Keys.b0==1)&&(M1SoftPower>1))
	BTFSS       _Events+0, 0 
	GOTO        L_Menu2578
	MOVLW       0
	MOVWF       R0 
	MOVF        _M1SoftPower+1, 0 
	SUBWF       R0, 0 
	BTFSS       STATUS+0, 2 
	GOTO        L__Menu21087
	MOVF        _M1SoftPower+0, 0 
	SUBLW       1
L__Menu21087:
	BTFSC       STATUS+0, 0 
	GOTO        L_Menu2578
L__Menu2975:
;FirmV_0_7_0.c,2390 :: 		{M1SoftPower=M1SoftPower-1;Menu0();State=102;}
	MOVLW       1
	SUBWF       _M1SoftPower+0, 1 
	MOVLW       0
	SUBWFB      _M1SoftPower+1, 1 
	CALL        _Menu0+0, 0
	MOVLW       102
	MOVWF       _State+0 
L_Menu2578:
;FirmV_0_7_0.c,2391 :: 		if((Events.Keys.b2==1)&&(M1SoftPower<10))
	BTFSS       _Events+0, 2 
	GOTO        L_Menu2581
	MOVLW       0
	SUBWF       _M1SoftPower+1, 0 
	BTFSS       STATUS+0, 2 
	GOTO        L__Menu21088
	MOVLW       10
	SUBWF       _M1SoftPower+0, 0 
L__Menu21088:
	BTFSC       STATUS+0, 0 
	GOTO        L_Menu2581
L__Menu2974:
;FirmV_0_7_0.c,2392 :: 		{M1SoftPower=M1SoftPower+1;Menu0();State=102;}
	INFSNZ      _M1SoftPower+0, 1 
	INCF        _M1SoftPower+1, 1 
	CALL        _Menu0+0, 0
	MOVLW       102
	MOVWF       _State+0 
L_Menu2581:
;FirmV_0_7_0.c,2393 :: 		}
L_Menu2575:
;FirmV_0_7_0.c,2396 :: 		if(MenuPointer==10)
	MOVF        _MenuPointer+0, 0 
	XORLW       10
	BTFSS       STATUS+0, 2 
	GOTO        L_Menu2582
;FirmV_0_7_0.c,2397 :: 		{ if((Events.Keys.b0==1)&&(M2SoftPower>1))
	BTFSS       _Events+0, 0 
	GOTO        L_Menu2585
	MOVLW       0
	MOVWF       R0 
	MOVF        _M2SoftPower+1, 0 
	SUBWF       R0, 0 
	BTFSS       STATUS+0, 2 
	GOTO        L__Menu21089
	MOVF        _M2SoftPower+0, 0 
	SUBLW       1
L__Menu21089:
	BTFSC       STATUS+0, 0 
	GOTO        L_Menu2585
L__Menu2973:
;FirmV_0_7_0.c,2398 :: 		{M2SoftPower=M2SoftPower-1;Menu0();State=102;}
	MOVLW       1
	SUBWF       _M2SoftPower+0, 1 
	MOVLW       0
	SUBWFB      _M2SoftPower+1, 1 
	CALL        _Menu0+0, 0
	MOVLW       102
	MOVWF       _State+0 
L_Menu2585:
;FirmV_0_7_0.c,2399 :: 		if((Events.Keys.b2==1)&&(M2SoftPower<10))
	BTFSS       _Events+0, 2 
	GOTO        L_Menu2588
	MOVLW       0
	SUBWF       _M2SoftPower+1, 0 
	BTFSS       STATUS+0, 2 
	GOTO        L__Menu21090
	MOVLW       10
	SUBWF       _M2SoftPower+0, 0 
L__Menu21090:
	BTFSC       STATUS+0, 0 
	GOTO        L_Menu2588
L__Menu2972:
;FirmV_0_7_0.c,2400 :: 		{M2SoftPower=M2SoftPower+1;Menu0();State=102;}
	INFSNZ      _M2SoftPower+0, 1 
	INCF        _M2SoftPower+1, 1 
	CALL        _Menu0+0, 0
	MOVLW       102
	MOVWF       _State+0 
L_Menu2588:
;FirmV_0_7_0.c,2401 :: 		}
L_Menu2582:
;FirmV_0_7_0.c,2405 :: 		if(MenuPointer==11)
	MOVF        _MenuPointer+0, 0 
	XORLW       11
	BTFSS       STATUS+0, 2 
	GOTO        L_Menu2589
;FirmV_0_7_0.c,2406 :: 		{ if((Events.Keys.b0==1)&&(OverloadSens1>0))
	BTFSS       _Events+0, 0 
	GOTO        L_Menu2592
	MOVF        _OverloadSens1+0, 0 
	SUBLW       0
	BTFSC       STATUS+0, 0 
	GOTO        L_Menu2592
L__Menu2971:
;FirmV_0_7_0.c,2407 :: 		{OverloadSens1=OverloadSens1-1;Menu0();State=102;}
	DECF        _OverloadSens1+0, 1 
	CALL        _Menu0+0, 0
	MOVLW       102
	MOVWF       _State+0 
L_Menu2592:
;FirmV_0_7_0.c,2408 :: 		if((Events.Keys.b2==1)&&(OverloadSens1<15))
	BTFSS       _Events+0, 2 
	GOTO        L_Menu2595
	MOVLW       15
	SUBWF       _OverloadSens1+0, 0 
	BTFSC       STATUS+0, 0 
	GOTO        L_Menu2595
L__Menu2970:
;FirmV_0_7_0.c,2409 :: 		{OverloadSens1=OverloadSens1+1;Menu0();State=102;}
	INCF        _OverloadSens1+0, 1 
	CALL        _Menu0+0, 0
	MOVLW       102
	MOVWF       _State+0 
L_Menu2595:
;FirmV_0_7_0.c,2410 :: 		}
L_Menu2589:
;FirmV_0_7_0.c,2414 :: 		if(MenuPointer==12)
	MOVF        _MenuPointer+0, 0 
	XORLW       12
	BTFSS       STATUS+0, 2 
	GOTO        L_Menu2596
;FirmV_0_7_0.c,2415 :: 		{ if((Events.Keys.b0==1)&&(OverloadSens2>0))
	BTFSS       _Events+0, 0 
	GOTO        L_Menu2599
	MOVF        _OverloadSens2+0, 0 
	SUBLW       0
	BTFSC       STATUS+0, 0 
	GOTO        L_Menu2599
L__Menu2969:
;FirmV_0_7_0.c,2416 :: 		{OverloadSens2=OverloadSens2-1;Menu0();State=102;}
	DECF        _OverloadSens2+0, 1 
	CALL        _Menu0+0, 0
	MOVLW       102
	MOVWF       _State+0 
L_Menu2599:
;FirmV_0_7_0.c,2417 :: 		if((Events.Keys.b2==1)&&(OverloadSens2<15))
	BTFSS       _Events+0, 2 
	GOTO        L_Menu2602
	MOVLW       15
	SUBWF       _OverloadSens2+0, 0 
	BTFSC       STATUS+0, 0 
	GOTO        L_Menu2602
L__Menu2968:
;FirmV_0_7_0.c,2418 :: 		{OverloadSens2=OverloadSens2+1;Menu0();State=102;}
	INCF        _OverloadSens2+0, 1 
	CALL        _Menu0+0, 0
	MOVLW       102
	MOVWF       _State+0 
L_Menu2602:
;FirmV_0_7_0.c,2419 :: 		}
L_Menu2596:
;FirmV_0_7_0.c,2422 :: 		if(MenuPointer==13)
	MOVF        _MenuPointer+0, 0 
	XORLW       13
	BTFSS       STATUS+0, 2 
	GOTO        L_Menu2603
;FirmV_0_7_0.c,2423 :: 		{ if((Events.Keys.b0==1)&&(OverloadTime1>0))
	BTFSS       _Events+0, 0 
	GOTO        L_Menu2606
	MOVF        _OverloadTime1+0, 0 
	SUBLW       0
	BTFSC       STATUS+0, 0 
	GOTO        L_Menu2606
L__Menu2967:
;FirmV_0_7_0.c,2424 :: 		{OverloadTime1=OverloadTime1-1;Menu0();State=102;}
	DECF        _OverloadTime1+0, 1 
	CALL        _Menu0+0, 0
	MOVLW       102
	MOVWF       _State+0 
L_Menu2606:
;FirmV_0_7_0.c,2425 :: 		if((Events.Keys.b2==1)&&(OverloadTime1<10))
	BTFSS       _Events+0, 2 
	GOTO        L_Menu2609
	MOVLW       10
	SUBWF       _OverloadTime1+0, 0 
	BTFSC       STATUS+0, 0 
	GOTO        L_Menu2609
L__Menu2966:
;FirmV_0_7_0.c,2426 :: 		{OverloadTime1=OverloadTime1+1;Menu0();State=102;}
	INCF        _OverloadTime1+0, 1 
	CALL        _Menu0+0, 0
	MOVLW       102
	MOVWF       _State+0 
L_Menu2609:
;FirmV_0_7_0.c,2427 :: 		}
L_Menu2603:
;FirmV_0_7_0.c,2431 :: 		if(MenuPointer==14)
	MOVF        _MenuPointer+0, 0 
	XORLW       14
	BTFSS       STATUS+0, 2 
	GOTO        L_Menu2610
;FirmV_0_7_0.c,2432 :: 		{ if((Events.Keys.b0==1)&&(OverloadTime2>0))
	BTFSS       _Events+0, 0 
	GOTO        L_Menu2613
	MOVF        _OverloadTime2+0, 0 
	SUBLW       0
	BTFSC       STATUS+0, 0 
	GOTO        L_Menu2613
L__Menu2965:
;FirmV_0_7_0.c,2433 :: 		{OverloadTime2=OverloadTime2-1;Menu0();State=102;}
	DECF        _OverloadTime2+0, 1 
	CALL        _Menu0+0, 0
	MOVLW       102
	MOVWF       _State+0 
L_Menu2613:
;FirmV_0_7_0.c,2434 :: 		if((Events.Keys.b2==1)&&(OverloadTime2<10))
	BTFSS       _Events+0, 2 
	GOTO        L_Menu2616
	MOVLW       10
	SUBWF       _OverloadTime2+0, 0 
	BTFSC       STATUS+0, 0 
	GOTO        L_Menu2616
L__Menu2964:
;FirmV_0_7_0.c,2435 :: 		{OverloadTime2=OverloadTime2+1;Menu0();State=102;}
	INCF        _OverloadTime2+0, 1 
	CALL        _Menu0+0, 0
	MOVLW       102
	MOVWF       _State+0 
L_Menu2616:
;FirmV_0_7_0.c,2436 :: 		}
L_Menu2610:
;FirmV_0_7_0.c,2439 :: 		if(MenuPointer==15)
	MOVF        _MenuPointer+0, 0 
	XORLW       15
	BTFSS       STATUS+0, 2 
	GOTO        L_Menu2617
;FirmV_0_7_0.c,2440 :: 		{ if((Events.Keys.b0==1)&&(ActionTimeDiff>0))
	BTFSS       _Events+0, 0 
	GOTO        L_Menu2620
	MOVF        _ActionTimeDiff+0, 0 
	SUBLW       0
	BTFSC       STATUS+0, 0 
	GOTO        L_Menu2620
L__Menu2963:
;FirmV_0_7_0.c,2441 :: 		{ActionTimeDiff=ActionTimeDiff-1;Menu0();State=102;}
	DECF        _ActionTimeDiff+0, 1 
	CALL        _Menu0+0, 0
	MOVLW       102
	MOVWF       _State+0 
L_Menu2620:
;FirmV_0_7_0.c,2442 :: 		if((Events.Keys.b2==1)&&(ActionTimeDiff<255))
	BTFSS       _Events+0, 2 
	GOTO        L_Menu2623
	MOVLW       255
	SUBWF       _ActionTimeDiff+0, 0 
	BTFSC       STATUS+0, 0 
	GOTO        L_Menu2623
L__Menu2962:
;FirmV_0_7_0.c,2443 :: 		{ActionTimeDiff=ActionTimeDiff+1;Menu0();State=102;}
	INCF        _ActionTimeDiff+0, 1 
	CALL        _Menu0+0, 0
	MOVLW       102
	MOVWF       _State+0 
L_Menu2623:
;FirmV_0_7_0.c,2444 :: 		}
L_Menu2617:
;FirmV_0_7_0.c,2447 :: 		if(MenuPointer==16)
	MOVF        _MenuPointer+0, 0 
	XORLW       16
	BTFSS       STATUS+0, 2 
	GOTO        L_Menu2624
;FirmV_0_7_0.c,2448 :: 		{ if((Events.Keys.b0==1)&&(AutoCloseTime>0))
	BTFSS       _Events+0, 0 
	GOTO        L_Menu2627
	MOVLW       0
	MOVWF       R0 
	MOVF        _AutoCloseTime+1, 0 
	SUBWF       R0, 0 
	BTFSS       STATUS+0, 2 
	GOTO        L__Menu21091
	MOVF        _AutoCloseTime+0, 0 
	SUBLW       0
L__Menu21091:
	BTFSC       STATUS+0, 0 
	GOTO        L_Menu2627
L__Menu2961:
;FirmV_0_7_0.c,2449 :: 		{AutoCloseTime=AutoCloseTime-1;Menu0();State=102;}
	MOVLW       1
	SUBWF       _AutoCloseTime+0, 1 
	MOVLW       0
	SUBWFB      _AutoCloseTime+1, 1 
	CALL        _Menu0+0, 0
	MOVLW       102
	MOVWF       _State+0 
L_Menu2627:
;FirmV_0_7_0.c,2450 :: 		if((Events.Keys.b2==1)&&(AutoCloseTime<65000))
	BTFSS       _Events+0, 2 
	GOTO        L_Menu2630
	MOVLW       253
	SUBWF       _AutoCloseTime+1, 0 
	BTFSS       STATUS+0, 2 
	GOTO        L__Menu21092
	MOVLW       232
	SUBWF       _AutoCloseTime+0, 0 
L__Menu21092:
	BTFSC       STATUS+0, 0 
	GOTO        L_Menu2630
L__Menu2960:
;FirmV_0_7_0.c,2451 :: 		{AutoCloseTime=AutoCloseTime+1;Menu0();State=102;}
	INFSNZ      _AutoCloseTime+0, 1 
	INCF        _AutoCloseTime+1, 1 
	CALL        _Menu0+0, 0
	MOVLW       102
	MOVWF       _State+0 
L_Menu2630:
;FirmV_0_7_0.c,2452 :: 		}
L_Menu2624:
;FirmV_0_7_0.c,2455 :: 		if(MenuPointer==17)
	MOVF        _MenuPointer+0, 0 
	XORLW       17
	BTFSS       STATUS+0, 2 
	GOTO        L_Menu2631
;FirmV_0_7_0.c,2457 :: 		State=0;
	CLRF        _State+0 
;FirmV_0_7_0.c,2458 :: 		memcpy(LCDLine1,Sipher,16);
	MOVLW       _LCDLine1+0
	MOVWF       FARG_memcpy_d1+0 
	MOVLW       hi_addr(_LCDLine1+0)
	MOVWF       FARG_memcpy_d1+1 
	MOVLW       _Sipher+0
	MOVWF       FARG_memcpy_s1+0 
	MOVLW       hi_addr(_Sipher+0)
	MOVWF       FARG_memcpy_s1+1 
	MOVLW       16
	MOVWF       FARG_memcpy_n+0 
	MOVLW       0
	MOVWF       FARG_memcpy_n+1 
	CALL        _memcpy+0, 0
;FirmV_0_7_0.c,2459 :: 		LCDLines=1;
	MOVLW       1
	MOVWF       _LCDLines+0 
;FirmV_0_7_0.c,2460 :: 		LCDFlash=0; LCDFlashFlag=0;
	CLRF        _LCDFlash+0 
	CLRF        _LCDFlashFlag+0 
;FirmV_0_7_0.c,2461 :: 		LCDUpdateFlag=1;
	MOVLW       1
	MOVWF       _LCDUpdateFlag+0 
;FirmV_0_7_0.c,2462 :: 		LongBuzzFlag=1;
	MOVLW       1
	MOVWF       _LongBuzzFlag+0 
;FirmV_0_7_0.c,2463 :: 		FactorySettings();
	CALL        _FactorySettings+0, 0
;FirmV_0_7_0.c,2464 :: 		SaveConfigs();
	CALL        _SaveConfigs+0, 0
;FirmV_0_7_0.c,2465 :: 		}
L_Menu2631:
;FirmV_0_7_0.c,2468 :: 		if(MenuPointer==18)
	MOVF        _MenuPointer+0, 0 
	XORLW       18
	BTFSS       STATUS+0, 2 
	GOTO        L_Menu2632
;FirmV_0_7_0.c,2469 :: 		{ if((Events.Keys.b0==1)&&(OpenPhEnable>0))
	BTFSS       _Events+0, 0 
	GOTO        L_Menu2635
	MOVF        _OpenPhEnable+0, 0 
	SUBLW       0
	BTFSC       STATUS+0, 0 
	GOTO        L_Menu2635
L__Menu2959:
;FirmV_0_7_0.c,2470 :: 		{OpenPhEnable=OpenPhEnable-1;Menu0();State=102;}
	DECF        _OpenPhEnable+0, 1 
	CALL        _Menu0+0, 0
	MOVLW       102
	MOVWF       _State+0 
L_Menu2635:
;FirmV_0_7_0.c,2471 :: 		if((Events.Keys.b2==1)&&(OpenPhEnable<1))
	BTFSS       _Events+0, 2 
	GOTO        L_Menu2638
	MOVLW       1
	SUBWF       _OpenPhEnable+0, 0 
	BTFSC       STATUS+0, 0 
	GOTO        L_Menu2638
L__Menu2958:
;FirmV_0_7_0.c,2472 :: 		{OpenPhEnable=OpenPhEnable+1;Menu0();State=102;}
	INCF        _OpenPhEnable+0, 1 
	CALL        _Menu0+0, 0
	MOVLW       102
	MOVWF       _State+0 
L_Menu2638:
;FirmV_0_7_0.c,2473 :: 		}
L_Menu2632:
;FirmV_0_7_0.c,2477 :: 		if(MenuPointer==19)
	MOVF        _MenuPointer+0, 0 
	XORLW       19
	BTFSS       STATUS+0, 2 
	GOTO        L_Menu2639
;FirmV_0_7_0.c,2478 :: 		{ if((Events.Keys.b0==1)&&(LimiterEnable>0))
	BTFSS       _Events+0, 0 
	GOTO        L_Menu2642
	MOVF        _LimiterEnable+0, 0 
	SUBLW       0
	BTFSC       STATUS+0, 0 
	GOTO        L_Menu2642
L__Menu2957:
;FirmV_0_7_0.c,2479 :: 		{LimiterEnable=LimiterEnable-1;Menu0();State=102;}
	DECF        _LimiterEnable+0, 1 
	CALL        _Menu0+0, 0
	MOVLW       102
	MOVWF       _State+0 
L_Menu2642:
;FirmV_0_7_0.c,2480 :: 		if((Events.Keys.b2==1)&&(LimiterEnable<1))
	BTFSS       _Events+0, 2 
	GOTO        L_Menu2645
	MOVLW       1
	SUBWF       _LimiterEnable+0, 0 
	BTFSC       STATUS+0, 0 
	GOTO        L_Menu2645
L__Menu2956:
;FirmV_0_7_0.c,2481 :: 		{LimiterEnable=LimiterEnable+1;Menu0();State=102;}
	INCF        _LimiterEnable+0, 1 
	CALL        _Menu0+0, 0
	MOVLW       102
	MOVWF       _State+0 
L_Menu2645:
;FirmV_0_7_0.c,2482 :: 		}
L_Menu2639:
;FirmV_0_7_0.c,2485 :: 		if(MenuPointer==20)
	MOVF        _MenuPointer+0, 0 
	XORLW       20
	BTFSS       STATUS+0, 2 
	GOTO        L_Menu2646
;FirmV_0_7_0.c,2486 :: 		{ if((Events.Keys.b0==1)&&(LockEnable>0))
	BTFSS       _Events+0, 0 
	GOTO        L_Menu2649
	MOVF        _LockEnable+0, 0 
	SUBLW       0
	BTFSC       STATUS+0, 0 
	GOTO        L_Menu2649
L__Menu2955:
;FirmV_0_7_0.c,2487 :: 		{LockEnable=LockEnable-1;Menu0();State=102;}
	DECF        _LockEnable+0, 1 
	CALL        _Menu0+0, 0
	MOVLW       102
	MOVWF       _State+0 
L_Menu2649:
;FirmV_0_7_0.c,2488 :: 		if((Events.Keys.b2==1)&&(LockEnable<1))
	BTFSS       _Events+0, 2 
	GOTO        L_Menu2652
	MOVLW       1
	SUBWF       _LockEnable+0, 0 
	BTFSC       STATUS+0, 0 
	GOTO        L_Menu2652
L__Menu2954:
;FirmV_0_7_0.c,2489 :: 		{LockEnable=LockEnable+1;Menu0();State=102;}
	INCF        _LockEnable+0, 1 
	CALL        _Menu0+0, 0
	MOVLW       102
	MOVWF       _State+0 
L_Menu2652:
;FirmV_0_7_0.c,2490 :: 		}
L_Menu2646:
;FirmV_0_7_0.c,2493 :: 		if(MenuPointer==21)
	MOVF        _MenuPointer+0, 0 
	XORLW       21
	BTFSS       STATUS+0, 2 
	GOTO        L_Menu2653
;FirmV_0_7_0.c,2494 :: 		{ if((Events.Keys.b0==1)&&(LockForce>0))
	BTFSS       _Events+0, 0 
	GOTO        L_Menu2656
	MOVF        _LockForce+0, 0 
	SUBLW       0
	BTFSC       STATUS+0, 0 
	GOTO        L_Menu2656
L__Menu2953:
;FirmV_0_7_0.c,2495 :: 		{LockForce=LockForce-1;Menu0();State=102;}
	DECF        _LockForce+0, 1 
	CALL        _Menu0+0, 0
	MOVLW       102
	MOVWF       _State+0 
L_Menu2656:
;FirmV_0_7_0.c,2496 :: 		if((Events.Keys.b2==1)&&(LockForce<1))
	BTFSS       _Events+0, 2 
	GOTO        L_Menu2659
	MOVLW       1
	SUBWF       _LockForce+0, 0 
	BTFSC       STATUS+0, 0 
	GOTO        L_Menu2659
L__Menu2952:
;FirmV_0_7_0.c,2497 :: 		{LockForce=LockForce+1;Menu0();State=102;}
	INCF        _LockForce+0, 1 
	CALL        _Menu0+0, 0
	MOVLW       102
	MOVWF       _State+0 
L_Menu2659:
;FirmV_0_7_0.c,2498 :: 		}
L_Menu2653:
;FirmV_0_7_0.c,2501 :: 		if(MenuPointer==22)
	MOVF        _MenuPointer+0, 0 
	XORLW       22
	BTFSS       STATUS+0, 2 
	GOTO        L_Menu2660
;FirmV_0_7_0.c,2502 :: 		{ if((Events.Keys.b0==1)&&(CloseAfterPass>0))
	BTFSS       _Events+0, 0 
	GOTO        L_Menu2663
	MOVF        _CloseAfterPass+0, 0 
	SUBLW       0
	BTFSC       STATUS+0, 0 
	GOTO        L_Menu2663
L__Menu2951:
;FirmV_0_7_0.c,2503 :: 		{CloseAfterPass=CloseAfterPass-1;if(CloseAfterPass==9) CloseAfterPass=0;Menu0();State=102;}
	DECF        _CloseAfterPass+0, 1 
	MOVF        _CloseAfterPass+0, 0 
	XORLW       9
	BTFSS       STATUS+0, 2 
	GOTO        L_Menu2664
	CLRF        _CloseAfterPass+0 
L_Menu2664:
	CALL        _Menu0+0, 0
	MOVLW       102
	MOVWF       _State+0 
L_Menu2663:
;FirmV_0_7_0.c,2504 :: 		if((Events.Keys.b2==1)&&(CloseAfterPass<255))
	BTFSS       _Events+0, 2 
	GOTO        L_Menu2667
	MOVLW       255
	SUBWF       _CloseAfterPass+0, 0 
	BTFSC       STATUS+0, 0 
	GOTO        L_Menu2667
L__Menu2950:
;FirmV_0_7_0.c,2505 :: 		{CloseAfterPass=CloseAfterPass+1;if(CloseAfterPass==1) CloseAfterPass=10;Menu0();State=102;}
	INCF        _CloseAfterPass+0, 1 
	MOVF        _CloseAfterPass+0, 0 
	XORLW       1
	BTFSS       STATUS+0, 2 
	GOTO        L_Menu2668
	MOVLW       10
	MOVWF       _CloseAfterPass+0 
L_Menu2668:
	CALL        _Menu0+0, 0
	MOVLW       102
	MOVWF       _State+0 
L_Menu2667:
;FirmV_0_7_0.c,2506 :: 		}
L_Menu2660:
;FirmV_0_7_0.c,2509 :: 		if(MenuPointer==23)
	MOVF        _MenuPointer+0, 0 
	XORLW       23
	BTFSS       STATUS+0, 2 
	GOTO        L_Menu2669
;FirmV_0_7_0.c,2511 :: 		State=103;
	MOVLW       103
	MOVWF       _State+0 
;FirmV_0_7_0.c,2512 :: 		memcpy(LCDLine1,Sipher,16);
	MOVLW       _LCDLine1+0
	MOVWF       FARG_memcpy_d1+0 
	MOVLW       hi_addr(_LCDLine1+0)
	MOVWF       FARG_memcpy_d1+1 
	MOVLW       _Sipher+0
	MOVWF       FARG_memcpy_s1+0 
	MOVLW       hi_addr(_Sipher+0)
	MOVWF       FARG_memcpy_s1+1 
	MOVLW       16
	MOVWF       FARG_memcpy_n+0 
	MOVLW       0
	MOVWF       FARG_memcpy_n+1 
	CALL        _memcpy+0, 0
;FirmV_0_7_0.c,2513 :: 		LCDFlash=0;
	CLRF        _LCDFlash+0 
;FirmV_0_7_0.c,2514 :: 		LCDLines=1;
	MOVLW       1
	MOVWF       _LCDLines+0 
;FirmV_0_7_0.c,2515 :: 		LCDUpdateFlag=1;
	MOVLW       1
	MOVWF       _LCDUpdateFlag+0 
;FirmV_0_7_0.c,2516 :: 		LongBuzzFlag=1;
	MOVLW       1
	MOVWF       _LongBuzzFlag+0 
;FirmV_0_7_0.c,2517 :: 		}
L_Menu2669:
;FirmV_0_7_0.c,2520 :: 		if(MenuPointer==24)
	MOVF        _MenuPointer+0, 0 
	XORLW       24
	BTFSS       STATUS+0, 2 
	GOTO        L_Menu2670
;FirmV_0_7_0.c,2522 :: 		State=0;
	CLRF        _State+0 
;FirmV_0_7_0.c,2523 :: 		memcpy(LCDLine1,Sipher,16);
	MOVLW       _LCDLine1+0
	MOVWF       FARG_memcpy_d1+0 
	MOVLW       hi_addr(_LCDLine1+0)
	MOVWF       FARG_memcpy_d1+1 
	MOVLW       _Sipher+0
	MOVWF       FARG_memcpy_s1+0 
	MOVLW       hi_addr(_Sipher+0)
	MOVWF       FARG_memcpy_s1+1 
	MOVLW       16
	MOVWF       FARG_memcpy_n+0 
	MOVLW       0
	MOVWF       FARG_memcpy_n+1 
	CALL        _memcpy+0, 0
;FirmV_0_7_0.c,2524 :: 		LCDFlash=0;
	CLRF        _LCDFlash+0 
;FirmV_0_7_0.c,2525 :: 		LCDLines=1;
	MOVLW       1
	MOVWF       _LCDLines+0 
;FirmV_0_7_0.c,2526 :: 		LCDUpdateFlag=1;
	MOVLW       1
	MOVWF       _LCDUpdateFlag+0 
;FirmV_0_7_0.c,2527 :: 		LoadConfigs();
	CALL        _LoadConfigs+0, 0
;FirmV_0_7_0.c,2528 :: 		LongBuzzFlag=1;
	MOVLW       1
	MOVWF       _LongBuzzFlag+0 
;FirmV_0_7_0.c,2529 :: 		}
L_Menu2670:
;FirmV_0_7_0.c,2530 :: 		}
L_end_Menu2:
	RETURN      0
; end of _Menu2

_Menu3:

;FirmV_0_7_0.c,2542 :: 		void Menu3()
;FirmV_0_7_0.c,2544 :: 		SaveConfigs();
	CALL        _SaveConfigs+0, 0
;FirmV_0_7_0.c,2545 :: 		State=0;
	CLRF        _State+0 
;FirmV_0_7_0.c,2546 :: 		}
L_end_Menu3:
	RETURN      0
; end of _Menu3

_LearnAuto:

;FirmV_0_7_0.c,2560 :: 		void LearnAuto()
;FirmV_0_7_0.c,2566 :: 		switch(LearnPhase)
	GOTO        L_LearnAuto671
;FirmV_0_7_0.c,2568 :: 		case 0:
L_LearnAuto673:
;FirmV_0_7_0.c,2569 :: 		Flasher=1;
	BSF         PORTD+0, 7 
;FirmV_0_7_0.c,2571 :: 		if(Events.Remote.b0==1) {DoorNo=2; LearnPhase=LearnPhase+1;BuzzFlag=1;} if(Events.Remote.b1==1) {DoorNo=1;LearnPhase=3;BuzzFlag=1;}
	BTFSS       _Events+4, 0 
	GOTO        L_LearnAuto674
	MOVLW       2
	MOVWF       LearnAuto_DoorNo_L0+0 
	INCF        _LearnPhase+0, 1 
	MOVLW       1
	MOVWF       _BuzzFlag+0 
L_LearnAuto674:
	BTFSS       _Events+4, 1 
	GOTO        L_LearnAuto675
	MOVLW       1
	MOVWF       LearnAuto_DoorNo_L0+0 
	MOVLW       3
	MOVWF       _LearnPhase+0 
	MOVLW       1
	MOVWF       _BuzzFlag+0 
L_LearnAuto675:
;FirmV_0_7_0.c,2572 :: 		OverloadCheckFlag1=0;OverloadCheckFlag2=0;
	CLRF        _OverloadCheckFlag1+0 
	CLRF        _OverloadCheckFlag2+0 
;FirmV_0_7_0.c,2573 :: 		break;
	GOTO        L_LearnAuto672
;FirmV_0_7_0.c,2575 :: 		case 1: //Start D2 and enable overload sensing after 3s
L_LearnAuto676:
;FirmV_0_7_0.c,2576 :: 		StartMotor(2,_Close);AddTask(ms500+6,21);LearnPhase=LearnPhase+1;
	MOVLW       2
	MOVWF       FARG_StartMotor_Mx+0 
	CLRF        FARG_StartMotor_Dir+0 
	CALL        _StartMotor+0, 0
	MOVLW       6
	ADDWF       _ms500+0, 0 
	MOVWF       FARG_AddTask_OccTime+0 
	MOVLW       0
	ADDWFC      _ms500+1, 0 
	MOVWF       FARG_AddTask_OccTime+1 
	MOVLW       0
	ADDWFC      _ms500+2, 0 
	MOVWF       FARG_AddTask_OccTime+2 
	MOVLW       0
	ADDWFC      _ms500+3, 0 
	MOVWF       FARG_AddTask_OccTime+3 
	MOVLW       21
	MOVWF       FARG_AddTask_tcode+0 
	CALL        _AddTask+0, 0
	INCF        _LearnPhase+0, 1 
;FirmV_0_7_0.c,2577 :: 		break;
	GOTO        L_LearnAuto672
;FirmV_0_7_0.c,2579 :: 		case 2: //Check if D2 reaches end of its course
L_LearnAuto677:
;FirmV_0_7_0.c,2580 :: 		if((Events.Overload.b1==1)&&(OverloadCheckFlag2==1)){OverloadCheckFlag2=0;StopMotor(2);LearnPhase=LearnPhase+1;}
	BTFSS       _Events+5, 1 
	GOTO        L_LearnAuto680
	MOVF        _OverloadCheckFlag2+0, 0 
	XORLW       1
	BTFSS       STATUS+0, 2 
	GOTO        L_LearnAuto680
L__LearnAuto999:
	CLRF        _OverloadCheckFlag2+0 
	MOVLW       2
	MOVWF       FARG_StopMotor_Mx+0 
	CALL        _StopMotor+0, 0
	INCF        _LearnPhase+0, 1 
L_LearnAuto680:
;FirmV_0_7_0.c,2581 :: 		if(CheckTask(21))OverloadCheckFlag2=1;
	MOVLW       21
	MOVWF       FARG_CheckTask_TaskCode+0 
	CALL        _CheckTask+0, 0
	MOVF        R0, 1 
	BTFSC       STATUS+0, 2 
	GOTO        L_LearnAuto681
	MOVLW       1
	MOVWF       _OverloadCheckFlag2+0 
L_LearnAuto681:
;FirmV_0_7_0.c,2582 :: 		break;
	GOTO        L_LearnAuto672
;FirmV_0_7_0.c,2584 :: 		case 3: //Start D1 and enable overload sensin after 3 s
L_LearnAuto682:
;FirmV_0_7_0.c,2585 :: 		StartMotor(1,_Close);AddTask(ms500+6,20);LearnPhase=LearnPhase+1;;
	MOVLW       1
	MOVWF       FARG_StartMotor_Mx+0 
	CLRF        FARG_StartMotor_Dir+0 
	CALL        _StartMotor+0, 0
	MOVLW       6
	ADDWF       _ms500+0, 0 
	MOVWF       FARG_AddTask_OccTime+0 
	MOVLW       0
	ADDWFC      _ms500+1, 0 
	MOVWF       FARG_AddTask_OccTime+1 
	MOVLW       0
	ADDWFC      _ms500+2, 0 
	MOVWF       FARG_AddTask_OccTime+2 
	MOVLW       0
	ADDWFC      _ms500+3, 0 
	MOVWF       FARG_AddTask_OccTime+3 
	MOVLW       20
	MOVWF       FARG_AddTask_tcode+0 
	CALL        _AddTask+0, 0
	INCF        _LearnPhase+0, 1 
;FirmV_0_7_0.c,2587 :: 		case 4: //Check if D1 reaches end of its course
L_LearnAuto683:
;FirmV_0_7_0.c,2588 :: 		if((Events.Overload.b0==1)&&(OverloadCheckFlag1==1)){OverloadCheckFlag1=0;StopMotor(1);LearnPhase=LearnPhase+1;}
	BTFSS       _Events+5, 0 
	GOTO        L_LearnAuto686
	MOVF        _OverloadCheckFlag1+0, 0 
	XORLW       1
	BTFSS       STATUS+0, 2 
	GOTO        L_LearnAuto686
L__LearnAuto998:
	CLRF        _OverloadCheckFlag1+0 
	MOVLW       1
	MOVWF       FARG_StopMotor_Mx+0 
	CALL        _StopMotor+0, 0
	INCF        _LearnPhase+0, 1 
L_LearnAuto686:
;FirmV_0_7_0.c,2589 :: 		if(CheckTask(20))OverloadCheckFlag1=1;
	MOVLW       20
	MOVWF       FARG_CheckTask_TaskCode+0 
	CALL        _CheckTask+0, 0
	MOVF        R0, 1 
	BTFSC       STATUS+0, 2 
	GOTO        L_LearnAuto687
	MOVLW       1
	MOVWF       _OverloadCheckFlag1+0 
L_LearnAuto687:
;FirmV_0_7_0.c,2590 :: 		break;
	GOTO        L_LearnAuto672
;FirmV_0_7_0.c,2592 :: 		case 5: //Start D1 for opening and save start time and enable overload sensing after 3s
L_LearnAuto688:
;FirmV_0_7_0.c,2593 :: 		startT=ms500;StartMotor(1,_Open);AddTask(ms500+6,20);LearnPhase=LearnPhase+1;
	MOVF        _ms500+0, 0 
	MOVWF       LearnAuto_startT_L0+0 
	MOVF        _ms500+1, 0 
	MOVWF       LearnAuto_startT_L0+1 
	MOVF        _ms500+2, 0 
	MOVWF       LearnAuto_startT_L0+2 
	MOVF        _ms500+3, 0 
	MOVWF       LearnAuto_startT_L0+3 
	MOVLW       1
	MOVWF       FARG_StartMotor_Mx+0 
	MOVLW       1
	MOVWF       FARG_StartMotor_Dir+0 
	CALL        _StartMotor+0, 0
	MOVLW       6
	ADDWF       _ms500+0, 0 
	MOVWF       FARG_AddTask_OccTime+0 
	MOVLW       0
	ADDWFC      _ms500+1, 0 
	MOVWF       FARG_AddTask_OccTime+1 
	MOVLW       0
	ADDWFC      _ms500+2, 0 
	MOVWF       FARG_AddTask_OccTime+2 
	MOVLW       0
	ADDWFC      _ms500+3, 0 
	MOVWF       FARG_AddTask_OccTime+3 
	MOVLW       20
	MOVWF       FARG_AddTask_tcode+0 
	CALL        _AddTask+0, 0
	INCF        _LearnPhase+0, 1 
;FirmV_0_7_0.c,2594 :: 		break;
	GOTO        L_LearnAuto672
;FirmV_0_7_0.c,2596 :: 		case 6: //Check if D1 reaches end of its course and save the stop time
L_LearnAuto689:
;FirmV_0_7_0.c,2597 :: 		if((Events.Overload.b0==1)&&(OverloadCheckFlag1==1)){OverloadCheckFlag1=0;StopMotor(1);if(DoorNo==1)LearnPhase=11;else LearnPhase=LearnPhase+1;stopT=ms500;RawData.D1OpenTime=(char)(stopT-startT);}
	BTFSS       _Events+5, 0 
	GOTO        L_LearnAuto692
	MOVF        _OverloadCheckFlag1+0, 0 
	XORLW       1
	BTFSS       STATUS+0, 2 
	GOTO        L_LearnAuto692
L__LearnAuto997:
	CLRF        _OverloadCheckFlag1+0 
	MOVLW       1
	MOVWF       FARG_StopMotor_Mx+0 
	CALL        _StopMotor+0, 0
	MOVF        LearnAuto_DoorNo_L0+0, 0 
	XORLW       1
	BTFSS       STATUS+0, 2 
	GOTO        L_LearnAuto693
	MOVLW       11
	MOVWF       _LearnPhase+0 
	GOTO        L_LearnAuto694
L_LearnAuto693:
	INCF        _LearnPhase+0, 1 
L_LearnAuto694:
	MOVF        LearnAuto_startT_L0+0, 0 
	SUBWF       _ms500+0, 0 
	MOVWF       R0 
	MOVF        R0, 0 
	MOVWF       LearnAuto_RawData_L0+1 
L_LearnAuto692:
;FirmV_0_7_0.c,2598 :: 		if(CheckTask(20))OverloadCheckFlag1=1;
	MOVLW       20
	MOVWF       FARG_CheckTask_TaskCode+0 
	CALL        _CheckTask+0, 0
	MOVF        R0, 1 
	BTFSC       STATUS+0, 2 
	GOTO        L_LearnAuto695
	MOVLW       1
	MOVWF       _OverloadCheckFlag1+0 
L_LearnAuto695:
;FirmV_0_7_0.c,2599 :: 		break;
	GOTO        L_LearnAuto672
;FirmV_0_7_0.c,2601 :: 		case 7: //Start D2 for opening and save start time and enable overload sensing after 3s
L_LearnAuto696:
;FirmV_0_7_0.c,2602 :: 		startT=ms500;StartMotor(2,_Open);AddTask(ms500+6,21);LearnPhase=LearnPhase+1;
	MOVF        _ms500+0, 0 
	MOVWF       LearnAuto_startT_L0+0 
	MOVF        _ms500+1, 0 
	MOVWF       LearnAuto_startT_L0+1 
	MOVF        _ms500+2, 0 
	MOVWF       LearnAuto_startT_L0+2 
	MOVF        _ms500+3, 0 
	MOVWF       LearnAuto_startT_L0+3 
	MOVLW       2
	MOVWF       FARG_StartMotor_Mx+0 
	MOVLW       1
	MOVWF       FARG_StartMotor_Dir+0 
	CALL        _StartMotor+0, 0
	MOVLW       6
	ADDWF       _ms500+0, 0 
	MOVWF       FARG_AddTask_OccTime+0 
	MOVLW       0
	ADDWFC      _ms500+1, 0 
	MOVWF       FARG_AddTask_OccTime+1 
	MOVLW       0
	ADDWFC      _ms500+2, 0 
	MOVWF       FARG_AddTask_OccTime+2 
	MOVLW       0
	ADDWFC      _ms500+3, 0 
	MOVWF       FARG_AddTask_OccTime+3 
	MOVLW       21
	MOVWF       FARG_AddTask_tcode+0 
	CALL        _AddTask+0, 0
	INCF        _LearnPhase+0, 1 
;FirmV_0_7_0.c,2603 :: 		break;
	GOTO        L_LearnAuto672
;FirmV_0_7_0.c,2605 :: 		case 8: //Check if D2 reaches end of its course and save the stop time
L_LearnAuto697:
;FirmV_0_7_0.c,2606 :: 		if((Events.Overload.b1==1)&&(OverloadCheckFlag2==1)){OverloadCheckFlag2=0;StopMotor(2);LearnPhase=LearnPhase+1;stopT=ms500;RawData.D2OpenTime=(char)(stopT-startT);}
	BTFSS       _Events+5, 1 
	GOTO        L_LearnAuto700
	MOVF        _OverloadCheckFlag2+0, 0 
	XORLW       1
	BTFSS       STATUS+0, 2 
	GOTO        L_LearnAuto700
L__LearnAuto996:
	CLRF        _OverloadCheckFlag2+0 
	MOVLW       2
	MOVWF       FARG_StopMotor_Mx+0 
	CALL        _StopMotor+0, 0
	INCF        _LearnPhase+0, 1 
	MOVF        LearnAuto_startT_L0+0, 0 
	SUBWF       _ms500+0, 0 
	MOVWF       R0 
	MOVF        R0, 0 
	MOVWF       LearnAuto_RawData_L0+3 
L_LearnAuto700:
;FirmV_0_7_0.c,2607 :: 		if(CheckTask(21))OverloadCheckFlag2=1;
	MOVLW       21
	MOVWF       FARG_CheckTask_TaskCode+0 
	CALL        _CheckTask+0, 0
	MOVF        R0, 1 
	BTFSC       STATUS+0, 2 
	GOTO        L_LearnAuto701
	MOVLW       1
	MOVWF       _OverloadCheckFlag2+0 
L_LearnAuto701:
;FirmV_0_7_0.c,2608 :: 		break;
	GOTO        L_LearnAuto672
;FirmV_0_7_0.c,2610 :: 		case 9: //Start D2 for closing and save start time and enable overload sensing after 6s
L_LearnAuto702:
;FirmV_0_7_0.c,2611 :: 		startT=ms500;StartMotor(2,_Close);AddTask(ms500+6,21);LearnPhase=LearnPhase+1;
	MOVF        _ms500+0, 0 
	MOVWF       LearnAuto_startT_L0+0 
	MOVF        _ms500+1, 0 
	MOVWF       LearnAuto_startT_L0+1 
	MOVF        _ms500+2, 0 
	MOVWF       LearnAuto_startT_L0+2 
	MOVF        _ms500+3, 0 
	MOVWF       LearnAuto_startT_L0+3 
	MOVLW       2
	MOVWF       FARG_StartMotor_Mx+0 
	CLRF        FARG_StartMotor_Dir+0 
	CALL        _StartMotor+0, 0
	MOVLW       6
	ADDWF       _ms500+0, 0 
	MOVWF       FARG_AddTask_OccTime+0 
	MOVLW       0
	ADDWFC      _ms500+1, 0 
	MOVWF       FARG_AddTask_OccTime+1 
	MOVLW       0
	ADDWFC      _ms500+2, 0 
	MOVWF       FARG_AddTask_OccTime+2 
	MOVLW       0
	ADDWFC      _ms500+3, 0 
	MOVWF       FARG_AddTask_OccTime+3 
	MOVLW       21
	MOVWF       FARG_AddTask_tcode+0 
	CALL        _AddTask+0, 0
	INCF        _LearnPhase+0, 1 
;FirmV_0_7_0.c,2612 :: 		break;
	GOTO        L_LearnAuto672
;FirmV_0_7_0.c,2614 :: 		case 10: //Check if D2 reaches end of its course and save the stop time
L_LearnAuto703:
;FirmV_0_7_0.c,2615 :: 		if((Events.Overload.b1==1)&&(OverloadCheckFlag2==1)){OverloadCheckFlag2=0;StopMotor(2);LearnPhase=LearnPhase+1;stopT=ms500;RawData.D2CloseTime=(char)(stopT-startT);}
	BTFSS       _Events+5, 1 
	GOTO        L_LearnAuto706
	MOVF        _OverloadCheckFlag2+0, 0 
	XORLW       1
	BTFSS       STATUS+0, 2 
	GOTO        L_LearnAuto706
L__LearnAuto995:
	CLRF        _OverloadCheckFlag2+0 
	MOVLW       2
	MOVWF       FARG_StopMotor_Mx+0 
	CALL        _StopMotor+0, 0
	INCF        _LearnPhase+0, 1 
	MOVF        LearnAuto_startT_L0+0, 0 
	SUBWF       _ms500+0, 0 
	MOVWF       R0 
	MOVF        R0, 0 
	MOVWF       LearnAuto_RawData_L0+2 
L_LearnAuto706:
;FirmV_0_7_0.c,2616 :: 		if(CheckTask(21))OverloadCheckFlag2=1;
	MOVLW       21
	MOVWF       FARG_CheckTask_TaskCode+0 
	CALL        _CheckTask+0, 0
	MOVF        R0, 1 
	BTFSC       STATUS+0, 2 
	GOTO        L_LearnAuto707
	MOVLW       1
	MOVWF       _OverloadCheckFlag2+0 
L_LearnAuto707:
;FirmV_0_7_0.c,2617 :: 		break;
	GOTO        L_LearnAuto672
;FirmV_0_7_0.c,2619 :: 		case 11: //Start D1 for closing and save start time and enable overload sensing after 3s
L_LearnAuto708:
;FirmV_0_7_0.c,2620 :: 		startT=ms500;StartMotor(1,_Close);AddTask(ms500+6,20);LearnPhase=LearnPhase+1;
	MOVF        _ms500+0, 0 
	MOVWF       LearnAuto_startT_L0+0 
	MOVF        _ms500+1, 0 
	MOVWF       LearnAuto_startT_L0+1 
	MOVF        _ms500+2, 0 
	MOVWF       LearnAuto_startT_L0+2 
	MOVF        _ms500+3, 0 
	MOVWF       LearnAuto_startT_L0+3 
	MOVLW       1
	MOVWF       FARG_StartMotor_Mx+0 
	CLRF        FARG_StartMotor_Dir+0 
	CALL        _StartMotor+0, 0
	MOVLW       6
	ADDWF       _ms500+0, 0 
	MOVWF       FARG_AddTask_OccTime+0 
	MOVLW       0
	ADDWFC      _ms500+1, 0 
	MOVWF       FARG_AddTask_OccTime+1 
	MOVLW       0
	ADDWFC      _ms500+2, 0 
	MOVWF       FARG_AddTask_OccTime+2 
	MOVLW       0
	ADDWFC      _ms500+3, 0 
	MOVWF       FARG_AddTask_OccTime+3 
	MOVLW       20
	MOVWF       FARG_AddTask_tcode+0 
	CALL        _AddTask+0, 0
	INCF        _LearnPhase+0, 1 
;FirmV_0_7_0.c,2621 :: 		break;
	GOTO        L_LearnAuto672
;FirmV_0_7_0.c,2623 :: 		case 12: //Check if D1 reaches end of its course and save the stop time
L_LearnAuto709:
;FirmV_0_7_0.c,2624 :: 		if((Events.Overload.b0==1)&&(OverloadCheckFlag1==1)){OverloadCheckFlag1=0;StopMotor(1);LearnPhase=LearnPhase+1;stopT=ms500;RawData.D1CloseTime=(char)(stopT-startT);}
	BTFSS       _Events+5, 0 
	GOTO        L_LearnAuto712
	MOVF        _OverloadCheckFlag1+0, 0 
	XORLW       1
	BTFSS       STATUS+0, 2 
	GOTO        L_LearnAuto712
L__LearnAuto994:
	CLRF        _OverloadCheckFlag1+0 
	MOVLW       1
	MOVWF       FARG_StopMotor_Mx+0 
	CALL        _StopMotor+0, 0
	INCF        _LearnPhase+0, 1 
	MOVF        LearnAuto_startT_L0+0, 0 
	SUBWF       _ms500+0, 0 
	MOVWF       R0 
	MOVF        R0, 0 
	MOVWF       LearnAuto_RawData_L0+0 
L_LearnAuto712:
;FirmV_0_7_0.c,2625 :: 		if(CheckTask(20))OverloadCheckFlag1=1;
	MOVLW       20
	MOVWF       FARG_CheckTask_TaskCode+0 
	CALL        _CheckTask+0, 0
	MOVF        R0, 1 
	BTFSC       STATUS+0, 2 
	GOTO        L_LearnAuto713
	MOVLW       1
	MOVWF       _OverloadCheckFlag1+0 
L_LearnAuto713:
;FirmV_0_7_0.c,2626 :: 		break;
	GOTO        L_LearnAuto672
;FirmV_0_7_0.c,2628 :: 		case 13:
L_LearnAuto714:
;FirmV_0_7_0.c,2629 :: 		AutoLearnCalculator(&RawData);
	MOVLW       LearnAuto_RawData_L0+0
	MOVWF       FARG_AutoLearnCalculator+0 
	MOVLW       hi_addr(LearnAuto_RawData_L0+0)
	MOVWF       FARG_AutoLearnCalculator+1 
	CALL        _AutoLearnCalculator+0, 0
;FirmV_0_7_0.c,2630 :: 		SaveLearnData(&RawData,DoorNo);
	MOVLW       LearnAuto_RawData_L0+0
	MOVWF       FARG_SaveLearnData+0 
	MOVLW       hi_addr(LearnAuto_RawData_L0+0)
	MOVWF       FARG_SaveLearnData+1 
	MOVF        LearnAuto_DoorNo_L0+0, 0 
	MOVWF       FARG_SaveLearnData+0 
	CALL        _SaveLearnData+0, 0
;FirmV_0_7_0.c,2631 :: 		memcpy(LCDLine1," Learn Complete ",16);
	MOVLW       _LCDLine1+0
	MOVWF       FARG_memcpy_d1+0 
	MOVLW       hi_addr(_LCDLine1+0)
	MOVWF       FARG_memcpy_d1+1 
	MOVLW       ?lstr110_FirmV_0_7_0+0
	MOVWF       FARG_memcpy_s1+0 
	MOVLW       hi_addr(?lstr110_FirmV_0_7_0+0)
	MOVWF       FARG_memcpy_s1+1 
	MOVLW       16
	MOVWF       FARG_memcpy_n+0 
	MOVLW       0
	MOVWF       FARG_memcpy_n+1 
	CALL        _memcpy+0, 0
;FirmV_0_7_0.c,2632 :: 		memcpy(LCDLine2,"     Ready      ",16);
	MOVLW       _LCDLine2+0
	MOVWF       FARG_memcpy_d1+0 
	MOVLW       hi_addr(_LCDLine2+0)
	MOVWF       FARG_memcpy_d1+1 
	MOVLW       ?lstr111_FirmV_0_7_0+0
	MOVWF       FARG_memcpy_s1+0 
	MOVLW       hi_addr(?lstr111_FirmV_0_7_0+0)
	MOVWF       FARG_memcpy_s1+1 
	MOVLW       16
	MOVWF       FARG_memcpy_n+0 
	MOVLW       0
	MOVWF       FARG_memcpy_n+1 
	CALL        _memcpy+0, 0
;FirmV_0_7_0.c,2633 :: 		LCDLines=2;
	MOVLW       2
	MOVWF       _LCDLines+0 
;FirmV_0_7_0.c,2634 :: 		LCDUpdateFlag=1;
	MOVLW       1
	MOVWF       _LCDUpdateFlag+0 
;FirmV_0_7_0.c,2635 :: 		Flasher=0;
	BCF         PORTD+0, 7 
;FirmV_0_7_0.c,2637 :: 		State=0;
	CLRF        _State+0 
;FirmV_0_7_0.c,2638 :: 		break;
	GOTO        L_LearnAuto672
;FirmV_0_7_0.c,2641 :: 		}
L_LearnAuto671:
	MOVF        _LearnPhase+0, 0 
	XORLW       0
	BTFSC       STATUS+0, 2 
	GOTO        L_LearnAuto673
	MOVF        _LearnPhase+0, 0 
	XORLW       1
	BTFSC       STATUS+0, 2 
	GOTO        L_LearnAuto676
	MOVF        _LearnPhase+0, 0 
	XORLW       2
	BTFSC       STATUS+0, 2 
	GOTO        L_LearnAuto677
	MOVF        _LearnPhase+0, 0 
	XORLW       3
	BTFSC       STATUS+0, 2 
	GOTO        L_LearnAuto682
	MOVF        _LearnPhase+0, 0 
	XORLW       4
	BTFSC       STATUS+0, 2 
	GOTO        L_LearnAuto683
	MOVF        _LearnPhase+0, 0 
	XORLW       5
	BTFSC       STATUS+0, 2 
	GOTO        L_LearnAuto688
	MOVF        _LearnPhase+0, 0 
	XORLW       6
	BTFSC       STATUS+0, 2 
	GOTO        L_LearnAuto689
	MOVF        _LearnPhase+0, 0 
	XORLW       7
	BTFSC       STATUS+0, 2 
	GOTO        L_LearnAuto696
	MOVF        _LearnPhase+0, 0 
	XORLW       8
	BTFSC       STATUS+0, 2 
	GOTO        L_LearnAuto697
	MOVF        _LearnPhase+0, 0 
	XORLW       9
	BTFSC       STATUS+0, 2 
	GOTO        L_LearnAuto702
	MOVF        _LearnPhase+0, 0 
	XORLW       10
	BTFSC       STATUS+0, 2 
	GOTO        L_LearnAuto703
	MOVF        _LearnPhase+0, 0 
	XORLW       11
	BTFSC       STATUS+0, 2 
	GOTO        L_LearnAuto708
	MOVF        _LearnPhase+0, 0 
	XORLW       12
	BTFSC       STATUS+0, 2 
	GOTO        L_LearnAuto709
	MOVF        _LearnPhase+0, 0 
	XORLW       13
	BTFSC       STATUS+0, 2 
	GOTO        L_LearnAuto714
L_LearnAuto672:
;FirmV_0_7_0.c,2645 :: 		}
L_end_LearnAuto:
	RETURN      0
; end of _LearnAuto

_AutoLearnCalculator:

;FirmV_0_7_0.c,2665 :: 		void AutoLearnCalculator(Learn *raw)
;FirmV_0_7_0.c,2668 :: 		(*raw).D1OpenTime=(*raw).D1OpenTime+10;
	MOVLW       1
	ADDWF       FARG_AutoLearnCalculator_raw+0, 0 
	MOVWF       R1 
	MOVLW       0
	ADDWFC      FARG_AutoLearnCalculator_raw+1, 0 
	MOVWF       R2 
	MOVFF       R1, FSR0
	MOVFF       R2, FSR0H
	MOVLW       10
	ADDWF       POSTINC0+0, 0 
	MOVWF       R0 
	MOVFF       R1, FSR1
	MOVFF       R2, FSR1H
	MOVF        R0, 0 
	MOVWF       POSTINC1+0 
;FirmV_0_7_0.c,2669 :: 		(*raw).D2OpenTime=(*raw).D2OpenTime+10;
	MOVLW       3
	ADDWF       FARG_AutoLearnCalculator_raw+0, 0 
	MOVWF       R1 
	MOVLW       0
	ADDWFC      FARG_AutoLearnCalculator_raw+1, 0 
	MOVWF       R2 
	MOVFF       R1, FSR0
	MOVFF       R2, FSR0H
	MOVLW       10
	ADDWF       POSTINC0+0, 0 
	MOVWF       R0 
	MOVFF       R1, FSR1
	MOVFF       R2, FSR1H
	MOVF        R0, 0 
	MOVWF       POSTINC1+0 
;FirmV_0_7_0.c,2670 :: 		(*raw).D1CloseTime=(*raw).D1CloseTime+10;
	MOVFF       FARG_AutoLearnCalculator_raw+0, FSR0
	MOVFF       FARG_AutoLearnCalculator_raw+1, FSR0H
	MOVF        POSTINC0+0, 0 
	MOVWF       R0 
	MOVFF       FARG_AutoLearnCalculator_raw+0, FSR1
	MOVFF       FARG_AutoLearnCalculator_raw+1, FSR1H
	MOVLW       10
	ADDWF       R0, 0 
	MOVWF       POSTINC1+0 
;FirmV_0_7_0.c,2671 :: 		(*raw).D2CloseTime=(*raw).D2CloseTime+10;
	MOVLW       2
	ADDWF       FARG_AutoLearnCalculator_raw+0, 0 
	MOVWF       R1 
	MOVLW       0
	ADDWFC      FARG_AutoLearnCalculator_raw+1, 0 
	MOVWF       R2 
	MOVFF       R1, FSR0
	MOVFF       R2, FSR0H
	MOVLW       10
	ADDWF       POSTINC0+0, 0 
	MOVWF       R0 
	MOVFF       R1, FSR1
	MOVFF       R2, FSR1H
	MOVF        R0, 0 
	MOVWF       POSTINC1+0 
;FirmV_0_7_0.c,2673 :: 		(*raw).D1OpenSoftStart=4;
	MOVLW       4
	ADDWF       FARG_AutoLearnCalculator_raw+0, 0 
	MOVWF       FSR1 
	MOVLW       0
	ADDWFC      FARG_AutoLearnCalculator_raw+1, 0 
	MOVWF       FSR1H 
	MOVLW       4
	MOVWF       POSTINC1+0 
;FirmV_0_7_0.c,2674 :: 		(*raw).D1CloseSoftStart=4;
	MOVLW       6
	ADDWF       FARG_AutoLearnCalculator_raw+0, 0 
	MOVWF       FSR1 
	MOVLW       0
	ADDWFC      FARG_AutoLearnCalculator_raw+1, 0 
	MOVWF       FSR1H 
	MOVLW       4
	MOVWF       POSTINC1+0 
;FirmV_0_7_0.c,2675 :: 		(*raw).D2OpenSoftStart=4;
	MOVLW       8
	ADDWF       FARG_AutoLearnCalculator_raw+0, 0 
	MOVWF       FSR1 
	MOVLW       0
	ADDWFC      FARG_AutoLearnCalculator_raw+1, 0 
	MOVWF       FSR1H 
	MOVLW       4
	MOVWF       POSTINC1+0 
;FirmV_0_7_0.c,2676 :: 		(*raw).D2CloseSoftStart=4;
	MOVLW       10
	ADDWF       FARG_AutoLearnCalculator_raw+0, 0 
	MOVWF       FSR1 
	MOVLW       0
	ADDWFC      FARG_AutoLearnCalculator_raw+1, 0 
	MOVWF       FSR1H 
	MOVLW       4
	MOVWF       POSTINC1+0 
;FirmV_0_7_0.c,2678 :: 		(*raw).D1OpenSoftStop=10;
	MOVLW       5
	ADDWF       FARG_AutoLearnCalculator_raw+0, 0 
	MOVWF       FSR1 
	MOVLW       0
	ADDWFC      FARG_AutoLearnCalculator_raw+1, 0 
	MOVWF       FSR1H 
	MOVLW       10
	MOVWF       POSTINC1+0 
;FirmV_0_7_0.c,2679 :: 		(*raw).D2OpenSoftStop=10;
	MOVLW       9
	ADDWF       FARG_AutoLearnCalculator_raw+0, 0 
	MOVWF       FSR1 
	MOVLW       0
	ADDWFC      FARG_AutoLearnCalculator_raw+1, 0 
	MOVWF       FSR1H 
	MOVLW       10
	MOVWF       POSTINC1+0 
;FirmV_0_7_0.c,2680 :: 		(*raw).D1CloseSoftStop=10;
	MOVLW       7
	ADDWF       FARG_AutoLearnCalculator_raw+0, 0 
	MOVWF       FSR1 
	MOVLW       0
	ADDWFC      FARG_AutoLearnCalculator_raw+1, 0 
	MOVWF       FSR1H 
	MOVLW       10
	MOVWF       POSTINC1+0 
;FirmV_0_7_0.c,2681 :: 		(*raw).D2CloseSoftStop=10;
	MOVLW       11
	ADDWF       FARG_AutoLearnCalculator_raw+0, 0 
	MOVWF       FSR1 
	MOVLW       0
	ADDWFC      FARG_AutoLearnCalculator_raw+1, 0 
	MOVWF       FSR1H 
	MOVLW       10
	MOVWF       POSTINC1+0 
;FirmV_0_7_0.c,2683 :: 		}
L_end_AutoLearnCalculator:
	RETURN      0
; end of _AutoLearnCalculator

_SaveLearnData:

;FirmV_0_7_0.c,2695 :: 		void SaveLearnData(Learn *d,char DCount)
;FirmV_0_7_0.c,2697 :: 		Door1OpenTime=(*d).D1OpenTime;
	MOVLW       1
	ADDWF       FARG_SaveLearnData_d+0, 0 
	MOVWF       FSR0 
	MOVLW       0
	ADDWFC      FARG_SaveLearnData_d+1, 0 
	MOVWF       FSR0H 
	MOVF        POSTINC0+0, 0 
	MOVWF       _Door1OpenTime+0 
;FirmV_0_7_0.c,2698 :: 		Door1CloseTime=(*d).D1CloseTime;
	MOVFF       FARG_SaveLearnData_d+0, FSR0
	MOVFF       FARG_SaveLearnData_d+1, FSR0H
	MOVF        POSTINC0+0, 0 
	MOVWF       _Door1CloseTime+0 
;FirmV_0_7_0.c,2699 :: 		if(DCount==2)
	MOVF        FARG_SaveLearnData_DCount+0, 0 
	XORLW       2
	BTFSS       STATUS+0, 2 
	GOTO        L_SaveLearnData715
;FirmV_0_7_0.c,2701 :: 		Door2OpenTime=(*d).D2OpenTime;
	MOVLW       3
	ADDWF       FARG_SaveLearnData_d+0, 0 
	MOVWF       FSR0 
	MOVLW       0
	ADDWFC      FARG_SaveLearnData_d+1, 0 
	MOVWF       FSR0H 
	MOVF        POSTINC0+0, 0 
	MOVWF       _Door2OpenTime+0 
;FirmV_0_7_0.c,2702 :: 		Door2CloseTime=(*d).D2CloseTime;
	MOVLW       2
	ADDWF       FARG_SaveLearnData_d+0, 0 
	MOVWF       FSR0 
	MOVLW       0
	ADDWFC      FARG_SaveLearnData_d+1, 0 
	MOVWF       FSR0H 
	MOVF        POSTINC0+0, 0 
	MOVWF       _Door2CloseTime+0 
;FirmV_0_7_0.c,2703 :: 		OpenSoftStartTime=((*d).D1OpenSoftStart+(*d).D2OpenSoftStart)/2;
	MOVLW       4
	ADDWF       FARG_SaveLearnData_d+0, 0 
	MOVWF       FSR0 
	MOVLW       0
	ADDWFC      FARG_SaveLearnData_d+1, 0 
	MOVWF       FSR0H 
	MOVLW       8
	ADDWF       FARG_SaveLearnData_d+0, 0 
	MOVWF       FSR2 
	MOVLW       0
	ADDWFC      FARG_SaveLearnData_d+1, 0 
	MOVWF       FSR2H 
	MOVF        POSTINC2+0, 0 
	ADDWF       POSTINC0+0, 0 
	MOVWF       R3 
	CLRF        R4 
	MOVLW       0
	ADDWFC      R4, 1 
	MOVF        R3, 0 
	MOVWF       R0 
	MOVF        R4, 0 
	MOVWF       R1 
	RRCF        R1, 1 
	RRCF        R0, 1 
	BCF         R1, 7 
	BTFSC       R1, 6 
	BSF         R1, 7 
	MOVF        R0, 0 
	MOVWF       _OpenSoftStartTime+0 
;FirmV_0_7_0.c,2704 :: 		OpenSoftStopTime=((*d).D1OpenSoftStop+(*d).D2OpenSoftStop)/2;
	MOVLW       5
	ADDWF       FARG_SaveLearnData_d+0, 0 
	MOVWF       FSR0 
	MOVLW       0
	ADDWFC      FARG_SaveLearnData_d+1, 0 
	MOVWF       FSR0H 
	MOVLW       9
	ADDWF       FARG_SaveLearnData_d+0, 0 
	MOVWF       FSR2 
	MOVLW       0
	ADDWFC      FARG_SaveLearnData_d+1, 0 
	MOVWF       FSR2H 
	MOVF        POSTINC2+0, 0 
	ADDWF       POSTINC0+0, 0 
	MOVWF       R3 
	CLRF        R4 
	MOVLW       0
	ADDWFC      R4, 1 
	MOVF        R3, 0 
	MOVWF       R0 
	MOVF        R4, 0 
	MOVWF       R1 
	RRCF        R1, 1 
	RRCF        R0, 1 
	BCF         R1, 7 
	BTFSC       R1, 6 
	BSF         R1, 7 
	MOVF        R0, 0 
	MOVWF       _OpenSoftStopTime+0 
;FirmV_0_7_0.c,2705 :: 		CloseSoftStartTime=((*d).D1CloseSoftStart+(*d).D2CloseSoftStart)/2;
	MOVLW       6
	ADDWF       FARG_SaveLearnData_d+0, 0 
	MOVWF       FSR0 
	MOVLW       0
	ADDWFC      FARG_SaveLearnData_d+1, 0 
	MOVWF       FSR0H 
	MOVLW       10
	ADDWF       FARG_SaveLearnData_d+0, 0 
	MOVWF       FSR2 
	MOVLW       0
	ADDWFC      FARG_SaveLearnData_d+1, 0 
	MOVWF       FSR2H 
	MOVF        POSTINC2+0, 0 
	ADDWF       POSTINC0+0, 0 
	MOVWF       R3 
	CLRF        R4 
	MOVLW       0
	ADDWFC      R4, 1 
	MOVF        R3, 0 
	MOVWF       R0 
	MOVF        R4, 0 
	MOVWF       R1 
	RRCF        R1, 1 
	RRCF        R0, 1 
	BCF         R1, 7 
	BTFSC       R1, 6 
	BSF         R1, 7 
	MOVF        R0, 0 
	MOVWF       _CloseSoftStartTime+0 
;FirmV_0_7_0.c,2706 :: 		CloseSoftStopTime=((*d).D1CloseSoftStop+(*d).D2CloseSoftStop)/2;
	MOVLW       7
	ADDWF       FARG_SaveLearnData_d+0, 0 
	MOVWF       FSR0 
	MOVLW       0
	ADDWFC      FARG_SaveLearnData_d+1, 0 
	MOVWF       FSR0H 
	MOVLW       11
	ADDWF       FARG_SaveLearnData_d+0, 0 
	MOVWF       FSR2 
	MOVLW       0
	ADDWFC      FARG_SaveLearnData_d+1, 0 
	MOVWF       FSR2H 
	MOVF        POSTINC2+0, 0 
	ADDWF       POSTINC0+0, 0 
	MOVWF       R3 
	CLRF        R4 
	MOVLW       0
	ADDWFC      R4, 1 
	MOVF        R3, 0 
	MOVWF       R0 
	MOVF        R4, 0 
	MOVWF       R1 
	RRCF        R1, 1 
	RRCF        R0, 1 
	BCF         R1, 7 
	BTFSC       R1, 6 
	BSF         R1, 7 
	MOVF        R0, 0 
	MOVWF       _CloseSoftStopTime+0 
;FirmV_0_7_0.c,2707 :: 		}
	GOTO        L_SaveLearnData716
L_SaveLearnData715:
;FirmV_0_7_0.c,2710 :: 		Door2OpenTime=0;
	CLRF        _Door2OpenTime+0 
;FirmV_0_7_0.c,2711 :: 		Door2CloseTime=0;
	CLRF        _Door2CloseTime+0 
;FirmV_0_7_0.c,2712 :: 		OpenSoftStartTime=(*d).D1OpenSoftStart;
	MOVLW       4
	ADDWF       FARG_SaveLearnData_d+0, 0 
	MOVWF       FSR0 
	MOVLW       0
	ADDWFC      FARG_SaveLearnData_d+1, 0 
	MOVWF       FSR0H 
	MOVF        POSTINC0+0, 0 
	MOVWF       _OpenSoftStartTime+0 
;FirmV_0_7_0.c,2713 :: 		OpenSoftStopTime=(*d).D1OpenSoftStop;
	MOVLW       5
	ADDWF       FARG_SaveLearnData_d+0, 0 
	MOVWF       FSR0 
	MOVLW       0
	ADDWFC      FARG_SaveLearnData_d+1, 0 
	MOVWF       FSR0H 
	MOVF        POSTINC0+0, 0 
	MOVWF       _OpenSoftStopTime+0 
;FirmV_0_7_0.c,2714 :: 		CloseSoftStartTime=(*d).D1CloseSoftStart;
	MOVLW       6
	ADDWF       FARG_SaveLearnData_d+0, 0 
	MOVWF       FSR0 
	MOVLW       0
	ADDWFC      FARG_SaveLearnData_d+1, 0 
	MOVWF       FSR0H 
	MOVF        POSTINC0+0, 0 
	MOVWF       _CloseSoftStartTime+0 
;FirmV_0_7_0.c,2715 :: 		CloseSoftStopTime=(*d).D1CloseSoftStop;
	MOVLW       7
	ADDWF       FARG_SaveLearnData_d+0, 0 
	MOVWF       FSR0 
	MOVLW       0
	ADDWFC      FARG_SaveLearnData_d+1, 0 
	MOVWF       FSR0H 
	MOVF        POSTINC0+0, 0 
	MOVWF       _CloseSoftStopTime+0 
;FirmV_0_7_0.c,2716 :: 		}
L_SaveLearnData716:
;FirmV_0_7_0.c,2718 :: 		SaveConfigs();
	CALL        _SaveConfigs+0, 0
;FirmV_0_7_0.c,2719 :: 		}
L_end_SaveLearnData:
	RETURN      0
; end of _SaveLearnData

_LearnManual:

;FirmV_0_7_0.c,2734 :: 		void LearnManual()
;FirmV_0_7_0.c,2742 :: 		switch(LearnPhase)
	GOTO        L_LearnManual717
;FirmV_0_7_0.c,2744 :: 		case 0:
L_LearnManual719:
;FirmV_0_7_0.c,2745 :: 		Flasher=1;
	BSF         PORTD+0, 7 
;FirmV_0_7_0.c,2747 :: 		if(Events.Remote.b0==1){LearnPhase=LearnPhase+1; DoorNo=2;BuzzFlag=1;}if(Events.Remote.b1==1){LearnPhase=3; DoorNo=1;BuzzFlag=1;}
	BTFSS       _Events+4, 0 
	GOTO        L_LearnManual720
	INCF        _LearnPhase+0, 1 
	MOVLW       2
	MOVWF       LearnManual_DoorNo_L0+0 
	MOVLW       1
	MOVWF       _BuzzFlag+0 
L_LearnManual720:
	BTFSS       _Events+4, 1 
	GOTO        L_LearnManual721
	MOVLW       3
	MOVWF       _LearnPhase+0 
	MOVLW       1
	MOVWF       LearnManual_DoorNo_L0+0 
	MOVLW       1
	MOVWF       _BuzzFlag+0 
L_LearnManual721:
;FirmV_0_7_0.c,2748 :: 		break;
	GOTO        L_LearnManual718
;FirmV_0_7_0.c,2750 :: 		case 1: //Start D2 and enable overload sensing after 1s
L_LearnManual722:
;FirmV_0_7_0.c,2751 :: 		StartMotor(2,_Close);AddTask(ms500+4,21);LearnPhase=LearnPhase+1;OverloadCheckFlag2=0;
	MOVLW       2
	MOVWF       FARG_StartMotor_Mx+0 
	CLRF        FARG_StartMotor_Dir+0 
	CALL        _StartMotor+0, 0
	MOVLW       4
	ADDWF       _ms500+0, 0 
	MOVWF       FARG_AddTask_OccTime+0 
	MOVLW       0
	ADDWFC      _ms500+1, 0 
	MOVWF       FARG_AddTask_OccTime+1 
	MOVLW       0
	ADDWFC      _ms500+2, 0 
	MOVWF       FARG_AddTask_OccTime+2 
	MOVLW       0
	ADDWFC      _ms500+3, 0 
	MOVWF       FARG_AddTask_OccTime+3 
	MOVLW       21
	MOVWF       FARG_AddTask_tcode+0 
	CALL        _AddTask+0, 0
	INCF        _LearnPhase+0, 1 
	CLRF        _OverloadCheckFlag2+0 
;FirmV_0_7_0.c,2752 :: 		break;
	GOTO        L_LearnManual718
;FirmV_0_7_0.c,2754 :: 		case 2: //Check if D2 reaches end of its course
L_LearnManual723:
;FirmV_0_7_0.c,2755 :: 		if((Events.Overload.b1==1)&&(OverloadCheckFlag2==1)){OverloadCheckFlag2=0;StopMotor(2);LearnPhase=LearnPhase+1;}
	BTFSS       _Events+5, 1 
	GOTO        L_LearnManual726
	MOVF        _OverloadCheckFlag2+0, 0 
	XORLW       1
	BTFSS       STATUS+0, 2 
	GOTO        L_LearnManual726
L__LearnManual1001:
	CLRF        _OverloadCheckFlag2+0 
	MOVLW       2
	MOVWF       FARG_StopMotor_Mx+0 
	CALL        _StopMotor+0, 0
	INCF        _LearnPhase+0, 1 
L_LearnManual726:
;FirmV_0_7_0.c,2756 :: 		if(CheckTask(21))OverloadCheckFlag2=1;
	MOVLW       21
	MOVWF       FARG_CheckTask_TaskCode+0 
	CALL        _CheckTask+0, 0
	MOVF        R0, 1 
	BTFSC       STATUS+0, 2 
	GOTO        L_LearnManual727
	MOVLW       1
	MOVWF       _OverloadCheckFlag2+0 
L_LearnManual727:
;FirmV_0_7_0.c,2757 :: 		break;
	GOTO        L_LearnManual718
;FirmV_0_7_0.c,2759 :: 		case 3: //Start D1 and enable overload sensin after 1 s
L_LearnManual728:
;FirmV_0_7_0.c,2760 :: 		StartMotor(1,_Close);AddTask(ms500+4,20);LearnPhase=LearnPhase+1;;OverloadCheckFlag1=0;
	MOVLW       1
	MOVWF       FARG_StartMotor_Mx+0 
	CLRF        FARG_StartMotor_Dir+0 
	CALL        _StartMotor+0, 0
	MOVLW       4
	ADDWF       _ms500+0, 0 
	MOVWF       FARG_AddTask_OccTime+0 
	MOVLW       0
	ADDWFC      _ms500+1, 0 
	MOVWF       FARG_AddTask_OccTime+1 
	MOVLW       0
	ADDWFC      _ms500+2, 0 
	MOVWF       FARG_AddTask_OccTime+2 
	MOVLW       0
	ADDWFC      _ms500+3, 0 
	MOVWF       FARG_AddTask_OccTime+3 
	MOVLW       20
	MOVWF       FARG_AddTask_tcode+0 
	CALL        _AddTask+0, 0
	INCF        _LearnPhase+0, 1 
	CLRF        _OverloadCheckFlag1+0 
;FirmV_0_7_0.c,2762 :: 		case 4: //Check if D1 reaches end of its course
L_LearnManual729:
;FirmV_0_7_0.c,2763 :: 		if((Events.Overload.b0==1)&&(OverloadCheckFlag1==1)){OverloadCheckFlag1=0;StopMotor(1);LearnPhase=LearnPhase+1;}
	BTFSS       _Events+5, 0 
	GOTO        L_LearnManual732
	MOVF        _OverloadCheckFlag1+0, 0 
	XORLW       1
	BTFSS       STATUS+0, 2 
	GOTO        L_LearnManual732
L__LearnManual1000:
	CLRF        _OverloadCheckFlag1+0 
	MOVLW       1
	MOVWF       FARG_StopMotor_Mx+0 
	CALL        _StopMotor+0, 0
	INCF        _LearnPhase+0, 1 
L_LearnManual732:
;FirmV_0_7_0.c,2764 :: 		if(CheckTask(20))OverloadCheckFlag1=1;
	MOVLW       20
	MOVWF       FARG_CheckTask_TaskCode+0 
	CALL        _CheckTask+0, 0
	MOVF        R0, 1 
	BTFSC       STATUS+0, 2 
	GOTO        L_LearnManual733
	MOVLW       1
	MOVWF       _OverloadCheckFlag1+0 
L_LearnManual733:
;FirmV_0_7_0.c,2765 :: 		break;
	GOTO        L_LearnManual718
;FirmV_0_7_0.c,2767 :: 		case 5: //Wait for remote to start D1 and slow down
L_LearnManual734:
;FirmV_0_7_0.c,2768 :: 		if(Events.Remote!=0){t1=ms500;StartMotor(1,_Open);SetMotorSpeed(0,Motor2FullSpeed);M1isSlow=1;LearnPhase=LearnPhase+1;}
	MOVF        _Events+4, 0 
	XORLW       0
	BTFSC       STATUS+0, 2 
	GOTO        L_LearnManual735
	MOVF        _ms500+0, 0 
	MOVWF       LearnManual_t1_L0+0 
	MOVF        _ms500+1, 0 
	MOVWF       LearnManual_t1_L0+1 
	MOVF        _ms500+2, 0 
	MOVWF       LearnManual_t1_L0+2 
	MOVF        _ms500+3, 0 
	MOVWF       LearnManual_t1_L0+3 
	MOVLW       1
	MOVWF       FARG_StartMotor_Mx+0 
	MOVLW       1
	MOVWF       FARG_StartMotor_Dir+0 
	CALL        _StartMotor+0, 0
	CLRF        FARG_SetMotorSpeed_M1FullSpeed+0 
	MOVF        _Motor2FullSpeed+0, 0 
	MOVWF       FARG_SetMotorSpeed_M2FullSpeed+0 
	CALL        _SetMotorSpeed+0, 0
	MOVLW       1
	MOVWF       _M1isSlow+0 
	INCF        _LearnPhase+0, 1 
L_LearnManual735:
;FirmV_0_7_0.c,2769 :: 		break;
	GOTO        L_LearnManual718
;FirmV_0_7_0.c,2771 :: 		case 6: //check for Remote press and fast up
L_LearnManual736:
;FirmV_0_7_0.c,2772 :: 		if(Events.Remote!=0){LearnPhase=LearnPhase+1;t2=ms500;SetMotorSpeed(1,Motor2FullSpeed);M1isSlow=0;}
	MOVF        _Events+4, 0 
	XORLW       0
	BTFSC       STATUS+0, 2 
	GOTO        L_LearnManual737
	INCF        _LearnPhase+0, 1 
	MOVF        _ms500+0, 0 
	MOVWF       LearnManual_t2_L0+0 
	MOVF        _ms500+1, 0 
	MOVWF       LearnManual_t2_L0+1 
	MOVF        _ms500+2, 0 
	MOVWF       LearnManual_t2_L0+2 
	MOVF        _ms500+3, 0 
	MOVWF       LearnManual_t2_L0+3 
	MOVLW       1
	MOVWF       FARG_SetMotorSpeed_M1FullSpeed+0 
	MOVF        _Motor2FullSpeed+0, 0 
	MOVWF       FARG_SetMotorSpeed_M2FullSpeed+0 
	CALL        _SetMotorSpeed+0, 0
	CLRF        _M1isSlow+0 
L_LearnManual737:
;FirmV_0_7_0.c,2773 :: 		break;
	GOTO        L_LearnManual718
;FirmV_0_7_0.c,2775 :: 		case 7: //check for Remote press and slow down
L_LearnManual738:
;FirmV_0_7_0.c,2776 :: 		if(Events.Remote!=0){LearnPhase=LearnPhase+1;t3=ms500;SetMotorSpeed(0,Motor2FullSpeed);M1isSlow=1;}
	MOVF        _Events+4, 0 
	XORLW       0
	BTFSC       STATUS+0, 2 
	GOTO        L_LearnManual739
	INCF        _LearnPhase+0, 1 
	MOVF        _ms500+0, 0 
	MOVWF       LearnManual_t3_L0+0 
	MOVF        _ms500+1, 0 
	MOVWF       LearnManual_t3_L0+1 
	MOVF        _ms500+2, 0 
	MOVWF       LearnManual_t3_L0+2 
	MOVF        _ms500+3, 0 
	MOVWF       LearnManual_t3_L0+3 
	CLRF        FARG_SetMotorSpeed_M1FullSpeed+0 
	MOVF        _Motor2FullSpeed+0, 0 
	MOVWF       FARG_SetMotorSpeed_M2FullSpeed+0 
	CALL        _SetMotorSpeed+0, 0
	MOVLW       1
	MOVWF       _M1isSlow+0 
L_LearnManual739:
;FirmV_0_7_0.c,2777 :: 		break;
	GOTO        L_LearnManual718
;FirmV_0_7_0.c,2779 :: 		case 8: //check for Remote press and stop
L_LearnManual740:
;FirmV_0_7_0.c,2780 :: 		if(Events.Remote!=0){if(DoorNo==2)LearnPhase=LearnPhase+1;else LearnPhase=17;t4=ms500;StopMotor(1);
	MOVF        _Events+4, 0 
	XORLW       0
	BTFSC       STATUS+0, 2 
	GOTO        L_LearnManual741
	MOVF        LearnManual_DoorNo_L0+0, 0 
	XORLW       2
	BTFSS       STATUS+0, 2 
	GOTO        L_LearnManual742
	INCF        _LearnPhase+0, 1 
	GOTO        L_LearnManual743
L_LearnManual742:
	MOVLW       17
	MOVWF       _LearnPhase+0 
L_LearnManual743:
	MOVF        _ms500+0, 0 
	MOVWF       LearnManual_t4_L0+0 
	MOVF        _ms500+1, 0 
	MOVWF       LearnManual_t4_L0+1 
	MOVF        _ms500+2, 0 
	MOVWF       LearnManual_t4_L0+2 
	MOVF        _ms500+3, 0 
	MOVWF       LearnManual_t4_L0+3 
	MOVLW       1
	MOVWF       FARG_StopMotor_Mx+0 
	CALL        _StopMotor+0, 0
;FirmV_0_7_0.c,2781 :: 		RawData.D1OpenTime=(char)(t4-t1);
	MOVF        LearnManual_t1_L0+0, 0 
	SUBWF       LearnManual_t4_L0+0, 0 
	MOVWF       R0 
	MOVF        R0, 0 
	MOVWF       LearnManual_RawData_L0+1 
;FirmV_0_7_0.c,2782 :: 		RawData.D1OpenSoftStart=(char)(t2-t1);
	MOVF        LearnManual_t1_L0+0, 0 
	SUBWF       LearnManual_t2_L0+0, 0 
	MOVWF       R0 
	MOVF        R0, 0 
	MOVWF       LearnManual_RawData_L0+4 
;FirmV_0_7_0.c,2783 :: 		RawData.D1OpenSoftStop=(char)(t4-t3);
	MOVF        LearnManual_t3_L0+0, 0 
	SUBWF       LearnManual_t4_L0+0, 0 
	MOVWF       R0 
	MOVF        R0, 0 
	MOVWF       LearnManual_RawData_L0+5 
;FirmV_0_7_0.c,2784 :: 		}
L_LearnManual741:
;FirmV_0_7_0.c,2785 :: 		break;
	GOTO        L_LearnManual718
;FirmV_0_7_0.c,2787 :: 		case 9: //Wait for remote to start D2 and slow down
L_LearnManual744:
;FirmV_0_7_0.c,2788 :: 		if(Events.Remote!=0){t1=ms500;StartMotor(2,_Open);SetMotorSpeed(Motor1FullSpeed,0);M2isSlow=1;LearnPhase=LearnPhase+1;}
	MOVF        _Events+4, 0 
	XORLW       0
	BTFSC       STATUS+0, 2 
	GOTO        L_LearnManual745
	MOVF        _ms500+0, 0 
	MOVWF       LearnManual_t1_L0+0 
	MOVF        _ms500+1, 0 
	MOVWF       LearnManual_t1_L0+1 
	MOVF        _ms500+2, 0 
	MOVWF       LearnManual_t1_L0+2 
	MOVF        _ms500+3, 0 
	MOVWF       LearnManual_t1_L0+3 
	MOVLW       2
	MOVWF       FARG_StartMotor_Mx+0 
	MOVLW       1
	MOVWF       FARG_StartMotor_Dir+0 
	CALL        _StartMotor+0, 0
	MOVF        _Motor1FullSpeed+0, 0 
	MOVWF       FARG_SetMotorSpeed_M1FullSpeed+0 
	CLRF        FARG_SetMotorSpeed_M2FullSpeed+0 
	CALL        _SetMotorSpeed+0, 0
	MOVLW       1
	MOVWF       _M2isSlow+0 
	INCF        _LearnPhase+0, 1 
L_LearnManual745:
;FirmV_0_7_0.c,2789 :: 		break;
	GOTO        L_LearnManual718
;FirmV_0_7_0.c,2791 :: 		case 10: //check for Remote press and fast up
L_LearnManual746:
;FirmV_0_7_0.c,2792 :: 		if(Events.Remote!=0){LearnPhase=LearnPhase+1;t2=ms500;SetMotorSpeed(Motor1FullSpeed,1);M2isSlow=0;}
	MOVF        _Events+4, 0 
	XORLW       0
	BTFSC       STATUS+0, 2 
	GOTO        L_LearnManual747
	INCF        _LearnPhase+0, 1 
	MOVF        _ms500+0, 0 
	MOVWF       LearnManual_t2_L0+0 
	MOVF        _ms500+1, 0 
	MOVWF       LearnManual_t2_L0+1 
	MOVF        _ms500+2, 0 
	MOVWF       LearnManual_t2_L0+2 
	MOVF        _ms500+3, 0 
	MOVWF       LearnManual_t2_L0+3 
	MOVF        _Motor1FullSpeed+0, 0 
	MOVWF       FARG_SetMotorSpeed_M1FullSpeed+0 
	MOVLW       1
	MOVWF       FARG_SetMotorSpeed_M2FullSpeed+0 
	CALL        _SetMotorSpeed+0, 0
	CLRF        _M2isSlow+0 
L_LearnManual747:
;FirmV_0_7_0.c,2793 :: 		break;
	GOTO        L_LearnManual718
;FirmV_0_7_0.c,2795 :: 		case 11: //check for Remote press and slow down
L_LearnManual748:
;FirmV_0_7_0.c,2796 :: 		if(Events.Remote!=0){LearnPhase=LearnPhase+1;t3=ms500;SetMotorSpeed(Motor1FullSpeed,0);M2isSlow=1;}
	MOVF        _Events+4, 0 
	XORLW       0
	BTFSC       STATUS+0, 2 
	GOTO        L_LearnManual749
	INCF        _LearnPhase+0, 1 
	MOVF        _ms500+0, 0 
	MOVWF       LearnManual_t3_L0+0 
	MOVF        _ms500+1, 0 
	MOVWF       LearnManual_t3_L0+1 
	MOVF        _ms500+2, 0 
	MOVWF       LearnManual_t3_L0+2 
	MOVF        _ms500+3, 0 
	MOVWF       LearnManual_t3_L0+3 
	MOVF        _Motor1FullSpeed+0, 0 
	MOVWF       FARG_SetMotorSpeed_M1FullSpeed+0 
	CLRF        FARG_SetMotorSpeed_M2FullSpeed+0 
	CALL        _SetMotorSpeed+0, 0
	MOVLW       1
	MOVWF       _M2isSlow+0 
L_LearnManual749:
;FirmV_0_7_0.c,2797 :: 		break;
	GOTO        L_LearnManual718
;FirmV_0_7_0.c,2799 :: 		case 12: //check for Remote press and stop
L_LearnManual750:
;FirmV_0_7_0.c,2800 :: 		if(Events.Remote!=0){LearnPhase=LearnPhase+1;t4=ms500;StopMotor(2);
	MOVF        _Events+4, 0 
	XORLW       0
	BTFSC       STATUS+0, 2 
	GOTO        L_LearnManual751
	INCF        _LearnPhase+0, 1 
	MOVF        _ms500+0, 0 
	MOVWF       LearnManual_t4_L0+0 
	MOVF        _ms500+1, 0 
	MOVWF       LearnManual_t4_L0+1 
	MOVF        _ms500+2, 0 
	MOVWF       LearnManual_t4_L0+2 
	MOVF        _ms500+3, 0 
	MOVWF       LearnManual_t4_L0+3 
	MOVLW       2
	MOVWF       FARG_StopMotor_Mx+0 
	CALL        _StopMotor+0, 0
;FirmV_0_7_0.c,2801 :: 		RawData.D2OpenTime=(char)(t4-t1);
	MOVF        LearnManual_t1_L0+0, 0 
	SUBWF       LearnManual_t4_L0+0, 0 
	MOVWF       R0 
	MOVF        R0, 0 
	MOVWF       LearnManual_RawData_L0+3 
;FirmV_0_7_0.c,2802 :: 		RawData.D2OpenSoftStart=(char)(t2-t1);
	MOVF        LearnManual_t1_L0+0, 0 
	SUBWF       LearnManual_t2_L0+0, 0 
	MOVWF       R0 
	MOVF        R0, 0 
	MOVWF       LearnManual_RawData_L0+8 
;FirmV_0_7_0.c,2803 :: 		RawData.D2OpenSoftStop=(char)(t4-t3);
	MOVF        LearnManual_t3_L0+0, 0 
	SUBWF       LearnManual_t4_L0+0, 0 
	MOVWF       R0 
	MOVF        R0, 0 
	MOVWF       LearnManual_RawData_L0+9 
;FirmV_0_7_0.c,2804 :: 		}
L_LearnManual751:
;FirmV_0_7_0.c,2805 :: 		break;
	GOTO        L_LearnManual718
;FirmV_0_7_0.c,2807 :: 		case 13: //Wait for remote to start D2 and slow down
L_LearnManual752:
;FirmV_0_7_0.c,2808 :: 		if(Events.Remote!=0){t1=ms500;StartMotor(2,_Close);SetMotorSpeed(Motor1FullSpeed,0);M2isSlow=1;LearnPhase=LearnPhase+1;}
	MOVF        _Events+4, 0 
	XORLW       0
	BTFSC       STATUS+0, 2 
	GOTO        L_LearnManual753
	MOVF        _ms500+0, 0 
	MOVWF       LearnManual_t1_L0+0 
	MOVF        _ms500+1, 0 
	MOVWF       LearnManual_t1_L0+1 
	MOVF        _ms500+2, 0 
	MOVWF       LearnManual_t1_L0+2 
	MOVF        _ms500+3, 0 
	MOVWF       LearnManual_t1_L0+3 
	MOVLW       2
	MOVWF       FARG_StartMotor_Mx+0 
	CLRF        FARG_StartMotor_Dir+0 
	CALL        _StartMotor+0, 0
	MOVF        _Motor1FullSpeed+0, 0 
	MOVWF       FARG_SetMotorSpeed_M1FullSpeed+0 
	CLRF        FARG_SetMotorSpeed_M2FullSpeed+0 
	CALL        _SetMotorSpeed+0, 0
	MOVLW       1
	MOVWF       _M2isSlow+0 
	INCF        _LearnPhase+0, 1 
L_LearnManual753:
;FirmV_0_7_0.c,2809 :: 		break;
	GOTO        L_LearnManual718
;FirmV_0_7_0.c,2811 :: 		case 14: //check for Remote press and fast up
L_LearnManual754:
;FirmV_0_7_0.c,2812 :: 		if(Events.Remote!=0){LearnPhase=LearnPhase+1;t2=ms500;SetMotorSpeed(Motor1FullSpeed,1);M2isSlow=0;}
	MOVF        _Events+4, 0 
	XORLW       0
	BTFSC       STATUS+0, 2 
	GOTO        L_LearnManual755
	INCF        _LearnPhase+0, 1 
	MOVF        _ms500+0, 0 
	MOVWF       LearnManual_t2_L0+0 
	MOVF        _ms500+1, 0 
	MOVWF       LearnManual_t2_L0+1 
	MOVF        _ms500+2, 0 
	MOVWF       LearnManual_t2_L0+2 
	MOVF        _ms500+3, 0 
	MOVWF       LearnManual_t2_L0+3 
	MOVF        _Motor1FullSpeed+0, 0 
	MOVWF       FARG_SetMotorSpeed_M1FullSpeed+0 
	MOVLW       1
	MOVWF       FARG_SetMotorSpeed_M2FullSpeed+0 
	CALL        _SetMotorSpeed+0, 0
	CLRF        _M2isSlow+0 
L_LearnManual755:
;FirmV_0_7_0.c,2813 :: 		break;
	GOTO        L_LearnManual718
;FirmV_0_7_0.c,2815 :: 		case 15: //check for Remote press and slow down
L_LearnManual756:
;FirmV_0_7_0.c,2816 :: 		if(Events.Remote!=0){LearnPhase=LearnPhase+1;t3=ms500;SetMotorSpeed(Motor1FullSpeed,0);M2isSlow=1;}
	MOVF        _Events+4, 0 
	XORLW       0
	BTFSC       STATUS+0, 2 
	GOTO        L_LearnManual757
	INCF        _LearnPhase+0, 1 
	MOVF        _ms500+0, 0 
	MOVWF       LearnManual_t3_L0+0 
	MOVF        _ms500+1, 0 
	MOVWF       LearnManual_t3_L0+1 
	MOVF        _ms500+2, 0 
	MOVWF       LearnManual_t3_L0+2 
	MOVF        _ms500+3, 0 
	MOVWF       LearnManual_t3_L0+3 
	MOVF        _Motor1FullSpeed+0, 0 
	MOVWF       FARG_SetMotorSpeed_M1FullSpeed+0 
	CLRF        FARG_SetMotorSpeed_M2FullSpeed+0 
	CALL        _SetMotorSpeed+0, 0
	MOVLW       1
	MOVWF       _M2isSlow+0 
L_LearnManual757:
;FirmV_0_7_0.c,2817 :: 		break;
	GOTO        L_LearnManual718
;FirmV_0_7_0.c,2819 :: 		case 16: //check for Remote press and stop
L_LearnManual758:
;FirmV_0_7_0.c,2820 :: 		if(Events.Remote!=0){LearnPhase=LearnPhase+1;t4=ms500;StopMotor(2);
	MOVF        _Events+4, 0 
	XORLW       0
	BTFSC       STATUS+0, 2 
	GOTO        L_LearnManual759
	INCF        _LearnPhase+0, 1 
	MOVF        _ms500+0, 0 
	MOVWF       LearnManual_t4_L0+0 
	MOVF        _ms500+1, 0 
	MOVWF       LearnManual_t4_L0+1 
	MOVF        _ms500+2, 0 
	MOVWF       LearnManual_t4_L0+2 
	MOVF        _ms500+3, 0 
	MOVWF       LearnManual_t4_L0+3 
	MOVLW       2
	MOVWF       FARG_StopMotor_Mx+0 
	CALL        _StopMotor+0, 0
;FirmV_0_7_0.c,2821 :: 		RawData.D2CloseTime=(char)(t4-t1);
	MOVF        LearnManual_t1_L0+0, 0 
	SUBWF       LearnManual_t4_L0+0, 0 
	MOVWF       R0 
	MOVF        R0, 0 
	MOVWF       LearnManual_RawData_L0+2 
;FirmV_0_7_0.c,2822 :: 		RawData.D2CloseSoftStart=(char)(t2-t1);
	MOVF        LearnManual_t1_L0+0, 0 
	SUBWF       LearnManual_t2_L0+0, 0 
	MOVWF       R0 
	MOVF        R0, 0 
	MOVWF       LearnManual_RawData_L0+10 
;FirmV_0_7_0.c,2823 :: 		RawData.D2CloseSoftStop=(char)(t4-t3);
	MOVF        LearnManual_t3_L0+0, 0 
	SUBWF       LearnManual_t4_L0+0, 0 
	MOVWF       R0 
	MOVF        R0, 0 
	MOVWF       LearnManual_RawData_L0+11 
;FirmV_0_7_0.c,2824 :: 		}
L_LearnManual759:
;FirmV_0_7_0.c,2825 :: 		break;
	GOTO        L_LearnManual718
;FirmV_0_7_0.c,2827 :: 		case 17: //Wait for remote to start D1 and slow down
L_LearnManual760:
;FirmV_0_7_0.c,2828 :: 		if(Events.Remote!=0){t1=ms500;StartMotor(1,_Close);SetMotorSpeed(0,Motor2FullSpeed);M1isSlow=1;LearnPhase=LearnPhase+1;}
	MOVF        _Events+4, 0 
	XORLW       0
	BTFSC       STATUS+0, 2 
	GOTO        L_LearnManual761
	MOVF        _ms500+0, 0 
	MOVWF       LearnManual_t1_L0+0 
	MOVF        _ms500+1, 0 
	MOVWF       LearnManual_t1_L0+1 
	MOVF        _ms500+2, 0 
	MOVWF       LearnManual_t1_L0+2 
	MOVF        _ms500+3, 0 
	MOVWF       LearnManual_t1_L0+3 
	MOVLW       1
	MOVWF       FARG_StartMotor_Mx+0 
	CLRF        FARG_StartMotor_Dir+0 
	CALL        _StartMotor+0, 0
	CLRF        FARG_SetMotorSpeed_M1FullSpeed+0 
	MOVF        _Motor2FullSpeed+0, 0 
	MOVWF       FARG_SetMotorSpeed_M2FullSpeed+0 
	CALL        _SetMotorSpeed+0, 0
	MOVLW       1
	MOVWF       _M1isSlow+0 
	INCF        _LearnPhase+0, 1 
L_LearnManual761:
;FirmV_0_7_0.c,2829 :: 		break;
	GOTO        L_LearnManual718
;FirmV_0_7_0.c,2831 :: 		case 18: //check for Remote press and fast up
L_LearnManual762:
;FirmV_0_7_0.c,2832 :: 		if(Events.Remote!=0){LearnPhase=LearnPhase+1;t2=ms500;SetMotorSpeed(1,Motor2FullSpeed);M1isSlow=0;}
	MOVF        _Events+4, 0 
	XORLW       0
	BTFSC       STATUS+0, 2 
	GOTO        L_LearnManual763
	INCF        _LearnPhase+0, 1 
	MOVF        _ms500+0, 0 
	MOVWF       LearnManual_t2_L0+0 
	MOVF        _ms500+1, 0 
	MOVWF       LearnManual_t2_L0+1 
	MOVF        _ms500+2, 0 
	MOVWF       LearnManual_t2_L0+2 
	MOVF        _ms500+3, 0 
	MOVWF       LearnManual_t2_L0+3 
	MOVLW       1
	MOVWF       FARG_SetMotorSpeed_M1FullSpeed+0 
	MOVF        _Motor2FullSpeed+0, 0 
	MOVWF       FARG_SetMotorSpeed_M2FullSpeed+0 
	CALL        _SetMotorSpeed+0, 0
	CLRF        _M1isSlow+0 
L_LearnManual763:
;FirmV_0_7_0.c,2833 :: 		break;
	GOTO        L_LearnManual718
;FirmV_0_7_0.c,2835 :: 		case 19: //check for Remote press and slow down
L_LearnManual764:
;FirmV_0_7_0.c,2836 :: 		if(Events.Remote!=0){LearnPhase=LearnPhase+1;t3=ms500;SetMotorSpeed(0,Motor2FullSpeed);M1isSlow=1;}
	MOVF        _Events+4, 0 
	XORLW       0
	BTFSC       STATUS+0, 2 
	GOTO        L_LearnManual765
	INCF        _LearnPhase+0, 1 
	MOVF        _ms500+0, 0 
	MOVWF       LearnManual_t3_L0+0 
	MOVF        _ms500+1, 0 
	MOVWF       LearnManual_t3_L0+1 
	MOVF        _ms500+2, 0 
	MOVWF       LearnManual_t3_L0+2 
	MOVF        _ms500+3, 0 
	MOVWF       LearnManual_t3_L0+3 
	CLRF        FARG_SetMotorSpeed_M1FullSpeed+0 
	MOVF        _Motor2FullSpeed+0, 0 
	MOVWF       FARG_SetMotorSpeed_M2FullSpeed+0 
	CALL        _SetMotorSpeed+0, 0
	MOVLW       1
	MOVWF       _M1isSlow+0 
L_LearnManual765:
;FirmV_0_7_0.c,2837 :: 		break;
	GOTO        L_LearnManual718
;FirmV_0_7_0.c,2839 :: 		case 20: //check for Remote press and stop
L_LearnManual766:
;FirmV_0_7_0.c,2840 :: 		if(Events.Remote!=0){LearnPhase=LearnPhase+1;t4=ms500;StopMotor(1);
	MOVF        _Events+4, 0 
	XORLW       0
	BTFSC       STATUS+0, 2 
	GOTO        L_LearnManual767
	INCF        _LearnPhase+0, 1 
	MOVF        _ms500+0, 0 
	MOVWF       LearnManual_t4_L0+0 
	MOVF        _ms500+1, 0 
	MOVWF       LearnManual_t4_L0+1 
	MOVF        _ms500+2, 0 
	MOVWF       LearnManual_t4_L0+2 
	MOVF        _ms500+3, 0 
	MOVWF       LearnManual_t4_L0+3 
	MOVLW       1
	MOVWF       FARG_StopMotor_Mx+0 
	CALL        _StopMotor+0, 0
;FirmV_0_7_0.c,2841 :: 		RawData.D1CloseTime=(char)(t4-t1);
	MOVF        LearnManual_t1_L0+0, 0 
	SUBWF       LearnManual_t4_L0+0, 0 
	MOVWF       R0 
	MOVF        R0, 0 
	MOVWF       LearnManual_RawData_L0+0 
;FirmV_0_7_0.c,2842 :: 		RawData.D1CloseSoftStart=(char)(t2-t1);
	MOVF        LearnManual_t1_L0+0, 0 
	SUBWF       LearnManual_t2_L0+0, 0 
	MOVWF       R0 
	MOVF        R0, 0 
	MOVWF       LearnManual_RawData_L0+6 
;FirmV_0_7_0.c,2843 :: 		RawData.D1CloseSoftStop=(char)(t4-t3);
	MOVF        LearnManual_t3_L0+0, 0 
	SUBWF       LearnManual_t4_L0+0, 0 
	MOVWF       R0 
	MOVF        R0, 0 
	MOVWF       LearnManual_RawData_L0+7 
;FirmV_0_7_0.c,2844 :: 		}
L_LearnManual767:
;FirmV_0_7_0.c,2845 :: 		break;
	GOTO        L_LearnManual718
;FirmV_0_7_0.c,2847 :: 		case 21:
L_LearnManual768:
;FirmV_0_7_0.c,2848 :: 		SaveLearnData(&RawData,DoorNo);
	MOVLW       LearnManual_RawData_L0+0
	MOVWF       FARG_SaveLearnData_d+0 
	MOVLW       hi_addr(LearnManual_RawData_L0+0)
	MOVWF       FARG_SaveLearnData_d+1 
	MOVF        LearnManual_DoorNo_L0+0, 0 
	MOVWF       FARG_SaveLearnData_DCount+0 
	CALL        _SaveLearnData+0, 0
;FirmV_0_7_0.c,2849 :: 		memcpy(LCDLine1," Learn Complete ",16);
	MOVLW       _LCDLine1+0
	MOVWF       FARG_memcpy_d1+0 
	MOVLW       hi_addr(_LCDLine1+0)
	MOVWF       FARG_memcpy_d1+1 
	MOVLW       ?lstr112_FirmV_0_7_0+0
	MOVWF       FARG_memcpy_s1+0 
	MOVLW       hi_addr(?lstr112_FirmV_0_7_0+0)
	MOVWF       FARG_memcpy_s1+1 
	MOVLW       16
	MOVWF       FARG_memcpy_n+0 
	MOVLW       0
	MOVWF       FARG_memcpy_n+1 
	CALL        _memcpy+0, 0
;FirmV_0_7_0.c,2850 :: 		memcpy(LCDLine2,"     Ready      ",16);
	MOVLW       _LCDLine2+0
	MOVWF       FARG_memcpy_d1+0 
	MOVLW       hi_addr(_LCDLine2+0)
	MOVWF       FARG_memcpy_d1+1 
	MOVLW       ?lstr113_FirmV_0_7_0+0
	MOVWF       FARG_memcpy_s1+0 
	MOVLW       hi_addr(?lstr113_FirmV_0_7_0+0)
	MOVWF       FARG_memcpy_s1+1 
	MOVLW       16
	MOVWF       FARG_memcpy_n+0 
	MOVLW       0
	MOVWF       FARG_memcpy_n+1 
	CALL        _memcpy+0, 0
;FirmV_0_7_0.c,2851 :: 		LCDLines=2;
	MOVLW       2
	MOVWF       _LCDLines+0 
;FirmV_0_7_0.c,2852 :: 		LCDUpdateFlag=1;
	MOVLW       1
	MOVWF       _LCDUpdateFlag+0 
;FirmV_0_7_0.c,2853 :: 		Flasher=0;
	BCF         PORTD+0, 7 
;FirmV_0_7_0.c,2855 :: 		State=0;
	CLRF        _State+0 
;FirmV_0_7_0.c,2856 :: 		break;
	GOTO        L_LearnManual718
;FirmV_0_7_0.c,2857 :: 		}
L_LearnManual717:
	MOVF        _LearnPhase+0, 0 
	XORLW       0
	BTFSC       STATUS+0, 2 
	GOTO        L_LearnManual719
	MOVF        _LearnPhase+0, 0 
	XORLW       1
	BTFSC       STATUS+0, 2 
	GOTO        L_LearnManual722
	MOVF        _LearnPhase+0, 0 
	XORLW       2
	BTFSC       STATUS+0, 2 
	GOTO        L_LearnManual723
	MOVF        _LearnPhase+0, 0 
	XORLW       3
	BTFSC       STATUS+0, 2 
	GOTO        L_LearnManual728
	MOVF        _LearnPhase+0, 0 
	XORLW       4
	BTFSC       STATUS+0, 2 
	GOTO        L_LearnManual729
	MOVF        _LearnPhase+0, 0 
	XORLW       5
	BTFSC       STATUS+0, 2 
	GOTO        L_LearnManual734
	MOVF        _LearnPhase+0, 0 
	XORLW       6
	BTFSC       STATUS+0, 2 
	GOTO        L_LearnManual736
	MOVF        _LearnPhase+0, 0 
	XORLW       7
	BTFSC       STATUS+0, 2 
	GOTO        L_LearnManual738
	MOVF        _LearnPhase+0, 0 
	XORLW       8
	BTFSC       STATUS+0, 2 
	GOTO        L_LearnManual740
	MOVF        _LearnPhase+0, 0 
	XORLW       9
	BTFSC       STATUS+0, 2 
	GOTO        L_LearnManual744
	MOVF        _LearnPhase+0, 0 
	XORLW       10
	BTFSC       STATUS+0, 2 
	GOTO        L_LearnManual746
	MOVF        _LearnPhase+0, 0 
	XORLW       11
	BTFSC       STATUS+0, 2 
	GOTO        L_LearnManual748
	MOVF        _LearnPhase+0, 0 
	XORLW       12
	BTFSC       STATUS+0, 2 
	GOTO        L_LearnManual750
	MOVF        _LearnPhase+0, 0 
	XORLW       13
	BTFSC       STATUS+0, 2 
	GOTO        L_LearnManual752
	MOVF        _LearnPhase+0, 0 
	XORLW       14
	BTFSC       STATUS+0, 2 
	GOTO        L_LearnManual754
	MOVF        _LearnPhase+0, 0 
	XORLW       15
	BTFSC       STATUS+0, 2 
	GOTO        L_LearnManual756
	MOVF        _LearnPhase+0, 0 
	XORLW       16
	BTFSC       STATUS+0, 2 
	GOTO        L_LearnManual758
	MOVF        _LearnPhase+0, 0 
	XORLW       17
	BTFSC       STATUS+0, 2 
	GOTO        L_LearnManual760
	MOVF        _LearnPhase+0, 0 
	XORLW       18
	BTFSC       STATUS+0, 2 
	GOTO        L_LearnManual762
	MOVF        _LearnPhase+0, 0 
	XORLW       19
	BTFSC       STATUS+0, 2 
	GOTO        L_LearnManual764
	MOVF        _LearnPhase+0, 0 
	XORLW       20
	BTFSC       STATUS+0, 2 
	GOTO        L_LearnManual766
	MOVF        _LearnPhase+0, 0 
	XORLW       21
	BTFSC       STATUS+0, 2 
	GOTO        L_LearnManual768
L_LearnManual718:
;FirmV_0_7_0.c,2858 :: 		}
L_end_LearnManual:
	RETURN      0
; end of _LearnManual

_charValueToStr:

;FirmV_0_7_0.c,2879 :: 		void charValueToStr(char val, char * string)
;FirmV_0_7_0.c,2881 :: 		bytetostr(val>>1,string);
	MOVF        FARG_charValueToStr_val+0, 0 
	MOVWF       FARG_ByteToStr_input+0 
	RRCF        FARG_ByteToStr_input+0, 1 
	BCF         FARG_ByteToStr_input+0, 7 
	MOVF        FARG_charValueToStr_string+0, 0 
	MOVWF       FARG_ByteToStr_output+0 
	MOVF        FARG_charValueToStr_string+1, 0 
	MOVWF       FARG_ByteToStr_output+1 
	CALL        _ByteToStr+0, 0
;FirmV_0_7_0.c,2882 :: 		if((val%2)==1)
	MOVLW       1
	ANDWF       FARG_charValueToStr_val+0, 0 
	MOVWF       R1 
	MOVF        R1, 0 
	XORLW       1
	BTFSS       STATUS+0, 2 
	GOTO        L_charValueToStr769
;FirmV_0_7_0.c,2883 :: 		memcpy(string+3,".5s",4);
	MOVLW       3
	ADDWF       FARG_charValueToStr_string+0, 0 
	MOVWF       FARG_memcpy_d1+0 
	MOVLW       0
	ADDWFC      FARG_charValueToStr_string+1, 0 
	MOVWF       FARG_memcpy_d1+1 
	MOVLW       ?lstr114_FirmV_0_7_0+0
	MOVWF       FARG_memcpy_s1+0 
	MOVLW       hi_addr(?lstr114_FirmV_0_7_0+0)
	MOVWF       FARG_memcpy_s1+1 
	MOVLW       4
	MOVWF       FARG_memcpy_n+0 
	MOVLW       0
	MOVWF       FARG_memcpy_n+1 
	CALL        _memcpy+0, 0
	GOTO        L_charValueToStr770
L_charValueToStr769:
;FirmV_0_7_0.c,2885 :: 		memcpy(string+3,".0s",4);
	MOVLW       3
	ADDWF       FARG_charValueToStr_string+0, 0 
	MOVWF       FARG_memcpy_d1+0 
	MOVLW       0
	ADDWFC      FARG_charValueToStr_string+1, 0 
	MOVWF       FARG_memcpy_d1+1 
	MOVLW       ?lstr115_FirmV_0_7_0+0
	MOVWF       FARG_memcpy_s1+0 
	MOVLW       hi_addr(?lstr115_FirmV_0_7_0+0)
	MOVWF       FARG_memcpy_s1+1 
	MOVLW       4
	MOVWF       FARG_memcpy_n+0 
	MOVLW       0
	MOVWF       FARG_memcpy_n+1 
	CALL        _memcpy+0, 0
L_charValueToStr770:
;FirmV_0_7_0.c,2886 :: 		}
L_end_charValueToStr:
	RETURN      0
; end of _charValueToStr

_charValueToStr_AC:

;FirmV_0_7_0.c,2895 :: 		void charValueToStr_AC(char val, char * string)
;FirmV_0_7_0.c,2897 :: 		bytetostr(val>>1,string);
	MOVF        FARG_charValueToStr_AC_val+0, 0 
	MOVWF       FARG_ByteToStr_input+0 
	RRCF        FARG_ByteToStr_input+0, 1 
	BCF         FARG_ByteToStr_input+0, 7 
	MOVF        FARG_charValueToStr_AC_string+0, 0 
	MOVWF       FARG_ByteToStr_output+0 
	MOVF        FARG_charValueToStr_AC_string+1, 0 
	MOVWF       FARG_ByteToStr_output+1 
	CALL        _ByteToStr+0, 0
;FirmV_0_7_0.c,2898 :: 		memcpy(string+3,"s  ",4);
	MOVLW       3
	ADDWF       FARG_charValueToStr_AC_string+0, 0 
	MOVWF       FARG_memcpy_d1+0 
	MOVLW       0
	ADDWFC      FARG_charValueToStr_AC_string+1, 0 
	MOVWF       FARG_memcpy_d1+1 
	MOVLW       ?lstr116_FirmV_0_7_0+0
	MOVWF       FARG_memcpy_s1+0 
	MOVLW       hi_addr(?lstr116_FirmV_0_7_0+0)
	MOVWF       FARG_memcpy_s1+1 
	MOVLW       4
	MOVWF       FARG_memcpy_n+0 
	MOVLW       0
	MOVWF       FARG_memcpy_n+1 
	CALL        _memcpy+0, 0
;FirmV_0_7_0.c,2899 :: 		}
L_end_charValueToStr_AC:
	RETURN      0
; end of _charValueToStr_AC

_intValueToStr:

;FirmV_0_7_0.c,2912 :: 		void intValueToStr(unsigned val, char * string)
;FirmV_0_7_0.c,2914 :: 		wordtostr(val>>1,string);
	MOVF        FARG_intValueToStr_val+0, 0 
	MOVWF       FARG_WordToStr_input+0 
	MOVF        FARG_intValueToStr_val+1, 0 
	MOVWF       FARG_WordToStr_input+1 
	RRCF        FARG_WordToStr_input+1, 1 
	RRCF        FARG_WordToStr_input+0, 1 
	BCF         FARG_WordToStr_input+1, 7 
	MOVF        FARG_intValueToStr_string+0, 0 
	MOVWF       FARG_WordToStr_output+0 
	MOVF        FARG_intValueToStr_string+1, 0 
	MOVWF       FARG_WordToStr_output+1 
	CALL        _WordToStr+0, 0
;FirmV_0_7_0.c,2915 :: 		if((val%2)==1)
	MOVLW       1
	ANDWF       FARG_intValueToStr_val+0, 0 
	MOVWF       R1 
	MOVF        FARG_intValueToStr_val+1, 0 
	MOVWF       R2 
	MOVLW       0
	ANDWF       R2, 1 
	MOVLW       0
	XORWF       R2, 0 
	BTFSS       STATUS+0, 2 
	GOTO        L__intValueToStr1101
	MOVLW       1
	XORWF       R1, 0 
L__intValueToStr1101:
	BTFSS       STATUS+0, 2 
	GOTO        L_intValueToStr771
;FirmV_0_7_0.c,2916 :: 		memcpy(string+5,".5s",4);
	MOVLW       5
	ADDWF       FARG_intValueToStr_string+0, 0 
	MOVWF       FARG_memcpy_d1+0 
	MOVLW       0
	ADDWFC      FARG_intValueToStr_string+1, 0 
	MOVWF       FARG_memcpy_d1+1 
	MOVLW       ?lstr117_FirmV_0_7_0+0
	MOVWF       FARG_memcpy_s1+0 
	MOVLW       hi_addr(?lstr117_FirmV_0_7_0+0)
	MOVWF       FARG_memcpy_s1+1 
	MOVLW       4
	MOVWF       FARG_memcpy_n+0 
	MOVLW       0
	MOVWF       FARG_memcpy_n+1 
	CALL        _memcpy+0, 0
	GOTO        L_intValueToStr772
L_intValueToStr771:
;FirmV_0_7_0.c,2918 :: 		memcpy(string+5,".0s",4);
	MOVLW       5
	ADDWF       FARG_intValueToStr_string+0, 0 
	MOVWF       FARG_memcpy_d1+0 
	MOVLW       0
	ADDWFC      FARG_intValueToStr_string+1, 0 
	MOVWF       FARG_memcpy_d1+1 
	MOVLW       ?lstr118_FirmV_0_7_0+0
	MOVWF       FARG_memcpy_s1+0 
	MOVLW       hi_addr(?lstr118_FirmV_0_7_0+0)
	MOVWF       FARG_memcpy_s1+1 
	MOVLW       4
	MOVWF       FARG_memcpy_n+0 
	MOVLW       0
	MOVWF       FARG_memcpy_n+1 
	CALL        _memcpy+0, 0
L_intValueToStr772:
;FirmV_0_7_0.c,2919 :: 		}
L_end_intValueToStr:
	RETURN      0
; end of _intValueToStr

_SetOverloadParams:

;FirmV_0_7_0.c,2931 :: 		void SetOverloadParams(char p1, char d1,char p2, char d2)
;FirmV_0_7_0.c,2934 :: 		switch(p1)
	GOTO        L_SetOverloadParams773
;FirmV_0_7_0.c,2936 :: 		case 0: OverloadTreshold1=0; break;
L_SetOverloadParams775:
	CLRF        _OverloadTreshold1+0 
	CLRF        _OverloadTreshold1+1 
	GOTO        L_SetOverloadParams774
;FirmV_0_7_0.c,2938 :: 		case 1: OverloadTreshold1=480; break;
L_SetOverloadParams776:
	MOVLW       224
	MOVWF       _OverloadTreshold1+0 
	MOVLW       1
	MOVWF       _OverloadTreshold1+1 
	GOTO        L_SetOverloadParams774
;FirmV_0_7_0.c,2940 :: 		case 2: OverloadTreshold1=490; break;
L_SetOverloadParams777:
	MOVLW       234
	MOVWF       _OverloadTreshold1+0 
	MOVLW       1
	MOVWF       _OverloadTreshold1+1 
	GOTO        L_SetOverloadParams774
;FirmV_0_7_0.c,2942 :: 		case 3: OverloadTreshold1=500; break;
L_SetOverloadParams778:
	MOVLW       244
	MOVWF       _OverloadTreshold1+0 
	MOVLW       1
	MOVWF       _OverloadTreshold1+1 
	GOTO        L_SetOverloadParams774
;FirmV_0_7_0.c,2944 :: 		case 4: OverloadTreshold1=530; break;
L_SetOverloadParams779:
	MOVLW       18
	MOVWF       _OverloadTreshold1+0 
	MOVLW       2
	MOVWF       _OverloadTreshold1+1 
	GOTO        L_SetOverloadParams774
;FirmV_0_7_0.c,2946 :: 		case 5: OverloadTreshold1=550; break;
L_SetOverloadParams780:
	MOVLW       38
	MOVWF       _OverloadTreshold1+0 
	MOVLW       2
	MOVWF       _OverloadTreshold1+1 
	GOTO        L_SetOverloadParams774
;FirmV_0_7_0.c,2948 :: 		case 6: OverloadTreshold1=570; break;
L_SetOverloadParams781:
	MOVLW       58
	MOVWF       _OverloadTreshold1+0 
	MOVLW       2
	MOVWF       _OverloadTreshold1+1 
	GOTO        L_SetOverloadParams774
;FirmV_0_7_0.c,2950 :: 		case 7: OverloadTreshold1=600; break;
L_SetOverloadParams782:
	MOVLW       88
	MOVWF       _OverloadTreshold1+0 
	MOVLW       2
	MOVWF       _OverloadTreshold1+1 
	GOTO        L_SetOverloadParams774
;FirmV_0_7_0.c,2952 :: 		case 8: OverloadTreshold1=630; break;
L_SetOverloadParams783:
	MOVLW       118
	MOVWF       _OverloadTreshold1+0 
	MOVLW       2
	MOVWF       _OverloadTreshold1+1 
	GOTO        L_SetOverloadParams774
;FirmV_0_7_0.c,2954 :: 		case 9: OverloadTreshold1=650; break;
L_SetOverloadParams784:
	MOVLW       138
	MOVWF       _OverloadTreshold1+0 
	MOVLW       2
	MOVWF       _OverloadTreshold1+1 
	GOTO        L_SetOverloadParams774
;FirmV_0_7_0.c,2956 :: 		case 10: OverloadTreshold1=670; break;
L_SetOverloadParams785:
	MOVLW       158
	MOVWF       _OverloadTreshold1+0 
	MOVLW       2
	MOVWF       _OverloadTreshold1+1 
	GOTO        L_SetOverloadParams774
;FirmV_0_7_0.c,2958 :: 		case 11: OverloadTreshold1=700; break;
L_SetOverloadParams786:
	MOVLW       188
	MOVWF       _OverloadTreshold1+0 
	MOVLW       2
	MOVWF       _OverloadTreshold1+1 
	GOTO        L_SetOverloadParams774
;FirmV_0_7_0.c,2960 :: 		case 12: OverloadTreshold1=750; break;
L_SetOverloadParams787:
	MOVLW       238
	MOVWF       _OverloadTreshold1+0 
	MOVLW       2
	MOVWF       _OverloadTreshold1+1 
	GOTO        L_SetOverloadParams774
;FirmV_0_7_0.c,2962 :: 		case 13: OverloadTreshold1=800; break;
L_SetOverloadParams788:
	MOVLW       32
	MOVWF       _OverloadTreshold1+0 
	MOVLW       3
	MOVWF       _OverloadTreshold1+1 
	GOTO        L_SetOverloadParams774
;FirmV_0_7_0.c,2964 :: 		case 14: OverloadTreshold1=850; break;
L_SetOverloadParams789:
	MOVLW       82
	MOVWF       _OverloadTreshold1+0 
	MOVLW       3
	MOVWF       _OverloadTreshold1+1 
	GOTO        L_SetOverloadParams774
;FirmV_0_7_0.c,2966 :: 		case 15: OverloadTreshold1=900; break;
L_SetOverloadParams790:
	MOVLW       132
	MOVWF       _OverloadTreshold1+0 
	MOVLW       3
	MOVWF       _OverloadTreshold1+1 
	GOTO        L_SetOverloadParams774
;FirmV_0_7_0.c,2968 :: 		}
L_SetOverloadParams773:
	MOVF        FARG_SetOverloadParams_p1+0, 0 
	XORLW       0
	BTFSC       STATUS+0, 2 
	GOTO        L_SetOverloadParams775
	MOVF        FARG_SetOverloadParams_p1+0, 0 
	XORLW       1
	BTFSC       STATUS+0, 2 
	GOTO        L_SetOverloadParams776
	MOVF        FARG_SetOverloadParams_p1+0, 0 
	XORLW       2
	BTFSC       STATUS+0, 2 
	GOTO        L_SetOverloadParams777
	MOVF        FARG_SetOverloadParams_p1+0, 0 
	XORLW       3
	BTFSC       STATUS+0, 2 
	GOTO        L_SetOverloadParams778
	MOVF        FARG_SetOverloadParams_p1+0, 0 
	XORLW       4
	BTFSC       STATUS+0, 2 
	GOTO        L_SetOverloadParams779
	MOVF        FARG_SetOverloadParams_p1+0, 0 
	XORLW       5
	BTFSC       STATUS+0, 2 
	GOTO        L_SetOverloadParams780
	MOVF        FARG_SetOverloadParams_p1+0, 0 
	XORLW       6
	BTFSC       STATUS+0, 2 
	GOTO        L_SetOverloadParams781
	MOVF        FARG_SetOverloadParams_p1+0, 0 
	XORLW       7
	BTFSC       STATUS+0, 2 
	GOTO        L_SetOverloadParams782
	MOVF        FARG_SetOverloadParams_p1+0, 0 
	XORLW       8
	BTFSC       STATUS+0, 2 
	GOTO        L_SetOverloadParams783
	MOVF        FARG_SetOverloadParams_p1+0, 0 
	XORLW       9
	BTFSC       STATUS+0, 2 
	GOTO        L_SetOverloadParams784
	MOVF        FARG_SetOverloadParams_p1+0, 0 
	XORLW       10
	BTFSC       STATUS+0, 2 
	GOTO        L_SetOverloadParams785
	MOVF        FARG_SetOverloadParams_p1+0, 0 
	XORLW       11
	BTFSC       STATUS+0, 2 
	GOTO        L_SetOverloadParams786
	MOVF        FARG_SetOverloadParams_p1+0, 0 
	XORLW       12
	BTFSC       STATUS+0, 2 
	GOTO        L_SetOverloadParams787
	MOVF        FARG_SetOverloadParams_p1+0, 0 
	XORLW       13
	BTFSC       STATUS+0, 2 
	GOTO        L_SetOverloadParams788
	MOVF        FARG_SetOverloadParams_p1+0, 0 
	XORLW       14
	BTFSC       STATUS+0, 2 
	GOTO        L_SetOverloadParams789
	MOVF        FARG_SetOverloadParams_p1+0, 0 
	XORLW       15
	BTFSC       STATUS+0, 2 
	GOTO        L_SetOverloadParams790
L_SetOverloadParams774:
;FirmV_0_7_0.c,2971 :: 		switch(d1)
	GOTO        L_SetOverloadParams791
;FirmV_0_7_0.c,2973 :: 		case 0: OverloadDuration1=100; break;
L_SetOverloadParams793:
	MOVLW       100
	MOVWF       _OverloadDuration1+0 
	MOVLW       0
	MOVWF       _OverloadDuration1+1 
	GOTO        L_SetOverloadParams792
;FirmV_0_7_0.c,2975 :: 		case 1: OverloadDuration1=500; break;
L_SetOverloadParams794:
	MOVLW       244
	MOVWF       _OverloadDuration1+0 
	MOVLW       1
	MOVWF       _OverloadDuration1+1 
	GOTO        L_SetOverloadParams792
;FirmV_0_7_0.c,2977 :: 		case 2: OverloadDuration1=1000; break;
L_SetOverloadParams795:
	MOVLW       232
	MOVWF       _OverloadDuration1+0 
	MOVLW       3
	MOVWF       _OverloadDuration1+1 
	GOTO        L_SetOverloadParams792
;FirmV_0_7_0.c,2979 :: 		case 3: OverloadDuration1=1500; break;
L_SetOverloadParams796:
	MOVLW       220
	MOVWF       _OverloadDuration1+0 
	MOVLW       5
	MOVWF       _OverloadDuration1+1 
	GOTO        L_SetOverloadParams792
;FirmV_0_7_0.c,2981 :: 		case 4: OverloadDuration1=2000; break;
L_SetOverloadParams797:
	MOVLW       208
	MOVWF       _OverloadDuration1+0 
	MOVLW       7
	MOVWF       _OverloadDuration1+1 
	GOTO        L_SetOverloadParams792
;FirmV_0_7_0.c,2983 :: 		case 5: OverloadDuration1=2500; break;
L_SetOverloadParams798:
	MOVLW       196
	MOVWF       _OverloadDuration1+0 
	MOVLW       9
	MOVWF       _OverloadDuration1+1 
	GOTO        L_SetOverloadParams792
;FirmV_0_7_0.c,2985 :: 		case 6: OverloadDuration1=3000; break;
L_SetOverloadParams799:
	MOVLW       184
	MOVWF       _OverloadDuration1+0 
	MOVLW       11
	MOVWF       _OverloadDuration1+1 
	GOTO        L_SetOverloadParams792
;FirmV_0_7_0.c,2987 :: 		case 7: OverloadDuration1=3500; break;
L_SetOverloadParams800:
	MOVLW       172
	MOVWF       _OverloadDuration1+0 
	MOVLW       13
	MOVWF       _OverloadDuration1+1 
	GOTO        L_SetOverloadParams792
;FirmV_0_7_0.c,2989 :: 		case 8: OverloadDuration1=4000; break;
L_SetOverloadParams801:
	MOVLW       160
	MOVWF       _OverloadDuration1+0 
	MOVLW       15
	MOVWF       _OverloadDuration1+1 
	GOTO        L_SetOverloadParams792
;FirmV_0_7_0.c,2991 :: 		case 9: OverloadDuration1=4500; break;
L_SetOverloadParams802:
	MOVLW       148
	MOVWF       _OverloadDuration1+0 
	MOVLW       17
	MOVWF       _OverloadDuration1+1 
	GOTO        L_SetOverloadParams792
;FirmV_0_7_0.c,2993 :: 		case 10: OverloadDuration1=5000; break;
L_SetOverloadParams803:
	MOVLW       136
	MOVWF       _OverloadDuration1+0 
	MOVLW       19
	MOVWF       _OverloadDuration1+1 
	GOTO        L_SetOverloadParams792
;FirmV_0_7_0.c,2994 :: 		}
L_SetOverloadParams791:
	MOVF        FARG_SetOverloadParams_d1+0, 0 
	XORLW       0
	BTFSC       STATUS+0, 2 
	GOTO        L_SetOverloadParams793
	MOVF        FARG_SetOverloadParams_d1+0, 0 
	XORLW       1
	BTFSC       STATUS+0, 2 
	GOTO        L_SetOverloadParams794
	MOVF        FARG_SetOverloadParams_d1+0, 0 
	XORLW       2
	BTFSC       STATUS+0, 2 
	GOTO        L_SetOverloadParams795
	MOVF        FARG_SetOverloadParams_d1+0, 0 
	XORLW       3
	BTFSC       STATUS+0, 2 
	GOTO        L_SetOverloadParams796
	MOVF        FARG_SetOverloadParams_d1+0, 0 
	XORLW       4
	BTFSC       STATUS+0, 2 
	GOTO        L_SetOverloadParams797
	MOVF        FARG_SetOverloadParams_d1+0, 0 
	XORLW       5
	BTFSC       STATUS+0, 2 
	GOTO        L_SetOverloadParams798
	MOVF        FARG_SetOverloadParams_d1+0, 0 
	XORLW       6
	BTFSC       STATUS+0, 2 
	GOTO        L_SetOverloadParams799
	MOVF        FARG_SetOverloadParams_d1+0, 0 
	XORLW       7
	BTFSC       STATUS+0, 2 
	GOTO        L_SetOverloadParams800
	MOVF        FARG_SetOverloadParams_d1+0, 0 
	XORLW       8
	BTFSC       STATUS+0, 2 
	GOTO        L_SetOverloadParams801
	MOVF        FARG_SetOverloadParams_d1+0, 0 
	XORLW       9
	BTFSC       STATUS+0, 2 
	GOTO        L_SetOverloadParams802
	MOVF        FARG_SetOverloadParams_d1+0, 0 
	XORLW       10
	BTFSC       STATUS+0, 2 
	GOTO        L_SetOverloadParams803
L_SetOverloadParams792:
;FirmV_0_7_0.c,3000 :: 		switch(p2)
	GOTO        L_SetOverloadParams804
;FirmV_0_7_0.c,3002 :: 		case 0: OverloadTreshold2=0; break;
L_SetOverloadParams806:
	CLRF        _OverloadTreshold2+0 
	CLRF        _OverloadTreshold2+1 
	GOTO        L_SetOverloadParams805
;FirmV_0_7_0.c,3004 :: 		case 1: OverloadTreshold2=480; break;
L_SetOverloadParams807:
	MOVLW       224
	MOVWF       _OverloadTreshold2+0 
	MOVLW       1
	MOVWF       _OverloadTreshold2+1 
	GOTO        L_SetOverloadParams805
;FirmV_0_7_0.c,3006 :: 		case 2: OverloadTreshold2=490; break;
L_SetOverloadParams808:
	MOVLW       234
	MOVWF       _OverloadTreshold2+0 
	MOVLW       1
	MOVWF       _OverloadTreshold2+1 
	GOTO        L_SetOverloadParams805
;FirmV_0_7_0.c,3008 :: 		case 3: OverloadTreshold2=500; break;
L_SetOverloadParams809:
	MOVLW       244
	MOVWF       _OverloadTreshold2+0 
	MOVLW       1
	MOVWF       _OverloadTreshold2+1 
	GOTO        L_SetOverloadParams805
;FirmV_0_7_0.c,3010 :: 		case 4: OverloadTreshold2=530; break;
L_SetOverloadParams810:
	MOVLW       18
	MOVWF       _OverloadTreshold2+0 
	MOVLW       2
	MOVWF       _OverloadTreshold2+1 
	GOTO        L_SetOverloadParams805
;FirmV_0_7_0.c,3012 :: 		case 5: OverloadTreshold2=550; break;
L_SetOverloadParams811:
	MOVLW       38
	MOVWF       _OverloadTreshold2+0 
	MOVLW       2
	MOVWF       _OverloadTreshold2+1 
	GOTO        L_SetOverloadParams805
;FirmV_0_7_0.c,3014 :: 		case 6: OverloadTreshold2=570; break;
L_SetOverloadParams812:
	MOVLW       58
	MOVWF       _OverloadTreshold2+0 
	MOVLW       2
	MOVWF       _OverloadTreshold2+1 
	GOTO        L_SetOverloadParams805
;FirmV_0_7_0.c,3016 :: 		case 7: OverloadTreshold2=600; break;
L_SetOverloadParams813:
	MOVLW       88
	MOVWF       _OverloadTreshold2+0 
	MOVLW       2
	MOVWF       _OverloadTreshold2+1 
	GOTO        L_SetOverloadParams805
;FirmV_0_7_0.c,3018 :: 		case 8: OverloadTreshold2=630; break;
L_SetOverloadParams814:
	MOVLW       118
	MOVWF       _OverloadTreshold2+0 
	MOVLW       2
	MOVWF       _OverloadTreshold2+1 
	GOTO        L_SetOverloadParams805
;FirmV_0_7_0.c,3020 :: 		case 9: OverloadTreshold2=650; break;
L_SetOverloadParams815:
	MOVLW       138
	MOVWF       _OverloadTreshold2+0 
	MOVLW       2
	MOVWF       _OverloadTreshold2+1 
	GOTO        L_SetOverloadParams805
;FirmV_0_7_0.c,3022 :: 		case 10: OverloadTreshold2=670; break;
L_SetOverloadParams816:
	MOVLW       158
	MOVWF       _OverloadTreshold2+0 
	MOVLW       2
	MOVWF       _OverloadTreshold2+1 
	GOTO        L_SetOverloadParams805
;FirmV_0_7_0.c,3024 :: 		case 11: OverloadTreshold2=700; break;
L_SetOverloadParams817:
	MOVLW       188
	MOVWF       _OverloadTreshold2+0 
	MOVLW       2
	MOVWF       _OverloadTreshold2+1 
	GOTO        L_SetOverloadParams805
;FirmV_0_7_0.c,3026 :: 		case 12: OverloadTreshold2=750; break;
L_SetOverloadParams818:
	MOVLW       238
	MOVWF       _OverloadTreshold2+0 
	MOVLW       2
	MOVWF       _OverloadTreshold2+1 
	GOTO        L_SetOverloadParams805
;FirmV_0_7_0.c,3028 :: 		case 13: OverloadTreshold2=800; break;
L_SetOverloadParams819:
	MOVLW       32
	MOVWF       _OverloadTreshold2+0 
	MOVLW       3
	MOVWF       _OverloadTreshold2+1 
	GOTO        L_SetOverloadParams805
;FirmV_0_7_0.c,3030 :: 		case 14: OverloadTreshold2=850; break;
L_SetOverloadParams820:
	MOVLW       82
	MOVWF       _OverloadTreshold2+0 
	MOVLW       3
	MOVWF       _OverloadTreshold2+1 
	GOTO        L_SetOverloadParams805
;FirmV_0_7_0.c,3032 :: 		case 15: OverloadTreshold2=900; break;
L_SetOverloadParams821:
	MOVLW       132
	MOVWF       _OverloadTreshold2+0 
	MOVLW       3
	MOVWF       _OverloadTreshold2+1 
	GOTO        L_SetOverloadParams805
;FirmV_0_7_0.c,3034 :: 		}
L_SetOverloadParams804:
	MOVF        FARG_SetOverloadParams_p2+0, 0 
	XORLW       0
	BTFSC       STATUS+0, 2 
	GOTO        L_SetOverloadParams806
	MOVF        FARG_SetOverloadParams_p2+0, 0 
	XORLW       1
	BTFSC       STATUS+0, 2 
	GOTO        L_SetOverloadParams807
	MOVF        FARG_SetOverloadParams_p2+0, 0 
	XORLW       2
	BTFSC       STATUS+0, 2 
	GOTO        L_SetOverloadParams808
	MOVF        FARG_SetOverloadParams_p2+0, 0 
	XORLW       3
	BTFSC       STATUS+0, 2 
	GOTO        L_SetOverloadParams809
	MOVF        FARG_SetOverloadParams_p2+0, 0 
	XORLW       4
	BTFSC       STATUS+0, 2 
	GOTO        L_SetOverloadParams810
	MOVF        FARG_SetOverloadParams_p2+0, 0 
	XORLW       5
	BTFSC       STATUS+0, 2 
	GOTO        L_SetOverloadParams811
	MOVF        FARG_SetOverloadParams_p2+0, 0 
	XORLW       6
	BTFSC       STATUS+0, 2 
	GOTO        L_SetOverloadParams812
	MOVF        FARG_SetOverloadParams_p2+0, 0 
	XORLW       7
	BTFSC       STATUS+0, 2 
	GOTO        L_SetOverloadParams813
	MOVF        FARG_SetOverloadParams_p2+0, 0 
	XORLW       8
	BTFSC       STATUS+0, 2 
	GOTO        L_SetOverloadParams814
	MOVF        FARG_SetOverloadParams_p2+0, 0 
	XORLW       9
	BTFSC       STATUS+0, 2 
	GOTO        L_SetOverloadParams815
	MOVF        FARG_SetOverloadParams_p2+0, 0 
	XORLW       10
	BTFSC       STATUS+0, 2 
	GOTO        L_SetOverloadParams816
	MOVF        FARG_SetOverloadParams_p2+0, 0 
	XORLW       11
	BTFSC       STATUS+0, 2 
	GOTO        L_SetOverloadParams817
	MOVF        FARG_SetOverloadParams_p2+0, 0 
	XORLW       12
	BTFSC       STATUS+0, 2 
	GOTO        L_SetOverloadParams818
	MOVF        FARG_SetOverloadParams_p2+0, 0 
	XORLW       13
	BTFSC       STATUS+0, 2 
	GOTO        L_SetOverloadParams819
	MOVF        FARG_SetOverloadParams_p2+0, 0 
	XORLW       14
	BTFSC       STATUS+0, 2 
	GOTO        L_SetOverloadParams820
	MOVF        FARG_SetOverloadParams_p2+0, 0 
	XORLW       15
	BTFSC       STATUS+0, 2 
	GOTO        L_SetOverloadParams821
L_SetOverloadParams805:
;FirmV_0_7_0.c,3037 :: 		switch(d2)
	GOTO        L_SetOverloadParams822
;FirmV_0_7_0.c,3039 :: 		case 0: OverloadDuration2=100; break;
L_SetOverloadParams824:
	MOVLW       100
	MOVWF       _OverloadDuration2+0 
	MOVLW       0
	MOVWF       _OverloadDuration2+1 
	GOTO        L_SetOverloadParams823
;FirmV_0_7_0.c,3041 :: 		case 1: OverloadDuration2=500; break;
L_SetOverloadParams825:
	MOVLW       244
	MOVWF       _OverloadDuration2+0 
	MOVLW       1
	MOVWF       _OverloadDuration2+1 
	GOTO        L_SetOverloadParams823
;FirmV_0_7_0.c,3043 :: 		case 2: OverloadDuration2=1000; break;
L_SetOverloadParams826:
	MOVLW       232
	MOVWF       _OverloadDuration2+0 
	MOVLW       3
	MOVWF       _OverloadDuration2+1 
	GOTO        L_SetOverloadParams823
;FirmV_0_7_0.c,3045 :: 		case 3: OverloadDuration2=1500; break;
L_SetOverloadParams827:
	MOVLW       220
	MOVWF       _OverloadDuration2+0 
	MOVLW       5
	MOVWF       _OverloadDuration2+1 
	GOTO        L_SetOverloadParams823
;FirmV_0_7_0.c,3047 :: 		case 4: OverloadDuration2=2000; break;
L_SetOverloadParams828:
	MOVLW       208
	MOVWF       _OverloadDuration2+0 
	MOVLW       7
	MOVWF       _OverloadDuration2+1 
	GOTO        L_SetOverloadParams823
;FirmV_0_7_0.c,3049 :: 		case 5: OverloadDuration2=2500; break;
L_SetOverloadParams829:
	MOVLW       196
	MOVWF       _OverloadDuration2+0 
	MOVLW       9
	MOVWF       _OverloadDuration2+1 
	GOTO        L_SetOverloadParams823
;FirmV_0_7_0.c,3051 :: 		case 6: OverloadDuration2=3000; break;
L_SetOverloadParams830:
	MOVLW       184
	MOVWF       _OverloadDuration2+0 
	MOVLW       11
	MOVWF       _OverloadDuration2+1 
	GOTO        L_SetOverloadParams823
;FirmV_0_7_0.c,3053 :: 		case 7: OverloadDuration2=3500; break;
L_SetOverloadParams831:
	MOVLW       172
	MOVWF       _OverloadDuration2+0 
	MOVLW       13
	MOVWF       _OverloadDuration2+1 
	GOTO        L_SetOverloadParams823
;FirmV_0_7_0.c,3055 :: 		case 8: OverloadDuration2=4000; break;
L_SetOverloadParams832:
	MOVLW       160
	MOVWF       _OverloadDuration2+0 
	MOVLW       15
	MOVWF       _OverloadDuration2+1 
	GOTO        L_SetOverloadParams823
;FirmV_0_7_0.c,3057 :: 		case 9: OverloadDuration2=4500; break;
L_SetOverloadParams833:
	MOVLW       148
	MOVWF       _OverloadDuration2+0 
	MOVLW       17
	MOVWF       _OverloadDuration2+1 
	GOTO        L_SetOverloadParams823
;FirmV_0_7_0.c,3059 :: 		case 10: OverloadDuration2=5000; break;
L_SetOverloadParams834:
	MOVLW       136
	MOVWF       _OverloadDuration2+0 
	MOVLW       19
	MOVWF       _OverloadDuration2+1 
	GOTO        L_SetOverloadParams823
;FirmV_0_7_0.c,3060 :: 		}
L_SetOverloadParams822:
	MOVF        FARG_SetOverloadParams_d2+0, 0 
	XORLW       0
	BTFSC       STATUS+0, 2 
	GOTO        L_SetOverloadParams824
	MOVF        FARG_SetOverloadParams_d2+0, 0 
	XORLW       1
	BTFSC       STATUS+0, 2 
	GOTO        L_SetOverloadParams825
	MOVF        FARG_SetOverloadParams_d2+0, 0 
	XORLW       2
	BTFSC       STATUS+0, 2 
	GOTO        L_SetOverloadParams826
	MOVF        FARG_SetOverloadParams_d2+0, 0 
	XORLW       3
	BTFSC       STATUS+0, 2 
	GOTO        L_SetOverloadParams827
	MOVF        FARG_SetOverloadParams_d2+0, 0 
	XORLW       4
	BTFSC       STATUS+0, 2 
	GOTO        L_SetOverloadParams828
	MOVF        FARG_SetOverloadParams_d2+0, 0 
	XORLW       5
	BTFSC       STATUS+0, 2 
	GOTO        L_SetOverloadParams829
	MOVF        FARG_SetOverloadParams_d2+0, 0 
	XORLW       6
	BTFSC       STATUS+0, 2 
	GOTO        L_SetOverloadParams830
	MOVF        FARG_SetOverloadParams_d2+0, 0 
	XORLW       7
	BTFSC       STATUS+0, 2 
	GOTO        L_SetOverloadParams831
	MOVF        FARG_SetOverloadParams_d2+0, 0 
	XORLW       8
	BTFSC       STATUS+0, 2 
	GOTO        L_SetOverloadParams832
	MOVF        FARG_SetOverloadParams_d2+0, 0 
	XORLW       9
	BTFSC       STATUS+0, 2 
	GOTO        L_SetOverloadParams833
	MOVF        FARG_SetOverloadParams_d2+0, 0 
	XORLW       10
	BTFSC       STATUS+0, 2 
	GOTO        L_SetOverloadParams834
L_SetOverloadParams823:
;FirmV_0_7_0.c,3061 :: 		}
L_end_SetOverloadParams:
	RETURN      0
; end of _SetOverloadParams

_TorqueLogger:

;FirmV_0_7_0.c,3082 :: 		void TorqueLogger()
;FirmV_0_7_0.c,3085 :: 		switch(State)
	GOTO        L_TorqueLogger835
;FirmV_0_7_0.c,3087 :: 		case 3:
L_TorqueLogger837:
;FirmV_0_7_0.c,3088 :: 		txt[0]='D';txt[1]='3';txt[2]='1';txt[3]='-';
	MOVLW       68
	MOVWF       TorqueLogger_txt_L0+0 
	MOVLW       51
	MOVWF       TorqueLogger_txt_L0+1 
	MOVLW       49
	MOVWF       TorqueLogger_txt_L0+2 
	MOVLW       45
	MOVWF       TorqueLogger_txt_L0+3 
;FirmV_0_7_0.c,3089 :: 		wordtostrwithzeros(VCapM1,txt+4);
	MOVF        _VCapM1+0, 0 
	MOVWF       FARG_WordToStrWithZeros_input+0 
	MOVF        _VCapM1+1, 0 
	MOVWF       FARG_WordToStrWithZeros_input+1 
	MOVLW       TorqueLogger_txt_L0+4
	MOVWF       FARG_WordToStrWithZeros_output+0 
	MOVLW       hi_addr(TorqueLogger_txt_L0+4)
	MOVWF       FARG_WordToStrWithZeros_output+1 
	CALL        _WordToStrWithZeros+0, 0
;FirmV_0_7_0.c,3090 :: 		txt[9]=0;
	CLRF        TorqueLogger_txt_L0+9 
;FirmV_0_7_0.c,3091 :: 		Logger(txt,0);
	MOVLW       TorqueLogger_txt_L0+0
	MOVWF       FARG_Logger_text+0 
	MOVLW       hi_addr(TorqueLogger_txt_L0+0)
	MOVWF       FARG_Logger_text+1 
	CLRF        FARG_Logger_TimeStampFlag+0 
	CALL        _Logger+0, 0
;FirmV_0_7_0.c,3093 :: 		txt[0]='D';txt[1]='3';txt[2]='2';txt[3]='-';
	MOVLW       68
	MOVWF       TorqueLogger_txt_L0+0 
	MOVLW       51
	MOVWF       TorqueLogger_txt_L0+1 
	MOVLW       50
	MOVWF       TorqueLogger_txt_L0+2 
	MOVLW       45
	MOVWF       TorqueLogger_txt_L0+3 
;FirmV_0_7_0.c,3094 :: 		wordtostrwithzeros(VCapM2,txt+4);
	MOVF        _VCapM2+0, 0 
	MOVWF       FARG_WordToStrWithZeros_input+0 
	MOVF        _VCapM2+1, 0 
	MOVWF       FARG_WordToStrWithZeros_input+1 
	MOVLW       TorqueLogger_txt_L0+4
	MOVWF       FARG_WordToStrWithZeros_output+0 
	MOVLW       hi_addr(TorqueLogger_txt_L0+4)
	MOVWF       FARG_WordToStrWithZeros_output+1 
	CALL        _WordToStrWithZeros+0, 0
;FirmV_0_7_0.c,3095 :: 		txt[9]=0;
	CLRF        TorqueLogger_txt_L0+9 
;FirmV_0_7_0.c,3096 :: 		Logger(txt,0);
	MOVLW       TorqueLogger_txt_L0+0
	MOVWF       FARG_Logger_text+0 
	MOVLW       hi_addr(TorqueLogger_txt_L0+0)
	MOVWF       FARG_Logger_text+1 
	CLRF        FARG_Logger_TimeStampFlag+0 
	CALL        _Logger+0, 0
;FirmV_0_7_0.c,3098 :: 		break;
	GOTO        L_TorqueLogger836
;FirmV_0_7_0.c,3100 :: 		case 4:
L_TorqueLogger838:
;FirmV_0_7_0.c,3101 :: 		txt[0]='D';txt[1]='4';txt[2]='1';txt[3]='-';
	MOVLW       68
	MOVWF       TorqueLogger_txt_L0+0 
	MOVLW       52
	MOVWF       TorqueLogger_txt_L0+1 
	MOVLW       49
	MOVWF       TorqueLogger_txt_L0+2 
	MOVLW       45
	MOVWF       TorqueLogger_txt_L0+3 
;FirmV_0_7_0.c,3102 :: 		wordtostrwithzeros(VCapM1,txt+4);
	MOVF        _VCapM1+0, 0 
	MOVWF       FARG_WordToStrWithZeros_input+0 
	MOVF        _VCapM1+1, 0 
	MOVWF       FARG_WordToStrWithZeros_input+1 
	MOVLW       TorqueLogger_txt_L0+4
	MOVWF       FARG_WordToStrWithZeros_output+0 
	MOVLW       hi_addr(TorqueLogger_txt_L0+4)
	MOVWF       FARG_WordToStrWithZeros_output+1 
	CALL        _WordToStrWithZeros+0, 0
;FirmV_0_7_0.c,3103 :: 		txt[9]=0;
	CLRF        TorqueLogger_txt_L0+9 
;FirmV_0_7_0.c,3104 :: 		Logger(txt,0);
	MOVLW       TorqueLogger_txt_L0+0
	MOVWF       FARG_Logger_text+0 
	MOVLW       hi_addr(TorqueLogger_txt_L0+0)
	MOVWF       FARG_Logger_text+1 
	CLRF        FARG_Logger_TimeStampFlag+0 
	CALL        _Logger+0, 0
;FirmV_0_7_0.c,3106 :: 		txt[0]='D';txt[1]='4';txt[2]='2';txt[3]='-';
	MOVLW       68
	MOVWF       TorqueLogger_txt_L0+0 
	MOVLW       52
	MOVWF       TorqueLogger_txt_L0+1 
	MOVLW       50
	MOVWF       TorqueLogger_txt_L0+2 
	MOVLW       45
	MOVWF       TorqueLogger_txt_L0+3 
;FirmV_0_7_0.c,3107 :: 		wordtostrwithzeros(VCapM2,txt+4);
	MOVF        _VCapM2+0, 0 
	MOVWF       FARG_WordToStrWithZeros_input+0 
	MOVF        _VCapM2+1, 0 
	MOVWF       FARG_WordToStrWithZeros_input+1 
	MOVLW       TorqueLogger_txt_L0+4
	MOVWF       FARG_WordToStrWithZeros_output+0 
	MOVLW       hi_addr(TorqueLogger_txt_L0+4)
	MOVWF       FARG_WordToStrWithZeros_output+1 
	CALL        _WordToStrWithZeros+0, 0
;FirmV_0_7_0.c,3108 :: 		txt[9]=0;
	CLRF        TorqueLogger_txt_L0+9 
;FirmV_0_7_0.c,3109 :: 		Logger(txt,0);
	MOVLW       TorqueLogger_txt_L0+0
	MOVWF       FARG_Logger_text+0 
	MOVLW       hi_addr(TorqueLogger_txt_L0+0)
	MOVWF       FARG_Logger_text+1 
	CLRF        FARG_Logger_TimeStampFlag+0 
	CALL        _Logger+0, 0
;FirmV_0_7_0.c,3111 :: 		break;
	GOTO        L_TorqueLogger836
;FirmV_0_7_0.c,3113 :: 		case 7:
L_TorqueLogger839:
;FirmV_0_7_0.c,3114 :: 		txt[0]='D';txt[1]='7';txt[2]='1';txt[3]='-';
	MOVLW       68
	MOVWF       TorqueLogger_txt_L0+0 
	MOVLW       55
	MOVWF       TorqueLogger_txt_L0+1 
	MOVLW       49
	MOVWF       TorqueLogger_txt_L0+2 
	MOVLW       45
	MOVWF       TorqueLogger_txt_L0+3 
;FirmV_0_7_0.c,3115 :: 		wordtostrwithzeros(VCapM1,txt+4);
	MOVF        _VCapM1+0, 0 
	MOVWF       FARG_WordToStrWithZeros_input+0 
	MOVF        _VCapM1+1, 0 
	MOVWF       FARG_WordToStrWithZeros_input+1 
	MOVLW       TorqueLogger_txt_L0+4
	MOVWF       FARG_WordToStrWithZeros_output+0 
	MOVLW       hi_addr(TorqueLogger_txt_L0+4)
	MOVWF       FARG_WordToStrWithZeros_output+1 
	CALL        _WordToStrWithZeros+0, 0
;FirmV_0_7_0.c,3116 :: 		txt[9]=0;
	CLRF        TorqueLogger_txt_L0+9 
;FirmV_0_7_0.c,3117 :: 		Logger(txt,0);
	MOVLW       TorqueLogger_txt_L0+0
	MOVWF       FARG_Logger_text+0 
	MOVLW       hi_addr(TorqueLogger_txt_L0+0)
	MOVWF       FARG_Logger_text+1 
	CLRF        FARG_Logger_TimeStampFlag+0 
	CALL        _Logger+0, 0
;FirmV_0_7_0.c,3119 :: 		txt[0]='D';txt[1]='7';txt[2]='2';txt[3]='-';
	MOVLW       68
	MOVWF       TorqueLogger_txt_L0+0 
	MOVLW       55
	MOVWF       TorqueLogger_txt_L0+1 
	MOVLW       50
	MOVWF       TorqueLogger_txt_L0+2 
	MOVLW       45
	MOVWF       TorqueLogger_txt_L0+3 
;FirmV_0_7_0.c,3120 :: 		wordtostrwithzeros(VCapM2,txt+4);
	MOVF        _VCapM2+0, 0 
	MOVWF       FARG_WordToStrWithZeros_input+0 
	MOVF        _VCapM2+1, 0 
	MOVWF       FARG_WordToStrWithZeros_input+1 
	MOVLW       TorqueLogger_txt_L0+4
	MOVWF       FARG_WordToStrWithZeros_output+0 
	MOVLW       hi_addr(TorqueLogger_txt_L0+4)
	MOVWF       FARG_WordToStrWithZeros_output+1 
	CALL        _WordToStrWithZeros+0, 0
;FirmV_0_7_0.c,3121 :: 		txt[9]=0;
	CLRF        TorqueLogger_txt_L0+9 
;FirmV_0_7_0.c,3122 :: 		Logger(txt,0);
	MOVLW       TorqueLogger_txt_L0+0
	MOVWF       FARG_Logger_text+0 
	MOVLW       hi_addr(TorqueLogger_txt_L0+0)
	MOVWF       FARG_Logger_text+1 
	CLRF        FARG_Logger_TimeStampFlag+0 
	CALL        _Logger+0, 0
;FirmV_0_7_0.c,3124 :: 		break;
	GOTO        L_TorqueLogger836
;FirmV_0_7_0.c,3126 :: 		case 8:
L_TorqueLogger840:
;FirmV_0_7_0.c,3127 :: 		txt[0]='D';txt[1]='8';txt[2]='1';txt[3]='-';
	MOVLW       68
	MOVWF       TorqueLogger_txt_L0+0 
	MOVLW       56
	MOVWF       TorqueLogger_txt_L0+1 
	MOVLW       49
	MOVWF       TorqueLogger_txt_L0+2 
	MOVLW       45
	MOVWF       TorqueLogger_txt_L0+3 
;FirmV_0_7_0.c,3128 :: 		wordtostrwithzeros(VCapM1,txt+4);
	MOVF        _VCapM1+0, 0 
	MOVWF       FARG_WordToStrWithZeros_input+0 
	MOVF        _VCapM1+1, 0 
	MOVWF       FARG_WordToStrWithZeros_input+1 
	MOVLW       TorqueLogger_txt_L0+4
	MOVWF       FARG_WordToStrWithZeros_output+0 
	MOVLW       hi_addr(TorqueLogger_txt_L0+4)
	MOVWF       FARG_WordToStrWithZeros_output+1 
	CALL        _WordToStrWithZeros+0, 0
;FirmV_0_7_0.c,3129 :: 		txt[9]=0;
	CLRF        TorqueLogger_txt_L0+9 
;FirmV_0_7_0.c,3130 :: 		Logger(txt,0);
	MOVLW       TorqueLogger_txt_L0+0
	MOVWF       FARG_Logger_text+0 
	MOVLW       hi_addr(TorqueLogger_txt_L0+0)
	MOVWF       FARG_Logger_text+1 
	CLRF        FARG_Logger_TimeStampFlag+0 
	CALL        _Logger+0, 0
;FirmV_0_7_0.c,3132 :: 		txt[0]='D';txt[1]='8';txt[2]='2';txt[3]='-';
	MOVLW       68
	MOVWF       TorqueLogger_txt_L0+0 
	MOVLW       56
	MOVWF       TorqueLogger_txt_L0+1 
	MOVLW       50
	MOVWF       TorqueLogger_txt_L0+2 
	MOVLW       45
	MOVWF       TorqueLogger_txt_L0+3 
;FirmV_0_7_0.c,3133 :: 		wordtostrwithzeros(VCapM2,txt+4);
	MOVF        _VCapM2+0, 0 
	MOVWF       FARG_WordToStrWithZeros_input+0 
	MOVF        _VCapM2+1, 0 
	MOVWF       FARG_WordToStrWithZeros_input+1 
	MOVLW       TorqueLogger_txt_L0+4
	MOVWF       FARG_WordToStrWithZeros_output+0 
	MOVLW       hi_addr(TorqueLogger_txt_L0+4)
	MOVWF       FARG_WordToStrWithZeros_output+1 
	CALL        _WordToStrWithZeros+0, 0
;FirmV_0_7_0.c,3134 :: 		txt[9]=0;
	CLRF        TorqueLogger_txt_L0+9 
;FirmV_0_7_0.c,3135 :: 		Logger(txt,0);
	MOVLW       TorqueLogger_txt_L0+0
	MOVWF       FARG_Logger_text+0 
	MOVLW       hi_addr(TorqueLogger_txt_L0+0)
	MOVWF       FARG_Logger_text+1 
	CLRF        FARG_Logger_TimeStampFlag+0 
	CALL        _Logger+0, 0
;FirmV_0_7_0.c,3137 :: 		break;
	GOTO        L_TorqueLogger836
;FirmV_0_7_0.c,3139 :: 		case 200:
L_TorqueLogger841:
;FirmV_0_7_0.c,3140 :: 		txt[0]='D';txt[1]='L';txt[2]='1';txt[3]='-';
	MOVLW       68
	MOVWF       TorqueLogger_txt_L0+0 
	MOVLW       76
	MOVWF       TorqueLogger_txt_L0+1 
	MOVLW       49
	MOVWF       TorqueLogger_txt_L0+2 
	MOVLW       45
	MOVWF       TorqueLogger_txt_L0+3 
;FirmV_0_7_0.c,3141 :: 		wordtostrwithzeros(VCapM1,txt+4);
	MOVF        _VCapM1+0, 0 
	MOVWF       FARG_WordToStrWithZeros_input+0 
	MOVF        _VCapM1+1, 0 
	MOVWF       FARG_WordToStrWithZeros_input+1 
	MOVLW       TorqueLogger_txt_L0+4
	MOVWF       FARG_WordToStrWithZeros_output+0 
	MOVLW       hi_addr(TorqueLogger_txt_L0+4)
	MOVWF       FARG_WordToStrWithZeros_output+1 
	CALL        _WordToStrWithZeros+0, 0
;FirmV_0_7_0.c,3142 :: 		txt[9]=0;
	CLRF        TorqueLogger_txt_L0+9 
;FirmV_0_7_0.c,3143 :: 		Logger(txt,0);
	MOVLW       TorqueLogger_txt_L0+0
	MOVWF       FARG_Logger_text+0 
	MOVLW       hi_addr(TorqueLogger_txt_L0+0)
	MOVWF       FARG_Logger_text+1 
	CLRF        FARG_Logger_TimeStampFlag+0 
	CALL        _Logger+0, 0
;FirmV_0_7_0.c,3145 :: 		txt[0]='D';txt[1]='L';txt[2]='2';txt[3]='-';
	MOVLW       68
	MOVWF       TorqueLogger_txt_L0+0 
	MOVLW       76
	MOVWF       TorqueLogger_txt_L0+1 
	MOVLW       50
	MOVWF       TorqueLogger_txt_L0+2 
	MOVLW       45
	MOVWF       TorqueLogger_txt_L0+3 
;FirmV_0_7_0.c,3146 :: 		wordtostrwithzeros(VCapM2,txt+4);
	MOVF        _VCapM2+0, 0 
	MOVWF       FARG_WordToStrWithZeros_input+0 
	MOVF        _VCapM2+1, 0 
	MOVWF       FARG_WordToStrWithZeros_input+1 
	MOVLW       TorqueLogger_txt_L0+4
	MOVWF       FARG_WordToStrWithZeros_output+0 
	MOVLW       hi_addr(TorqueLogger_txt_L0+4)
	MOVWF       FARG_WordToStrWithZeros_output+1 
	CALL        _WordToStrWithZeros+0, 0
;FirmV_0_7_0.c,3147 :: 		txt[9]=0;
	CLRF        TorqueLogger_txt_L0+9 
;FirmV_0_7_0.c,3148 :: 		Logger(txt,0);
	MOVLW       TorqueLogger_txt_L0+0
	MOVWF       FARG_Logger_text+0 
	MOVLW       hi_addr(TorqueLogger_txt_L0+0)
	MOVWF       FARG_Logger_text+1 
	CLRF        FARG_Logger_TimeStampFlag+0 
	CALL        _Logger+0, 0
;FirmV_0_7_0.c,3150 :: 		break;
	GOTO        L_TorqueLogger836
;FirmV_0_7_0.c,3152 :: 		}
L_TorqueLogger835:
	MOVF        _State+0, 0 
	XORLW       3
	BTFSC       STATUS+0, 2 
	GOTO        L_TorqueLogger837
	MOVF        _State+0, 0 
	XORLW       4
	BTFSC       STATUS+0, 2 
	GOTO        L_TorqueLogger838
	MOVF        _State+0, 0 
	XORLW       7
	BTFSC       STATUS+0, 2 
	GOTO        L_TorqueLogger839
	MOVF        _State+0, 0 
	XORLW       8
	BTFSC       STATUS+0, 2 
	GOTO        L_TorqueLogger840
	MOVF        _State+0, 0 
	XORLW       200
	BTFSC       STATUS+0, 2 
	GOTO        L_TorqueLogger841
L_TorqueLogger836:
;FirmV_0_7_0.c,3153 :: 		}
L_end_TorqueLogger:
	RETURN      0
; end of _TorqueLogger

_AutoClosePause:

;FirmV_0_7_0.c,3173 :: 		void AutoClosePause()
;FirmV_0_7_0.c,3176 :: 		if((AutoClosePauseFlag) && (Events.Photocell.b0==1))
	MOVF        _AutoClosePauseFlag+0, 1 
	BTFSC       STATUS+0, 2 
	GOTO        L_AutoClosePause844
	BTFSS       _Events+6, 0 
	GOTO        L_AutoClosePause844
L__AutoClosePause1003:
;FirmV_0_7_0.c,3177 :: 		for(i=0;i<20;i++)
	CLRF        AutoClosePause_i_L0+0 
L_AutoClosePause845:
	MOVLW       20
	SUBWF       AutoClosePause_i_L0+0, 0 
	BTFSC       STATUS+0, 0 
	GOTO        L_AutoClosePause846
;FirmV_0_7_0.c,3178 :: 		if((Tasks[i].Expired==0)&&(Tasks[i].TaskCode==9))
	MOVLW       7
	MOVWF       R0 
	MOVLW       0
	MOVWF       R1 
	MOVF        AutoClosePause_i_L0+0, 0 
	MOVWF       R4 
	MOVLW       0
	MOVWF       R5 
	CALL        _Mul_16X16_U+0, 0
	MOVLW       _Tasks+0
	ADDWF       R0, 1 
	MOVLW       hi_addr(_Tasks+0)
	ADDWFC      R1, 1 
	MOVLW       5
	ADDWF       R0, 0 
	MOVWF       FSR0 
	MOVLW       0
	ADDWFC      R1, 0 
	MOVWF       FSR0H 
	MOVF        POSTINC0+0, 0 
	XORLW       0
	BTFSS       STATUS+0, 2 
	GOTO        L_AutoClosePause850
	MOVLW       7
	MOVWF       R0 
	MOVLW       0
	MOVWF       R1 
	MOVF        AutoClosePause_i_L0+0, 0 
	MOVWF       R4 
	MOVLW       0
	MOVWF       R5 
	CALL        _Mul_16X16_U+0, 0
	MOVLW       _Tasks+0
	ADDWF       R0, 0 
	MOVWF       FSR0 
	MOVLW       hi_addr(_Tasks+0)
	ADDWFC      R1, 0 
	MOVWF       FSR0H 
	MOVF        POSTINC0+0, 0 
	MOVWF       R1 
	MOVF        R1, 0 
	XORLW       9
	BTFSS       STATUS+0, 2 
	GOTO        L_AutoClosePause850
L__AutoClosePause1002:
;FirmV_0_7_0.c,3179 :: 		{Tasks[i].Time=Tasks[i].Time+1;}
	MOVLW       7
	MOVWF       R0 
	MOVLW       0
	MOVWF       R1 
	MOVF        AutoClosePause_i_L0+0, 0 
	MOVWF       R4 
	MOVLW       0
	MOVWF       R5 
	CALL        _Mul_16X16_U+0, 0
	MOVLW       _Tasks+0
	ADDWF       R0, 1 
	MOVLW       hi_addr(_Tasks+0)
	ADDWFC      R1, 1 
	MOVLW       1
	ADDWF       R0, 0 
	MOVWF       R4 
	MOVLW       0
	ADDWFC      R1, 0 
	MOVWF       R5 
	MOVFF       R4, FSR0
	MOVFF       R5, FSR0H
	MOVLW       1
	ADDWF       POSTINC0+0, 0 
	MOVWF       R0 
	MOVLW       0
	ADDWFC      POSTINC0+0, 0 
	MOVWF       R1 
	MOVLW       0
	ADDWFC      POSTINC0+0, 0 
	MOVWF       R2 
	MOVLW       0
	ADDWFC      POSTINC0+0, 0 
	MOVWF       R3 
	MOVFF       R4, FSR1
	MOVFF       R5, FSR1H
	MOVF        R0, 0 
	MOVWF       POSTINC1+0 
	MOVF        R1, 0 
	MOVWF       POSTINC1+0 
	MOVF        R2, 0 
	MOVWF       POSTINC1+0 
	MOVF        R3, 0 
	MOVWF       POSTINC1+0 
L_AutoClosePause850:
;FirmV_0_7_0.c,3177 :: 		for(i=0;i<20;i++)
	INCF        AutoClosePause_i_L0+0, 1 
;FirmV_0_7_0.c,3179 :: 		{Tasks[i].Time=Tasks[i].Time+1;}
	GOTO        L_AutoClosePause845
L_AutoClosePause846:
L_AutoClosePause844:
;FirmV_0_7_0.c,3180 :: 		}
L_end_AutoClosePause:
	RETURN      0
; end of _AutoClosePause

_SetSoftPower:

;FirmV_0_7_0.c,3194 :: 		void SetSoftPower()
;FirmV_0_7_0.c,3196 :: 		switch(M1SoftPower)
	GOTO        L_SetSoftPower851
;FirmV_0_7_0.c,3198 :: 		case 1: M1SoftTM=0x50;M1SoftTL=0x37;break;
L_SetSoftPower853:
	MOVLW       80
	MOVWF       _M1SoftTM+0 
	MOVLW       55
	MOVWF       _M1SoftTL+0 
	GOTO        L_SetSoftPower852
;FirmV_0_7_0.c,3199 :: 		case 2: M1SoftTM=0x63;M1SoftTL=0xBF;break;
L_SetSoftPower854:
	MOVLW       99
	MOVWF       _M1SoftTM+0 
	MOVLW       191
	MOVWF       _M1SoftTL+0 
	GOTO        L_SetSoftPower852
;FirmV_0_7_0.c,3200 :: 		case 3: M1SoftTM=0x77;M1SoftTL=0x47;break;
L_SetSoftPower855:
	MOVLW       119
	MOVWF       _M1SoftTM+0 
	MOVLW       71
	MOVWF       _M1SoftTL+0 
	GOTO        L_SetSoftPower852
;FirmV_0_7_0.c,3201 :: 		case 4: M1SoftTM=0x8A;M1SoftTL=0xCF;break;
L_SetSoftPower856:
	MOVLW       138
	MOVWF       _M1SoftTM+0 
	MOVLW       207
	MOVWF       _M1SoftTL+0 
	GOTO        L_SetSoftPower852
;FirmV_0_7_0.c,3202 :: 		case 5: M1SoftTM=0x9E;M1SoftTL=0x57;break;
L_SetSoftPower857:
	MOVLW       158
	MOVWF       _M1SoftTM+0 
	MOVLW       87
	MOVWF       _M1SoftTL+0 
	GOTO        L_SetSoftPower852
;FirmV_0_7_0.c,3203 :: 		case 6: M1SoftTM=0xB1;M1SoftTL=0xDF;break;
L_SetSoftPower858:
	MOVLW       177
	MOVWF       _M1SoftTM+0 
	MOVLW       223
	MOVWF       _M1SoftTL+0 
	GOTO        L_SetSoftPower852
;FirmV_0_7_0.c,3204 :: 		case 7: M1SoftTM=0xC5;M1SoftTL=0x67;break;
L_SetSoftPower859:
	MOVLW       197
	MOVWF       _M1SoftTM+0 
	MOVLW       103
	MOVWF       _M1SoftTL+0 
	GOTO        L_SetSoftPower852
;FirmV_0_7_0.c,3205 :: 		case 8: M1SoftTM=0xD8;M1SoftTL=0xEF;break;
L_SetSoftPower860:
	MOVLW       216
	MOVWF       _M1SoftTM+0 
	MOVLW       239
	MOVWF       _M1SoftTL+0 
	GOTO        L_SetSoftPower852
;FirmV_0_7_0.c,3206 :: 		case 9: M1SoftTM=0xEC;M1SoftTL=0x77;break;
L_SetSoftPower861:
	MOVLW       236
	MOVWF       _M1SoftTM+0 
	MOVLW       119
	MOVWF       _M1SoftTL+0 
	GOTO        L_SetSoftPower852
;FirmV_0_7_0.c,3207 :: 		case 10:M1SoftTM=0xFF;M1SoftTL=0x00;break;
L_SetSoftPower862:
	MOVLW       255
	MOVWF       _M1SoftTM+0 
	CLRF        _M1SoftTL+0 
	GOTO        L_SetSoftPower852
;FirmV_0_7_0.c,3208 :: 		}
L_SetSoftPower851:
	MOVLW       0
	XORWF       _M1SoftPower+1, 0 
	BTFSS       STATUS+0, 2 
	GOTO        L__SetSoftPower1106
	MOVLW       1
	XORWF       _M1SoftPower+0, 0 
L__SetSoftPower1106:
	BTFSC       STATUS+0, 2 
	GOTO        L_SetSoftPower853
	MOVLW       0
	XORWF       _M1SoftPower+1, 0 
	BTFSS       STATUS+0, 2 
	GOTO        L__SetSoftPower1107
	MOVLW       2
	XORWF       _M1SoftPower+0, 0 
L__SetSoftPower1107:
	BTFSC       STATUS+0, 2 
	GOTO        L_SetSoftPower854
	MOVLW       0
	XORWF       _M1SoftPower+1, 0 
	BTFSS       STATUS+0, 2 
	GOTO        L__SetSoftPower1108
	MOVLW       3
	XORWF       _M1SoftPower+0, 0 
L__SetSoftPower1108:
	BTFSC       STATUS+0, 2 
	GOTO        L_SetSoftPower855
	MOVLW       0
	XORWF       _M1SoftPower+1, 0 
	BTFSS       STATUS+0, 2 
	GOTO        L__SetSoftPower1109
	MOVLW       4
	XORWF       _M1SoftPower+0, 0 
L__SetSoftPower1109:
	BTFSC       STATUS+0, 2 
	GOTO        L_SetSoftPower856
	MOVLW       0
	XORWF       _M1SoftPower+1, 0 
	BTFSS       STATUS+0, 2 
	GOTO        L__SetSoftPower1110
	MOVLW       5
	XORWF       _M1SoftPower+0, 0 
L__SetSoftPower1110:
	BTFSC       STATUS+0, 2 
	GOTO        L_SetSoftPower857
	MOVLW       0
	XORWF       _M1SoftPower+1, 0 
	BTFSS       STATUS+0, 2 
	GOTO        L__SetSoftPower1111
	MOVLW       6
	XORWF       _M1SoftPower+0, 0 
L__SetSoftPower1111:
	BTFSC       STATUS+0, 2 
	GOTO        L_SetSoftPower858
	MOVLW       0
	XORWF       _M1SoftPower+1, 0 
	BTFSS       STATUS+0, 2 
	GOTO        L__SetSoftPower1112
	MOVLW       7
	XORWF       _M1SoftPower+0, 0 
L__SetSoftPower1112:
	BTFSC       STATUS+0, 2 
	GOTO        L_SetSoftPower859
	MOVLW       0
	XORWF       _M1SoftPower+1, 0 
	BTFSS       STATUS+0, 2 
	GOTO        L__SetSoftPower1113
	MOVLW       8
	XORWF       _M1SoftPower+0, 0 
L__SetSoftPower1113:
	BTFSC       STATUS+0, 2 
	GOTO        L_SetSoftPower860
	MOVLW       0
	XORWF       _M1SoftPower+1, 0 
	BTFSS       STATUS+0, 2 
	GOTO        L__SetSoftPower1114
	MOVLW       9
	XORWF       _M1SoftPower+0, 0 
L__SetSoftPower1114:
	BTFSC       STATUS+0, 2 
	GOTO        L_SetSoftPower861
	MOVLW       0
	XORWF       _M1SoftPower+1, 0 
	BTFSS       STATUS+0, 2 
	GOTO        L__SetSoftPower1115
	MOVLW       10
	XORWF       _M1SoftPower+0, 0 
L__SetSoftPower1115:
	BTFSC       STATUS+0, 2 
	GOTO        L_SetSoftPower862
L_SetSoftPower852:
;FirmV_0_7_0.c,3210 :: 		switch(M2SoftPower)
	GOTO        L_SetSoftPower863
;FirmV_0_7_0.c,3212 :: 		case 1: M2SoftTM=0x50;M2SoftTL=0x37;break;
L_SetSoftPower865:
	MOVLW       80
	MOVWF       _M2SoftTM+0 
	MOVLW       55
	MOVWF       _M2SoftTL+0 
	GOTO        L_SetSoftPower864
;FirmV_0_7_0.c,3213 :: 		case 2: M2SoftTM=0x63;M2SoftTL=0xBF;break;
L_SetSoftPower866:
	MOVLW       99
	MOVWF       _M2SoftTM+0 
	MOVLW       191
	MOVWF       _M2SoftTL+0 
	GOTO        L_SetSoftPower864
;FirmV_0_7_0.c,3214 :: 		case 3: M2SoftTM=0x77;M2SoftTL=0x47;break;
L_SetSoftPower867:
	MOVLW       119
	MOVWF       _M2SoftTM+0 
	MOVLW       71
	MOVWF       _M2SoftTL+0 
	GOTO        L_SetSoftPower864
;FirmV_0_7_0.c,3215 :: 		case 4: M2SoftTM=0x8A;M2SoftTL=0xCF;break;
L_SetSoftPower868:
	MOVLW       138
	MOVWF       _M2SoftTM+0 
	MOVLW       207
	MOVWF       _M2SoftTL+0 
	GOTO        L_SetSoftPower864
;FirmV_0_7_0.c,3216 :: 		case 5: M2SoftTM=0x9E;M2SoftTL=0x57;break;
L_SetSoftPower869:
	MOVLW       158
	MOVWF       _M2SoftTM+0 
	MOVLW       87
	MOVWF       _M2SoftTL+0 
	GOTO        L_SetSoftPower864
;FirmV_0_7_0.c,3217 :: 		case 6: M2SoftTM=0xB1;M2SoftTL=0xDF;break;
L_SetSoftPower870:
	MOVLW       177
	MOVWF       _M2SoftTM+0 
	MOVLW       223
	MOVWF       _M2SoftTL+0 
	GOTO        L_SetSoftPower864
;FirmV_0_7_0.c,3218 :: 		case 7: M2SoftTM=0xC5;M2SoftTL=0x67;break;
L_SetSoftPower871:
	MOVLW       197
	MOVWF       _M2SoftTM+0 
	MOVLW       103
	MOVWF       _M2SoftTL+0 
	GOTO        L_SetSoftPower864
;FirmV_0_7_0.c,3219 :: 		case 8: M2SoftTM=0xD8;M2SoftTL=0xEF;break;
L_SetSoftPower872:
	MOVLW       216
	MOVWF       _M2SoftTM+0 
	MOVLW       239
	MOVWF       _M2SoftTL+0 
	GOTO        L_SetSoftPower864
;FirmV_0_7_0.c,3220 :: 		case 9: M2SoftTM=0xEC;M2SoftTL=0x77;break;
L_SetSoftPower873:
	MOVLW       236
	MOVWF       _M2SoftTM+0 
	MOVLW       119
	MOVWF       _M2SoftTL+0 
	GOTO        L_SetSoftPower864
;FirmV_0_7_0.c,3221 :: 		case 10:M2SoftTM=0xFF;M2SoftTL=0x00;break;
L_SetSoftPower874:
	MOVLW       255
	MOVWF       _M2SoftTM+0 
	CLRF        _M2SoftTL+0 
	GOTO        L_SetSoftPower864
;FirmV_0_7_0.c,3222 :: 		}
L_SetSoftPower863:
	MOVLW       0
	XORWF       _M2SoftPower+1, 0 
	BTFSS       STATUS+0, 2 
	GOTO        L__SetSoftPower1116
	MOVLW       1
	XORWF       _M2SoftPower+0, 0 
L__SetSoftPower1116:
	BTFSC       STATUS+0, 2 
	GOTO        L_SetSoftPower865
	MOVLW       0
	XORWF       _M2SoftPower+1, 0 
	BTFSS       STATUS+0, 2 
	GOTO        L__SetSoftPower1117
	MOVLW       2
	XORWF       _M2SoftPower+0, 0 
L__SetSoftPower1117:
	BTFSC       STATUS+0, 2 
	GOTO        L_SetSoftPower866
	MOVLW       0
	XORWF       _M2SoftPower+1, 0 
	BTFSS       STATUS+0, 2 
	GOTO        L__SetSoftPower1118
	MOVLW       3
	XORWF       _M2SoftPower+0, 0 
L__SetSoftPower1118:
	BTFSC       STATUS+0, 2 
	GOTO        L_SetSoftPower867
	MOVLW       0
	XORWF       _M2SoftPower+1, 0 
	BTFSS       STATUS+0, 2 
	GOTO        L__SetSoftPower1119
	MOVLW       4
	XORWF       _M2SoftPower+0, 0 
L__SetSoftPower1119:
	BTFSC       STATUS+0, 2 
	GOTO        L_SetSoftPower868
	MOVLW       0
	XORWF       _M2SoftPower+1, 0 
	BTFSS       STATUS+0, 2 
	GOTO        L__SetSoftPower1120
	MOVLW       5
	XORWF       _M2SoftPower+0, 0 
L__SetSoftPower1120:
	BTFSC       STATUS+0, 2 
	GOTO        L_SetSoftPower869
	MOVLW       0
	XORWF       _M2SoftPower+1, 0 
	BTFSS       STATUS+0, 2 
	GOTO        L__SetSoftPower1121
	MOVLW       6
	XORWF       _M2SoftPower+0, 0 
L__SetSoftPower1121:
	BTFSC       STATUS+0, 2 
	GOTO        L_SetSoftPower870
	MOVLW       0
	XORWF       _M2SoftPower+1, 0 
	BTFSS       STATUS+0, 2 
	GOTO        L__SetSoftPower1122
	MOVLW       7
	XORWF       _M2SoftPower+0, 0 
L__SetSoftPower1122:
	BTFSC       STATUS+0, 2 
	GOTO        L_SetSoftPower871
	MOVLW       0
	XORWF       _M2SoftPower+1, 0 
	BTFSS       STATUS+0, 2 
	GOTO        L__SetSoftPower1123
	MOVLW       8
	XORWF       _M2SoftPower+0, 0 
L__SetSoftPower1123:
	BTFSC       STATUS+0, 2 
	GOTO        L_SetSoftPower872
	MOVLW       0
	XORWF       _M2SoftPower+1, 0 
	BTFSS       STATUS+0, 2 
	GOTO        L__SetSoftPower1124
	MOVLW       9
	XORWF       _M2SoftPower+0, 0 
L__SetSoftPower1124:
	BTFSC       STATUS+0, 2 
	GOTO        L_SetSoftPower873
	MOVLW       0
	XORWF       _M2SoftPower+1, 0 
	BTFSS       STATUS+0, 2 
	GOTO        L__SetSoftPower1125
	MOVLW       10
	XORWF       _M2SoftPower+0, 0 
L__SetSoftPower1125:
	BTFSC       STATUS+0, 2 
	GOTO        L_SetSoftPower874
L_SetSoftPower864:
;FirmV_0_7_0.c,3223 :: 		}
L_end_SetSoftPower:
	RETURN      0
; end of _SetSoftPower
