
_interrupt:

;FirmV_0_7_0.c,212 :: 		void interrupt()
;FirmV_0_7_0.c,214 :: 		if(TMR0IF_bit)
	BTFSS       TMR0IF_bit+0, BitPos(TMR0IF_bit+0) 
	GOTO        L_interrupt0
;FirmV_0_7_0.c,216 :: 		msCounter=msCounter+1;
	INCF        _msCounter+0, 1 
;FirmV_0_7_0.c,217 :: 		LCDBackLight=1;
	BSF         PORTA+0, 4 
;FirmV_0_7_0.c,218 :: 		Flag20ms=1;
	MOVLW       1
	MOVWF       _Flag20ms+0 
;FirmV_0_7_0.c,219 :: 		if(ms20A>=25)
	MOVLW       25
	SUBWF       _ms20A+0, 0 
	BTFSS       STATUS+0, 0 
	GOTO        L_interrupt1
;FirmV_0_7_0.c,220 :: 		{ms20A=0;RemotePulse1=0;}
	CLRF        _ms20A+0 
	CLRF        _RemotePulse1+0 
	GOTO        L_interrupt2
L_interrupt1:
;FirmV_0_7_0.c,222 :: 		ms20A=ms20A+1;
	INCF        _ms20A+0, 1 
L_interrupt2:
;FirmV_0_7_0.c,224 :: 		if(ms20B>=25)
	MOVLW       25
	SUBWF       _ms20B+0, 0 
	BTFSS       STATUS+0, 0 
	GOTO        L_interrupt3
;FirmV_0_7_0.c,225 :: 		{ms20B=0;RemotePulse2=0;}
	CLRF        _ms20B+0 
	CLRF        _RemotePulse2+0 
	GOTO        L_interrupt4
L_interrupt3:
;FirmV_0_7_0.c,227 :: 		ms20B=ms20B+1;
	INCF        _ms20B+0, 1 
L_interrupt4:
;FirmV_0_7_0.c,229 :: 		if(msCounter>=25)
	MOVLW       25
	SUBWF       _msCounter+0, 0 
	BTFSS       STATUS+0, 0 
	GOTO        L_interrupt5
;FirmV_0_7_0.c,231 :: 		msCounter=0;
	CLRF        _msCounter+0 
;FirmV_0_7_0.c,232 :: 		ms500=ms500+1;
	MOVLW       1
	ADDWF       _ms500+0, 1 
	MOVLW       0
	ADDWFC      _ms500+1, 1 
	ADDWFC      _ms500+2, 1 
	ADDWFC      _ms500+3, 1 
;FirmV_0_7_0.c,233 :: 		LCDFlashFlag=!LCDFlashFlag;
	MOVF        _LCDFlashFlag+0, 1 
	MOVLW       1
	BTFSS       STATUS+0, 2 
	MOVLW       0
	MOVWF       _LCDFlashFlag+0 
;FirmV_0_7_0.c,234 :: 		LCDBackLight=0;
	BCF         PORTA+0, 4 
;FirmV_0_7_0.c,235 :: 		Flag500ms=1;
	MOVLW       1
	MOVWF       _Flag500ms+0 
;FirmV_0_7_0.c,236 :: 		}
L_interrupt5:
;FirmV_0_7_0.c,237 :: 		tmr0h=0xF3;
	MOVLW       243
	MOVWF       TMR0H+0 
;FirmV_0_7_0.c,238 :: 		tmr0l=0xCA;
	MOVLW       202
	MOVWF       TMR0L+0 
;FirmV_0_7_0.c,239 :: 		TMR0IF_bit=0;
	BCF         TMR0IF_bit+0, BitPos(TMR0IF_bit+0) 
;FirmV_0_7_0.c,240 :: 		}
L_interrupt0:
;FirmV_0_7_0.c,243 :: 		if(INT1F_bit)
	BTFSS       INT1F_bit+0, BitPos(INT1F_bit+0) 
	GOTO        L_interrupt6
;FirmV_0_7_0.c,245 :: 		if(RemotePulse1==0)
	MOVF        _RemotePulse1+0, 0 
	XORLW       0
	BTFSS       STATUS+0, 2 
	GOTO        L_interrupt7
;FirmV_0_7_0.c,246 :: 		{ RemotePulse1=RemotePulse1+1;ms20A=0;}
	INCF        _RemotePulse1+0, 1 
	CLRF        _ms20A+0 
	GOTO        L_interrupt8
L_interrupt7:
;FirmV_0_7_0.c,248 :: 		{ RemotePulse1=RemotePulse1+1;}
	INCF        _RemotePulse1+0, 1 
L_interrupt8:
;FirmV_0_7_0.c,249 :: 		if(RemotePulse1>=5)
	MOVLW       5
	SUBWF       _RemotePulse1+0, 0 
	BTFSS       STATUS+0, 0 
	GOTO        L_interrupt9
;FirmV_0_7_0.c,250 :: 		if((ms20A>=19)&&(ms20A<=21))
	MOVLW       19
	SUBWF       _ms20A+0, 0 
	BTFSS       STATUS+0, 0 
	GOTO        L_interrupt12
	MOVF        _ms20A+0, 0 
	SUBLW       21
	BTFSS       STATUS+0, 0 
	GOTO        L_interrupt12
L__interrupt889:
;FirmV_0_7_0.c,251 :: 		{RemoteAFlag=1;RemotePulse1=0;}
	MOVLW       1
	MOVWF       _RemoteAFlag+0 
	CLRF        _RemotePulse1+0 
	GOTO        L_interrupt13
L_interrupt12:
;FirmV_0_7_0.c,253 :: 		RemotePulse1=0;
	CLRF        _RemotePulse1+0 
L_interrupt13:
L_interrupt9:
;FirmV_0_7_0.c,254 :: 		INT1IF_bit=0;
	BCF         INT1IF_bit+0, BitPos(INT1IF_bit+0) 
;FirmV_0_7_0.c,255 :: 		}
L_interrupt6:
;FirmV_0_7_0.c,259 :: 		if(INT2IF_bit)
	BTFSS       INT2IF_bit+0, BitPos(INT2IF_bit+0) 
	GOTO        L_interrupt14
;FirmV_0_7_0.c,261 :: 		if(RemotePulse2==0)
	MOVF        _RemotePulse2+0, 0 
	XORLW       0
	BTFSS       STATUS+0, 2 
	GOTO        L_interrupt15
;FirmV_0_7_0.c,262 :: 		{ RemotePulse2=RemotePulse2+1;ms20B=0;}
	INCF        _RemotePulse2+0, 1 
	CLRF        _ms20B+0 
	GOTO        L_interrupt16
L_interrupt15:
;FirmV_0_7_0.c,264 :: 		{ RemotePulse2=RemotePulse2+1;}
	INCF        _RemotePulse2+0, 1 
L_interrupt16:
;FirmV_0_7_0.c,265 :: 		if(RemotePulse2>=5)
	MOVLW       5
	SUBWF       _RemotePulse2+0, 0 
	BTFSS       STATUS+0, 0 
	GOTO        L_interrupt17
;FirmV_0_7_0.c,266 :: 		if((ms20B>=19)&&(ms20B<=21))
	MOVLW       19
	SUBWF       _ms20B+0, 0 
	BTFSS       STATUS+0, 0 
	GOTO        L_interrupt20
	MOVF        _ms20B+0, 0 
	SUBLW       21
	BTFSS       STATUS+0, 0 
	GOTO        L_interrupt20
L__interrupt888:
;FirmV_0_7_0.c,267 :: 		{RemoteBFlag=1;RemotePulse2=0;}
	MOVLW       1
	MOVWF       _RemoteBFlag+0 
	CLRF        _RemotePulse2+0 
	GOTO        L_interrupt21
L_interrupt20:
;FirmV_0_7_0.c,269 :: 		RemotePulse2=0;
	CLRF        _RemotePulse2+0 
L_interrupt21:
L_interrupt17:
;FirmV_0_7_0.c,270 :: 		INT2IF_bit=0;
	BCF         INT2IF_bit+0, BitPos(INT2IF_bit+0) 
;FirmV_0_7_0.c,271 :: 		}
L_interrupt14:
;FirmV_0_7_0.c,275 :: 		if(TMR1IF_bit)
	BTFSS       TMR1IF_bit+0, BitPos(TMR1IF_bit+0) 
	GOTO        L_interrupt22
;FirmV_0_7_0.c,277 :: 		if(Motor1Start)
	MOVF        _Motor1Start+0, 1 
	BTFSC       STATUS+0, 2 
	GOTO        L_interrupt23
;FirmV_0_7_0.c,278 :: 		Motor1=1;
	BSF         PORTB+0, 3 
L_interrupt23:
;FirmV_0_7_0.c,280 :: 		TMR1IE_bit=0;
	BCF         TMR1IE_bit+0, BitPos(TMR1IE_bit+0) 
;FirmV_0_7_0.c,281 :: 		TMR1ON_bit=0;
	BCF         TMR1ON_bit+0, BitPos(TMR1ON_bit+0) 
;FirmV_0_7_0.c,283 :: 		TMR1IF_bit=0;
	BCF         TMR1IF_bit+0, BitPos(TMR1IF_bit+0) 
;FirmV_0_7_0.c,284 :: 		}
L_interrupt22:
;FirmV_0_7_0.c,290 :: 		if(TMR3IF_bit)
	BTFSS       TMR3IF_bit+0, BitPos(TMR3IF_bit+0) 
	GOTO        L_interrupt24
;FirmV_0_7_0.c,292 :: 		if(Motor2Start)
	MOVF        _Motor2Start+0, 1 
	BTFSC       STATUS+0, 2 
	GOTO        L_interrupt25
;FirmV_0_7_0.c,293 :: 		Motor2=1;
	BSF         PORTB+0, 4 
L_interrupt25:
;FirmV_0_7_0.c,295 :: 		TMR3IE_bit=0;
	BCF         TMR3IE_bit+0, BitPos(TMR3IE_bit+0) 
;FirmV_0_7_0.c,296 :: 		TMR3ON_bit=0;
	BCF         TMR3ON_bit+0, BitPos(TMR3ON_bit+0) 
;FirmV_0_7_0.c,298 :: 		TMR3IF_bit=0;
	BCF         TMR3IF_bit+0, BitPos(TMR3IF_bit+0) 
;FirmV_0_7_0.c,299 :: 		}
L_interrupt24:
;FirmV_0_7_0.c,305 :: 		if(INT0F_bit)
	BTFSS       INT0F_bit+0, BitPos(INT0F_bit+0) 
	GOTO        L_interrupt26
;FirmV_0_7_0.c,307 :: 		TMR2=0;
	CLRF        TMR2+0 
;FirmV_0_7_0.c,308 :: 		TMR2ON_bit=1;
	BSF         TMR2ON_bit+0, BitPos(TMR2ON_bit+0) 
;FirmV_0_7_0.c,309 :: 		TMR2IE_bit=1;
	BSF         TMR2IE_bit+0, BitPos(TMR2IE_bit+0) 
;FirmV_0_7_0.c,310 :: 		INT0F_bit=0;
	BCF         INT0F_bit+0, BitPos(INT0F_bit+0) 
;FirmV_0_7_0.c,311 :: 		}
L_interrupt26:
;FirmV_0_7_0.c,314 :: 		if(TMR2IF_bit)
	BTFSS       TMR2IF_bit+0, BitPos(TMR2IF_bit+0) 
	GOTO        L_interrupt27
;FirmV_0_7_0.c,316 :: 		if(Motor1Start)
	MOVF        _Motor1Start+0, 1 
	BTFSC       STATUS+0, 2 
	GOTO        L_interrupt28
;FirmV_0_7_0.c,317 :: 		if(Motor1FullSpeed)
	MOVF        _Motor1FullSpeed+0, 1 
	BTFSC       STATUS+0, 2 
	GOTO        L_interrupt29
;FirmV_0_7_0.c,318 :: 		Motor1=1;
	BSF         PORTB+0, 3 
	GOTO        L_interrupt30
L_interrupt29:
;FirmV_0_7_0.c,320 :: 		{Motor1=0;TMR1H=M1SoftTM;TMR1L=M1SoftTL;TMR1ON_bit=1;TMR1IE_bit=1;}
	BCF         PORTB+0, 3 
	MOVF        _M1SoftTM+0, 0 
	MOVWF       TMR1H+0 
	MOVF        _M1SoftTL+0, 0 
	MOVWF       TMR1L+0 
	BSF         TMR1ON_bit+0, BitPos(TMR1ON_bit+0) 
	BSF         TMR1IE_bit+0, BitPos(TMR1IE_bit+0) 
L_interrupt30:
L_interrupt28:
;FirmV_0_7_0.c,322 :: 		if(Motor2Start)
	MOVF        _Motor2Start+0, 1 
	BTFSC       STATUS+0, 2 
	GOTO        L_interrupt31
;FirmV_0_7_0.c,323 :: 		if(Motor2FullSpeed)
	MOVF        _Motor2FullSpeed+0, 1 
	BTFSC       STATUS+0, 2 
	GOTO        L_interrupt32
;FirmV_0_7_0.c,324 :: 		Motor2=1;
	BSF         PORTB+0, 4 
	GOTO        L_interrupt33
L_interrupt32:
;FirmV_0_7_0.c,326 :: 		{Motor2=0;TMR3H=M1SoftTM;TMR3L=M1SoftTL;TMR3ON_bit=1;TMR3IE_bit=1;}
	BCF         PORTB+0, 4 
	MOVF        _M1SoftTM+0, 0 
	MOVWF       TMR3H+0 
	MOVF        _M1SoftTL+0, 0 
	MOVWF       TMR3L+0 
	BSF         TMR3ON_bit+0, BitPos(TMR3ON_bit+0) 
	BSF         TMR3IE_bit+0, BitPos(TMR3IE_bit+0) 
L_interrupt33:
L_interrupt31:
;FirmV_0_7_0.c,328 :: 		TMR2ON_bit=0;
	BCF         TMR2ON_bit+0, BitPos(TMR2ON_bit+0) 
;FirmV_0_7_0.c,329 :: 		TMR2IE_bit=0;
	BCF         TMR2IE_bit+0, BitPos(TMR2IE_bit+0) 
;FirmV_0_7_0.c,330 :: 		TMR2IF_bit=0;
	BCF         TMR2IF_bit+0, BitPos(TMR2IF_bit+0) 
;FirmV_0_7_0.c,333 :: 		}
L_interrupt27:
;FirmV_0_7_0.c,334 :: 		}
L_end_interrupt:
L__interrupt1020:
	RETFIE      1
; end of _interrupt

_ResetTaskEvents:

;FirmV_0_7_0.c,347 :: 		void ResetTaskEvents()
;FirmV_0_7_0.c,349 :: 		Events.Task1=0;
	CLRF        _Events+1 
;FirmV_0_7_0.c,350 :: 		Events.Task2=0;
	CLRF        _Events+2 
;FirmV_0_7_0.c,351 :: 		Events.Task3=0;
	CLRF        _Events+3 
;FirmV_0_7_0.c,352 :: 		}
L_end_ResetTaskEvents:
	RETURN      0
; end of _ResetTaskEvents

_Decrypt:

;FirmV_0_7_0.c,361 :: 		void Decrypt()
;FirmV_0_7_0.c,363 :: 		Sipher[0]=Crypto[1][0]+0x0D;
	MOVLW       13
	ADDWF       _crypto+16, 0 
	MOVWF       _Sipher+0 
;FirmV_0_7_0.c,364 :: 		Sipher[1]=Crypto[1][1]+0x0D;
	MOVLW       13
	ADDWF       _crypto+17, 0 
	MOVWF       _Sipher+1 
;FirmV_0_7_0.c,365 :: 		Sipher[2]=Crypto[1][2]+0x0D;
	MOVLW       13
	ADDWF       _crypto+18, 0 
	MOVWF       _Sipher+2 
;FirmV_0_7_0.c,366 :: 		Sipher[3]=Crypto[1][3]-0x26;
	MOVLW       38
	SUBWF       _crypto+19, 0 
	MOVWF       _Sipher+3 
;FirmV_0_7_0.c,367 :: 		Sipher[4]=Crypto[1][4]-0x3C;
	MOVLW       60
	SUBWF       _crypto+20, 0 
	MOVWF       _Sipher+4 
;FirmV_0_7_0.c,368 :: 		Sipher[5]=Crypto[1][5]-0x41;
	MOVLW       65
	SUBWF       _crypto+21, 0 
	MOVWF       _Sipher+5 
;FirmV_0_7_0.c,369 :: 		Sipher[6]=Crypto[1][6]-0x0C;
	MOVLW       12
	SUBWF       _crypto+22, 0 
	MOVWF       _Sipher+6 
;FirmV_0_7_0.c,370 :: 		Sipher[7]=Crypto[1][7]+0x34;
	MOVLW       52
	ADDWF       _crypto+23, 0 
	MOVWF       _Sipher+7 
;FirmV_0_7_0.c,371 :: 		Sipher[8]=Crypto[1][8]-0x01;
	DECF        _crypto+24, 0 
	MOVWF       _Sipher+8 
;FirmV_0_7_0.c,372 :: 		Sipher[9]=Crypto[1][9]-0x1F;
	MOVLW       31
	SUBWF       _crypto+25, 0 
	MOVWF       _Sipher+9 
;FirmV_0_7_0.c,373 :: 		Sipher[10]=Crypto[1][10]-0x3A;
	MOVLW       58
	SUBWF       _crypto+26, 0 
	MOVWF       _Sipher+10 
;FirmV_0_7_0.c,374 :: 		Sipher[11]=Crypto[1][11]-0x3B;
	MOVLW       59
	SUBWF       _crypto+27, 0 
	MOVWF       _Sipher+11 
;FirmV_0_7_0.c,375 :: 		Sipher[12]=Crypto[1][12]-0x3C;
	MOVLW       60
	SUBWF       _crypto+28, 0 
	MOVWF       _Sipher+12 
;FirmV_0_7_0.c,376 :: 		Sipher[13]=Crypto[1][13]+0x0D;
	MOVLW       13
	ADDWF       _crypto+29, 0 
	MOVWF       _Sipher+13 
;FirmV_0_7_0.c,377 :: 		Sipher[14]=Crypto[1][14]+0x0D;
	MOVLW       13
	ADDWF       _crypto+30, 0 
	MOVWF       _Sipher+14 
;FirmV_0_7_0.c,378 :: 		Sipher[15]=Crypto[1][15]+0x0D;
	MOVLW       13
	ADDWF       _crypto+31, 0 
	MOVWF       _Sipher+15 
;FirmV_0_7_0.c,379 :: 		}
L_end_Decrypt:
	RETURN      0
; end of _Decrypt

_Logger:

;FirmV_0_7_0.c,391 :: 		void Logger(char* text, char TimeStampFlag)
;FirmV_0_7_0.c,394 :: 		if(TimeStampFlag)
	MOVF        FARG_Logger_TimeStampFlag+0, 1 
	BTFSC       STATUS+0, 2 
	GOTO        L_Logger34
;FirmV_0_7_0.c,396 :: 		longwordtostrwithzeros(ms500,time);
	MOVF        _ms500+0, 0 
	MOVWF       FARG_LongWordToStrWithZeros_input+0 
	MOVF        _ms500+1, 0 
	MOVWF       FARG_LongWordToStrWithZeros_input+1 
	MOVF        _ms500+2, 0 
	MOVWF       FARG_LongWordToStrWithZeros_input+2 
	MOVF        _ms500+3, 0 
	MOVWF       FARG_LongWordToStrWithZeros_input+3 
	MOVLW       Logger_time_L0+0
	MOVWF       FARG_LongWordToStrWithZeros_output+0 
	MOVLW       hi_addr(Logger_time_L0+0)
	MOVWF       FARG_LongWordToStrWithZeros_output+1 
	CALL        _LongWordToStrWithZeros+0, 0
;FirmV_0_7_0.c,397 :: 		uart_write_text(time);
	MOVLW       Logger_time_L0+0
	MOVWF       FARG_UART_Write_Text_uart_text+0 
	MOVLW       hi_addr(Logger_time_L0+0)
	MOVWF       FARG_UART_Write_Text_uart_text+1 
	CALL        _UART_Write_Text+0, 0
;FirmV_0_7_0.c,398 :: 		uart1_write_text(": ");
	MOVLW       ?lstr1_FirmV_0_7_0+0
	MOVWF       FARG_UART1_Write_Text_uart_text+0 
	MOVLW       hi_addr(?lstr1_FirmV_0_7_0+0)
	MOVWF       FARG_UART1_Write_Text_uart_text+1 
	CALL        _UART1_Write_Text+0, 0
;FirmV_0_7_0.c,399 :: 		}
L_Logger34:
;FirmV_0_7_0.c,400 :: 		uart1_write_text(text);
	MOVF        FARG_Logger_text+0, 0 
	MOVWF       FARG_UART1_Write_Text_uart_text+0 
	MOVF        FARG_Logger_text+1, 0 
	MOVWF       FARG_UART1_Write_Text_uart_text+1 
	CALL        _UART1_Write_Text+0, 0
;FirmV_0_7_0.c,401 :: 		uart1_write(0x0D);
	MOVLW       13
	MOVWF       FARG_UART1_Write_data_+0 
	CALL        _UART1_Write+0, 0
;FirmV_0_7_0.c,402 :: 		uart1_write(0x0A);
	MOVLW       10
	MOVWF       FARG_UART1_Write_data_+0 
	CALL        _UART1_Write+0, 0
;FirmV_0_7_0.c,403 :: 		}
L_end_Logger:
	RETURN      0
; end of _Logger

_main:

;FirmV_0_7_0.c,420 :: 		void main() {
;FirmV_0_7_0.c,423 :: 		PhotocellRel=1;
	BSF         PORTC+0, 5 
;FirmV_0_7_0.c,425 :: 		Init();
	CALL        _Init+0, 0
;FirmV_0_7_0.c,427 :: 		Decrypt();
	CALL        _Decrypt+0, 0
;FirmV_0_7_0.c,429 :: 		memcpy(LCDLine1,FirmwareVersion,16);
	MOVLW       _LCDLine1+0
	MOVWF       FARG_memcpy_d1+0 
	MOVLW       hi_addr(_LCDLine1+0)
	MOVWF       FARG_memcpy_d1+1 
	MOVLW       ?lstr2_FirmV_0_7_0+0
	MOVWF       FARG_memcpy_s1+0 
	MOVLW       hi_addr(?lstr2_FirmV_0_7_0+0)
	MOVWF       FARG_memcpy_s1+1 
	MOVLW       16
	MOVWF       FARG_memcpy_n+0 
	MOVLW       0
	MOVWF       FARG_memcpy_n+1 
	CALL        _memcpy+0, 0
;FirmV_0_7_0.c,430 :: 		LCDLines=2;
	MOVLW       2
	MOVWF       _LCDLines+0 
;FirmV_0_7_0.c,431 :: 		LCDUpdateFlag=1;
	MOVLW       1
	MOVWF       _LCDUpdateFlag+0 
;FirmV_0_7_0.c,432 :: 		LCDUpdater();
	CALL        _LCDUpdater+0, 0
;FirmV_0_7_0.c,433 :: 		delay_ms(1000);
	MOVLW       51
	MOVWF       R11, 0
	MOVLW       187
	MOVWF       R12, 0
	MOVLW       223
	MOVWF       R13, 0
L_main35:
	DECFSZ      R13, 1, 1
	BRA         L_main35
	DECFSZ      R12, 1, 1
	BRA         L_main35
	DECFSZ      R11, 1, 1
	BRA         L_main35
	NOP
	NOP
;FirmV_0_7_0.c,436 :: 		Buzzer=1;
	BSF         PORTB+0, 7 
;FirmV_0_7_0.c,437 :: 		Logger("Start ...",1);
	MOVLW       ?lstr3_FirmV_0_7_0+0
	MOVWF       FARG_Logger_text+0 
	MOVLW       hi_addr(?lstr3_FirmV_0_7_0+0)
	MOVWF       FARG_Logger_text+1 
	MOVLW       1
	MOVWF       FARG_Logger_TimeStampFlag+0 
	CALL        _Logger+0, 0
;FirmV_0_7_0.c,438 :: 		memcpy(LCDLine1,Sipher,16);
	MOVLW       _LCDLine1+0
	MOVWF       FARG_memcpy_d1+0 
	MOVLW       hi_addr(_LCDLine1+0)
	MOVWF       FARG_memcpy_d1+1 
	MOVLW       _Sipher+0
	MOVWF       FARG_memcpy_s1+0 
	MOVLW       hi_addr(_Sipher+0)
	MOVWF       FARG_memcpy_s1+1 
	MOVLW       16
	MOVWF       FARG_memcpy_n+0 
	MOVLW       0
	MOVWF       FARG_memcpy_n+1 
	CALL        _memcpy+0, 0
;FirmV_0_7_0.c,439 :: 		LCDLines=1;
	MOVLW       1
	MOVWF       _LCDLines+0 
;FirmV_0_7_0.c,440 :: 		LCDUpdateFlag=1;
	MOVLW       1
	MOVWF       _LCDUpdateFlag+0 
;FirmV_0_7_0.c,441 :: 		Buzzer=0;
	BCF         PORTB+0, 7 
;FirmV_0_7_0.c,443 :: 		while(1)
L_main36:
;FirmV_0_7_0.c,445 :: 		asm CLRWDT;
	CLRWDT
;FirmV_0_7_0.c,447 :: 		if(Flag20ms==1)
	MOVF        _Flag20ms+0, 0 
	XORLW       1
	BTFSS       STATUS+0, 2 
	GOTO        L_main38
;FirmV_0_7_0.c,449 :: 		if((Buzzer==1)&&(BuzzCounter<100))
	BTFSS       PORTB+0, 7 
	GOTO        L_main41
	MOVLW       100
	SUBWF       _BuzzCounter+0, 0 
	BTFSC       STATUS+0, 0 
	GOTO        L_main41
L__main895:
;FirmV_0_7_0.c,450 :: 		{BuzzCounter=BuzzCounter+1;}
	INCF        _BuzzCounter+0, 1 
L_main41:
;FirmV_0_7_0.c,452 :: 		if((Buzzer==1)&&(LongBuzzFlag))
	BTFSS       PORTB+0, 7 
	GOTO        L_main44
	MOVF        _LongBuzzFlag+0, 1 
	BTFSC       STATUS+0, 2 
	GOTO        L_main44
L__main894:
;FirmV_0_7_0.c,453 :: 		if(BuzzCounter>=25){BuzzFlag=0;LongBuzzFlag=0;Buzzer=0;}
	MOVLW       25
	SUBWF       _BuzzCounter+0, 0 
	BTFSS       STATUS+0, 0 
	GOTO        L_main45
	CLRF        _BuzzFlag+0 
	CLRF        _LongBuzzFlag+0 
	BCF         PORTB+0, 7 
L_main45:
L_main44:
;FirmV_0_7_0.c,455 :: 		if((Buzzer==1)&&(BuzzFlag)&&(!LongBuzzFlag))
	BTFSS       PORTB+0, 7 
	GOTO        L_main48
	MOVF        _BuzzFlag+0, 1 
	BTFSC       STATUS+0, 2 
	GOTO        L_main48
	MOVF        _LongBuzzFlag+0, 1 
	BTFSS       STATUS+0, 2 
	GOTO        L_main48
L__main893:
;FirmV_0_7_0.c,456 :: 		{BuzzFlag=0;LongBuzzFlag=0;Buzzer=0;}
	CLRF        _BuzzFlag+0 
	CLRF        _LongBuzzFlag+0 
	BCF         PORTB+0, 7 
L_main48:
;FirmV_0_7_0.c,458 :: 		if(((BuzzFlag)||(LongBuzzFlag))&&(!Buzzer))
	MOVF        _BuzzFlag+0, 1 
	BTFSS       STATUS+0, 2 
	GOTO        L__main892
	MOVF        _LongBuzzFlag+0, 1 
	BTFSS       STATUS+0, 2 
	GOTO        L__main892
	GOTO        L_main53
L__main892:
	BTFSC       PORTB+0, 7 
	GOTO        L_main53
L__main891:
;FirmV_0_7_0.c,459 :: 		{Buzzer=1;BuzzCounter=0;}
	BSF         PORTB+0, 7 
	CLRF        _BuzzCounter+0 
L_main53:
;FirmV_0_7_0.c,462 :: 		if(DebouncingDelayPress<DebouncingFix)
	MOVLW       5
	SUBWF       _DebouncingDelayPress+0, 0 
	BTFSC       STATUS+0, 0 
	GOTO        L_main54
;FirmV_0_7_0.c,463 :: 		DebouncingDelayPress=DebouncingDelayPress+1;
	INCF        _DebouncingDelayPress+0, 1 
L_main54:
;FirmV_0_7_0.c,464 :: 		if(DebouncingDelayUnpress<DebouncingFix)
	MOVLW       5
	SUBWF       _DebouncingDelayUnpress+0, 0 
	BTFSC       STATUS+0, 0 
	GOTO        L_main55
;FirmV_0_7_0.c,465 :: 		DebouncingDelayUnpress=DebouncingDelayUnpress+1;
	INCF        _DebouncingDelayUnpress+0, 1 
L_main55:
;FirmV_0_7_0.c,467 :: 		LCDUpdater();
	CALL        _LCDUpdater+0, 0
;FirmV_0_7_0.c,468 :: 		if(KeyFlag<200)
	MOVLW       200
	SUBWF       _KeyFlag+0, 0 
	BTFSC       STATUS+0, 0 
	GOTO        L_main56
;FirmV_0_7_0.c,469 :: 		KeyFlag=KeyFlag+1;
	INCF        _KeyFlag+0, 1 
L_main56:
;FirmV_0_7_0.c,470 :: 		Flag20ms=0;
	CLRF        _Flag20ms+0 
;FirmV_0_7_0.c,471 :: 		}
L_main38:
;FirmV_0_7_0.c,473 :: 		if(Flag500ms==1)
	MOVF        _Flag500ms+0, 0 
	XORLW       1
	BTFSS       STATUS+0, 2 
	GOTO        L_main57
;FirmV_0_7_0.c,475 :: 		AutoClosePause();
	CALL        _AutoClosePause+0, 0
;FirmV_0_7_0.c,477 :: 		if(KeyNoiseEliminator<NoiseEliminatorTreshold)
	MOVLW       3
	SUBWF       _KeyNoiseEliminator+0, 0 
	BTFSC       STATUS+0, 0 
	GOTO        L_main58
;FirmV_0_7_0.c,478 :: 		KeyNoiseEliminator=KeyNoiseEliminator+1;
	INCF        _KeyNoiseEliminator+0, 1 
L_main58:
;FirmV_0_7_0.c,480 :: 		if(LCDTimeout>0)
	MOVF        _LCDTimeout+0, 0 
	SUBLW       0
	BTFSC       STATUS+0, 0 
	GOTO        L_main59
;FirmV_0_7_0.c,481 :: 		{LCDTimeout=LCDTimeout-1;LCDTimeoutFlag=0;}
	DECF        _LCDTimeout+0, 1 
	CLRF        _LCDTimeoutFlag+0 
	GOTO        L_main60
L_main59:
;FirmV_0_7_0.c,483 :: 		if(!LCDTimeoutFlag){memcpy(LCDLine1,Sipher,16);LCDLines=1;LCDUpdateFlag=1;LCDTimeoutFlag=1;}
	MOVF        _LCDTimeoutFlag+0, 1 
	BTFSS       STATUS+0, 2 
	GOTO        L_main61
	MOVLW       _LCDLine1+0
	MOVWF       FARG_memcpy_d1+0 
	MOVLW       hi_addr(_LCDLine1+0)
	MOVWF       FARG_memcpy_d1+1 
	MOVLW       _Sipher+0
	MOVWF       FARG_memcpy_s1+0 
	MOVLW       hi_addr(_Sipher+0)
	MOVWF       FARG_memcpy_s1+1 
	MOVLW       16
	MOVWF       FARG_memcpy_n+0 
	MOVLW       0
	MOVWF       FARG_memcpy_n+1 
	CALL        _memcpy+0, 0
	MOVLW       1
	MOVWF       _LCDLines+0 
	MOVLW       1
	MOVWF       _LCDUpdateFlag+0 
	MOVLW       1
	MOVWF       _LCDTimeoutFlag+0 
L_main61:
L_main60:
;FirmV_0_7_0.c,485 :: 		if(FlashFlag)
	MOVF        _FlashFlag+0, 1 
	BTFSC       STATUS+0, 2 
	GOTO        L_main62
;FirmV_0_7_0.c,486 :: 		FlasherLamp=!FlasherLamp;// Buzzer=!Buzzer;
	BTG         PORTB+0, 5 
	GOTO        L_main63
L_main62:
;FirmV_0_7_0.c,488 :: 		if((!BuzzFlag)&&(!LongBuzzFlag))FlasherLamp=0; // Buzzer=0;
	MOVF        _BuzzFlag+0, 1 
	BTFSS       STATUS+0, 2 
	GOTO        L_main66
	MOVF        _LongBuzzFlag+0, 1 
	BTFSS       STATUS+0, 2 
	GOTO        L_main66
L__main890:
	BCF         PORTB+0, 5 
L_main66:
L_main63:
;FirmV_0_7_0.c,489 :: 		ResetTaskEvents();
	CALL        _ResetTaskEvents+0, 0
;FirmV_0_7_0.c,490 :: 		TaskManager();
	CALL        _TaskManager+0, 0
;FirmV_0_7_0.c,491 :: 		TorqueLogger();
	CALL        _TorqueLogger+0, 0
;FirmV_0_7_0.c,492 :: 		Flag500ms=0;
	CLRF        _Flag500ms+0 
;FirmV_0_7_0.c,493 :: 		}
L_main57:
;FirmV_0_7_0.c,494 :: 		EventHandler();
	CALL        _EventHandler+0, 0
;FirmV_0_7_0.c,495 :: 		StateManager();
	CALL        _StateManager+0, 0
;FirmV_0_7_0.c,496 :: 		}
	GOTO        L_main36
;FirmV_0_7_0.c,498 :: 		}
L_end_main:
	GOTO        $+0
; end of _main

_StateManager:

;FirmV_0_7_0.c,523 :: 		void StateManager()
;FirmV_0_7_0.c,526 :: 		switch(State)
	GOTO        L_StateManager67
;FirmV_0_7_0.c,529 :: 		case 0: State1(); break;
L_StateManager69:
	CALL        _State1+0, 0
	GOTO        L_StateManager68
;FirmV_0_7_0.c,531 :: 		case 1: State1(); break;
L_StateManager70:
	CALL        _State1+0, 0
	GOTO        L_StateManager68
;FirmV_0_7_0.c,533 :: 		case 2: State2(); break;
L_StateManager71:
	CALL        _State2+0, 0
	GOTO        L_StateManager68
;FirmV_0_7_0.c,535 :: 		case 3: State3(); break;
L_StateManager72:
	CALL        _State3+0, 0
	GOTO        L_StateManager68
;FirmV_0_7_0.c,537 :: 		case 4: State4(); break;
L_StateManager73:
	CALL        _State4+0, 0
	GOTO        L_StateManager68
;FirmV_0_7_0.c,539 :: 		case 5: State5(); break;
L_StateManager74:
	CALL        _State5+0, 0
	GOTO        L_StateManager68
;FirmV_0_7_0.c,541 :: 		case 6: State6(); break;
L_StateManager75:
	CALL        _State6+0, 0
	GOTO        L_StateManager68
;FirmV_0_7_0.c,543 :: 		case 7: State7(); break;
L_StateManager76:
	CALL        _State7+0, 0
	GOTO        L_StateManager68
;FirmV_0_7_0.c,545 :: 		case 8: State8(); break;
L_StateManager77:
	CALL        _State8+0, 0
	GOTO        L_StateManager68
;FirmV_0_7_0.c,547 :: 		case 10:State00(); break;
L_StateManager78:
	CALL        _State00+0, 0
	GOTO        L_StateManager68
;FirmV_0_7_0.c,549 :: 		case 100:Menu0(); break;
L_StateManager79:
	CALL        _Menu0+0, 0
	GOTO        L_StateManager68
;FirmV_0_7_0.c,551 :: 		case 101:Menu1(); break;
L_StateManager80:
	CALL        _Menu1+0, 0
	GOTO        L_StateManager68
;FirmV_0_7_0.c,553 :: 		case 102:Menu2(); break;
L_StateManager81:
	CALL        _Menu2+0, 0
	GOTO        L_StateManager68
;FirmV_0_7_0.c,555 :: 		case 103:Menu3(); break;
L_StateManager82:
	CALL        _Menu3+0, 0
	GOTO        L_StateManager68
;FirmV_0_7_0.c,557 :: 		case 200:LearnAuto(); break;
L_StateManager83:
	CALL        _LearnAuto+0, 0
	GOTO        L_StateManager68
;FirmV_0_7_0.c,559 :: 		case 201:LearnManual(); break;
L_StateManager84:
	CALL        _LearnManual+0, 0
	GOTO        L_StateManager68
;FirmV_0_7_0.c,561 :: 		case 250:About(); break;
L_StateManager85:
	CALL        _About+0, 0
	GOTO        L_StateManager68
;FirmV_0_7_0.c,563 :: 		}
L_StateManager67:
	MOVF        _State+0, 0 
	XORLW       0
	BTFSC       STATUS+0, 2 
	GOTO        L_StateManager69
	MOVF        _State+0, 0 
	XORLW       1
	BTFSC       STATUS+0, 2 
	GOTO        L_StateManager70
	MOVF        _State+0, 0 
	XORLW       2
	BTFSC       STATUS+0, 2 
	GOTO        L_StateManager71
	MOVF        _State+0, 0 
	XORLW       3
	BTFSC       STATUS+0, 2 
	GOTO        L_StateManager72
	MOVF        _State+0, 0 
	XORLW       4
	BTFSC       STATUS+0, 2 
	GOTO        L_StateManager73
	MOVF        _State+0, 0 
	XORLW       5
	BTFSC       STATUS+0, 2 
	GOTO        L_StateManager74
	MOVF        _State+0, 0 
	XORLW       6
	BTFSC       STATUS+0, 2 
	GOTO        L_StateManager75
	MOVF        _State+0, 0 
	XORLW       7
	BTFSC       STATUS+0, 2 
	GOTO        L_StateManager76
	MOVF        _State+0, 0 
	XORLW       8
	BTFSC       STATUS+0, 2 
	GOTO        L_StateManager77
	MOVF        _State+0, 0 
	XORLW       10
	BTFSC       STATUS+0, 2 
	GOTO        L_StateManager78
	MOVF        _State+0, 0 
	XORLW       100
	BTFSC       STATUS+0, 2 
	GOTO        L_StateManager79
	MOVF        _State+0, 0 
	XORLW       101
	BTFSC       STATUS+0, 2 
	GOTO        L_StateManager80
	MOVF        _State+0, 0 
	XORLW       102
	BTFSC       STATUS+0, 2 
	GOTO        L_StateManager81
	MOVF        _State+0, 0 
	XORLW       103
	BTFSC       STATUS+0, 2 
	GOTO        L_StateManager82
	MOVF        _State+0, 0 
	XORLW       200
	BTFSC       STATUS+0, 2 
	GOTO        L_StateManager83
	MOVF        _State+0, 0 
	XORLW       201
	BTFSC       STATUS+0, 2 
	GOTO        L_StateManager84
	MOVF        _State+0, 0 
	XORLW       250
	BTFSC       STATUS+0, 2 
	GOTO        L_StateManager85
L_StateManager68:
;FirmV_0_7_0.c,564 :: 		}
L_end_StateManager:
	RETURN      0
; end of _StateManager

_StateTest:

;FirmV_0_7_0.c,568 :: 		void StateTest()
;FirmV_0_7_0.c,570 :: 		if (Events.Photocell==1)
	MOVF        _Events+6, 0 
	XORLW       1
	BTFSS       STATUS+0, 2 
	GOTO        L_StateTest86
;FirmV_0_7_0.c,571 :: 		LCDLine1[0]='1';
	MOVLW       49
	MOVWF       _LCDLine1+0 
	GOTO        L_StateTest87
L_StateTest86:
;FirmV_0_7_0.c,573 :: 		LCDLine1[0]='0';
	MOVLW       48
	MOVWF       _LCDLine1+0 
L_StateTest87:
;FirmV_0_7_0.c,575 :: 		LCDUpdateFlag=1;
	MOVLW       1
	MOVWF       _LCDUpdateFlag+0 
;FirmV_0_7_0.c,577 :: 		}
L_end_StateTest:
	RETURN      0
; end of _StateTest

_State00:

;FirmV_0_7_0.c,581 :: 		void State00()
;FirmV_0_7_0.c,586 :: 		Flasher=1;
	BSF         PORTD+0, 7 
;FirmV_0_7_0.c,587 :: 		FlashFlag=1;
	MOVLW       1
	MOVWF       _FlashFlag+0 
;FirmV_0_7_0.c,588 :: 		StartMotor(1,_Close);
	MOVLW       1
	MOVWF       FARG_StartMotor+0 
	CLRF        FARG_StartMotor+0 
	CALL        _StartMotor+0, 0
;FirmV_0_7_0.c,589 :: 		StartMotor(2,_Close);
	MOVLW       2
	MOVWF       FARG_StartMotor+0 
	CLRF        FARG_StartMotor+0 
	CALL        _StartMotor+0, 0
;FirmV_0_7_0.c,591 :: 		if(Events.Remote.b0==1)
	BTFSS       _Events+4, 0 
	GOTO        L_State0088
;FirmV_0_7_0.c,592 :: 		{Flasher=0;FlashFlag=0;StopMotor(1);StopMotor(2);
	BCF         PORTD+0, 7 
	CLRF        _FlashFlag+0 
	MOVLW       1
	MOVWF       FARG_StopMotor+0 
	CALL        _StopMotor+0, 0
	MOVLW       2
	MOVWF       FARG_StopMotor+0 
	CALL        _StopMotor+0, 0
;FirmV_0_7_0.c,593 :: 		State=1;                }
	MOVLW       1
	MOVWF       _State+0 
L_State0088:
;FirmV_0_7_0.c,594 :: 		}
L_end_State00:
	RETURN      0
; end of _State00

_State1:

;FirmV_0_7_0.c,603 :: 		void State1()
;FirmV_0_7_0.c,605 :: 		char delay=3;
	MOVLW       3
	MOVWF       State1_delay_L0+0 
	CLRF        State1_AutoCloseTemp_L0+0 
	CLRF        State1_AutoCloseTemp_L0+1 
	CLRF        State1_AutoCloseTemp_L0+2 
	CLRF        State1_AutoCloseTemp_L0+3 
;FirmV_0_7_0.c,607 :: 		Flasher=0;
	BCF         PORTD+0, 7 
;FirmV_0_7_0.c,608 :: 		FlashFlag=0;
	CLRF        _FlashFlag+0 
;FirmV_0_7_0.c,610 :: 		if(Events.Keys==2)
	MOVF        _Events+0, 0 
	XORLW       2
	BTFSS       STATUS+0, 2 
	GOTO        L_State189
;FirmV_0_7_0.c,611 :: 		{State=100;MenuPointer=0;}
	MOVLW       100
	MOVWF       _State+0 
	CLRF        _MenuPointer+0 
L_State189:
;FirmV_0_7_0.c,613 :: 		ActiveDoors=3-Events.Remote;
	MOVF        _Events+4, 0 
	SUBLW       3
	MOVWF       _ActiveDoors+0 
;FirmV_0_7_0.c,617 :: 		if(Events.Remote!=0)
	MOVF        _Events+4, 0 
	XORLW       0
	BTFSC       STATUS+0, 2 
	GOTO        L_State190
;FirmV_0_7_0.c,620 :: 		ClearTasks(9);
	MOVLW       9
	MOVWF       FARG_ClearTasks+0 
	CALL        _ClearTasks+0, 0
;FirmV_0_7_0.c,621 :: 		Flasher=1;
	BSF         PORTD+0, 7 
;FirmV_0_7_0.c,622 :: 		FlashFlag=1;
	MOVLW       1
	MOVWF       _FlashFlag+0 
;FirmV_0_7_0.c,623 :: 		AddTask(ms500+1,12); // Unlock
	MOVLW       1
	ADDWF       _ms500+0, 0 
	MOVWF       FARG_AddTask+0 
	MOVLW       0
	ADDWFC      _ms500+1, 0 
	MOVWF       FARG_AddTask+1 
	MOVLW       0
	ADDWFC      _ms500+2, 0 
	MOVWF       FARG_AddTask+2 
	MOVLW       0
	ADDWFC      _ms500+3, 0 
	MOVWF       FARG_AddTask+3 
	MOVLW       12
	MOVWF       FARG_AddTask+0 
	CALL        _AddTask+0, 0
;FirmV_0_7_0.c,624 :: 		temp=ms500+delay;
	MOVF        State1_delay_L0+0, 0 
	ADDWF       _ms500+0, 0 
	MOVWF       R0 
	MOVLW       0
	ADDWFC      _ms500+1, 0 
	MOVWF       R1 
	MOVLW       0
	ADDWFC      _ms500+2, 0 
	MOVWF       R2 
	MOVLW       0
	ADDWFC      _ms500+3, 0 
	MOVWF       R3 
	MOVF        R0, 0 
	MOVWF       _temp+0 
	MOVF        R1, 0 
	MOVWF       _temp+1 
	MOVF        R2, 0 
	MOVWF       _temp+2 
	MOVF        R3, 0 
	MOVWF       _temp+3 
;FirmV_0_7_0.c,625 :: 		AddTask(temp,1);
	MOVF        R0, 0 
	MOVWF       FARG_AddTask+0 
	MOVF        R1, 0 
	MOVWF       FARG_AddTask+1 
	MOVF        R2, 0 
	MOVWF       FARG_AddTask+2 
	MOVF        R3, 0 
	MOVWF       FARG_AddTask+3 
	MOVLW       1
	MOVWF       FARG_AddTask+0 
	CALL        _AddTask+0, 0
;FirmV_0_7_0.c,626 :: 		if(OpenSoftStartTime!=0)
	MOVF        _OpenSoftStartTime+0, 0 
	XORLW       0
	BTFSC       STATUS+0, 2 
	GOTO        L_State191
;FirmV_0_7_0.c,627 :: 		{AddTask(temp,7); M1isSlow=1;}//speed down
	MOVF        _temp+0, 0 
	MOVWF       FARG_AddTask+0 
	MOVF        _temp+1, 0 
	MOVWF       FARG_AddTask+1 
	MOVF        _temp+2, 0 
	MOVWF       FARG_AddTask+2 
	MOVF        _temp+3, 0 
	MOVWF       FARG_AddTask+3 
	MOVLW       7
	MOVWF       FARG_AddTask+0 
	CALL        _AddTask+0, 0
	MOVLW       1
	MOVWF       _M1isSlow+0 
	GOTO        L_State192
L_State191:
;FirmV_0_7_0.c,629 :: 		{AddTask(temp,5); M1isSlow=0;}//speed up
	MOVF        _temp+0, 0 
	MOVWF       FARG_AddTask+0 
	MOVF        _temp+1, 0 
	MOVWF       FARG_AddTask+1 
	MOVF        _temp+2, 0 
	MOVWF       FARG_AddTask+2 
	MOVF        _temp+3, 0 
	MOVWF       FARG_AddTask+3 
	MOVLW       5
	MOVWF       FARG_AddTask+0 
	CALL        _AddTask+0, 0
	CLRF        _M1isSlow+0 
L_State192:
;FirmV_0_7_0.c,630 :: 		temp=ms500+OpenSoftStartTime+OverloadDelay+delay;
	MOVF        _OpenSoftStartTime+0, 0 
	ADDWF       _ms500+0, 0 
	MOVWF       R0 
	MOVLW       0
	ADDWFC      _ms500+1, 0 
	MOVWF       R1 
	MOVLW       0
	ADDWFC      _ms500+2, 0 
	MOVWF       R2 
	MOVLW       0
	ADDWFC      _ms500+3, 0 
	MOVWF       R3 
	MOVLW       6
	ADDWF       R0, 1 
	MOVLW       0
	ADDWFC      R1, 1 
	ADDWFC      R2, 1 
	ADDWFC      R3, 1 
	MOVF        State1_delay_L0+0, 0 
	ADDWF       R0, 1 
	MOVLW       0
	ADDWFC      R1, 1 
	ADDWFC      R2, 1 
	ADDWFC      R3, 1 
	MOVF        R0, 0 
	MOVWF       _temp+0 
	MOVF        R1, 0 
	MOVWF       _temp+1 
	MOVF        R2, 0 
	MOVWF       _temp+2 
	MOVF        R3, 0 
	MOVWF       _temp+3 
;FirmV_0_7_0.c,631 :: 		AddTask(temp,10); //overload check
	MOVF        R0, 0 
	MOVWF       FARG_AddTask+0 
	MOVF        R1, 0 
	MOVWF       FARG_AddTask+1 
	MOVF        R2, 0 
	MOVWF       FARG_AddTask+2 
	MOVF        R3, 0 
	MOVWF       FARG_AddTask+3 
	MOVLW       10
	MOVWF       FARG_AddTask+0 
	CALL        _AddTask+0, 0
;FirmV_0_7_0.c,632 :: 		temp=ms500+OpenSoftStartTime+delay;
	MOVF        _OpenSoftStartTime+0, 0 
	ADDWF       _ms500+0, 0 
	MOVWF       R0 
	MOVLW       0
	ADDWFC      _ms500+1, 0 
	MOVWF       R1 
	MOVLW       0
	ADDWFC      _ms500+2, 0 
	MOVWF       R2 
	MOVLW       0
	ADDWFC      _ms500+3, 0 
	MOVWF       R3 
	MOVF        State1_delay_L0+0, 0 
	ADDWF       R0, 1 
	MOVLW       0
	ADDWFC      R1, 1 
	ADDWFC      R2, 1 
	ADDWFC      R3, 1 
	MOVF        R0, 0 
	MOVWF       _temp+0 
	MOVF        R1, 0 
	MOVWF       _temp+1 
	MOVF        R2, 0 
	MOVWF       _temp+2 
	MOVF        R3, 0 
	MOVWF       _temp+3 
;FirmV_0_7_0.c,633 :: 		AddTask(temp,5);//Speed up after soft start
	MOVF        R0, 0 
	MOVWF       FARG_AddTask+0 
	MOVF        R1, 0 
	MOVWF       FARG_AddTask+1 
	MOVF        R2, 0 
	MOVWF       FARG_AddTask+2 
	MOVF        R3, 0 
	MOVWF       FARG_AddTask+3 
	MOVLW       5
	MOVWF       FARG_AddTask+0 
	CALL        _AddTask+0, 0
;FirmV_0_7_0.c,634 :: 		if(OpenSoftStopTime!=0)
	MOVF        _OpenSoftStopTime+0, 0 
	XORLW       0
	BTFSC       STATUS+0, 2 
	GOTO        L_State193
;FirmV_0_7_0.c,635 :: 		{temp=ms500+Door1OpenTime-OpenSoftStopTime+delay;AddTask(temp,7);}//Speed down for soft stop
	MOVF        _Door1OpenTime+0, 0 
	ADDWF       _ms500+0, 0 
	MOVWF       R0 
	MOVLW       0
	ADDWFC      _ms500+1, 0 
	MOVWF       R1 
	MOVLW       0
	ADDWFC      _ms500+2, 0 
	MOVWF       R2 
	MOVLW       0
	ADDWFC      _ms500+3, 0 
	MOVWF       R3 
	MOVF        _OpenSoftStopTime+0, 0 
	SUBWF       R0, 1 
	MOVLW       0
	SUBWFB      R1, 1 
	SUBWFB      R2, 1 
	SUBWFB      R3, 1 
	MOVF        State1_delay_L0+0, 0 
	ADDWF       R0, 1 
	MOVLW       0
	ADDWFC      R1, 1 
	ADDWFC      R2, 1 
	ADDWFC      R3, 1 
	MOVF        R0, 0 
	MOVWF       _temp+0 
	MOVF        R1, 0 
	MOVWF       _temp+1 
	MOVF        R2, 0 
	MOVWF       _temp+2 
	MOVF        R3, 0 
	MOVWF       _temp+3 
	MOVF        R0, 0 
	MOVWF       FARG_AddTask+0 
	MOVF        R1, 0 
	MOVWF       FARG_AddTask+1 
	MOVF        R2, 0 
	MOVWF       FARG_AddTask+2 
	MOVF        R3, 0 
	MOVWF       FARG_AddTask+3 
	MOVLW       7
	MOVWF       FARG_AddTask+0 
	CALL        _AddTask+0, 0
L_State193:
;FirmV_0_7_0.c,636 :: 		temp=ms500+Door1OpenTime+delay;
	MOVF        _Door1OpenTime+0, 0 
	ADDWF       _ms500+0, 0 
	MOVWF       R0 
	MOVLW       0
	ADDWFC      _ms500+1, 0 
	MOVWF       R1 
	MOVLW       0
	ADDWFC      _ms500+2, 0 
	MOVWF       R2 
	MOVLW       0
	ADDWFC      _ms500+3, 0 
	MOVWF       R3 
	MOVF        State1_delay_L0+0, 0 
	ADDWF       R0, 1 
	MOVLW       0
	ADDWFC      R1, 1 
	ADDWFC      R2, 1 
	ADDWFC      R3, 1 
	MOVF        R0, 0 
	MOVWF       _temp+0 
	MOVF        R1, 0 
	MOVWF       _temp+1 
	MOVF        R2, 0 
	MOVWF       _temp+2 
	MOVF        R3, 0 
	MOVWF       _temp+3 
;FirmV_0_7_0.c,637 :: 		AddTask(temp,3);//Stop motor
	MOVF        R0, 0 
	MOVWF       FARG_AddTask+0 
	MOVF        R1, 0 
	MOVWF       FARG_AddTask+1 
	MOVF        R2, 0 
	MOVWF       FARG_AddTask+2 
	MOVF        R3, 0 
	MOVWF       FARG_AddTask+3 
	MOVLW       3
	MOVWF       FARG_AddTask+0 
	CALL        _AddTask+0, 0
;FirmV_0_7_0.c,638 :: 		AutoCloseTemp=ms500+Door1OpenTime+delay;
	MOVF        _Door1OpenTime+0, 0 
	ADDWF       _ms500+0, 0 
	MOVWF       State1_AutoCloseTemp_L0+0 
	MOVLW       0
	ADDWFC      _ms500+1, 0 
	MOVWF       State1_AutoCloseTemp_L0+1 
	MOVLW       0
	ADDWFC      _ms500+2, 0 
	MOVWF       State1_AutoCloseTemp_L0+2 
	MOVLW       0
	ADDWFC      _ms500+3, 0 
	MOVWF       State1_AutoCloseTemp_L0+3 
	MOVF        State1_delay_L0+0, 0 
	ADDWF       State1_AutoCloseTemp_L0+0, 1 
	MOVLW       0
	ADDWFC      State1_AutoCloseTemp_L0+1, 1 
	ADDWFC      State1_AutoCloseTemp_L0+2, 1 
	ADDWFC      State1_AutoCloseTemp_L0+3, 1 
;FirmV_0_7_0.c,640 :: 		if((Door2OpenTime!=0)&&(ActiveDoors==2))
	MOVF        _Door2OpenTime+0, 0 
	XORLW       0
	BTFSC       STATUS+0, 2 
	GOTO        L_State196
	MOVF        _ActiveDoors+0, 0 
	XORLW       2
	BTFSS       STATUS+0, 2 
	GOTO        L_State196
L__State1896:
;FirmV_0_7_0.c,642 :: 		temp=ms500+ActionTimeDiff+delay;
	MOVF        _ActionTimeDiff+0, 0 
	ADDWF       _ms500+0, 0 
	MOVWF       R0 
	MOVLW       0
	ADDWFC      _ms500+1, 0 
	MOVWF       R1 
	MOVLW       0
	ADDWFC      _ms500+2, 0 
	MOVWF       R2 
	MOVLW       0
	ADDWFC      _ms500+3, 0 
	MOVWF       R3 
	MOVF        State1_delay_L0+0, 0 
	ADDWF       R0, 1 
	MOVLW       0
	ADDWFC      R1, 1 
	ADDWFC      R2, 1 
	ADDWFC      R3, 1 
	MOVF        R0, 0 
	MOVWF       _temp+0 
	MOVF        R1, 0 
	MOVWF       _temp+1 
	MOVF        R2, 0 
	MOVWF       _temp+2 
	MOVF        R3, 0 
	MOVWF       _temp+3 
;FirmV_0_7_0.c,643 :: 		AddTask(temp,2);
	MOVF        R0, 0 
	MOVWF       FARG_AddTask+0 
	MOVF        R1, 0 
	MOVWF       FARG_AddTask+1 
	MOVF        R2, 0 
	MOVWF       FARG_AddTask+2 
	MOVF        R3, 0 
	MOVWF       FARG_AddTask+3 
	MOVLW       2
	MOVWF       FARG_AddTask+0 
	CALL        _AddTask+0, 0
;FirmV_0_7_0.c,644 :: 		if(OpenSoftStartTime!=0)
	MOVF        _OpenSoftStartTime+0, 0 
	XORLW       0
	BTFSC       STATUS+0, 2 
	GOTO        L_State197
;FirmV_0_7_0.c,645 :: 		{temp=ms500+ActionTimeDiff+delay;AddTask(temp,8); M2isSlow=1;}//speed down
	MOVF        _ActionTimeDiff+0, 0 
	ADDWF       _ms500+0, 0 
	MOVWF       R0 
	MOVLW       0
	ADDWFC      _ms500+1, 0 
	MOVWF       R1 
	MOVLW       0
	ADDWFC      _ms500+2, 0 
	MOVWF       R2 
	MOVLW       0
	ADDWFC      _ms500+3, 0 
	MOVWF       R3 
	MOVF        State1_delay_L0+0, 0 
	ADDWF       R0, 1 
	MOVLW       0
	ADDWFC      R1, 1 
	ADDWFC      R2, 1 
	ADDWFC      R3, 1 
	MOVF        R0, 0 
	MOVWF       _temp+0 
	MOVF        R1, 0 
	MOVWF       _temp+1 
	MOVF        R2, 0 
	MOVWF       _temp+2 
	MOVF        R3, 0 
	MOVWF       _temp+3 
	MOVF        R0, 0 
	MOVWF       FARG_AddTask+0 
	MOVF        R1, 0 
	MOVWF       FARG_AddTask+1 
	MOVF        R2, 0 
	MOVWF       FARG_AddTask+2 
	MOVF        R3, 0 
	MOVWF       FARG_AddTask+3 
	MOVLW       8
	MOVWF       FARG_AddTask+0 
	CALL        _AddTask+0, 0
	MOVLW       1
	MOVWF       _M2isSlow+0 
	GOTO        L_State198
L_State197:
;FirmV_0_7_0.c,647 :: 		{temp=ms500+ActionTimeDiff+delay;AddTask(temp,6); M2isSlow=0;}//speed up
	MOVF        _ActionTimeDiff+0, 0 
	ADDWF       _ms500+0, 0 
	MOVWF       R0 
	MOVLW       0
	ADDWFC      _ms500+1, 0 
	MOVWF       R1 
	MOVLW       0
	ADDWFC      _ms500+2, 0 
	MOVWF       R2 
	MOVLW       0
	ADDWFC      _ms500+3, 0 
	MOVWF       R3 
	MOVF        State1_delay_L0+0, 0 
	ADDWF       R0, 1 
	MOVLW       0
	ADDWFC      R1, 1 
	ADDWFC      R2, 1 
	ADDWFC      R3, 1 
	MOVF        R0, 0 
	MOVWF       _temp+0 
	MOVF        R1, 0 
	MOVWF       _temp+1 
	MOVF        R2, 0 
	MOVWF       _temp+2 
	MOVF        R3, 0 
	MOVWF       _temp+3 
	MOVF        R0, 0 
	MOVWF       FARG_AddTask+0 
	MOVF        R1, 0 
	MOVWF       FARG_AddTask+1 
	MOVF        R2, 0 
	MOVWF       FARG_AddTask+2 
	MOVF        R3, 0 
	MOVWF       FARG_AddTask+3 
	MOVLW       6
	MOVWF       FARG_AddTask+0 
	CALL        _AddTask+0, 0
	CLRF        _M2isSlow+0 
L_State198:
;FirmV_0_7_0.c,648 :: 		temp=ms500+ActionTimeDiff+OpenSoftStartTime+OverloadDelay+delay;
	MOVF        _ActionTimeDiff+0, 0 
	ADDWF       _ms500+0, 0 
	MOVWF       R0 
	MOVLW       0
	ADDWFC      _ms500+1, 0 
	MOVWF       R1 
	MOVLW       0
	ADDWFC      _ms500+2, 0 
	MOVWF       R2 
	MOVLW       0
	ADDWFC      _ms500+3, 0 
	MOVWF       R3 
	MOVF        _OpenSoftStartTime+0, 0 
	ADDWF       R0, 1 
	MOVLW       0
	ADDWFC      R1, 1 
	ADDWFC      R2, 1 
	ADDWFC      R3, 1 
	MOVLW       6
	ADDWF       R0, 1 
	MOVLW       0
	ADDWFC      R1, 1 
	ADDWFC      R2, 1 
	ADDWFC      R3, 1 
	MOVF        State1_delay_L0+0, 0 
	ADDWF       R0, 1 
	MOVLW       0
	ADDWFC      R1, 1 
	ADDWFC      R2, 1 
	ADDWFC      R3, 1 
	MOVF        R0, 0 
	MOVWF       _temp+0 
	MOVF        R1, 0 
	MOVWF       _temp+1 
	MOVF        R2, 0 
	MOVWF       _temp+2 
	MOVF        R3, 0 
	MOVWF       _temp+3 
;FirmV_0_7_0.c,649 :: 		AddTask(temp,11); //overload check
	MOVF        R0, 0 
	MOVWF       FARG_AddTask+0 
	MOVF        R1, 0 
	MOVWF       FARG_AddTask+1 
	MOVF        R2, 0 
	MOVWF       FARG_AddTask+2 
	MOVF        R3, 0 
	MOVWF       FARG_AddTask+3 
	MOVLW       11
	MOVWF       FARG_AddTask+0 
	CALL        _AddTask+0, 0
;FirmV_0_7_0.c,650 :: 		temp=ms500+ActionTimeDiff+OpenSoftStartTime+delay;
	MOVF        _ActionTimeDiff+0, 0 
	ADDWF       _ms500+0, 0 
	MOVWF       R0 
	MOVLW       0
	ADDWFC      _ms500+1, 0 
	MOVWF       R1 
	MOVLW       0
	ADDWFC      _ms500+2, 0 
	MOVWF       R2 
	MOVLW       0
	ADDWFC      _ms500+3, 0 
	MOVWF       R3 
	MOVF        _OpenSoftStartTime+0, 0 
	ADDWF       R0, 1 
	MOVLW       0
	ADDWFC      R1, 1 
	ADDWFC      R2, 1 
	ADDWFC      R3, 1 
	MOVF        State1_delay_L0+0, 0 
	ADDWF       R0, 1 
	MOVLW       0
	ADDWFC      R1, 1 
	ADDWFC      R2, 1 
	ADDWFC      R3, 1 
	MOVF        R0, 0 
	MOVWF       _temp+0 
	MOVF        R1, 0 
	MOVWF       _temp+1 
	MOVF        R2, 0 
	MOVWF       _temp+2 
	MOVF        R3, 0 
	MOVWF       _temp+3 
;FirmV_0_7_0.c,651 :: 		AddTask(temp,6);//Speed up after soft start
	MOVF        R0, 0 
	MOVWF       FARG_AddTask+0 
	MOVF        R1, 0 
	MOVWF       FARG_AddTask+1 
	MOVF        R2, 0 
	MOVWF       FARG_AddTask+2 
	MOVF        R3, 0 
	MOVWF       FARG_AddTask+3 
	MOVLW       6
	MOVWF       FARG_AddTask+0 
	CALL        _AddTask+0, 0
;FirmV_0_7_0.c,652 :: 		if(OpenSoftStopTime!=0)
	MOVF        _OpenSoftStopTime+0, 0 
	XORLW       0
	BTFSC       STATUS+0, 2 
	GOTO        L_State199
;FirmV_0_7_0.c,653 :: 		{temp=ms500+ActionTimeDiff+Door2OpenTime-OpenSoftStopTime+delay;AddTask(temp,8);}//Speed down for soft stop
	MOVF        _ActionTimeDiff+0, 0 
	ADDWF       _ms500+0, 0 
	MOVWF       R0 
	MOVLW       0
	ADDWFC      _ms500+1, 0 
	MOVWF       R1 
	MOVLW       0
	ADDWFC      _ms500+2, 0 
	MOVWF       R2 
	MOVLW       0
	ADDWFC      _ms500+3, 0 
	MOVWF       R3 
	MOVF        _Door2OpenTime+0, 0 
	ADDWF       R0, 1 
	MOVLW       0
	ADDWFC      R1, 1 
	ADDWFC      R2, 1 
	ADDWFC      R3, 1 
	MOVF        _OpenSoftStopTime+0, 0 
	SUBWF       R0, 1 
	MOVLW       0
	SUBWFB      R1, 1 
	SUBWFB      R2, 1 
	SUBWFB      R3, 1 
	MOVF        State1_delay_L0+0, 0 
	ADDWF       R0, 1 
	MOVLW       0
	ADDWFC      R1, 1 
	ADDWFC      R2, 1 
	ADDWFC      R3, 1 
	MOVF        R0, 0 
	MOVWF       _temp+0 
	MOVF        R1, 0 
	MOVWF       _temp+1 
	MOVF        R2, 0 
	MOVWF       _temp+2 
	MOVF        R3, 0 
	MOVWF       _temp+3 
	MOVF        R0, 0 
	MOVWF       FARG_AddTask+0 
	MOVF        R1, 0 
	MOVWF       FARG_AddTask+1 
	MOVF        R2, 0 
	MOVWF       FARG_AddTask+2 
	MOVF        R3, 0 
	MOVWF       FARG_AddTask+3 
	MOVLW       8
	MOVWF       FARG_AddTask+0 
	CALL        _AddTask+0, 0
L_State199:
;FirmV_0_7_0.c,654 :: 		temp=ms500+Door2OpenTime+ActionTimeDiff+delay;
	MOVF        _Door2OpenTime+0, 0 
	ADDWF       _ms500+0, 0 
	MOVWF       R0 
	MOVLW       0
	ADDWFC      _ms500+1, 0 
	MOVWF       R1 
	MOVLW       0
	ADDWFC      _ms500+2, 0 
	MOVWF       R2 
	MOVLW       0
	ADDWFC      _ms500+3, 0 
	MOVWF       R3 
	MOVF        _ActionTimeDiff+0, 0 
	ADDWF       R0, 1 
	MOVLW       0
	ADDWFC      R1, 1 
	ADDWFC      R2, 1 
	ADDWFC      R3, 1 
	MOVF        State1_delay_L0+0, 0 
	ADDWF       R0, 1 
	MOVLW       0
	ADDWFC      R1, 1 
	ADDWFC      R2, 1 
	ADDWFC      R3, 1 
	MOVF        R0, 0 
	MOVWF       _temp+0 
	MOVF        R1, 0 
	MOVWF       _temp+1 
	MOVF        R2, 0 
	MOVWF       _temp+2 
	MOVF        R3, 0 
	MOVWF       _temp+3 
;FirmV_0_7_0.c,655 :: 		AddTask(temp,4);//Stop motor
	MOVF        R0, 0 
	MOVWF       FARG_AddTask+0 
	MOVF        R1, 0 
	MOVWF       FARG_AddTask+1 
	MOVF        R2, 0 
	MOVWF       FARG_AddTask+2 
	MOVF        R3, 0 
	MOVWF       FARG_AddTask+3 
	MOVLW       4
	MOVWF       FARG_AddTask+0 
	CALL        _AddTask+0, 0
;FirmV_0_7_0.c,656 :: 		AutoCloseTemp=ms500+Door2OpenTime+ActionTimeDiff+delay;
	MOVF        _Door2OpenTime+0, 0 
	ADDWF       _ms500+0, 0 
	MOVWF       State1_AutoCloseTemp_L0+0 
	MOVLW       0
	ADDWFC      _ms500+1, 0 
	MOVWF       State1_AutoCloseTemp_L0+1 
	MOVLW       0
	ADDWFC      _ms500+2, 0 
	MOVWF       State1_AutoCloseTemp_L0+2 
	MOVLW       0
	ADDWFC      _ms500+3, 0 
	MOVWF       State1_AutoCloseTemp_L0+3 
	MOVF        _ActionTimeDiff+0, 0 
	ADDWF       State1_AutoCloseTemp_L0+0, 1 
	MOVLW       0
	ADDWFC      State1_AutoCloseTemp_L0+1, 1 
	ADDWFC      State1_AutoCloseTemp_L0+2, 1 
	ADDWFC      State1_AutoCloseTemp_L0+3, 1 
	MOVF        State1_delay_L0+0, 0 
	ADDWF       State1_AutoCloseTemp_L0+0, 1 
	MOVLW       0
	ADDWFC      State1_AutoCloseTemp_L0+1, 1 
	ADDWFC      State1_AutoCloseTemp_L0+2, 1 
	ADDWFC      State1_AutoCloseTemp_L0+3, 1 
;FirmV_0_7_0.c,657 :: 		}
L_State196:
;FirmV_0_7_0.c,659 :: 		if(AutoCloseTime!=0)
	MOVLW       0
	XORWF       _AutoCloseTime+1, 0 
	BTFSS       STATUS+0, 2 
	GOTO        L__State11029
	MOVLW       0
	XORWF       _AutoCloseTime+0, 0 
L__State11029:
	BTFSC       STATUS+0, 2 
	GOTO        L_State1100
;FirmV_0_7_0.c,660 :: 		{AutoClosePauseFlag=0; temp=AutoCloseTemp+AutoCloseTime;AddTask(temp,9);}
	CLRF        _AutoClosePauseFlag+0 
	MOVF        _AutoCloseTime+0, 0 
	ADDWF       State1_AutoCloseTemp_L0+0, 0 
	MOVWF       R0 
	MOVF        _AutoCloseTime+1, 0 
	ADDWFC      State1_AutoCloseTemp_L0+1, 0 
	MOVWF       R1 
	MOVLW       0
	ADDWFC      State1_AutoCloseTemp_L0+2, 0 
	MOVWF       R2 
	MOVLW       0
	ADDWFC      State1_AutoCloseTemp_L0+3, 0 
	MOVWF       R3 
	MOVF        R0, 0 
	MOVWF       _temp+0 
	MOVF        R1, 0 
	MOVWF       _temp+1 
	MOVF        R2, 0 
	MOVWF       _temp+2 
	MOVF        R3, 0 
	MOVWF       _temp+3 
	MOVF        R0, 0 
	MOVWF       FARG_AddTask+0 
	MOVF        R1, 0 
	MOVWF       FARG_AddTask+1 
	MOVF        R2, 0 
	MOVWF       FARG_AddTask+2 
	MOVF        R3, 0 
	MOVWF       FARG_AddTask+3 
	MOVLW       9
	MOVWF       FARG_AddTask+0 
	CALL        _AddTask+0, 0
L_State1100:
;FirmV_0_7_0.c,662 :: 		OpenDone=3;
	MOVLW       3
	MOVWF       _OpenDone+0 
;FirmV_0_7_0.c,663 :: 		OverloadCheckFlag1=0;
	CLRF        _OverloadCheckFlag1+0 
;FirmV_0_7_0.c,664 :: 		OverloadCheckFlag2=0;
	CLRF        _OverloadCheckFlag2+0 
;FirmV_0_7_0.c,665 :: 		KeyNoiseEliminator=0;
	CLRF        _KeyNoiseEliminator+0 
;FirmV_0_7_0.c,666 :: 		State=3;
	MOVLW       3
	MOVWF       _State+0 
;FirmV_0_7_0.c,667 :: 		AutoClosePauseFlag=0;
	CLRF        _AutoClosePauseFlag+0 
;FirmV_0_7_0.c,668 :: 		PassFlag=0;
	CLRF        _PassFlag+0 
;FirmV_0_7_0.c,669 :: 		}
L_State190:
;FirmV_0_7_0.c,670 :: 		}
L_end_State1:
	RETURN      0
; end of _State1

_State2:

;FirmV_0_7_0.c,684 :: 		void State2()
;FirmV_0_7_0.c,686 :: 		char delay=2;
	MOVLW       2
	MOVWF       State2_delay_L0+0 
;FirmV_0_7_0.c,688 :: 		Flasher=0;
	BCF         PORTD+0, 7 
;FirmV_0_7_0.c,689 :: 		FlashFlag=0;
	CLRF        _FlashFlag+0 
;FirmV_0_7_0.c,692 :: 		if(ReturnAutoclose()!=PrevAC)
	CALL        _ReturnAutoclose+0, 0
	MOVF        R0, 0 
	XORWF       _PrevAC+0, 0 
	BTFSC       STATUS+0, 2 
	GOTO        L_State2101
;FirmV_0_7_0.c,694 :: 		LCDFlashFlag=0;
	CLRF        _LCDFlashFlag+0 
;FirmV_0_7_0.c,695 :: 		PrevAC=ReturnAutoclose();
	CALL        _ReturnAutoclose+0, 0
	MOVF        R0, 0 
	MOVWF       _PrevAC+0 
;FirmV_0_7_0.c,696 :: 		charValueToStr_AC(PrevAC,LCDLine2+11);
	MOVF        R0, 0 
	MOVWF       FARG_charValueToStr_AC+0 
	MOVLW       _LCDLine2+11
	MOVWF       FARG_charValueToStr_AC+0 
	MOVLW       hi_addr(_LCDLine2+11)
	MOVWF       FARG_charValueToStr_AC+1 
	CALL        _charValueToStr_AC+0, 0
;FirmV_0_7_0.c,697 :: 		memcpy(LCDLine2,"Close after",11);
	MOVLW       _LCDLine2+0
	MOVWF       FARG_memcpy_d1+0 
	MOVLW       hi_addr(_LCDLine2+0)
	MOVWF       FARG_memcpy_d1+1 
	MOVLW       ?lstr4_FirmV_0_7_0+0
	MOVWF       FARG_memcpy_s1+0 
	MOVLW       hi_addr(?lstr4_FirmV_0_7_0+0)
	MOVWF       FARG_memcpy_s1+1 
	MOVLW       11
	MOVWF       FARG_memcpy_n+0 
	MOVLW       0
	MOVWF       FARG_memcpy_n+1 
	CALL        _memcpy+0, 0
;FirmV_0_7_0.c,698 :: 		LCDUpdateFlag=1;
	MOVLW       1
	MOVWF       _LCDUpdateFlag+0 
;FirmV_0_7_0.c,699 :: 		LCDLines=2;
	MOVLW       2
	MOVWF       _LCDLines+0 
;FirmV_0_7_0.c,700 :: 		}
L_State2101:
;FirmV_0_7_0.c,703 :: 		if((Events.Remote!=0)||(CheckTask(9)))
	MOVF        _Events+4, 0 
	XORLW       0
	BTFSS       STATUS+0, 2 
	GOTO        L__State2901
	MOVLW       9
	MOVWF       FARG_CheckTask+0 
	CALL        _CheckTask+0, 0
	MOVF        R0, 1 
	BTFSS       STATUS+0, 2 
	GOTO        L__State2901
	GOTO        L_State2104
L__State2901:
;FirmV_0_7_0.c,706 :: 		ClearTasks(0);
	CLRF        FARG_ClearTasks+0 
	CALL        _ClearTasks+0, 0
;FirmV_0_7_0.c,707 :: 		if((Door2CloseTime==0)||(ActiveDoors==1))
	MOVF        _Door2CloseTime+0, 0 
	XORLW       0
	BTFSC       STATUS+0, 2 
	GOTO        L__State2900
	MOVF        _ActiveDoors+0, 0 
	XORLW       1
	BTFSC       STATUS+0, 2 
	GOTO        L__State2900
	GOTO        L_State2107
L__State2900:
;FirmV_0_7_0.c,709 :: 		temp=ms500+delay;
	MOVF        State2_delay_L0+0, 0 
	ADDWF       _ms500+0, 0 
	MOVWF       R0 
	MOVLW       0
	ADDWFC      _ms500+1, 0 
	MOVWF       R1 
	MOVLW       0
	ADDWFC      _ms500+2, 0 
	MOVWF       R2 
	MOVLW       0
	ADDWFC      _ms500+3, 0 
	MOVWF       R3 
	MOVF        R0, 0 
	MOVWF       _temp+0 
	MOVF        R1, 0 
	MOVWF       _temp+1 
	MOVF        R2, 0 
	MOVWF       _temp+2 
	MOVF        R3, 0 
	MOVWF       _temp+3 
;FirmV_0_7_0.c,710 :: 		AddTask(temp,1);
	MOVF        R0, 0 
	MOVWF       FARG_AddTask+0 
	MOVF        R1, 0 
	MOVWF       FARG_AddTask+1 
	MOVF        R2, 0 
	MOVWF       FARG_AddTask+2 
	MOVF        R3, 0 
	MOVWF       FARG_AddTask+3 
	MOVLW       1
	MOVWF       FARG_AddTask+0 
	CALL        _AddTask+0, 0
;FirmV_0_7_0.c,711 :: 		if(CloseSoftStartTime!=0)
	MOVF        _CloseSoftStartTime+0, 0 
	XORLW       0
	BTFSC       STATUS+0, 2 
	GOTO        L_State2108
;FirmV_0_7_0.c,712 :: 		{AddTask(temp,7); M1isSlow=1;}//speed down
	MOVF        _temp+0, 0 
	MOVWF       FARG_AddTask+0 
	MOVF        _temp+1, 0 
	MOVWF       FARG_AddTask+1 
	MOVF        _temp+2, 0 
	MOVWF       FARG_AddTask+2 
	MOVF        _temp+3, 0 
	MOVWF       FARG_AddTask+3 
	MOVLW       7
	MOVWF       FARG_AddTask+0 
	CALL        _AddTask+0, 0
	MOVLW       1
	MOVWF       _M1isSlow+0 
	GOTO        L_State2109
L_State2108:
;FirmV_0_7_0.c,714 :: 		{AddTask(temp,5); M1isSlow=0;}//speed up
	MOVF        _temp+0, 0 
	MOVWF       FARG_AddTask+0 
	MOVF        _temp+1, 0 
	MOVWF       FARG_AddTask+1 
	MOVF        _temp+2, 0 
	MOVWF       FARG_AddTask+2 
	MOVF        _temp+3, 0 
	MOVWF       FARG_AddTask+3 
	MOVLW       5
	MOVWF       FARG_AddTask+0 
	CALL        _AddTask+0, 0
	CLRF        _M1isSlow+0 
L_State2109:
;FirmV_0_7_0.c,715 :: 		temp=ms500+CloseSoftStartTime+OverloadDelay+delay;
	MOVF        _CloseSoftStartTime+0, 0 
	ADDWF       _ms500+0, 0 
	MOVWF       R0 
	MOVLW       0
	ADDWFC      _ms500+1, 0 
	MOVWF       R1 
	MOVLW       0
	ADDWFC      _ms500+2, 0 
	MOVWF       R2 
	MOVLW       0
	ADDWFC      _ms500+3, 0 
	MOVWF       R3 
	MOVLW       6
	ADDWF       R0, 1 
	MOVLW       0
	ADDWFC      R1, 1 
	ADDWFC      R2, 1 
	ADDWFC      R3, 1 
	MOVF        State2_delay_L0+0, 0 
	ADDWF       R0, 1 
	MOVLW       0
	ADDWFC      R1, 1 
	ADDWFC      R2, 1 
	ADDWFC      R3, 1 
	MOVF        R0, 0 
	MOVWF       _temp+0 
	MOVF        R1, 0 
	MOVWF       _temp+1 
	MOVF        R2, 0 
	MOVWF       _temp+2 
	MOVF        R3, 0 
	MOVWF       _temp+3 
;FirmV_0_7_0.c,716 :: 		AddTask(temp,10); //overload check
	MOVF        R0, 0 
	MOVWF       FARG_AddTask+0 
	MOVF        R1, 0 
	MOVWF       FARG_AddTask+1 
	MOVF        R2, 0 
	MOVWF       FARG_AddTask+2 
	MOVF        R3, 0 
	MOVWF       FARG_AddTask+3 
	MOVLW       10
	MOVWF       FARG_AddTask+0 
	CALL        _AddTask+0, 0
;FirmV_0_7_0.c,717 :: 		temp=ms500+CloseSoftStartTime+delay;
	MOVF        _CloseSoftStartTime+0, 0 
	ADDWF       _ms500+0, 0 
	MOVWF       R0 
	MOVLW       0
	ADDWFC      _ms500+1, 0 
	MOVWF       R1 
	MOVLW       0
	ADDWFC      _ms500+2, 0 
	MOVWF       R2 
	MOVLW       0
	ADDWFC      _ms500+3, 0 
	MOVWF       R3 
	MOVF        State2_delay_L0+0, 0 
	ADDWF       R0, 1 
	MOVLW       0
	ADDWFC      R1, 1 
	ADDWFC      R2, 1 
	ADDWFC      R3, 1 
	MOVF        R0, 0 
	MOVWF       _temp+0 
	MOVF        R1, 0 
	MOVWF       _temp+1 
	MOVF        R2, 0 
	MOVWF       _temp+2 
	MOVF        R3, 0 
	MOVWF       _temp+3 
;FirmV_0_7_0.c,718 :: 		AddTask(temp,5);//Speed up after soft start
	MOVF        R0, 0 
	MOVWF       FARG_AddTask+0 
	MOVF        R1, 0 
	MOVWF       FARG_AddTask+1 
	MOVF        R2, 0 
	MOVWF       FARG_AddTask+2 
	MOVF        R3, 0 
	MOVWF       FARG_AddTask+3 
	MOVLW       5
	MOVWF       FARG_AddTask+0 
	CALL        _AddTask+0, 0
;FirmV_0_7_0.c,719 :: 		if(CloseSoftStopTime!=0)
	MOVF        _CloseSoftStopTime+0, 0 
	XORLW       0
	BTFSC       STATUS+0, 2 
	GOTO        L_State2110
;FirmV_0_7_0.c,720 :: 		{temp=ms500+Door1CloseTime-CloseSoftStopTime+delay;AddTask(temp,7);}//Speed down for soft stop
	MOVF        _Door1CloseTime+0, 0 
	ADDWF       _ms500+0, 0 
	MOVWF       R0 
	MOVLW       0
	ADDWFC      _ms500+1, 0 
	MOVWF       R1 
	MOVLW       0
	ADDWFC      _ms500+2, 0 
	MOVWF       R2 
	MOVLW       0
	ADDWFC      _ms500+3, 0 
	MOVWF       R3 
	MOVF        _CloseSoftStopTime+0, 0 
	SUBWF       R0, 1 
	MOVLW       0
	SUBWFB      R1, 1 
	SUBWFB      R2, 1 
	SUBWFB      R3, 1 
	MOVF        State2_delay_L0+0, 0 
	ADDWF       R0, 1 
	MOVLW       0
	ADDWFC      R1, 1 
	ADDWFC      R2, 1 
	ADDWFC      R3, 1 
	MOVF        R0, 0 
	MOVWF       _temp+0 
	MOVF        R1, 0 
	MOVWF       _temp+1 
	MOVF        R2, 0 
	MOVWF       _temp+2 
	MOVF        R3, 0 
	MOVWF       _temp+3 
	MOVF        R0, 0 
	MOVWF       FARG_AddTask+0 
	MOVF        R1, 0 
	MOVWF       FARG_AddTask+1 
	MOVF        R2, 0 
	MOVWF       FARG_AddTask+2 
	MOVF        R3, 0 
	MOVWF       FARG_AddTask+3 
	MOVLW       7
	MOVWF       FARG_AddTask+0 
	CALL        _AddTask+0, 0
L_State2110:
;FirmV_0_7_0.c,721 :: 		if(LockForce!=0)
	MOVF        _LockForce+0, 0 
	XORLW       0
	BTFSC       STATUS+0, 2 
	GOTO        L_State2111
;FirmV_0_7_0.c,722 :: 		{temp=ms500+Door1CloseTime+delay;AddTask(temp,5);AddTask(temp+LockForceTime,3);}
	MOVF        _Door1CloseTime+0, 0 
	ADDWF       _ms500+0, 0 
	MOVWF       R0 
	MOVLW       0
	ADDWFC      _ms500+1, 0 
	MOVWF       R1 
	MOVLW       0
	ADDWFC      _ms500+2, 0 
	MOVWF       R2 
	MOVLW       0
	ADDWFC      _ms500+3, 0 
	MOVWF       R3 
	MOVF        State2_delay_L0+0, 0 
	ADDWF       R0, 1 
	MOVLW       0
	ADDWFC      R1, 1 
	ADDWFC      R2, 1 
	ADDWFC      R3, 1 
	MOVF        R0, 0 
	MOVWF       _temp+0 
	MOVF        R1, 0 
	MOVWF       _temp+1 
	MOVF        R2, 0 
	MOVWF       _temp+2 
	MOVF        R3, 0 
	MOVWF       _temp+3 
	MOVF        R0, 0 
	MOVWF       FARG_AddTask+0 
	MOVF        R1, 0 
	MOVWF       FARG_AddTask+1 
	MOVF        R2, 0 
	MOVWF       FARG_AddTask+2 
	MOVF        R3, 0 
	MOVWF       FARG_AddTask+3 
	MOVLW       5
	MOVWF       FARG_AddTask+0 
	CALL        _AddTask+0, 0
	MOVLW       2
	ADDWF       _temp+0, 0 
	MOVWF       FARG_AddTask+0 
	MOVLW       0
	ADDWFC      _temp+1, 0 
	MOVWF       FARG_AddTask+1 
	MOVLW       0
	ADDWFC      _temp+2, 0 
	MOVWF       FARG_AddTask+2 
	MOVLW       0
	ADDWFC      _temp+3, 0 
	MOVWF       FARG_AddTask+3 
	MOVLW       3
	MOVWF       FARG_AddTask+0 
	CALL        _AddTask+0, 0
	GOTO        L_State2112
L_State2111:
;FirmV_0_7_0.c,724 :: 		{temp=ms500+Door1CloseTime+delay;AddTask(temp,3);}
	MOVF        _Door1CloseTime+0, 0 
	ADDWF       _ms500+0, 0 
	MOVWF       R0 
	MOVLW       0
	ADDWFC      _ms500+1, 0 
	MOVWF       R1 
	MOVLW       0
	ADDWFC      _ms500+2, 0 
	MOVWF       R2 
	MOVLW       0
	ADDWFC      _ms500+3, 0 
	MOVWF       R3 
	MOVF        State2_delay_L0+0, 0 
	ADDWF       R0, 1 
	MOVLW       0
	ADDWFC      R1, 1 
	ADDWFC      R2, 1 
	ADDWFC      R3, 1 
	MOVF        R0, 0 
	MOVWF       _temp+0 
	MOVF        R1, 0 
	MOVWF       _temp+1 
	MOVF        R2, 0 
	MOVWF       _temp+2 
	MOVF        R3, 0 
	MOVWF       _temp+3 
	MOVF        R0, 0 
	MOVWF       FARG_AddTask+0 
	MOVF        R1, 0 
	MOVWF       FARG_AddTask+1 
	MOVF        R2, 0 
	MOVWF       FARG_AddTask+2 
	MOVF        R3, 0 
	MOVWF       FARG_AddTask+3 
	MOVLW       3
	MOVWF       FARG_AddTask+0 
	CALL        _AddTask+0, 0
L_State2112:
;FirmV_0_7_0.c,726 :: 		}
L_State2107:
;FirmV_0_7_0.c,728 :: 		if((Door2CloseTime!=0)&&(ActiveDoors==2))
	MOVF        _Door2CloseTime+0, 0 
	XORLW       0
	BTFSC       STATUS+0, 2 
	GOTO        L_State2115
	MOVF        _ActiveDoors+0, 0 
	XORLW       2
	BTFSS       STATUS+0, 2 
	GOTO        L_State2115
L__State2899:
;FirmV_0_7_0.c,730 :: 		temp=ms500+delay;
	MOVF        State2_delay_L0+0, 0 
	ADDWF       _ms500+0, 0 
	MOVWF       R0 
	MOVLW       0
	ADDWFC      _ms500+1, 0 
	MOVWF       R1 
	MOVLW       0
	ADDWFC      _ms500+2, 0 
	MOVWF       R2 
	MOVLW       0
	ADDWFC      _ms500+3, 0 
	MOVWF       R3 
	MOVF        R0, 0 
	MOVWF       _temp+0 
	MOVF        R1, 0 
	MOVWF       _temp+1 
	MOVF        R2, 0 
	MOVWF       _temp+2 
	MOVF        R3, 0 
	MOVWF       _temp+3 
;FirmV_0_7_0.c,731 :: 		AddTask(temp,2);
	MOVF        R0, 0 
	MOVWF       FARG_AddTask+0 
	MOVF        R1, 0 
	MOVWF       FARG_AddTask+1 
	MOVF        R2, 0 
	MOVWF       FARG_AddTask+2 
	MOVF        R3, 0 
	MOVWF       FARG_AddTask+3 
	MOVLW       2
	MOVWF       FARG_AddTask+0 
	CALL        _AddTask+0, 0
;FirmV_0_7_0.c,732 :: 		if(CloseSoftStartTime!=0)
	MOVF        _CloseSoftStartTime+0, 0 
	XORLW       0
	BTFSC       STATUS+0, 2 
	GOTO        L_State2116
;FirmV_0_7_0.c,733 :: 		{AddTask(temp,8); M2isSlow=1;}//speed down
	MOVF        _temp+0, 0 
	MOVWF       FARG_AddTask+0 
	MOVF        _temp+1, 0 
	MOVWF       FARG_AddTask+1 
	MOVF        _temp+2, 0 
	MOVWF       FARG_AddTask+2 
	MOVF        _temp+3, 0 
	MOVWF       FARG_AddTask+3 
	MOVLW       8
	MOVWF       FARG_AddTask+0 
	CALL        _AddTask+0, 0
	MOVLW       1
	MOVWF       _M2isSlow+0 
	GOTO        L_State2117
L_State2116:
;FirmV_0_7_0.c,735 :: 		{AddTask(temp,6); M2isSlow=0;}//speed up
	MOVF        _temp+0, 0 
	MOVWF       FARG_AddTask+0 
	MOVF        _temp+1, 0 
	MOVWF       FARG_AddTask+1 
	MOVF        _temp+2, 0 
	MOVWF       FARG_AddTask+2 
	MOVF        _temp+3, 0 
	MOVWF       FARG_AddTask+3 
	MOVLW       6
	MOVWF       FARG_AddTask+0 
	CALL        _AddTask+0, 0
	CLRF        _M2isSlow+0 
L_State2117:
;FirmV_0_7_0.c,736 :: 		temp=ms500+CloseSoftStartTime+OverloadDelay+delay;
	MOVF        _CloseSoftStartTime+0, 0 
	ADDWF       _ms500+0, 0 
	MOVWF       R0 
	MOVLW       0
	ADDWFC      _ms500+1, 0 
	MOVWF       R1 
	MOVLW       0
	ADDWFC      _ms500+2, 0 
	MOVWF       R2 
	MOVLW       0
	ADDWFC      _ms500+3, 0 
	MOVWF       R3 
	MOVLW       6
	ADDWF       R0, 1 
	MOVLW       0
	ADDWFC      R1, 1 
	ADDWFC      R2, 1 
	ADDWFC      R3, 1 
	MOVF        State2_delay_L0+0, 0 
	ADDWF       R0, 1 
	MOVLW       0
	ADDWFC      R1, 1 
	ADDWFC      R2, 1 
	ADDWFC      R3, 1 
	MOVF        R0, 0 
	MOVWF       _temp+0 
	MOVF        R1, 0 
	MOVWF       _temp+1 
	MOVF        R2, 0 
	MOVWF       _temp+2 
	MOVF        R3, 0 
	MOVWF       _temp+3 
;FirmV_0_7_0.c,737 :: 		AddTask(temp,11); //overload check
	MOVF        R0, 0 
	MOVWF       FARG_AddTask+0 
	MOVF        R1, 0 
	MOVWF       FARG_AddTask+1 
	MOVF        R2, 0 
	MOVWF       FARG_AddTask+2 
	MOVF        R3, 0 
	MOVWF       FARG_AddTask+3 
	MOVLW       11
	MOVWF       FARG_AddTask+0 
	CALL        _AddTask+0, 0
;FirmV_0_7_0.c,738 :: 		temp=ms500+CloseSoftStartTime+delay;
	MOVF        _CloseSoftStartTime+0, 0 
	ADDWF       _ms500+0, 0 
	MOVWF       R0 
	MOVLW       0
	ADDWFC      _ms500+1, 0 
	MOVWF       R1 
	MOVLW       0
	ADDWFC      _ms500+2, 0 
	MOVWF       R2 
	MOVLW       0
	ADDWFC      _ms500+3, 0 
	MOVWF       R3 
	MOVF        State2_delay_L0+0, 0 
	ADDWF       R0, 1 
	MOVLW       0
	ADDWFC      R1, 1 
	ADDWFC      R2, 1 
	ADDWFC      R3, 1 
	MOVF        R0, 0 
	MOVWF       _temp+0 
	MOVF        R1, 0 
	MOVWF       _temp+1 
	MOVF        R2, 0 
	MOVWF       _temp+2 
	MOVF        R3, 0 
	MOVWF       _temp+3 
;FirmV_0_7_0.c,739 :: 		AddTask(temp,6);//Speed up after soft start
	MOVF        R0, 0 
	MOVWF       FARG_AddTask+0 
	MOVF        R1, 0 
	MOVWF       FARG_AddTask+1 
	MOVF        R2, 0 
	MOVWF       FARG_AddTask+2 
	MOVF        R3, 0 
	MOVWF       FARG_AddTask+3 
	MOVLW       6
	MOVWF       FARG_AddTask+0 
	CALL        _AddTask+0, 0
;FirmV_0_7_0.c,740 :: 		if(CloseSoftStopTime!=0)
	MOVF        _CloseSoftStopTime+0, 0 
	XORLW       0
	BTFSC       STATUS+0, 2 
	GOTO        L_State2118
;FirmV_0_7_0.c,741 :: 		{temp=ms500+Door2CloseTime-CloseSoftStopTime+delay;AddTask(temp,8);}//Speed down for soft stop
	MOVF        _Door2CloseTime+0, 0 
	ADDWF       _ms500+0, 0 
	MOVWF       R0 
	MOVLW       0
	ADDWFC      _ms500+1, 0 
	MOVWF       R1 
	MOVLW       0
	ADDWFC      _ms500+2, 0 
	MOVWF       R2 
	MOVLW       0
	ADDWFC      _ms500+3, 0 
	MOVWF       R3 
	MOVF        _CloseSoftStopTime+0, 0 
	SUBWF       R0, 1 
	MOVLW       0
	SUBWFB      R1, 1 
	SUBWFB      R2, 1 
	SUBWFB      R3, 1 
	MOVF        State2_delay_L0+0, 0 
	ADDWF       R0, 1 
	MOVLW       0
	ADDWFC      R1, 1 
	ADDWFC      R2, 1 
	ADDWFC      R3, 1 
	MOVF        R0, 0 
	MOVWF       _temp+0 
	MOVF        R1, 0 
	MOVWF       _temp+1 
	MOVF        R2, 0 
	MOVWF       _temp+2 
	MOVF        R3, 0 
	MOVWF       _temp+3 
	MOVF        R0, 0 
	MOVWF       FARG_AddTask+0 
	MOVF        R1, 0 
	MOVWF       FARG_AddTask+1 
	MOVF        R2, 0 
	MOVWF       FARG_AddTask+2 
	MOVF        R3, 0 
	MOVWF       FARG_AddTask+3 
	MOVLW       8
	MOVWF       FARG_AddTask+0 
	CALL        _AddTask+0, 0
L_State2118:
;FirmV_0_7_0.c,743 :: 		temp=ms500+Door2CloseTime+delay;
	MOVF        _Door2CloseTime+0, 0 
	ADDWF       _ms500+0, 0 
	MOVWF       R0 
	MOVLW       0
	ADDWFC      _ms500+1, 0 
	MOVWF       R1 
	MOVLW       0
	ADDWFC      _ms500+2, 0 
	MOVWF       R2 
	MOVLW       0
	ADDWFC      _ms500+3, 0 
	MOVWF       R3 
	MOVF        State2_delay_L0+0, 0 
	ADDWF       R0, 1 
	MOVLW       0
	ADDWFC      R1, 1 
	ADDWFC      R2, 1 
	ADDWFC      R3, 1 
	MOVF        R0, 0 
	MOVWF       _temp+0 
	MOVF        R1, 0 
	MOVWF       _temp+1 
	MOVF        R2, 0 
	MOVWF       _temp+2 
	MOVF        R3, 0 
	MOVWF       _temp+3 
;FirmV_0_7_0.c,744 :: 		AddTask(temp,4);//Stop motor
	MOVF        R0, 0 
	MOVWF       FARG_AddTask+0 
	MOVF        R1, 0 
	MOVWF       FARG_AddTask+1 
	MOVF        R2, 0 
	MOVWF       FARG_AddTask+2 
	MOVF        R3, 0 
	MOVWF       FARG_AddTask+3 
	MOVLW       4
	MOVWF       FARG_AddTask+0 
	CALL        _AddTask+0, 0
;FirmV_0_7_0.c,748 :: 		temp=ms500+ActionTimeDiff+delay;
	MOVF        _ActionTimeDiff+0, 0 
	ADDWF       _ms500+0, 0 
	MOVWF       R0 
	MOVLW       0
	ADDWFC      _ms500+1, 0 
	MOVWF       R1 
	MOVLW       0
	ADDWFC      _ms500+2, 0 
	MOVWF       R2 
	MOVLW       0
	ADDWFC      _ms500+3, 0 
	MOVWF       R3 
	MOVF        State2_delay_L0+0, 0 
	ADDWF       R0, 1 
	MOVLW       0
	ADDWFC      R1, 1 
	ADDWFC      R2, 1 
	ADDWFC      R3, 1 
	MOVF        R0, 0 
	MOVWF       _temp+0 
	MOVF        R1, 0 
	MOVWF       _temp+1 
	MOVF        R2, 0 
	MOVWF       _temp+2 
	MOVF        R3, 0 
	MOVWF       _temp+3 
;FirmV_0_7_0.c,749 :: 		AddTask(temp,1);
	MOVF        R0, 0 
	MOVWF       FARG_AddTask+0 
	MOVF        R1, 0 
	MOVWF       FARG_AddTask+1 
	MOVF        R2, 0 
	MOVWF       FARG_AddTask+2 
	MOVF        R3, 0 
	MOVWF       FARG_AddTask+3 
	MOVLW       1
	MOVWF       FARG_AddTask+0 
	CALL        _AddTask+0, 0
;FirmV_0_7_0.c,750 :: 		if(CloseSoftStartTime!=0)
	MOVF        _CloseSoftStartTime+0, 0 
	XORLW       0
	BTFSC       STATUS+0, 2 
	GOTO        L_State2119
;FirmV_0_7_0.c,751 :: 		{AddTask(temp,7); M1isSlow=1;}//speed down
	MOVF        _temp+0, 0 
	MOVWF       FARG_AddTask+0 
	MOVF        _temp+1, 0 
	MOVWF       FARG_AddTask+1 
	MOVF        _temp+2, 0 
	MOVWF       FARG_AddTask+2 
	MOVF        _temp+3, 0 
	MOVWF       FARG_AddTask+3 
	MOVLW       7
	MOVWF       FARG_AddTask+0 
	CALL        _AddTask+0, 0
	MOVLW       1
	MOVWF       _M1isSlow+0 
	GOTO        L_State2120
L_State2119:
;FirmV_0_7_0.c,753 :: 		{AddTask(temp,5); M1isSlow=0;}//speed up
	MOVF        _temp+0, 0 
	MOVWF       FARG_AddTask+0 
	MOVF        _temp+1, 0 
	MOVWF       FARG_AddTask+1 
	MOVF        _temp+2, 0 
	MOVWF       FARG_AddTask+2 
	MOVF        _temp+3, 0 
	MOVWF       FARG_AddTask+3 
	MOVLW       5
	MOVWF       FARG_AddTask+0 
	CALL        _AddTask+0, 0
	CLRF        _M1isSlow+0 
L_State2120:
;FirmV_0_7_0.c,754 :: 		temp=ms500+ActionTimeDiff+CloseSoftStartTime+OverloadDelay+delay;
	MOVF        _ActionTimeDiff+0, 0 
	ADDWF       _ms500+0, 0 
	MOVWF       R0 
	MOVLW       0
	ADDWFC      _ms500+1, 0 
	MOVWF       R1 
	MOVLW       0
	ADDWFC      _ms500+2, 0 
	MOVWF       R2 
	MOVLW       0
	ADDWFC      _ms500+3, 0 
	MOVWF       R3 
	MOVF        _CloseSoftStartTime+0, 0 
	ADDWF       R0, 1 
	MOVLW       0
	ADDWFC      R1, 1 
	ADDWFC      R2, 1 
	ADDWFC      R3, 1 
	MOVLW       6
	ADDWF       R0, 1 
	MOVLW       0
	ADDWFC      R1, 1 
	ADDWFC      R2, 1 
	ADDWFC      R3, 1 
	MOVF        State2_delay_L0+0, 0 
	ADDWF       R0, 1 
	MOVLW       0
	ADDWFC      R1, 1 
	ADDWFC      R2, 1 
	ADDWFC      R3, 1 
	MOVF        R0, 0 
	MOVWF       _temp+0 
	MOVF        R1, 0 
	MOVWF       _temp+1 
	MOVF        R2, 0 
	MOVWF       _temp+2 
	MOVF        R3, 0 
	MOVWF       _temp+3 
;FirmV_0_7_0.c,755 :: 		AddTask(temp,10); //overload check
	MOVF        R0, 0 
	MOVWF       FARG_AddTask+0 
	MOVF        R1, 0 
	MOVWF       FARG_AddTask+1 
	MOVF        R2, 0 
	MOVWF       FARG_AddTask+2 
	MOVF        R3, 0 
	MOVWF       FARG_AddTask+3 
	MOVLW       10
	MOVWF       FARG_AddTask+0 
	CALL        _AddTask+0, 0
;FirmV_0_7_0.c,756 :: 		temp=ms500+ActionTimeDiff+CloseSoftStartTime+delay;
	MOVF        _ActionTimeDiff+0, 0 
	ADDWF       _ms500+0, 0 
	MOVWF       R0 
	MOVLW       0
	ADDWFC      _ms500+1, 0 
	MOVWF       R1 
	MOVLW       0
	ADDWFC      _ms500+2, 0 
	MOVWF       R2 
	MOVLW       0
	ADDWFC      _ms500+3, 0 
	MOVWF       R3 
	MOVF        _CloseSoftStartTime+0, 0 
	ADDWF       R0, 1 
	MOVLW       0
	ADDWFC      R1, 1 
	ADDWFC      R2, 1 
	ADDWFC      R3, 1 
	MOVF        State2_delay_L0+0, 0 
	ADDWF       R0, 1 
	MOVLW       0
	ADDWFC      R1, 1 
	ADDWFC      R2, 1 
	ADDWFC      R3, 1 
	MOVF        R0, 0 
	MOVWF       _temp+0 
	MOVF        R1, 0 
	MOVWF       _temp+1 
	MOVF        R2, 0 
	MOVWF       _temp+2 
	MOVF        R3, 0 
	MOVWF       _temp+3 
;FirmV_0_7_0.c,757 :: 		AddTask(temp,5);//Speed up after soft start
	MOVF        R0, 0 
	MOVWF       FARG_AddTask+0 
	MOVF        R1, 0 
	MOVWF       FARG_AddTask+1 
	MOVF        R2, 0 
	MOVWF       FARG_AddTask+2 
	MOVF        R3, 0 
	MOVWF       FARG_AddTask+3 
	MOVLW       5
	MOVWF       FARG_AddTask+0 
	CALL        _AddTask+0, 0
;FirmV_0_7_0.c,758 :: 		if(CloseSoftStopTime!=0)
	MOVF        _CloseSoftStopTime+0, 0 
	XORLW       0
	BTFSC       STATUS+0, 2 
	GOTO        L_State2121
;FirmV_0_7_0.c,759 :: 		{temp=ms500+ActionTimeDiff+Door1CloseTime-CloseSoftStopTime+delay;AddTask(temp,7);}//Speed down for soft stop
	MOVF        _ActionTimeDiff+0, 0 
	ADDWF       _ms500+0, 0 
	MOVWF       R0 
	MOVLW       0
	ADDWFC      _ms500+1, 0 
	MOVWF       R1 
	MOVLW       0
	ADDWFC      _ms500+2, 0 
	MOVWF       R2 
	MOVLW       0
	ADDWFC      _ms500+3, 0 
	MOVWF       R3 
	MOVF        _Door1CloseTime+0, 0 
	ADDWF       R0, 1 
	MOVLW       0
	ADDWFC      R1, 1 
	ADDWFC      R2, 1 
	ADDWFC      R3, 1 
	MOVF        _CloseSoftStopTime+0, 0 
	SUBWF       R0, 1 
	MOVLW       0
	SUBWFB      R1, 1 
	SUBWFB      R2, 1 
	SUBWFB      R3, 1 
	MOVF        State2_delay_L0+0, 0 
	ADDWF       R0, 1 
	MOVLW       0
	ADDWFC      R1, 1 
	ADDWFC      R2, 1 
	ADDWFC      R3, 1 
	MOVF        R0, 0 
	MOVWF       _temp+0 
	MOVF        R1, 0 
	MOVWF       _temp+1 
	MOVF        R2, 0 
	MOVWF       _temp+2 
	MOVF        R3, 0 
	MOVWF       _temp+3 
	MOVF        R0, 0 
	MOVWF       FARG_AddTask+0 
	MOVF        R1, 0 
	MOVWF       FARG_AddTask+1 
	MOVF        R2, 0 
	MOVWF       FARG_AddTask+2 
	MOVF        R3, 0 
	MOVWF       FARG_AddTask+3 
	MOVLW       7
	MOVWF       FARG_AddTask+0 
	CALL        _AddTask+0, 0
L_State2121:
;FirmV_0_7_0.c,760 :: 		if(LockForce!=0)
	MOVF        _LockForce+0, 0 
	XORLW       0
	BTFSC       STATUS+0, 2 
	GOTO        L_State2122
;FirmV_0_7_0.c,761 :: 		{temp=ms500+Door1CloseTime+ActionTimeDiff+delay;AddTask(temp,5);AddTask(temp+LockForceTime,3);}
	MOVF        _Door1CloseTime+0, 0 
	ADDWF       _ms500+0, 0 
	MOVWF       R0 
	MOVLW       0
	ADDWFC      _ms500+1, 0 
	MOVWF       R1 
	MOVLW       0
	ADDWFC      _ms500+2, 0 
	MOVWF       R2 
	MOVLW       0
	ADDWFC      _ms500+3, 0 
	MOVWF       R3 
	MOVF        _ActionTimeDiff+0, 0 
	ADDWF       R0, 1 
	MOVLW       0
	ADDWFC      R1, 1 
	ADDWFC      R2, 1 
	ADDWFC      R3, 1 
	MOVF        State2_delay_L0+0, 0 
	ADDWF       R0, 1 
	MOVLW       0
	ADDWFC      R1, 1 
	ADDWFC      R2, 1 
	ADDWFC      R3, 1 
	MOVF        R0, 0 
	MOVWF       _temp+0 
	MOVF        R1, 0 
	MOVWF       _temp+1 
	MOVF        R2, 0 
	MOVWF       _temp+2 
	MOVF        R3, 0 
	MOVWF       _temp+3 
	MOVF        R0, 0 
	MOVWF       FARG_AddTask+0 
	MOVF        R1, 0 
	MOVWF       FARG_AddTask+1 
	MOVF        R2, 0 
	MOVWF       FARG_AddTask+2 
	MOVF        R3, 0 
	MOVWF       FARG_AddTask+3 
	MOVLW       5
	MOVWF       FARG_AddTask+0 
	CALL        _AddTask+0, 0
	MOVLW       2
	ADDWF       _temp+0, 0 
	MOVWF       FARG_AddTask+0 
	MOVLW       0
	ADDWFC      _temp+1, 0 
	MOVWF       FARG_AddTask+1 
	MOVLW       0
	ADDWFC      _temp+2, 0 
	MOVWF       FARG_AddTask+2 
	MOVLW       0
	ADDWFC      _temp+3, 0 
	MOVWF       FARG_AddTask+3 
	MOVLW       3
	MOVWF       FARG_AddTask+0 
	CALL        _AddTask+0, 0
	GOTO        L_State2123
L_State2122:
;FirmV_0_7_0.c,763 :: 		{temp=ms500+Door1CloseTime+ActionTimeDiff+delay;AddTask(temp,3);}
	MOVF        _Door1CloseTime+0, 0 
	ADDWF       _ms500+0, 0 
	MOVWF       R0 
	MOVLW       0
	ADDWFC      _ms500+1, 0 
	MOVWF       R1 
	MOVLW       0
	ADDWFC      _ms500+2, 0 
	MOVWF       R2 
	MOVLW       0
	ADDWFC      _ms500+3, 0 
	MOVWF       R3 
	MOVF        _ActionTimeDiff+0, 0 
	ADDWF       R0, 1 
	MOVLW       0
	ADDWFC      R1, 1 
	ADDWFC      R2, 1 
	ADDWFC      R3, 1 
	MOVF        State2_delay_L0+0, 0 
	ADDWF       R0, 1 
	MOVLW       0
	ADDWFC      R1, 1 
	ADDWFC      R2, 1 
	ADDWFC      R3, 1 
	MOVF        R0, 0 
	MOVWF       _temp+0 
	MOVF        R1, 0 
	MOVWF       _temp+1 
	MOVF        R2, 0 
	MOVWF       _temp+2 
	MOVF        R3, 0 
	MOVWF       _temp+3 
	MOVF        R0, 0 
	MOVWF       FARG_AddTask+0 
	MOVF        R1, 0 
	MOVWF       FARG_AddTask+1 
	MOVF        R2, 0 
	MOVWF       FARG_AddTask+2 
	MOVF        R3, 0 
	MOVWF       FARG_AddTask+3 
	MOVLW       3
	MOVWF       FARG_AddTask+0 
	CALL        _AddTask+0, 0
L_State2123:
;FirmV_0_7_0.c,765 :: 		}
L_State2115:
;FirmV_0_7_0.c,768 :: 		CloseDone=3;
	MOVLW       3
	MOVWF       _CloseDone+0 
;FirmV_0_7_0.c,769 :: 		OverloadCheckFlag1=0;
	CLRF        _OverloadCheckFlag1+0 
;FirmV_0_7_0.c,770 :: 		OverloadCheckFlag2=0;
	CLRF        _OverloadCheckFlag2+0 
;FirmV_0_7_0.c,771 :: 		KeyNoiseEliminator=0;
	CLRF        _KeyNoiseEliminator+0 
;FirmV_0_7_0.c,772 :: 		AutoClosePauseFlag=0;
	CLRF        _AutoClosePauseFlag+0 
;FirmV_0_7_0.c,773 :: 		State=4;
	MOVLW       4
	MOVWF       _State+0 
;FirmV_0_7_0.c,774 :: 		}
L_State2104:
;FirmV_0_7_0.c,776 :: 		if((Events.Photocell.b0==1)&&(AutoCloseTime!=0)&&(PassFlag==0))
	BTFSS       _Events+6, 0 
	GOTO        L_State2126
	MOVLW       0
	XORWF       _AutoCloseTime+1, 0 
	BTFSS       STATUS+0, 2 
	GOTO        L__State21031
	MOVLW       0
	XORWF       _AutoCloseTime+0, 0 
L__State21031:
	BTFSC       STATUS+0, 2 
	GOTO        L_State2126
	MOVF        _PassFlag+0, 0 
	XORLW       0
	BTFSS       STATUS+0, 2 
	GOTO        L_State2126
L__State2898:
;FirmV_0_7_0.c,777 :: 		{PassFlag=1;AutoClosePauseFlag=1;Logger("S2 Auto Close Paused",1);}
	MOVLW       1
	MOVWF       _PassFlag+0 
	MOVLW       1
	MOVWF       _AutoClosePauseFlag+0 
	MOVLW       ?lstr5_FirmV_0_7_0+0
	MOVWF       FARG_Logger_text+0 
	MOVLW       hi_addr(?lstr5_FirmV_0_7_0+0)
	MOVWF       FARG_Logger_text+1 
	MOVLW       1
	MOVWF       FARG_Logger_TimeStampFlag+0 
	CALL        _Logger+0, 0
L_State2126:
;FirmV_0_7_0.c,780 :: 		if((PassFlag==1)&&(Events.Photocell.b0==0)&&(AutoCloseTime!=0))
	MOVF        _PassFlag+0, 0 
	XORLW       1
	BTFSS       STATUS+0, 2 
	GOTO        L_State2129
	BTFSC       _Events+6, 0 
	GOTO        L_State2129
	MOVLW       0
	XORWF       _AutoCloseTime+1, 0 
	BTFSS       STATUS+0, 2 
	GOTO        L__State21032
	MOVLW       0
	XORWF       _AutoCloseTime+0, 0 
L__State21032:
	BTFSC       STATUS+0, 2 
	GOTO        L_State2129
L__State2897:
;FirmV_0_7_0.c,781 :: 		if(CloseAfterPass==0)
	MOVF        _CloseAfterPass+0, 0 
	XORLW       0
	BTFSS       STATUS+0, 2 
	GOTO        L_State2130
;FirmV_0_7_0.c,782 :: 		{PassFlag=0;AutoClosePauseFlag=0;Logger("S2 Auto Close Resumed",1);}
	CLRF        _PassFlag+0 
	CLRF        _AutoClosePauseFlag+0 
	MOVLW       ?lstr6_FirmV_0_7_0+0
	MOVWF       FARG_Logger_text+0 
	MOVLW       hi_addr(?lstr6_FirmV_0_7_0+0)
	MOVWF       FARG_Logger_text+1 
	MOVLW       1
	MOVWF       FARG_Logger_TimeStampFlag+0 
	CALL        _Logger+0, 0
	GOTO        L_State2131
L_State2130:
;FirmV_0_7_0.c,784 :: 		{_AC=GetAutocloseTime();AutoClosePauseFlag=0;temp=ms500+CloseAfterPass;AddTask(temp,9);PassFlag=0;longwordtostrwithzeros(temp,t);Logger("S2 Insert 9 at:",1);Logger(t,1);}
	CALL        _GetAutocloseTime+0, 0
	MOVF        R0, 0 
	MOVWF       __AC+0 
	CLRF        _AutoClosePauseFlag+0 
	MOVF        _CloseAfterPass+0, 0 
	ADDWF       _ms500+0, 0 
	MOVWF       R0 
	MOVLW       0
	ADDWFC      _ms500+1, 0 
	MOVWF       R1 
	MOVLW       0
	ADDWFC      _ms500+2, 0 
	MOVWF       R2 
	MOVLW       0
	ADDWFC      _ms500+3, 0 
	MOVWF       R3 
	MOVF        R0, 0 
	MOVWF       _temp+0 
	MOVF        R1, 0 
	MOVWF       _temp+1 
	MOVF        R2, 0 
	MOVWF       _temp+2 
	MOVF        R3, 0 
	MOVWF       _temp+3 
	MOVF        R0, 0 
	MOVWF       FARG_AddTask+0 
	MOVF        R1, 0 
	MOVWF       FARG_AddTask+1 
	MOVF        R2, 0 
	MOVWF       FARG_AddTask+2 
	MOVF        R3, 0 
	MOVWF       FARG_AddTask+3 
	MOVLW       9
	MOVWF       FARG_AddTask+0 
	CALL        _AddTask+0, 0
	CLRF        _PassFlag+0 
	MOVF        _temp+0, 0 
	MOVWF       FARG_LongWordToStrWithZeros_input+0 
	MOVF        _temp+1, 0 
	MOVWF       FARG_LongWordToStrWithZeros_input+1 
	MOVF        _temp+2, 0 
	MOVWF       FARG_LongWordToStrWithZeros_input+2 
	MOVF        _temp+3, 0 
	MOVWF       FARG_LongWordToStrWithZeros_input+3 
	MOVLW       _t+0
	MOVWF       FARG_LongWordToStrWithZeros_output+0 
	MOVLW       hi_addr(_t+0)
	MOVWF       FARG_LongWordToStrWithZeros_output+1 
	CALL        _LongWordToStrWithZeros+0, 0
	MOVLW       ?lstr7_FirmV_0_7_0+0
	MOVWF       FARG_Logger_text+0 
	MOVLW       hi_addr(?lstr7_FirmV_0_7_0+0)
	MOVWF       FARG_Logger_text+1 
	MOVLW       1
	MOVWF       FARG_Logger_TimeStampFlag+0 
	CALL        _Logger+0, 0
	MOVLW       _t+0
	MOVWF       FARG_Logger_text+0 
	MOVLW       hi_addr(_t+0)
	MOVWF       FARG_Logger_text+1 
	MOVLW       1
	MOVWF       FARG_Logger_TimeStampFlag+0 
	CALL        _Logger+0, 0
L_State2131:
L_State2129:
;FirmV_0_7_0.c,786 :: 		}
L_end_State2:
	RETURN      0
; end of _State2

_State3:

;FirmV_0_7_0.c,801 :: 		void State3()
;FirmV_0_7_0.c,803 :: 		Flasher=1;
	BSF         PORTD+0, 7 
;FirmV_0_7_0.c,804 :: 		FlashFlag=1;
	MOVLW       1
	MOVWF       _FlashFlag+0 
;FirmV_0_7_0.c,806 :: 		if(CheckTask(1))
	MOVLW       1
	MOVWF       FARG_CheckTask+0 
	CALL        _CheckTask+0, 0
	MOVF        R0, 1 
	BTFSC       STATUS+0, 2 
	GOTO        L_State3132
;FirmV_0_7_0.c,807 :: 		{StartMotor(1,_Open);Logger("S3 Motor1Start",1); Lock=0;memcpy(LCDLine1,_opening,16);memcpy(LCDLine2,_Blank,16);LCDUpdateFlag=1;LCDLines=1;}
	MOVLW       1
	MOVWF       FARG_StartMotor+0 
	MOVLW       1
	MOVWF       FARG_StartMotor+0 
	CALL        _StartMotor+0, 0
	MOVLW       ?lstr8_FirmV_0_7_0+0
	MOVWF       FARG_Logger_text+0 
	MOVLW       hi_addr(?lstr8_FirmV_0_7_0+0)
	MOVWF       FARG_Logger_text+1 
	MOVLW       1
	MOVWF       FARG_Logger_TimeStampFlag+0 
	CALL        _Logger+0, 0
	BCF         PORTD+0, 6 
	MOVLW       _LCDLine1+0
	MOVWF       FARG_memcpy_d1+0 
	MOVLW       hi_addr(_LCDLine1+0)
	MOVWF       FARG_memcpy_d1+1 
	MOVLW       __opening+0
	MOVWF       FARG_memcpy_s1+0 
	MOVLW       hi_addr(__opening+0)
	MOVWF       FARG_memcpy_s1+1 
	MOVLW       16
	MOVWF       FARG_memcpy_n+0 
	MOVLW       0
	MOVWF       FARG_memcpy_n+1 
	CALL        _memcpy+0, 0
	MOVLW       _LCDLine2+0
	MOVWF       FARG_memcpy_d1+0 
	MOVLW       hi_addr(_LCDLine2+0)
	MOVWF       FARG_memcpy_d1+1 
	MOVLW       __Blank+0
	MOVWF       FARG_memcpy_s1+0 
	MOVLW       hi_addr(__Blank+0)
	MOVWF       FARG_memcpy_s1+1 
	MOVLW       16
	MOVWF       FARG_memcpy_n+0 
	MOVLW       0
	MOVWF       FARG_memcpy_n+1 
	CALL        _memcpy+0, 0
	MOVLW       1
	MOVWF       _LCDUpdateFlag+0 
	MOVLW       1
	MOVWF       _LCDLines+0 
L_State3132:
;FirmV_0_7_0.c,809 :: 		if(CheckTask(2))
	MOVLW       2
	MOVWF       FARG_CheckTask+0 
	CALL        _CheckTask+0, 0
	MOVF        R0, 1 
	BTFSC       STATUS+0, 2 
	GOTO        L_State3133
;FirmV_0_7_0.c,810 :: 		{StartMotor(2,_Open);Logger("S3 Motor2Start",1); Lock=0;}
	MOVLW       2
	MOVWF       FARG_StartMotor+0 
	MOVLW       1
	MOVWF       FARG_StartMotor+0 
	CALL        _StartMotor+0, 0
	MOVLW       ?lstr9_FirmV_0_7_0+0
	MOVWF       FARG_Logger_text+0 
	MOVLW       hi_addr(?lstr9_FirmV_0_7_0+0)
	MOVWF       FARG_Logger_text+1 
	MOVLW       1
	MOVWF       FARG_Logger_TimeStampFlag+0 
	CALL        _Logger+0, 0
	BCF         PORTD+0, 6 
L_State3133:
;FirmV_0_7_0.c,812 :: 		if(CheckTask(5))
	MOVLW       5
	MOVWF       FARG_CheckTask+0 
	CALL        _CheckTask+0, 0
	MOVF        R0, 1 
	BTFSC       STATUS+0, 2 
	GOTO        L_State3134
;FirmV_0_7_0.c,813 :: 		{SetMotorSpeed(1,Motor2FullSpeed);OverloadCheckFlag1=0; M1isSlow=0;Logger("S3 Motor1 Fast",1);}
	MOVLW       1
	MOVWF       FARG_SetMotorSpeed+0 
	MOVF        _Motor2FullSpeed+0, 0 
	MOVWF       FARG_SetMotorSpeed+0 
	CALL        _SetMotorSpeed+0, 0
	CLRF        _OverloadCheckFlag1+0 
	CLRF        _M1isSlow+0 
	MOVLW       ?lstr10_FirmV_0_7_0+0
	MOVWF       FARG_Logger_text+0 
	MOVLW       hi_addr(?lstr10_FirmV_0_7_0+0)
	MOVWF       FARG_Logger_text+1 
	MOVLW       1
	MOVWF       FARG_Logger_TimeStampFlag+0 
	CALL        _Logger+0, 0
L_State3134:
;FirmV_0_7_0.c,815 :: 		if(CheckTask(7))
	MOVLW       7
	MOVWF       FARG_CheckTask+0 
	CALL        _CheckTask+0, 0
	MOVF        R0, 1 
	BTFSC       STATUS+0, 2 
	GOTO        L_State3135
;FirmV_0_7_0.c,816 :: 		{SetMotorSpeed(0,Motor2FullSpeed); M1isSlow=1;Logger("S3 Motor1 Slow",1);}
	CLRF        FARG_SetMotorSpeed+0 
	MOVF        _Motor2FullSpeed+0, 0 
	MOVWF       FARG_SetMotorSpeed+0 
	CALL        _SetMotorSpeed+0, 0
	MOVLW       1
	MOVWF       _M1isSlow+0 
	MOVLW       ?lstr11_FirmV_0_7_0+0
	MOVWF       FARG_Logger_text+0 
	MOVLW       hi_addr(?lstr11_FirmV_0_7_0+0)
	MOVWF       FARG_Logger_text+1 
	MOVLW       1
	MOVWF       FARG_Logger_TimeStampFlag+0 
	CALL        _Logger+0, 0
L_State3135:
;FirmV_0_7_0.c,818 :: 		if(CheckTask(6))
	MOVLW       6
	MOVWF       FARG_CheckTask+0 
	CALL        _CheckTask+0, 0
	MOVF        R0, 1 
	BTFSC       STATUS+0, 2 
	GOTO        L_State3136
;FirmV_0_7_0.c,819 :: 		{SetMotorSpeed(Motor1FullSpeed,1);OverloadCheckFlag2=0; M2isSlow=0;Logger("S3 Motor2 Fast",1);}
	MOVF        _Motor1FullSpeed+0, 0 
	MOVWF       FARG_SetMotorSpeed+0 
	MOVLW       1
	MOVWF       FARG_SetMotorSpeed+0 
	CALL        _SetMotorSpeed+0, 0
	CLRF        _OverloadCheckFlag2+0 
	CLRF        _M2isSlow+0 
	MOVLW       ?lstr12_FirmV_0_7_0+0
	MOVWF       FARG_Logger_text+0 
	MOVLW       hi_addr(?lstr12_FirmV_0_7_0+0)
	MOVWF       FARG_Logger_text+1 
	MOVLW       1
	MOVWF       FARG_Logger_TimeStampFlag+0 
	CALL        _Logger+0, 0
L_State3136:
;FirmV_0_7_0.c,821 :: 		if(CheckTask(8))
	MOVLW       8
	MOVWF       FARG_CheckTask+0 
	CALL        _CheckTask+0, 0
	MOVF        R0, 1 
	BTFSC       STATUS+0, 2 
	GOTO        L_State3137
;FirmV_0_7_0.c,822 :: 		{SetMotorSpeed(Motor1FullSpeed,0); M2isSlow=1;Logger("S3 Motor2 Slow",1);}
	MOVF        _Motor1FullSpeed+0, 0 
	MOVWF       FARG_SetMotorSpeed+0 
	CLRF        FARG_SetMotorSpeed+0 
	CALL        _SetMotorSpeed+0, 0
	MOVLW       1
	MOVWF       _M2isSlow+0 
	MOVLW       ?lstr13_FirmV_0_7_0+0
	MOVWF       FARG_Logger_text+0 
	MOVLW       hi_addr(?lstr13_FirmV_0_7_0+0)
	MOVWF       FARG_Logger_text+1 
	MOVLW       1
	MOVWF       FARG_Logger_TimeStampFlag+0 
	CALL        _Logger+0, 0
L_State3137:
;FirmV_0_7_0.c,824 :: 		if(CheckTask(10))
	MOVLW       10
	MOVWF       FARG_CheckTask+0 
	CALL        _CheckTask+0, 0
	MOVF        R0, 1 
	BTFSC       STATUS+0, 2 
	GOTO        L_State3138
;FirmV_0_7_0.c,825 :: 		{OverloadCheckFlag1=1; OverloadInit(1);Logger("S3 Overflow Flag1 Set",1);}
	MOVLW       1
	MOVWF       _OverloadCheckFlag1+0 
	MOVLW       1
	MOVWF       FARG_OverloadInit+0 
	CALL        _OverloadInit+0, 0
	MOVLW       ?lstr14_FirmV_0_7_0+0
	MOVWF       FARG_Logger_text+0 
	MOVLW       hi_addr(?lstr14_FirmV_0_7_0+0)
	MOVWF       FARG_Logger_text+1 
	MOVLW       1
	MOVWF       FARG_Logger_TimeStampFlag+0 
	CALL        _Logger+0, 0
L_State3138:
;FirmV_0_7_0.c,827 :: 		if(CheckTask(11))
	MOVLW       11
	MOVWF       FARG_CheckTask+0 
	CALL        _CheckTask+0, 0
	MOVF        R0, 1 
	BTFSC       STATUS+0, 2 
	GOTO        L_State3139
;FirmV_0_7_0.c,828 :: 		{OverloadCheckFlag2=1; OverloadInit(2);Logger("S3 Overflow Flag2 Set",1);}
	MOVLW       1
	MOVWF       _OverloadCheckFlag2+0 
	MOVLW       2
	MOVWF       FARG_OverloadInit+0 
	CALL        _OverloadInit+0, 0
	MOVLW       ?lstr15_FirmV_0_7_0+0
	MOVWF       FARG_Logger_text+0 
	MOVLW       hi_addr(?lstr15_FirmV_0_7_0+0)
	MOVWF       FARG_Logger_text+1 
	MOVLW       1
	MOVWF       FARG_Logger_TimeStampFlag+0 
	CALL        _Logger+0, 0
L_State3139:
;FirmV_0_7_0.c,830 :: 		if(CheckTask(3))
	MOVLW       3
	MOVWF       FARG_CheckTask+0 
	CALL        _CheckTask+0, 0
	MOVF        R0, 1 
	BTFSC       STATUS+0, 2 
	GOTO        L_State3140
;FirmV_0_7_0.c,831 :: 		{OpenDone.b0=0; StopMotor(1);Logger("S3 Motor1 Stop",1);}
	BCF         _OpenDone+0, 0 
	MOVLW       1
	MOVWF       FARG_StopMotor+0 
	CALL        _StopMotor+0, 0
	MOVLW       ?lstr16_FirmV_0_7_0+0
	MOVWF       FARG_Logger_text+0 
	MOVLW       hi_addr(?lstr16_FirmV_0_7_0+0)
	MOVWF       FARG_Logger_text+1 
	MOVLW       1
	MOVWF       FARG_Logger_TimeStampFlag+0 
	CALL        _Logger+0, 0
L_State3140:
;FirmV_0_7_0.c,833 :: 		if(CheckTask(4))
	MOVLW       4
	MOVWF       FARG_CheckTask+0 
	CALL        _CheckTask+0, 0
	MOVF        R0, 1 
	BTFSC       STATUS+0, 2 
	GOTO        L_State3141
;FirmV_0_7_0.c,834 :: 		{OpenDone.b1=0; StopMotor(2);Logger("S3 Motor2 Stop",1);}
	BCF         _OpenDone+0, 1 
	MOVLW       2
	MOVWF       FARG_StopMotor+0 
	CALL        _StopMotor+0, 0
	MOVLW       ?lstr17_FirmV_0_7_0+0
	MOVWF       FARG_Logger_text+0 
	MOVLW       hi_addr(?lstr17_FirmV_0_7_0+0)
	MOVWF       FARG_Logger_text+1 
	MOVLW       1
	MOVWF       FARG_Logger_TimeStampFlag+0 
	CALL        _Logger+0, 0
L_State3141:
;FirmV_0_7_0.c,836 :: 		if(CheckTask(12))
	MOVLW       12
	MOVWF       FARG_CheckTask+0 
	CALL        _CheckTask+0, 0
	MOVF        R0, 1 
	BTFSC       STATUS+0, 2 
	GOTO        L_State3142
;FirmV_0_7_0.c,837 :: 		{Lock=1;}
	BSF         PORTD+0, 6 
L_State3142:
;FirmV_0_7_0.c,839 :: 		if((OverloadCheckFlag1==1)&&(Events.Overload.b0==1)&&(M1isSlow==0))
	MOVF        _OverloadCheckFlag1+0, 0 
	XORLW       1
	BTFSS       STATUS+0, 2 
	GOTO        L_State3145
	BTFSS       _Events+5, 0 
	GOTO        L_State3145
	MOVF        _M1isSlow+0, 0 
	XORLW       0
	BTFSS       STATUS+0, 2 
	GOTO        L_State3145
L__State3907:
;FirmV_0_7_0.c,840 :: 		{StopMotor(1); StopMotor(2); State=5;OverloadCheckFlag1=0;OverloadCheckFlag2=0;Logger("S3 Motor1 Collision",1);ClearTasks(9);
	MOVLW       1
	MOVWF       FARG_StopMotor+0 
	CALL        _StopMotor+0, 0
	MOVLW       2
	MOVWF       FARG_StopMotor+0 
	CALL        _StopMotor+0, 0
	MOVLW       5
	MOVWF       _State+0 
	CLRF        _OverloadCheckFlag1+0 
	CLRF        _OverloadCheckFlag2+0 
	MOVLW       ?lstr18_FirmV_0_7_0+0
	MOVWF       FARG_Logger_text+0 
	MOVLW       hi_addr(?lstr18_FirmV_0_7_0+0)
	MOVWF       FARG_Logger_text+1 
	MOVLW       1
	MOVWF       FARG_Logger_TimeStampFlag+0 
	CALL        _Logger+0, 0
	MOVLW       9
	MOVWF       FARG_ClearTasks+0 
	CALL        _ClearTasks+0, 0
;FirmV_0_7_0.c,841 :: 		memcpy(LCDLine1,_ErrOverload,16);LCDUpdateFlag=1;LCDLines=1;}
	MOVLW       _LCDLine1+0
	MOVWF       FARG_memcpy_d1+0 
	MOVLW       hi_addr(_LCDLine1+0)
	MOVWF       FARG_memcpy_d1+1 
	MOVLW       __errOverload+0
	MOVWF       FARG_memcpy_s1+0 
	MOVLW       hi_addr(__errOverload+0)
	MOVWF       FARG_memcpy_s1+1 
	MOVLW       16
	MOVWF       FARG_memcpy_n+0 
	MOVLW       0
	MOVWF       FARG_memcpy_n+1 
	CALL        _memcpy+0, 0
	MOVLW       1
	MOVWF       _LCDUpdateFlag+0 
	MOVLW       1
	MOVWF       _LCDLines+0 
L_State3145:
;FirmV_0_7_0.c,843 :: 		if((OverloadCheckFlag2==1)&&(Events.Overload.b1==1)&&(M2isSlow==0))
	MOVF        _OverloadCheckFlag2+0, 0 
	XORLW       1
	BTFSS       STATUS+0, 2 
	GOTO        L_State3148
	BTFSS       _Events+5, 1 
	GOTO        L_State3148
	MOVF        _M2isSlow+0, 0 
	XORLW       0
	BTFSS       STATUS+0, 2 
	GOTO        L_State3148
L__State3906:
;FirmV_0_7_0.c,844 :: 		{StopMotor(1); StopMotor(2); State=5;OverloadCheckFlag1=0;OverloadCheckFlag2=0;Logger("S3 Motor2 Collision",1);ClearTasks(9);
	MOVLW       1
	MOVWF       FARG_StopMotor+0 
	CALL        _StopMotor+0, 0
	MOVLW       2
	MOVWF       FARG_StopMotor+0 
	CALL        _StopMotor+0, 0
	MOVLW       5
	MOVWF       _State+0 
	CLRF        _OverloadCheckFlag1+0 
	CLRF        _OverloadCheckFlag2+0 
	MOVLW       ?lstr19_FirmV_0_7_0+0
	MOVWF       FARG_Logger_text+0 
	MOVLW       hi_addr(?lstr19_FirmV_0_7_0+0)
	MOVWF       FARG_Logger_text+1 
	MOVLW       1
	MOVWF       FARG_Logger_TimeStampFlag+0 
	CALL        _Logger+0, 0
	MOVLW       9
	MOVWF       FARG_ClearTasks+0 
	CALL        _ClearTasks+0, 0
;FirmV_0_7_0.c,845 :: 		memcpy(LCDLine1,_ErrOverload,16);LCDUpdateFlag=1;LCDLines=1;}
	MOVLW       _LCDLine1+0
	MOVWF       FARG_memcpy_d1+0 
	MOVLW       hi_addr(_LCDLine1+0)
	MOVWF       FARG_memcpy_d1+1 
	MOVLW       __errOverload+0
	MOVWF       FARG_memcpy_s1+0 
	MOVLW       hi_addr(__errOverload+0)
	MOVWF       FARG_memcpy_s1+1 
	MOVLW       16
	MOVWF       FARG_memcpy_n+0 
	MOVLW       0
	MOVWF       FARG_memcpy_n+1 
	CALL        _memcpy+0, 0
	MOVLW       1
	MOVWF       _LCDUpdateFlag+0 
	MOVLW       1
	MOVWF       _LCDLines+0 
L_State3148:
;FirmV_0_7_0.c,847 :: 		if((Door2OpenTime==0)||(ActiveDoors==1))
	MOVF        _Door2OpenTime+0, 0 
	XORLW       0
	BTFSC       STATUS+0, 2 
	GOTO        L__State3905
	MOVF        _ActiveDoors+0, 0 
	XORLW       1
	BTFSC       STATUS+0, 2 
	GOTO        L__State3905
	GOTO        L_State3151
L__State3905:
;FirmV_0_7_0.c,848 :: 		OpenDone.b1=0;
	BCF         _OpenDone+0, 1 
L_State3151:
;FirmV_0_7_0.c,850 :: 		if(KeyNoiseEliminator>=NoiseEliminatorTreshold)
	MOVLW       3
	SUBWF       _KeyNoiseEliminator+0, 0 
	BTFSS       STATUS+0, 0 
	GOTO        L_State3152
;FirmV_0_7_0.c,853 :: 		if((Events.Photocell.b0==1)&&(OpenPhEnable))
	BTFSS       _Events+6, 0 
	GOTO        L_State3155
	MOVF        _OpenPhEnable+0, 1 
	BTFSC       STATUS+0, 2 
	GOTO        L_State3155
L__State3904:
;FirmV_0_7_0.c,854 :: 		{StopMotor(1); StopMotor(2);OverloadCheckFlag1=0;OverloadCheckFlag2=0; State=5;Logger("S3 Photocell Int",1);ClearTasks(9);
	MOVLW       1
	MOVWF       FARG_StopMotor+0 
	CALL        _StopMotor+0, 0
	MOVLW       2
	MOVWF       FARG_StopMotor+0 
	CALL        _StopMotor+0, 0
	CLRF        _OverloadCheckFlag1+0 
	CLRF        _OverloadCheckFlag2+0 
	MOVLW       5
	MOVWF       _State+0 
	MOVLW       ?lstr20_FirmV_0_7_0+0
	MOVWF       FARG_Logger_text+0 
	MOVLW       hi_addr(?lstr20_FirmV_0_7_0+0)
	MOVWF       FARG_Logger_text+1 
	MOVLW       1
	MOVWF       FARG_Logger_TimeStampFlag+0 
	CALL        _Logger+0, 0
	MOVLW       9
	MOVWF       FARG_ClearTasks+0 
	CALL        _ClearTasks+0, 0
;FirmV_0_7_0.c,855 :: 		memcpy(LCDLine1,_ErrPhoto,16);LCDUpdateFlag=1;LCDLines=1;}
	MOVLW       _LCDLine1+0
	MOVWF       FARG_memcpy_d1+0 
	MOVLW       hi_addr(_LCDLine1+0)
	MOVWF       FARG_memcpy_d1+1 
	MOVLW       __errPhoto+0
	MOVWF       FARG_memcpy_s1+0 
	MOVLW       hi_addr(__errPhoto+0)
	MOVWF       FARG_memcpy_s1+1 
	MOVLW       16
	MOVWF       FARG_memcpy_n+0 
	MOVLW       0
	MOVWF       FARG_memcpy_n+1 
	CALL        _memcpy+0, 0
	MOVLW       1
	MOVWF       _LCDUpdateFlag+0 
	MOVLW       1
	MOVWF       _LCDLines+0 
L_State3155:
;FirmV_0_7_0.c,857 :: 		if(Events.Remote!=0)
	MOVF        _Events+4, 0 
	XORLW       0
	BTFSC       STATUS+0, 2 
	GOTO        L_State3156
;FirmV_0_7_0.c,858 :: 		{StopMotor(1); StopMotor(2);OverloadCheckFlag1=0;OverloadCheckFlag2=0; State=5;Logger("S3 Remote Stoped",1);ClearTasks(9);
	MOVLW       1
	MOVWF       FARG_StopMotor+0 
	CALL        _StopMotor+0, 0
	MOVLW       2
	MOVWF       FARG_StopMotor+0 
	CALL        _StopMotor+0, 0
	CLRF        _OverloadCheckFlag1+0 
	CLRF        _OverloadCheckFlag2+0 
	MOVLW       5
	MOVWF       _State+0 
	MOVLW       ?lstr21_FirmV_0_7_0+0
	MOVWF       FARG_Logger_text+0 
	MOVLW       hi_addr(?lstr21_FirmV_0_7_0+0)
	MOVWF       FARG_Logger_text+1 
	MOVLW       1
	MOVWF       FARG_Logger_TimeStampFlag+0 
	CALL        _Logger+0, 0
	MOVLW       9
	MOVWF       FARG_ClearTasks+0 
	CALL        _ClearTasks+0, 0
;FirmV_0_7_0.c,859 :: 		memcpy(LCDLine1,_ErrRemote,16);LCDUpdateFlag=1;LCDLines=1;}
	MOVLW       _LCDLine1+0
	MOVWF       FARG_memcpy_d1+0 
	MOVLW       hi_addr(_LCDLine1+0)
	MOVWF       FARG_memcpy_d1+1 
	MOVLW       __errRemote+0
	MOVWF       FARG_memcpy_s1+0 
	MOVLW       hi_addr(__errRemote+0)
	MOVWF       FARG_memcpy_s1+1 
	MOVLW       16
	MOVWF       FARG_memcpy_n+0 
	MOVLW       0
	MOVWF       FARG_memcpy_n+1 
	CALL        _memcpy+0, 0
	MOVLW       1
	MOVWF       _LCDUpdateFlag+0 
	MOVLW       1
	MOVWF       _LCDLines+0 
L_State3156:
;FirmV_0_7_0.c,861 :: 		if((Events.Limiter==1)&&(LimiterEnable))
	MOVF        _Events+7, 0 
	XORLW       1
	BTFSS       STATUS+0, 2 
	GOTO        L_State3159
	MOVF        _LimiterEnable+0, 1 
	BTFSC       STATUS+0, 2 
	GOTO        L_State3159
L__State3903:
;FirmV_0_7_0.c,862 :: 		{StopMotor(1); StopMotor(2);OverloadCheckFlag1=0;OverloadCheckFlag2=0; State=5;Logger("S3 Limit Switch Stoped",1);ClearTasks(9);
	MOVLW       1
	MOVWF       FARG_StopMotor+0 
	CALL        _StopMotor+0, 0
	MOVLW       2
	MOVWF       FARG_StopMotor+0 
	CALL        _StopMotor+0, 0
	CLRF        _OverloadCheckFlag1+0 
	CLRF        _OverloadCheckFlag2+0 
	MOVLW       5
	MOVWF       _State+0 
	MOVLW       ?lstr22_FirmV_0_7_0+0
	MOVWF       FARG_Logger_text+0 
	MOVLW       hi_addr(?lstr22_FirmV_0_7_0+0)
	MOVWF       FARG_Logger_text+1 
	MOVLW       1
	MOVWF       FARG_Logger_TimeStampFlag+0 
	CALL        _Logger+0, 0
	MOVLW       9
	MOVWF       FARG_ClearTasks+0 
	CALL        _ClearTasks+0, 0
;FirmV_0_7_0.c,863 :: 		memcpy(LCDLine1,_ErrLimit,16);LCDUpdateFlag=1;LCDLines=1;}
	MOVLW       _LCDLine1+0
	MOVWF       FARG_memcpy_d1+0 
	MOVLW       hi_addr(_LCDLine1+0)
	MOVWF       FARG_memcpy_d1+1 
	MOVLW       __errLimit+0
	MOVWF       FARG_memcpy_s1+0 
	MOVLW       hi_addr(__errLimit+0)
	MOVWF       FARG_memcpy_s1+1 
	MOVLW       16
	MOVWF       FARG_memcpy_n+0 
	MOVLW       0
	MOVWF       FARG_memcpy_n+1 
	CALL        _memcpy+0, 0
	MOVLW       1
	MOVWF       _LCDUpdateFlag+0 
	MOVLW       1
	MOVWF       _LCDLines+0 
L_State3159:
;FirmV_0_7_0.c,864 :: 		}
L_State3152:
;FirmV_0_7_0.c,866 :: 		if(OpenDone==0)
	MOVF        _OpenDone+0, 0 
	XORLW       0
	BTFSS       STATUS+0, 2 
	GOTO        L_State3160
;FirmV_0_7_0.c,867 :: 		if(ReverseOnOpen)
	MOVF        _ReverseOnOpen+0, 1 
	BTFSC       STATUS+0, 2 
	GOTO        L_State3161
;FirmV_0_7_0.c,868 :: 		{StartMotor(1,_Close);StartMotor(2,_Close);SetMotorSpeed(1,Motor2FullSpeed);OverloadCheckFlag1=0; M1isSlow=0;SetMotorSpeed(Motor1FullSpeed,1);OverloadCheckFlag2=0; M2isSlow=0;
	MOVLW       1
	MOVWF       FARG_StartMotor+0 
	CLRF        FARG_StartMotor+0 
	CALL        _StartMotor+0, 0
	MOVLW       2
	MOVWF       FARG_StartMotor+0 
	CLRF        FARG_StartMotor+0 
	CALL        _StartMotor+0, 0
	MOVLW       1
	MOVWF       FARG_SetMotorSpeed+0 
	MOVF        _Motor2FullSpeed+0, 0 
	MOVWF       FARG_SetMotorSpeed+0 
	CALL        _SetMotorSpeed+0, 0
	CLRF        _OverloadCheckFlag1+0 
	CLRF        _M1isSlow+0 
	MOVF        _Motor1FullSpeed+0, 0 
	MOVWF       FARG_SetMotorSpeed+0 
	MOVLW       1
	MOVWF       FARG_SetMotorSpeed+0 
	CALL        _SetMotorSpeed+0, 0
	CLRF        _OverloadCheckFlag2+0 
	CLRF        _M2isSlow+0 
;FirmV_0_7_0.c,869 :: 		AddTask(ms500+RelaseTime,3);AddTask(ms500+RelaseTime,4);AddTask(ms500+1+RelaseTime,13);OpenDone.b2=1;}
	MOVLW       1
	ADDWF       _ms500+0, 0 
	MOVWF       FARG_AddTask+0 
	MOVLW       0
	ADDWFC      _ms500+1, 0 
	MOVWF       FARG_AddTask+1 
	MOVLW       0
	ADDWFC      _ms500+2, 0 
	MOVWF       FARG_AddTask+2 
	MOVLW       0
	ADDWFC      _ms500+3, 0 
	MOVWF       FARG_AddTask+3 
	MOVLW       3
	MOVWF       FARG_AddTask+0 
	CALL        _AddTask+0, 0
	MOVLW       1
	ADDWF       _ms500+0, 0 
	MOVWF       FARG_AddTask+0 
	MOVLW       0
	ADDWFC      _ms500+1, 0 
	MOVWF       FARG_AddTask+1 
	MOVLW       0
	ADDWFC      _ms500+2, 0 
	MOVWF       FARG_AddTask+2 
	MOVLW       0
	ADDWFC      _ms500+3, 0 
	MOVWF       FARG_AddTask+3 
	MOVLW       4
	MOVWF       FARG_AddTask+0 
	CALL        _AddTask+0, 0
	MOVLW       1
	ADDWF       _ms500+0, 0 
	MOVWF       FARG_AddTask+0 
	MOVLW       0
	ADDWFC      _ms500+1, 0 
	MOVWF       FARG_AddTask+1 
	MOVLW       0
	ADDWFC      _ms500+2, 0 
	MOVWF       FARG_AddTask+2 
	MOVLW       0
	ADDWFC      _ms500+3, 0 
	MOVWF       FARG_AddTask+3 
	MOVLW       1
	ADDWF       FARG_AddTask+0, 1 
	MOVLW       0
	ADDWFC      FARG_AddTask+1, 1 
	ADDWFC      FARG_AddTask+2, 1 
	ADDWFC      FARG_AddTask+3, 1 
	MOVLW       13
	MOVWF       FARG_AddTask+0 
	CALL        _AddTask+0, 0
	BSF         _OpenDone+0, 2 
	GOTO        L_State3162
L_State3161:
;FirmV_0_7_0.c,871 :: 		{AddTask(ms500+1,13);OpenDone.b2=1;}
	MOVLW       1
	ADDWF       _ms500+0, 0 
	MOVWF       FARG_AddTask+0 
	MOVLW       0
	ADDWFC      _ms500+1, 0 
	MOVWF       FARG_AddTask+1 
	MOVLW       0
	ADDWFC      _ms500+2, 0 
	MOVWF       FARG_AddTask+2 
	MOVLW       0
	ADDWFC      _ms500+3, 0 
	MOVWF       FARG_AddTask+3 
	MOVLW       13
	MOVWF       FARG_AddTask+0 
	CALL        _AddTask+0, 0
	BSF         _OpenDone+0, 2 
L_State3162:
L_State3160:
;FirmV_0_7_0.c,873 :: 		if(CheckTask(13))
	MOVLW       13
	MOVWF       FARG_CheckTask+0 
	CALL        _CheckTask+0, 0
	MOVF        R0, 1 
	BTFSC       STATUS+0, 2 
	GOTO        L_State3163
;FirmV_0_7_0.c,874 :: 		{State=2; PrevAC=0;PassFlag=0;ClearTasks(9);memcpy(LCDLine1,_open,16);memcpy(LCDLine2,_blank,16);LCDUpdateFlag=1;LCDLines=1;}
	MOVLW       2
	MOVWF       _State+0 
	CLRF        _PrevAC+0 
	CLRF        _PassFlag+0 
	MOVLW       9
	MOVWF       FARG_ClearTasks+0 
	CALL        _ClearTasks+0, 0
	MOVLW       _LCDLine1+0
	MOVWF       FARG_memcpy_d1+0 
	MOVLW       hi_addr(_LCDLine1+0)
	MOVWF       FARG_memcpy_d1+1 
	MOVLW       __open+0
	MOVWF       FARG_memcpy_s1+0 
	MOVLW       hi_addr(__open+0)
	MOVWF       FARG_memcpy_s1+1 
	MOVLW       16
	MOVWF       FARG_memcpy_n+0 
	MOVLW       0
	MOVWF       FARG_memcpy_n+1 
	CALL        _memcpy+0, 0
	MOVLW       _LCDLine2+0
	MOVWF       FARG_memcpy_d1+0 
	MOVLW       hi_addr(_LCDLine2+0)
	MOVWF       FARG_memcpy_d1+1 
	MOVLW       __Blank+0
	MOVWF       FARG_memcpy_s1+0 
	MOVLW       hi_addr(__Blank+0)
	MOVWF       FARG_memcpy_s1+1 
	MOVLW       16
	MOVWF       FARG_memcpy_n+0 
	MOVLW       0
	MOVWF       FARG_memcpy_n+1 
	CALL        _memcpy+0, 0
	MOVLW       1
	MOVWF       _LCDUpdateFlag+0 
	MOVLW       1
	MOVWF       _LCDLines+0 
L_State3163:
;FirmV_0_7_0.c,876 :: 		if((State==5)||(State==6))
	MOVF        _State+0, 0 
	XORLW       5
	BTFSC       STATUS+0, 2 
	GOTO        L__State3902
	MOVF        _State+0, 0 
	XORLW       6
	BTFSC       STATUS+0, 2 
	GOTO        L__State3902
	GOTO        L_State3166
L__State3902:
;FirmV_0_7_0.c,877 :: 		{ClearTasks(0);if(AutoCloseTime!=0){AddTask(ms500+AutoCloseTime,9);AutoClosePauseFlag=0;PrevAC=0;Logger("S3 Autoclose Renewed",1);}}
	CLRF        FARG_ClearTasks+0 
	CALL        _ClearTasks+0, 0
	MOVLW       0
	XORWF       _AutoCloseTime+1, 0 
	BTFSS       STATUS+0, 2 
	GOTO        L__State31034
	MOVLW       0
	XORWF       _AutoCloseTime+0, 0 
L__State31034:
	BTFSC       STATUS+0, 2 
	GOTO        L_State3167
	MOVF        _AutoCloseTime+0, 0 
	ADDWF       _ms500+0, 0 
	MOVWF       FARG_AddTask+0 
	MOVF        _AutoCloseTime+1, 0 
	ADDWFC      _ms500+1, 0 
	MOVWF       FARG_AddTask+1 
	MOVLW       0
	ADDWFC      _ms500+2, 0 
	MOVWF       FARG_AddTask+2 
	MOVLW       0
	ADDWFC      _ms500+3, 0 
	MOVWF       FARG_AddTask+3 
	MOVLW       9
	MOVWF       FARG_AddTask+0 
	CALL        _AddTask+0, 0
	CLRF        _AutoClosePauseFlag+0 
	CLRF        _PrevAC+0 
	MOVLW       ?lstr23_FirmV_0_7_0+0
	MOVWF       FARG_Logger_text+0 
	MOVLW       hi_addr(?lstr23_FirmV_0_7_0+0)
	MOVWF       FARG_Logger_text+1 
	MOVLW       1
	MOVWF       FARG_Logger_TimeStampFlag+0 
	CALL        _Logger+0, 0
L_State3167:
L_State3166:
;FirmV_0_7_0.c,879 :: 		}
L_end_State3:
	RETURN      0
; end of _State3

_State4:

;FirmV_0_7_0.c,893 :: 		void State4()
;FirmV_0_7_0.c,895 :: 		Flasher=1;
	BSF         PORTD+0, 7 
;FirmV_0_7_0.c,896 :: 		FlashFlag=1;
	MOVLW       1
	MOVWF       _FlashFlag+0 
;FirmV_0_7_0.c,899 :: 		if(CheckTask(1))
	MOVLW       1
	MOVWF       FARG_CheckTask+0 
	CALL        _CheckTask+0, 0
	MOVF        R0, 1 
	BTFSC       STATUS+0, 2 
	GOTO        L_State4168
;FirmV_0_7_0.c,900 :: 		{StartMotor(1,_Close);Logger("S4 Motor1Start",1);}
	MOVLW       1
	MOVWF       FARG_StartMotor+0 
	CLRF        FARG_StartMotor+0 
	CALL        _StartMotor+0, 0
	MOVLW       ?lstr24_FirmV_0_7_0+0
	MOVWF       FARG_Logger_text+0 
	MOVLW       hi_addr(?lstr24_FirmV_0_7_0+0)
	MOVWF       FARG_Logger_text+1 
	MOVLW       1
	MOVWF       FARG_Logger_TimeStampFlag+0 
	CALL        _Logger+0, 0
L_State4168:
;FirmV_0_7_0.c,902 :: 		if(CheckTask(2))
	MOVLW       2
	MOVWF       FARG_CheckTask+0 
	CALL        _CheckTask+0, 0
	MOVF        R0, 1 
	BTFSC       STATUS+0, 2 
	GOTO        L_State4169
;FirmV_0_7_0.c,903 :: 		{StartMotor(2,_Close);Logger("S4 Motor2Start",1);memcpy(LCDLine1,_closing,16);memcpy(LCDLine2,_Blank,16);LCDUpdateFlag=1;LCDLines=1;}
	MOVLW       2
	MOVWF       FARG_StartMotor+0 
	CLRF        FARG_StartMotor+0 
	CALL        _StartMotor+0, 0
	MOVLW       ?lstr25_FirmV_0_7_0+0
	MOVWF       FARG_Logger_text+0 
	MOVLW       hi_addr(?lstr25_FirmV_0_7_0+0)
	MOVWF       FARG_Logger_text+1 
	MOVLW       1
	MOVWF       FARG_Logger_TimeStampFlag+0 
	CALL        _Logger+0, 0
	MOVLW       _LCDLine1+0
	MOVWF       FARG_memcpy_d1+0 
	MOVLW       hi_addr(_LCDLine1+0)
	MOVWF       FARG_memcpy_d1+1 
	MOVLW       __closing+0
	MOVWF       FARG_memcpy_s1+0 
	MOVLW       hi_addr(__closing+0)
	MOVWF       FARG_memcpy_s1+1 
	MOVLW       16
	MOVWF       FARG_memcpy_n+0 
	MOVLW       0
	MOVWF       FARG_memcpy_n+1 
	CALL        _memcpy+0, 0
	MOVLW       _LCDLine2+0
	MOVWF       FARG_memcpy_d1+0 
	MOVLW       hi_addr(_LCDLine2+0)
	MOVWF       FARG_memcpy_d1+1 
	MOVLW       __Blank+0
	MOVWF       FARG_memcpy_s1+0 
	MOVLW       hi_addr(__Blank+0)
	MOVWF       FARG_memcpy_s1+1 
	MOVLW       16
	MOVWF       FARG_memcpy_n+0 
	MOVLW       0
	MOVWF       FARG_memcpy_n+1 
	CALL        _memcpy+0, 0
	MOVLW       1
	MOVWF       _LCDUpdateFlag+0 
	MOVLW       1
	MOVWF       _LCDLines+0 
L_State4169:
;FirmV_0_7_0.c,905 :: 		if(CheckTask(10))
	MOVLW       10
	MOVWF       FARG_CheckTask+0 
	CALL        _CheckTask+0, 0
	MOVF        R0, 1 
	BTFSC       STATUS+0, 2 
	GOTO        L_State4170
;FirmV_0_7_0.c,906 :: 		{OverloadCheckFlag1=1; OverloadInit(1);Logger("S4 M1 Overload Check",1);}
	MOVLW       1
	MOVWF       _OverloadCheckFlag1+0 
	MOVLW       1
	MOVWF       FARG_OverloadInit+0 
	CALL        _OverloadInit+0, 0
	MOVLW       ?lstr26_FirmV_0_7_0+0
	MOVWF       FARG_Logger_text+0 
	MOVLW       hi_addr(?lstr26_FirmV_0_7_0+0)
	MOVWF       FARG_Logger_text+1 
	MOVLW       1
	MOVWF       FARG_Logger_TimeStampFlag+0 
	CALL        _Logger+0, 0
L_State4170:
;FirmV_0_7_0.c,908 :: 		if(CheckTask(11))
	MOVLW       11
	MOVWF       FARG_CheckTask+0 
	CALL        _CheckTask+0, 0
	MOVF        R0, 1 
	BTFSC       STATUS+0, 2 
	GOTO        L_State4171
;FirmV_0_7_0.c,909 :: 		{OverloadCheckFlag2=1; OverloadInit(2);Logger("S4 M2 Overload Check",1);}
	MOVLW       1
	MOVWF       _OverloadCheckFlag2+0 
	MOVLW       2
	MOVWF       FARG_OverloadInit+0 
	CALL        _OverloadInit+0, 0
	MOVLW       ?lstr27_FirmV_0_7_0+0
	MOVWF       FARG_Logger_text+0 
	MOVLW       hi_addr(?lstr27_FirmV_0_7_0+0)
	MOVWF       FARG_Logger_text+1 
	MOVLW       1
	MOVWF       FARG_Logger_TimeStampFlag+0 
	CALL        _Logger+0, 0
L_State4171:
;FirmV_0_7_0.c,911 :: 		if(CheckTask(5))
	MOVLW       5
	MOVWF       FARG_CheckTask+0 
	CALL        _CheckTask+0, 0
	MOVF        R0, 1 
	BTFSC       STATUS+0, 2 
	GOTO        L_State4172
;FirmV_0_7_0.c,912 :: 		{SetMotorSpeed(1,Motor2FullSpeed); OverloadCheckFlag1=0; M1isSlow=0;Logger("S4 M1 Speed UP",1);}
	MOVLW       1
	MOVWF       FARG_SetMotorSpeed+0 
	MOVF        _Motor2FullSpeed+0, 0 
	MOVWF       FARG_SetMotorSpeed+0 
	CALL        _SetMotorSpeed+0, 0
	CLRF        _OverloadCheckFlag1+0 
	CLRF        _M1isSlow+0 
	MOVLW       ?lstr28_FirmV_0_7_0+0
	MOVWF       FARG_Logger_text+0 
	MOVLW       hi_addr(?lstr28_FirmV_0_7_0+0)
	MOVWF       FARG_Logger_text+1 
	MOVLW       1
	MOVWF       FARG_Logger_TimeStampFlag+0 
	CALL        _Logger+0, 0
L_State4172:
;FirmV_0_7_0.c,914 :: 		if(CheckTask(7))
	MOVLW       7
	MOVWF       FARG_CheckTask+0 
	CALL        _CheckTask+0, 0
	MOVF        R0, 1 
	BTFSC       STATUS+0, 2 
	GOTO        L_State4173
;FirmV_0_7_0.c,915 :: 		{SetMotorSpeed(0,Motor2FullSpeed); OverloadCheckFlag1=0; M1isSlow=1;Logger("S4 M1 Speed Down",1);}
	CLRF        FARG_SetMotorSpeed+0 
	MOVF        _Motor2FullSpeed+0, 0 
	MOVWF       FARG_SetMotorSpeed+0 
	CALL        _SetMotorSpeed+0, 0
	CLRF        _OverloadCheckFlag1+0 
	MOVLW       1
	MOVWF       _M1isSlow+0 
	MOVLW       ?lstr29_FirmV_0_7_0+0
	MOVWF       FARG_Logger_text+0 
	MOVLW       hi_addr(?lstr29_FirmV_0_7_0+0)
	MOVWF       FARG_Logger_text+1 
	MOVLW       1
	MOVWF       FARG_Logger_TimeStampFlag+0 
	CALL        _Logger+0, 0
L_State4173:
;FirmV_0_7_0.c,917 :: 		if(CheckTask(6))
	MOVLW       6
	MOVWF       FARG_CheckTask+0 
	CALL        _CheckTask+0, 0
	MOVF        R0, 1 
	BTFSC       STATUS+0, 2 
	GOTO        L_State4174
;FirmV_0_7_0.c,918 :: 		{SetMotorSpeed(Motor1FullSpeed,1); M2isSlow=0;Logger("S4 M2 Speed UP",1);}
	MOVF        _Motor1FullSpeed+0, 0 
	MOVWF       FARG_SetMotorSpeed+0 
	MOVLW       1
	MOVWF       FARG_SetMotorSpeed+0 
	CALL        _SetMotorSpeed+0, 0
	CLRF        _M2isSlow+0 
	MOVLW       ?lstr30_FirmV_0_7_0+0
	MOVWF       FARG_Logger_text+0 
	MOVLW       hi_addr(?lstr30_FirmV_0_7_0+0)
	MOVWF       FARG_Logger_text+1 
	MOVLW       1
	MOVWF       FARG_Logger_TimeStampFlag+0 
	CALL        _Logger+0, 0
L_State4174:
;FirmV_0_7_0.c,920 :: 		if(CheckTask(8))
	MOVLW       8
	MOVWF       FARG_CheckTask+0 
	CALL        _CheckTask+0, 0
	MOVF        R0, 1 
	BTFSC       STATUS+0, 2 
	GOTO        L_State4175
;FirmV_0_7_0.c,921 :: 		{SetMotorSpeed(Motor1FullSpeed,0); M2isSlow=1;Logger("S4 M2 Speed Down",1);}
	MOVF        _Motor1FullSpeed+0, 0 
	MOVWF       FARG_SetMotorSpeed+0 
	CLRF        FARG_SetMotorSpeed+0 
	CALL        _SetMotorSpeed+0, 0
	MOVLW       1
	MOVWF       _M2isSlow+0 
	MOVLW       ?lstr31_FirmV_0_7_0+0
	MOVWF       FARG_Logger_text+0 
	MOVLW       hi_addr(?lstr31_FirmV_0_7_0+0)
	MOVWF       FARG_Logger_text+1 
	MOVLW       1
	MOVWF       FARG_Logger_TimeStampFlag+0 
	CALL        _Logger+0, 0
L_State4175:
;FirmV_0_7_0.c,923 :: 		if(CheckTask(3))
	MOVLW       3
	MOVWF       FARG_CheckTask+0 
	CALL        _CheckTask+0, 0
	MOVF        R0, 1 
	BTFSC       STATUS+0, 2 
	GOTO        L_State4176
;FirmV_0_7_0.c,924 :: 		{CloseDone.b0=0; StopMotor(1);Logger("S4 M1 Stoped",1);}
	BCF         _CloseDone+0, 0 
	MOVLW       1
	MOVWF       FARG_StopMotor+0 
	CALL        _StopMotor+0, 0
	MOVLW       ?lstr32_FirmV_0_7_0+0
	MOVWF       FARG_Logger_text+0 
	MOVLW       hi_addr(?lstr32_FirmV_0_7_0+0)
	MOVWF       FARG_Logger_text+1 
	MOVLW       1
	MOVWF       FARG_Logger_TimeStampFlag+0 
	CALL        _Logger+0, 0
L_State4176:
;FirmV_0_7_0.c,926 :: 		if(CheckTask(4))
	MOVLW       4
	MOVWF       FARG_CheckTask+0 
	CALL        _CheckTask+0, 0
	MOVF        R0, 1 
	BTFSC       STATUS+0, 2 
	GOTO        L_State4177
;FirmV_0_7_0.c,927 :: 		{CloseDone.b1=0; StopMotor(2);Logger("S4 M2 Stoped",1);}
	BCF         _CloseDone+0, 1 
	MOVLW       2
	MOVWF       FARG_StopMotor+0 
	CALL        _StopMotor+0, 0
	MOVLW       ?lstr33_FirmV_0_7_0+0
	MOVWF       FARG_Logger_text+0 
	MOVLW       hi_addr(?lstr33_FirmV_0_7_0+0)
	MOVWF       FARG_Logger_text+1 
	MOVLW       1
	MOVWF       FARG_Logger_TimeStampFlag+0 
	CALL        _Logger+0, 0
L_State4177:
;FirmV_0_7_0.c,929 :: 		if((OverloadCheckFlag1==1)&&(Events.Overload.b0==1)&&(M1isSlow==0))
	MOVF        _OverloadCheckFlag1+0, 0 
	XORLW       1
	BTFSS       STATUS+0, 2 
	GOTO        L_State4180
	BTFSS       _Events+5, 0 
	GOTO        L_State4180
	MOVF        _M1isSlow+0, 0 
	XORLW       0
	BTFSS       STATUS+0, 2 
	GOTO        L_State4180
L__State4912:
;FirmV_0_7_0.c,930 :: 		{StopMotor(1); StopMotor(2); State=6;OverloadCheckFlag1=0;OverloadCheckFlag2=0;Logger("S4 M1 Overloaded",1);ClearTasks(9);
	MOVLW       1
	MOVWF       FARG_StopMotor+0 
	CALL        _StopMotor+0, 0
	MOVLW       2
	MOVWF       FARG_StopMotor+0 
	CALL        _StopMotor+0, 0
	MOVLW       6
	MOVWF       _State+0 
	CLRF        _OverloadCheckFlag1+0 
	CLRF        _OverloadCheckFlag2+0 
	MOVLW       ?lstr34_FirmV_0_7_0+0
	MOVWF       FARG_Logger_text+0 
	MOVLW       hi_addr(?lstr34_FirmV_0_7_0+0)
	MOVWF       FARG_Logger_text+1 
	MOVLW       1
	MOVWF       FARG_Logger_TimeStampFlag+0 
	CALL        _Logger+0, 0
	MOVLW       9
	MOVWF       FARG_ClearTasks+0 
	CALL        _ClearTasks+0, 0
;FirmV_0_7_0.c,931 :: 		memcpy(LCDLine1,_ErrOverload,16);LCDUpdateFlag=1;LCDLines=1;}
	MOVLW       _LCDLine1+0
	MOVWF       FARG_memcpy_d1+0 
	MOVLW       hi_addr(_LCDLine1+0)
	MOVWF       FARG_memcpy_d1+1 
	MOVLW       __errOverload+0
	MOVWF       FARG_memcpy_s1+0 
	MOVLW       hi_addr(__errOverload+0)
	MOVWF       FARG_memcpy_s1+1 
	MOVLW       16
	MOVWF       FARG_memcpy_n+0 
	MOVLW       0
	MOVWF       FARG_memcpy_n+1 
	CALL        _memcpy+0, 0
	MOVLW       1
	MOVWF       _LCDUpdateFlag+0 
	MOVLW       1
	MOVWF       _LCDLines+0 
L_State4180:
;FirmV_0_7_0.c,933 :: 		if((OverloadCheckFlag2==1)&&(Events.Overload.b1==1)&&(M2isSlow==0))
	MOVF        _OverloadCheckFlag2+0, 0 
	XORLW       1
	BTFSS       STATUS+0, 2 
	GOTO        L_State4183
	BTFSS       _Events+5, 1 
	GOTO        L_State4183
	MOVF        _M2isSlow+0, 0 
	XORLW       0
	BTFSS       STATUS+0, 2 
	GOTO        L_State4183
L__State4911:
;FirmV_0_7_0.c,934 :: 		{StopMotor(1); StopMotor(2); State=6;OverloadCheckFlag1=0;OverloadCheckFlag2=0;Logger("S4 M2 Overloaded",1);ClearTasks(9);
	MOVLW       1
	MOVWF       FARG_StopMotor+0 
	CALL        _StopMotor+0, 0
	MOVLW       2
	MOVWF       FARG_StopMotor+0 
	CALL        _StopMotor+0, 0
	MOVLW       6
	MOVWF       _State+0 
	CLRF        _OverloadCheckFlag1+0 
	CLRF        _OverloadCheckFlag2+0 
	MOVLW       ?lstr35_FirmV_0_7_0+0
	MOVWF       FARG_Logger_text+0 
	MOVLW       hi_addr(?lstr35_FirmV_0_7_0+0)
	MOVWF       FARG_Logger_text+1 
	MOVLW       1
	MOVWF       FARG_Logger_TimeStampFlag+0 
	CALL        _Logger+0, 0
	MOVLW       9
	MOVWF       FARG_ClearTasks+0 
	CALL        _ClearTasks+0, 0
;FirmV_0_7_0.c,935 :: 		memcpy(LCDLine1,_ErrOverload,16);LCDUpdateFlag=1;LCDLines=1;}
	MOVLW       _LCDLine1+0
	MOVWF       FARG_memcpy_d1+0 
	MOVLW       hi_addr(_LCDLine1+0)
	MOVWF       FARG_memcpy_d1+1 
	MOVLW       __errOverload+0
	MOVWF       FARG_memcpy_s1+0 
	MOVLW       hi_addr(__errOverload+0)
	MOVWF       FARG_memcpy_s1+1 
	MOVLW       16
	MOVWF       FARG_memcpy_n+0 
	MOVLW       0
	MOVWF       FARG_memcpy_n+1 
	CALL        _memcpy+0, 0
	MOVLW       1
	MOVWF       _LCDUpdateFlag+0 
	MOVLW       1
	MOVWF       _LCDLines+0 
L_State4183:
;FirmV_0_7_0.c,937 :: 		if((Door2OpenTime==0)||(ActiveDoors==1))
	MOVF        _Door2OpenTime+0, 0 
	XORLW       0
	BTFSC       STATUS+0, 2 
	GOTO        L__State4910
	MOVF        _ActiveDoors+0, 0 
	XORLW       1
	BTFSC       STATUS+0, 2 
	GOTO        L__State4910
	GOTO        L_State4186
L__State4910:
;FirmV_0_7_0.c,938 :: 		CloseDone.b1=0;
	BCF         _CloseDone+0, 1 
L_State4186:
;FirmV_0_7_0.c,940 :: 		if(KeyNoiseEliminator>=NoiseEliminatorTreshold)
	MOVLW       3
	SUBWF       _KeyNoiseEliminator+0, 0 
	BTFSS       STATUS+0, 0 
	GOTO        L_State4187
;FirmV_0_7_0.c,943 :: 		if((Events.Photocell.b0==1))
	BTFSS       _Events+6, 0 
	GOTO        L_State4188
;FirmV_0_7_0.c,944 :: 		{StopMotor(1); StopMotor(2); OverloadCheckFlag1=0;OverloadCheckFlag2=0;State=6;PhotocellOpenFlag=1;Logger("S4 Photocell Int",1);ClearTasks(0);
	MOVLW       1
	MOVWF       FARG_StopMotor+0 
	CALL        _StopMotor+0, 0
	MOVLW       2
	MOVWF       FARG_StopMotor+0 
	CALL        _StopMotor+0, 0
	CLRF        _OverloadCheckFlag1+0 
	CLRF        _OverloadCheckFlag2+0 
	MOVLW       6
	MOVWF       _State+0 
	MOVLW       1
	MOVWF       _PhotocellOpenFlag+0 
	MOVLW       ?lstr36_FirmV_0_7_0+0
	MOVWF       FARG_Logger_text+0 
	MOVLW       hi_addr(?lstr36_FirmV_0_7_0+0)
	MOVWF       FARG_Logger_text+1 
	MOVLW       1
	MOVWF       FARG_Logger_TimeStampFlag+0 
	CALL        _Logger+0, 0
	CLRF        FARG_ClearTasks+0 
	CALL        _ClearTasks+0, 0
;FirmV_0_7_0.c,945 :: 		memcpy(LCDLine1,_ErrPhoto,16);LCDUpdateFlag=1;LCDLines=1;}
	MOVLW       _LCDLine1+0
	MOVWF       FARG_memcpy_d1+0 
	MOVLW       hi_addr(_LCDLine1+0)
	MOVWF       FARG_memcpy_d1+1 
	MOVLW       __errPhoto+0
	MOVWF       FARG_memcpy_s1+0 
	MOVLW       hi_addr(__errPhoto+0)
	MOVWF       FARG_memcpy_s1+1 
	MOVLW       16
	MOVWF       FARG_memcpy_n+0 
	MOVLW       0
	MOVWF       FARG_memcpy_n+1 
	CALL        _memcpy+0, 0
	MOVLW       1
	MOVWF       _LCDUpdateFlag+0 
	MOVLW       1
	MOVWF       _LCDLines+0 
L_State4188:
;FirmV_0_7_0.c,947 :: 		if((Events.Limiter==2)&&(LimiterEnable))
	MOVF        _Events+7, 0 
	XORLW       2
	BTFSS       STATUS+0, 2 
	GOTO        L_State4191
	MOVF        _LimiterEnable+0, 1 
	BTFSC       STATUS+0, 2 
	GOTO        L_State4191
L__State4909:
;FirmV_0_7_0.c,948 :: 		{StopMotor(1); StopMotor(2); State=6;OverloadCheckFlag1=0;OverloadCheckFlag2=0;Logger("S4 Limit Switch Stop",1);ClearTasks(9);
	MOVLW       1
	MOVWF       FARG_StopMotor+0 
	CALL        _StopMotor+0, 0
	MOVLW       2
	MOVWF       FARG_StopMotor+0 
	CALL        _StopMotor+0, 0
	MOVLW       6
	MOVWF       _State+0 
	CLRF        _OverloadCheckFlag1+0 
	CLRF        _OverloadCheckFlag2+0 
	MOVLW       ?lstr37_FirmV_0_7_0+0
	MOVWF       FARG_Logger_text+0 
	MOVLW       hi_addr(?lstr37_FirmV_0_7_0+0)
	MOVWF       FARG_Logger_text+1 
	MOVLW       1
	MOVWF       FARG_Logger_TimeStampFlag+0 
	CALL        _Logger+0, 0
	MOVLW       9
	MOVWF       FARG_ClearTasks+0 
	CALL        _ClearTasks+0, 0
;FirmV_0_7_0.c,949 :: 		memcpy(LCDLine1,_ErrLimit,16);LCDUpdateFlag=1;LCDLines=1;}
	MOVLW       _LCDLine1+0
	MOVWF       FARG_memcpy_d1+0 
	MOVLW       hi_addr(_LCDLine1+0)
	MOVWF       FARG_memcpy_d1+1 
	MOVLW       __errLimit+0
	MOVWF       FARG_memcpy_s1+0 
	MOVLW       hi_addr(__errLimit+0)
	MOVWF       FARG_memcpy_s1+1 
	MOVLW       16
	MOVWF       FARG_memcpy_n+0 
	MOVLW       0
	MOVWF       FARG_memcpy_n+1 
	CALL        _memcpy+0, 0
	MOVLW       1
	MOVWF       _LCDUpdateFlag+0 
	MOVLW       1
	MOVWF       _LCDLines+0 
L_State4191:
;FirmV_0_7_0.c,951 :: 		if((Events.Remote!=0))
	MOVF        _Events+4, 0 
	XORLW       0
	BTFSC       STATUS+0, 2 
	GOTO        L_State4192
;FirmV_0_7_0.c,952 :: 		{StopMotor(1); StopMotor(2); State=6;OverloadCheckFlag1=0;OverloadCheckFlag2=0;Logger("S4 Remote Pressed",1);ClearTasks(9);
	MOVLW       1
	MOVWF       FARG_StopMotor+0 
	CALL        _StopMotor+0, 0
	MOVLW       2
	MOVWF       FARG_StopMotor+0 
	CALL        _StopMotor+0, 0
	MOVLW       6
	MOVWF       _State+0 
	CLRF        _OverloadCheckFlag1+0 
	CLRF        _OverloadCheckFlag2+0 
	MOVLW       ?lstr38_FirmV_0_7_0+0
	MOVWF       FARG_Logger_text+0 
	MOVLW       hi_addr(?lstr38_FirmV_0_7_0+0)
	MOVWF       FARG_Logger_text+1 
	MOVLW       1
	MOVWF       FARG_Logger_TimeStampFlag+0 
	CALL        _Logger+0, 0
	MOVLW       9
	MOVWF       FARG_ClearTasks+0 
	CALL        _ClearTasks+0, 0
;FirmV_0_7_0.c,953 :: 		memcpy(LCDLine1,_ErrRemote,16);LCDUpdateFlag=1;LCDLines=1;}
	MOVLW       _LCDLine1+0
	MOVWF       FARG_memcpy_d1+0 
	MOVLW       hi_addr(_LCDLine1+0)
	MOVWF       FARG_memcpy_d1+1 
	MOVLW       __errRemote+0
	MOVWF       FARG_memcpy_s1+0 
	MOVLW       hi_addr(__errRemote+0)
	MOVWF       FARG_memcpy_s1+1 
	MOVLW       16
	MOVWF       FARG_memcpy_n+0 
	MOVLW       0
	MOVWF       FARG_memcpy_n+1 
	CALL        _memcpy+0, 0
	MOVLW       1
	MOVWF       _LCDUpdateFlag+0 
	MOVLW       1
	MOVWF       _LCDLines+0 
L_State4192:
;FirmV_0_7_0.c,954 :: 		}
L_State4187:
;FirmV_0_7_0.c,957 :: 		if(CloseDone==0)
	MOVF        _CloseDone+0, 0 
	XORLW       0
	BTFSS       STATUS+0, 2 
	GOTO        L_State4193
;FirmV_0_7_0.c,958 :: 		if(ReverseOnClose)
	MOVF        _ReverseOnClose+0, 1 
	BTFSC       STATUS+0, 2 
	GOTO        L_State4194
;FirmV_0_7_0.c,959 :: 		{StartMotor(1,_Open);AddTask(ms500+1,14);SetMotorSpeed(1,Motor2FullSpeed);OverloadCheckFlag1=0;M1isSlow=0;SetMotorSpeed(Motor1FullSpeed,1);OverloadCheckFlag2=0;M2isSlow=0;
	MOVLW       1
	MOVWF       FARG_StartMotor+0 
	MOVLW       1
	MOVWF       FARG_StartMotor+0 
	CALL        _StartMotor+0, 0
	MOVLW       1
	ADDWF       _ms500+0, 0 
	MOVWF       FARG_AddTask+0 
	MOVLW       0
	ADDWFC      _ms500+1, 0 
	MOVWF       FARG_AddTask+1 
	MOVLW       0
	ADDWFC      _ms500+2, 0 
	MOVWF       FARG_AddTask+2 
	MOVLW       0
	ADDWFC      _ms500+3, 0 
	MOVWF       FARG_AddTask+3 
	MOVLW       14
	MOVWF       FARG_AddTask+0 
	CALL        _AddTask+0, 0
	MOVLW       1
	MOVWF       FARG_SetMotorSpeed+0 
	MOVF        _Motor2FullSpeed+0, 0 
	MOVWF       FARG_SetMotorSpeed+0 
	CALL        _SetMotorSpeed+0, 0
	CLRF        _OverloadCheckFlag1+0 
	CLRF        _M1isSlow+0 
	MOVF        _Motor1FullSpeed+0, 0 
	MOVWF       FARG_SetMotorSpeed+0 
	MOVLW       1
	MOVWF       FARG_SetMotorSpeed+0 
	CALL        _SetMotorSpeed+0, 0
	CLRF        _OverloadCheckFlag2+0 
	CLRF        _M2isSlow+0 
;FirmV_0_7_0.c,960 :: 		AddTask(ms500+RelaseTime,3);AddTask(ms500+1+RelaseTime,4);AddTask(ms500+1+RelaseTime,13);CloseDone.b2=1;}
	MOVLW       1
	ADDWF       _ms500+0, 0 
	MOVWF       FARG_AddTask+0 
	MOVLW       0
	ADDWFC      _ms500+1, 0 
	MOVWF       FARG_AddTask+1 
	MOVLW       0
	ADDWFC      _ms500+2, 0 
	MOVWF       FARG_AddTask+2 
	MOVLW       0
	ADDWFC      _ms500+3, 0 
	MOVWF       FARG_AddTask+3 
	MOVLW       3
	MOVWF       FARG_AddTask+0 
	CALL        _AddTask+0, 0
	MOVLW       1
	ADDWF       _ms500+0, 0 
	MOVWF       FARG_AddTask+0 
	MOVLW       0
	ADDWFC      _ms500+1, 0 
	MOVWF       FARG_AddTask+1 
	MOVLW       0
	ADDWFC      _ms500+2, 0 
	MOVWF       FARG_AddTask+2 
	MOVLW       0
	ADDWFC      _ms500+3, 0 
	MOVWF       FARG_AddTask+3 
	MOVLW       1
	ADDWF       FARG_AddTask+0, 1 
	MOVLW       0
	ADDWFC      FARG_AddTask+1, 1 
	ADDWFC      FARG_AddTask+2, 1 
	ADDWFC      FARG_AddTask+3, 1 
	MOVLW       4
	MOVWF       FARG_AddTask+0 
	CALL        _AddTask+0, 0
	MOVLW       1
	ADDWF       _ms500+0, 0 
	MOVWF       FARG_AddTask+0 
	MOVLW       0
	ADDWFC      _ms500+1, 0 
	MOVWF       FARG_AddTask+1 
	MOVLW       0
	ADDWFC      _ms500+2, 0 
	MOVWF       FARG_AddTask+2 
	MOVLW       0
	ADDWFC      _ms500+3, 0 
	MOVWF       FARG_AddTask+3 
	MOVLW       1
	ADDWF       FARG_AddTask+0, 1 
	MOVLW       0
	ADDWFC      FARG_AddTask+1, 1 
	ADDWFC      FARG_AddTask+2, 1 
	ADDWFC      FARG_AddTask+3, 1 
	MOVLW       13
	MOVWF       FARG_AddTask+0 
	CALL        _AddTask+0, 0
	BSF         _CloseDone+0, 2 
	GOTO        L_State4195
L_State4194:
;FirmV_0_7_0.c,962 :: 		{AddTask(ms500+1,13);CloseDone.b2=1;}
	MOVLW       1
	ADDWF       _ms500+0, 0 
	MOVWF       FARG_AddTask+0 
	MOVLW       0
	ADDWFC      _ms500+1, 0 
	MOVWF       FARG_AddTask+1 
	MOVLW       0
	ADDWFC      _ms500+2, 0 
	MOVWF       FARG_AddTask+2 
	MOVLW       0
	ADDWFC      _ms500+3, 0 
	MOVWF       FARG_AddTask+3 
	MOVLW       13
	MOVWF       FARG_AddTask+0 
	CALL        _AddTask+0, 0
	BSF         _CloseDone+0, 2 
L_State4195:
L_State4193:
;FirmV_0_7_0.c,964 :: 		if(CheckTask(14))
	MOVLW       14
	MOVWF       FARG_CheckTask+0 
	CALL        _CheckTask+0, 0
	MOVF        R0, 1 
	BTFSC       STATUS+0, 2 
	GOTO        L_State4196
;FirmV_0_7_0.c,965 :: 		StartMotor(2,_Open);
	MOVLW       2
	MOVWF       FARG_StartMotor+0 
	MOVLW       1
	MOVWF       FARG_StartMotor+0 
	CALL        _StartMotor+0, 0
L_State4196:
;FirmV_0_7_0.c,967 :: 		if(CheckTask(13))
	MOVLW       13
	MOVWF       FARG_CheckTask+0 
	CALL        _CheckTask+0, 0
	MOVF        R0, 1 
	BTFSC       STATUS+0, 2 
	GOTO        L_State4197
;FirmV_0_7_0.c,968 :: 		{State=1; PassFlag=0;PrevAC=0;ClearTasks(9);memcpy(LCDLine1,_close,16);memcpy(LCDLine2,_Blank,16);LCDUpdateFlag=1;LCDLines=1;}
	MOVLW       1
	MOVWF       _State+0 
	CLRF        _PassFlag+0 
	CLRF        _PrevAC+0 
	MOVLW       9
	MOVWF       FARG_ClearTasks+0 
	CALL        _ClearTasks+0, 0
	MOVLW       _LCDLine1+0
	MOVWF       FARG_memcpy_d1+0 
	MOVLW       hi_addr(_LCDLine1+0)
	MOVWF       FARG_memcpy_d1+1 
	MOVLW       __close+0
	MOVWF       FARG_memcpy_s1+0 
	MOVLW       hi_addr(__close+0)
	MOVWF       FARG_memcpy_s1+1 
	MOVLW       16
	MOVWF       FARG_memcpy_n+0 
	MOVLW       0
	MOVWF       FARG_memcpy_n+1 
	CALL        _memcpy+0, 0
	MOVLW       _LCDLine2+0
	MOVWF       FARG_memcpy_d1+0 
	MOVLW       hi_addr(_LCDLine2+0)
	MOVWF       FARG_memcpy_d1+1 
	MOVLW       __Blank+0
	MOVWF       FARG_memcpy_s1+0 
	MOVLW       hi_addr(__Blank+0)
	MOVWF       FARG_memcpy_s1+1 
	MOVLW       16
	MOVWF       FARG_memcpy_n+0 
	MOVLW       0
	MOVWF       FARG_memcpy_n+1 
	CALL        _memcpy+0, 0
	MOVLW       1
	MOVWF       _LCDUpdateFlag+0 
	MOVLW       1
	MOVWF       _LCDLines+0 
L_State4197:
;FirmV_0_7_0.c,970 :: 		if((State==5)||(State==6))
	MOVF        _State+0, 0 
	XORLW       5
	BTFSC       STATUS+0, 2 
	GOTO        L__State4908
	MOVF        _State+0, 0 
	XORLW       6
	BTFSC       STATUS+0, 2 
	GOTO        L__State4908
	GOTO        L_State4200
L__State4908:
;FirmV_0_7_0.c,971 :: 		{ClearTasks(0);if(AutoCloseTime!=0){PrevAC=0;AddTask(ms500+AutoCloseTime,9);AutoClosePauseFlag=0;Logger("S4 Autoclose Renewed",1);}}
	CLRF        FARG_ClearTasks+0 
	CALL        _ClearTasks+0, 0
	MOVLW       0
	XORWF       _AutoCloseTime+1, 0 
	BTFSS       STATUS+0, 2 
	GOTO        L__State41036
	MOVLW       0
	XORWF       _AutoCloseTime+0, 0 
L__State41036:
	BTFSC       STATUS+0, 2 
	GOTO        L_State4201
	CLRF        _PrevAC+0 
	MOVF        _AutoCloseTime+0, 0 
	ADDWF       _ms500+0, 0 
	MOVWF       FARG_AddTask+0 
	MOVF        _AutoCloseTime+1, 0 
	ADDWFC      _ms500+1, 0 
	MOVWF       FARG_AddTask+1 
	MOVLW       0
	ADDWFC      _ms500+2, 0 
	MOVWF       FARG_AddTask+2 
	MOVLW       0
	ADDWFC      _ms500+3, 0 
	MOVWF       FARG_AddTask+3 
	MOVLW       9
	MOVWF       FARG_AddTask+0 
	CALL        _AddTask+0, 0
	CLRF        _AutoClosePauseFlag+0 
	MOVLW       ?lstr39_FirmV_0_7_0+0
	MOVWF       FARG_Logger_text+0 
	MOVLW       hi_addr(?lstr39_FirmV_0_7_0+0)
	MOVWF       FARG_Logger_text+1 
	MOVLW       1
	MOVWF       FARG_Logger_TimeStampFlag+0 
	CALL        _Logger+0, 0
L_State4201:
L_State4200:
;FirmV_0_7_0.c,973 :: 		}
L_end_State4:
	RETURN      0
; end of _State4

_State5:

;FirmV_0_7_0.c,988 :: 		void State5()
;FirmV_0_7_0.c,990 :: 		char delay=2;
	MOVLW       2
	MOVWF       State5_delay_L0+0 
;FirmV_0_7_0.c,991 :: 		Flasher=0;
	BCF         PORTD+0, 7 
;FirmV_0_7_0.c,992 :: 		FlashFlag=0;
	CLRF        _FlashFlag+0 
;FirmV_0_7_0.c,994 :: 		if(ReturnAutoclose()!=PrevAC)
	CALL        _ReturnAutoclose+0, 0
	MOVF        R0, 0 
	XORWF       _PrevAC+0, 0 
	BTFSC       STATUS+0, 2 
	GOTO        L_State5202
;FirmV_0_7_0.c,996 :: 		LCDFlashFlag=0;
	CLRF        _LCDFlashFlag+0 
;FirmV_0_7_0.c,997 :: 		PrevAC=ReturnAutoclose();
	CALL        _ReturnAutoclose+0, 0
	MOVF        R0, 0 
	MOVWF       _PrevAC+0 
;FirmV_0_7_0.c,998 :: 		charValueToStr_AC(PrevAC,LCDLine2+11);
	MOVF        R0, 0 
	MOVWF       FARG_charValueToStr_AC+0 
	MOVLW       _LCDLine2+11
	MOVWF       FARG_charValueToStr_AC+0 
	MOVLW       hi_addr(_LCDLine2+11)
	MOVWF       FARG_charValueToStr_AC+1 
	CALL        _charValueToStr_AC+0, 0
;FirmV_0_7_0.c,999 :: 		memcpy(LCDLine2,"Close after",11);
	MOVLW       _LCDLine2+0
	MOVWF       FARG_memcpy_d1+0 
	MOVLW       hi_addr(_LCDLine2+0)
	MOVWF       FARG_memcpy_d1+1 
	MOVLW       ?lstr40_FirmV_0_7_0+0
	MOVWF       FARG_memcpy_s1+0 
	MOVLW       hi_addr(?lstr40_FirmV_0_7_0+0)
	MOVWF       FARG_memcpy_s1+1 
	MOVLW       11
	MOVWF       FARG_memcpy_n+0 
	MOVLW       0
	MOVWF       FARG_memcpy_n+1 
	CALL        _memcpy+0, 0
;FirmV_0_7_0.c,1000 :: 		LCDUpdateFlag=1;
	MOVLW       1
	MOVWF       _LCDUpdateFlag+0 
;FirmV_0_7_0.c,1001 :: 		LCDLines=2;
	MOVLW       2
	MOVWF       _LCDLines+0 
;FirmV_0_7_0.c,1002 :: 		}
L_State5202:
;FirmV_0_7_0.c,1004 :: 		if((Events.Remote!=0)||(CheckTask(9)==1))
	MOVF        _Events+4, 0 
	XORLW       0
	BTFSS       STATUS+0, 2 
	GOTO        L__State5917
	MOVLW       9
	MOVWF       FARG_CheckTask+0 
	CALL        _CheckTask+0, 0
	MOVF        R0, 0 
	XORLW       1
	BTFSC       STATUS+0, 2 
	GOTO        L__State5917
	GOTO        L_State5205
L__State5917:
;FirmV_0_7_0.c,1006 :: 		if((Door2CloseTime==0)||(ActiveDoors==1))
	MOVF        _Door2CloseTime+0, 0 
	XORLW       0
	BTFSC       STATUS+0, 2 
	GOTO        L__State5916
	MOVF        _ActiveDoors+0, 0 
	XORLW       1
	BTFSC       STATUS+0, 2 
	GOTO        L__State5916
	GOTO        L_State5208
L__State5916:
;FirmV_0_7_0.c,1008 :: 		ClearTasks(0);
	CLRF        FARG_ClearTasks+0 
	CALL        _ClearTasks+0, 0
;FirmV_0_7_0.c,1009 :: 		temp=ms500+delay;
	MOVF        State5_delay_L0+0, 0 
	ADDWF       _ms500+0, 0 
	MOVWF       R0 
	MOVLW       0
	ADDWFC      _ms500+1, 0 
	MOVWF       R1 
	MOVLW       0
	ADDWFC      _ms500+2, 0 
	MOVWF       R2 
	MOVLW       0
	ADDWFC      _ms500+3, 0 
	MOVWF       R3 
	MOVF        R0, 0 
	MOVWF       _temp+0 
	MOVF        R1, 0 
	MOVWF       _temp+1 
	MOVF        R2, 0 
	MOVWF       _temp+2 
	MOVF        R3, 0 
	MOVWF       _temp+3 
;FirmV_0_7_0.c,1010 :: 		AddTask(temp,1);
	MOVF        R0, 0 
	MOVWF       FARG_AddTask+0 
	MOVF        R1, 0 
	MOVWF       FARG_AddTask+1 
	MOVF        R2, 0 
	MOVWF       FARG_AddTask+2 
	MOVF        R3, 0 
	MOVWF       FARG_AddTask+3 
	MOVLW       1
	MOVWF       FARG_AddTask+0 
	CALL        _AddTask+0, 0
;FirmV_0_7_0.c,1011 :: 		AddTask(temp,5);
	MOVF        _temp+0, 0 
	MOVWF       FARG_AddTask+0 
	MOVF        _temp+1, 0 
	MOVWF       FARG_AddTask+1 
	MOVF        _temp+2, 0 
	MOVWF       FARG_AddTask+2 
	MOVF        _temp+3, 0 
	MOVWF       FARG_AddTask+3 
	MOVLW       5
	MOVWF       FARG_AddTask+0 
	CALL        _AddTask+0, 0
;FirmV_0_7_0.c,1012 :: 		M1isSlow=0;//speed up
	CLRF        _M1isSlow+0 
;FirmV_0_7_0.c,1013 :: 		temp=ms500+OverloadDelay+delay;
	MOVLW       6
	ADDWF       _ms500+0, 0 
	MOVWF       R0 
	MOVLW       0
	ADDWFC      _ms500+1, 0 
	MOVWF       R1 
	MOVLW       0
	ADDWFC      _ms500+2, 0 
	MOVWF       R2 
	MOVLW       0
	ADDWFC      _ms500+3, 0 
	MOVWF       R3 
	MOVF        State5_delay_L0+0, 0 
	ADDWF       R0, 1 
	MOVLW       0
	ADDWFC      R1, 1 
	ADDWFC      R2, 1 
	ADDWFC      R3, 1 
	MOVF        R0, 0 
	MOVWF       _temp+0 
	MOVF        R1, 0 
	MOVWF       _temp+1 
	MOVF        R2, 0 
	MOVWF       _temp+2 
	MOVF        R3, 0 
	MOVWF       _temp+3 
;FirmV_0_7_0.c,1014 :: 		AddTask(temp,10); //overload check
	MOVF        R0, 0 
	MOVWF       FARG_AddTask+0 
	MOVF        R1, 0 
	MOVWF       FARG_AddTask+1 
	MOVF        R2, 0 
	MOVWF       FARG_AddTask+2 
	MOVF        R3, 0 
	MOVWF       FARG_AddTask+3 
	MOVLW       10
	MOVWF       FARG_AddTask+0 
	CALL        _AddTask+0, 0
;FirmV_0_7_0.c,1015 :: 		temp=ms500+Door1CloseTime+delay;
	MOVF        _Door1CloseTime+0, 0 
	ADDWF       _ms500+0, 0 
	MOVWF       R0 
	MOVLW       0
	ADDWFC      _ms500+1, 0 
	MOVWF       R1 
	MOVLW       0
	ADDWFC      _ms500+2, 0 
	MOVWF       R2 
	MOVLW       0
	ADDWFC      _ms500+3, 0 
	MOVWF       R3 
	MOVF        State5_delay_L0+0, 0 
	ADDWF       R0, 1 
	MOVLW       0
	ADDWFC      R1, 1 
	ADDWFC      R2, 1 
	ADDWFC      R3, 1 
	MOVF        R0, 0 
	MOVWF       _temp+0 
	MOVF        R1, 0 
	MOVWF       _temp+1 
	MOVF        R2, 0 
	MOVWF       _temp+2 
	MOVF        R3, 0 
	MOVWF       _temp+3 
;FirmV_0_7_0.c,1016 :: 		AddTask(temp,3);//Stop motor
	MOVF        R0, 0 
	MOVWF       FARG_AddTask+0 
	MOVF        R1, 0 
	MOVWF       FARG_AddTask+1 
	MOVF        R2, 0 
	MOVWF       FARG_AddTask+2 
	MOVF        R3, 0 
	MOVWF       FARG_AddTask+3 
	MOVLW       3
	MOVWF       FARG_AddTask+0 
	CALL        _AddTask+0, 0
;FirmV_0_7_0.c,1017 :: 		}
L_State5208:
;FirmV_0_7_0.c,1018 :: 		if((Door2CloseTime!=0)&&(ActiveDoors==2))
	MOVF        _Door2CloseTime+0, 0 
	XORLW       0
	BTFSC       STATUS+0, 2 
	GOTO        L_State5211
	MOVF        _ActiveDoors+0, 0 
	XORLW       2
	BTFSS       STATUS+0, 2 
	GOTO        L_State5211
L__State5915:
;FirmV_0_7_0.c,1020 :: 		ClearTasks(9);
	MOVLW       9
	MOVWF       FARG_ClearTasks+0 
	CALL        _ClearTasks+0, 0
;FirmV_0_7_0.c,1021 :: 		temp=ms500+delay;
	MOVF        State5_delay_L0+0, 0 
	ADDWF       _ms500+0, 0 
	MOVWF       R0 
	MOVLW       0
	ADDWFC      _ms500+1, 0 
	MOVWF       R1 
	MOVLW       0
	ADDWFC      _ms500+2, 0 
	MOVWF       R2 
	MOVLW       0
	ADDWFC      _ms500+3, 0 
	MOVWF       R3 
	MOVF        R0, 0 
	MOVWF       _temp+0 
	MOVF        R1, 0 
	MOVWF       _temp+1 
	MOVF        R2, 0 
	MOVWF       _temp+2 
	MOVF        R3, 0 
	MOVWF       _temp+3 
;FirmV_0_7_0.c,1022 :: 		AddTask(temp,2);
	MOVF        R0, 0 
	MOVWF       FARG_AddTask+0 
	MOVF        R1, 0 
	MOVWF       FARG_AddTask+1 
	MOVF        R2, 0 
	MOVWF       FARG_AddTask+2 
	MOVF        R3, 0 
	MOVWF       FARG_AddTask+3 
	MOVLW       2
	MOVWF       FARG_AddTask+0 
	CALL        _AddTask+0, 0
;FirmV_0_7_0.c,1023 :: 		AddTask(temp,6);
	MOVF        _temp+0, 0 
	MOVWF       FARG_AddTask+0 
	MOVF        _temp+1, 0 
	MOVWF       FARG_AddTask+1 
	MOVF        _temp+2, 0 
	MOVWF       FARG_AddTask+2 
	MOVF        _temp+3, 0 
	MOVWF       FARG_AddTask+3 
	MOVLW       6
	MOVWF       FARG_AddTask+0 
	CALL        _AddTask+0, 0
;FirmV_0_7_0.c,1024 :: 		M1isSlow=0;//speed up
	CLRF        _M1isSlow+0 
;FirmV_0_7_0.c,1025 :: 		temp=ms500+OverloadDelay+delay;
	MOVLW       6
	ADDWF       _ms500+0, 0 
	MOVWF       R0 
	MOVLW       0
	ADDWFC      _ms500+1, 0 
	MOVWF       R1 
	MOVLW       0
	ADDWFC      _ms500+2, 0 
	MOVWF       R2 
	MOVLW       0
	ADDWFC      _ms500+3, 0 
	MOVWF       R3 
	MOVF        State5_delay_L0+0, 0 
	ADDWF       R0, 1 
	MOVLW       0
	ADDWFC      R1, 1 
	ADDWFC      R2, 1 
	ADDWFC      R3, 1 
	MOVF        R0, 0 
	MOVWF       _temp+0 
	MOVF        R1, 0 
	MOVWF       _temp+1 
	MOVF        R2, 0 
	MOVWF       _temp+2 
	MOVF        R3, 0 
	MOVWF       _temp+3 
;FirmV_0_7_0.c,1026 :: 		AddTask(temp,11); //overload check
	MOVF        R0, 0 
	MOVWF       FARG_AddTask+0 
	MOVF        R1, 0 
	MOVWF       FARG_AddTask+1 
	MOVF        R2, 0 
	MOVWF       FARG_AddTask+2 
	MOVF        R3, 0 
	MOVWF       FARG_AddTask+3 
	MOVLW       11
	MOVWF       FARG_AddTask+0 
	CALL        _AddTask+0, 0
;FirmV_0_7_0.c,1027 :: 		temp=ms500+Door1CloseTime+delay;
	MOVF        _Door1CloseTime+0, 0 
	ADDWF       _ms500+0, 0 
	MOVWF       R0 
	MOVLW       0
	ADDWFC      _ms500+1, 0 
	MOVWF       R1 
	MOVLW       0
	ADDWFC      _ms500+2, 0 
	MOVWF       R2 
	MOVLW       0
	ADDWFC      _ms500+3, 0 
	MOVWF       R3 
	MOVF        State5_delay_L0+0, 0 
	ADDWF       R0, 1 
	MOVLW       0
	ADDWFC      R1, 1 
	ADDWFC      R2, 1 
	ADDWFC      R3, 1 
	MOVF        R0, 0 
	MOVWF       _temp+0 
	MOVF        R1, 0 
	MOVWF       _temp+1 
	MOVF        R2, 0 
	MOVWF       _temp+2 
	MOVF        R3, 0 
	MOVWF       _temp+3 
;FirmV_0_7_0.c,1028 :: 		AddTask(temp,4);//Stop motor
	MOVF        R0, 0 
	MOVWF       FARG_AddTask+0 
	MOVF        R1, 0 
	MOVWF       FARG_AddTask+1 
	MOVF        R2, 0 
	MOVWF       FARG_AddTask+2 
	MOVF        R3, 0 
	MOVWF       FARG_AddTask+3 
	MOVLW       4
	MOVWF       FARG_AddTask+0 
	CALL        _AddTask+0, 0
;FirmV_0_7_0.c,1033 :: 		temp=ms500+ActionTimeDiff+delay;
	MOVF        _ActionTimeDiff+0, 0 
	ADDWF       _ms500+0, 0 
	MOVWF       R0 
	MOVLW       0
	ADDWFC      _ms500+1, 0 
	MOVWF       R1 
	MOVLW       0
	ADDWFC      _ms500+2, 0 
	MOVWF       R2 
	MOVLW       0
	ADDWFC      _ms500+3, 0 
	MOVWF       R3 
	MOVF        State5_delay_L0+0, 0 
	ADDWF       R0, 1 
	MOVLW       0
	ADDWFC      R1, 1 
	ADDWFC      R2, 1 
	ADDWFC      R3, 1 
	MOVF        R0, 0 
	MOVWF       _temp+0 
	MOVF        R1, 0 
	MOVWF       _temp+1 
	MOVF        R2, 0 
	MOVWF       _temp+2 
	MOVF        R3, 0 
	MOVWF       _temp+3 
;FirmV_0_7_0.c,1034 :: 		AddTask(temp,1);
	MOVF        R0, 0 
	MOVWF       FARG_AddTask+0 
	MOVF        R1, 0 
	MOVWF       FARG_AddTask+1 
	MOVF        R2, 0 
	MOVWF       FARG_AddTask+2 
	MOVF        R3, 0 
	MOVWF       FARG_AddTask+3 
	MOVLW       1
	MOVWF       FARG_AddTask+0 
	CALL        _AddTask+0, 0
;FirmV_0_7_0.c,1035 :: 		temp=ms500+ActionTimeDiff+delay;
	MOVF        _ActionTimeDiff+0, 0 
	ADDWF       _ms500+0, 0 
	MOVWF       R0 
	MOVLW       0
	ADDWFC      _ms500+1, 0 
	MOVWF       R1 
	MOVLW       0
	ADDWFC      _ms500+2, 0 
	MOVWF       R2 
	MOVLW       0
	ADDWFC      _ms500+3, 0 
	MOVWF       R3 
	MOVF        State5_delay_L0+0, 0 
	ADDWF       R0, 1 
	MOVLW       0
	ADDWFC      R1, 1 
	ADDWFC      R2, 1 
	ADDWFC      R3, 1 
	MOVF        R0, 0 
	MOVWF       _temp+0 
	MOVF        R1, 0 
	MOVWF       _temp+1 
	MOVF        R2, 0 
	MOVWF       _temp+2 
	MOVF        R3, 0 
	MOVWF       _temp+3 
;FirmV_0_7_0.c,1036 :: 		AddTask(temp,5);
	MOVF        R0, 0 
	MOVWF       FARG_AddTask+0 
	MOVF        R1, 0 
	MOVWF       FARG_AddTask+1 
	MOVF        R2, 0 
	MOVWF       FARG_AddTask+2 
	MOVF        R3, 0 
	MOVWF       FARG_AddTask+3 
	MOVLW       5
	MOVWF       FARG_AddTask+0 
	CALL        _AddTask+0, 0
;FirmV_0_7_0.c,1037 :: 		M2isSlow=0;//speed up
	CLRF        _M2isSlow+0 
;FirmV_0_7_0.c,1038 :: 		temp=ms500+ActionTimeDiff+OverloadDelay+delay;
	MOVF        _ActionTimeDiff+0, 0 
	ADDWF       _ms500+0, 0 
	MOVWF       R0 
	MOVLW       0
	ADDWFC      _ms500+1, 0 
	MOVWF       R1 
	MOVLW       0
	ADDWFC      _ms500+2, 0 
	MOVWF       R2 
	MOVLW       0
	ADDWFC      _ms500+3, 0 
	MOVWF       R3 
	MOVLW       6
	ADDWF       R0, 1 
	MOVLW       0
	ADDWFC      R1, 1 
	ADDWFC      R2, 1 
	ADDWFC      R3, 1 
	MOVF        State5_delay_L0+0, 0 
	ADDWF       R0, 1 
	MOVLW       0
	ADDWFC      R1, 1 
	ADDWFC      R2, 1 
	ADDWFC      R3, 1 
	MOVF        R0, 0 
	MOVWF       _temp+0 
	MOVF        R1, 0 
	MOVWF       _temp+1 
	MOVF        R2, 0 
	MOVWF       _temp+2 
	MOVF        R3, 0 
	MOVWF       _temp+3 
;FirmV_0_7_0.c,1039 :: 		AddTask(temp,10); //overload check
	MOVF        R0, 0 
	MOVWF       FARG_AddTask+0 
	MOVF        R1, 0 
	MOVWF       FARG_AddTask+1 
	MOVF        R2, 0 
	MOVWF       FARG_AddTask+2 
	MOVF        R3, 0 
	MOVWF       FARG_AddTask+3 
	MOVLW       10
	MOVWF       FARG_AddTask+0 
	CALL        _AddTask+0, 0
;FirmV_0_7_0.c,1040 :: 		temp=ms500+Door2CloseTime+delay+ActionTimeDiff;
	MOVF        _Door2CloseTime+0, 0 
	ADDWF       _ms500+0, 0 
	MOVWF       R0 
	MOVLW       0
	ADDWFC      _ms500+1, 0 
	MOVWF       R1 
	MOVLW       0
	ADDWFC      _ms500+2, 0 
	MOVWF       R2 
	MOVLW       0
	ADDWFC      _ms500+3, 0 
	MOVWF       R3 
	MOVF        State5_delay_L0+0, 0 
	ADDWF       R0, 1 
	MOVLW       0
	ADDWFC      R1, 1 
	ADDWFC      R2, 1 
	ADDWFC      R3, 1 
	MOVF        _ActionTimeDiff+0, 0 
	ADDWF       R0, 1 
	MOVLW       0
	ADDWFC      R1, 1 
	ADDWFC      R2, 1 
	ADDWFC      R3, 1 
	MOVF        R0, 0 
	MOVWF       _temp+0 
	MOVF        R1, 0 
	MOVWF       _temp+1 
	MOVF        R2, 0 
	MOVWF       _temp+2 
	MOVF        R3, 0 
	MOVWF       _temp+3 
;FirmV_0_7_0.c,1041 :: 		AddTask(temp,3);//Stop motor
	MOVF        R0, 0 
	MOVWF       FARG_AddTask+0 
	MOVF        R1, 0 
	MOVWF       FARG_AddTask+1 
	MOVF        R2, 0 
	MOVWF       FARG_AddTask+2 
	MOVF        R3, 0 
	MOVWF       FARG_AddTask+3 
	MOVLW       3
	MOVWF       FARG_AddTask+0 
	CALL        _AddTask+0, 0
;FirmV_0_7_0.c,1042 :: 		}
L_State5211:
;FirmV_0_7_0.c,1043 :: 		CloseDone=3;
	MOVLW       3
	MOVWF       _CloseDone+0 
;FirmV_0_7_0.c,1044 :: 		OverloadCheckFlag1=0;
	CLRF        _OverloadCheckFlag1+0 
;FirmV_0_7_0.c,1045 :: 		OverloadCheckFlag2=0;
	CLRF        _OverloadCheckFlag2+0 
;FirmV_0_7_0.c,1046 :: 		KeyNoiseEliminator=0;
	CLRF        _KeyNoiseEliminator+0 
;FirmV_0_7_0.c,1047 :: 		AutoClosePauseFlag=0;
	CLRF        _AutoClosePauseFlag+0 
;FirmV_0_7_0.c,1048 :: 		State=7;
	MOVLW       7
	MOVWF       _State+0 
;FirmV_0_7_0.c,1049 :: 		}
L_State5205:
;FirmV_0_7_0.c,1051 :: 		if((Events.Photocell.b0==1)&&(AutoCloseTime!=0)&&(PassFlag==0))
	BTFSS       _Events+6, 0 
	GOTO        L_State5214
	MOVLW       0
	XORWF       _AutoCloseTime+1, 0 
	BTFSS       STATUS+0, 2 
	GOTO        L__State51038
	MOVLW       0
	XORWF       _AutoCloseTime+0, 0 
L__State51038:
	BTFSC       STATUS+0, 2 
	GOTO        L_State5214
	MOVF        _PassFlag+0, 0 
	XORLW       0
	BTFSS       STATUS+0, 2 
	GOTO        L_State5214
L__State5914:
;FirmV_0_7_0.c,1052 :: 		{PassFlag=1; AutoClosePauseFlag=1;Logger("S5 Auto Close Paused",1);}
	MOVLW       1
	MOVWF       _PassFlag+0 
	MOVLW       1
	MOVWF       _AutoClosePauseFlag+0 
	MOVLW       ?lstr41_FirmV_0_7_0+0
	MOVWF       FARG_Logger_text+0 
	MOVLW       hi_addr(?lstr41_FirmV_0_7_0+0)
	MOVWF       FARG_Logger_text+1 
	MOVLW       1
	MOVWF       FARG_Logger_TimeStampFlag+0 
	CALL        _Logger+0, 0
L_State5214:
;FirmV_0_7_0.c,1054 :: 		if((PassFlag==1)&&(Events.Photocell.b0==0)&&(AutoCloseTime!=0))
	MOVF        _PassFlag+0, 0 
	XORLW       1
	BTFSS       STATUS+0, 2 
	GOTO        L_State5217
	BTFSC       _Events+6, 0 
	GOTO        L_State5217
	MOVLW       0
	XORWF       _AutoCloseTime+1, 0 
	BTFSS       STATUS+0, 2 
	GOTO        L__State51039
	MOVLW       0
	XORWF       _AutoCloseTime+0, 0 
L__State51039:
	BTFSC       STATUS+0, 2 
	GOTO        L_State5217
L__State5913:
;FirmV_0_7_0.c,1057 :: 		{AutoClosePauseFlag=0;PassFlag=0;Logger("S5 Auto Close Resumed",1);}
	CLRF        _AutoClosePauseFlag+0 
	CLRF        _PassFlag+0 
	MOVLW       ?lstr42_FirmV_0_7_0+0
	MOVWF       FARG_Logger_text+0 
	MOVLW       hi_addr(?lstr42_FirmV_0_7_0+0)
	MOVWF       FARG_Logger_text+1 
	MOVLW       1
	MOVWF       FARG_Logger_TimeStampFlag+0 
	CALL        _Logger+0, 0
;FirmV_0_7_0.c,1058 :: 		}
L_State5217:
;FirmV_0_7_0.c,1060 :: 		}
L_end_State5:
	RETURN      0
; end of _State5

_State6:

;FirmV_0_7_0.c,1080 :: 		void State6()
;FirmV_0_7_0.c,1084 :: 		char delay=3;
	MOVLW       3
	MOVWF       State6_delay_L0+0 
;FirmV_0_7_0.c,1085 :: 		Flasher=0;
	BCF         PORTD+0, 7 
;FirmV_0_7_0.c,1086 :: 		FlashFlag=0;
	CLRF        _FlashFlag+0 
;FirmV_0_7_0.c,1088 :: 		if(ReturnAutoclose()!=PrevAC)
	CALL        _ReturnAutoclose+0, 0
	MOVF        R0, 0 
	XORWF       _PrevAC+0, 0 
	BTFSC       STATUS+0, 2 
	GOTO        L_State6219
;FirmV_0_7_0.c,1090 :: 		LCDFlashFlag=0;
	CLRF        _LCDFlashFlag+0 
;FirmV_0_7_0.c,1091 :: 		PrevAC=ReturnAutoclose();
	CALL        _ReturnAutoclose+0, 0
	MOVF        R0, 0 
	MOVWF       _PrevAC+0 
;FirmV_0_7_0.c,1092 :: 		charValueToStr_AC(PrevAC,LCDLine2+11);
	MOVF        R0, 0 
	MOVWF       FARG_charValueToStr_AC+0 
	MOVLW       _LCDLine2+11
	MOVWF       FARG_charValueToStr_AC+0 
	MOVLW       hi_addr(_LCDLine2+11)
	MOVWF       FARG_charValueToStr_AC+1 
	CALL        _charValueToStr_AC+0, 0
;FirmV_0_7_0.c,1093 :: 		memcpy(LCDLine2,"Close after",11);
	MOVLW       _LCDLine2+0
	MOVWF       FARG_memcpy_d1+0 
	MOVLW       hi_addr(_LCDLine2+0)
	MOVWF       FARG_memcpy_d1+1 
	MOVLW       ?lstr43_FirmV_0_7_0+0
	MOVWF       FARG_memcpy_s1+0 
	MOVLW       hi_addr(?lstr43_FirmV_0_7_0+0)
	MOVWF       FARG_memcpy_s1+1 
	MOVLW       11
	MOVWF       FARG_memcpy_n+0 
	MOVLW       0
	MOVWF       FARG_memcpy_n+1 
	CALL        _memcpy+0, 0
;FirmV_0_7_0.c,1094 :: 		LCDUpdateFlag=1;
	MOVLW       1
	MOVWF       _LCDUpdateFlag+0 
;FirmV_0_7_0.c,1095 :: 		LCDLines=2;
	MOVLW       2
	MOVWF       _LCDLines+0 
;FirmV_0_7_0.c,1096 :: 		}
L_State6219:
;FirmV_0_7_0.c,1099 :: 		if((Events.Remote!=0)||(PhotocellOpenFlag))
	MOVF        _Events+4, 0 
	XORLW       0
	BTFSS       STATUS+0, 2 
	GOTO        L__State6923
	MOVF        _PhotocellOpenFlag+0, 1 
	BTFSS       STATUS+0, 2 
	GOTO        L__State6923
	GOTO        L_State6222
L__State6923:
;FirmV_0_7_0.c,1101 :: 		PhotocellOpenFlag=0;
	CLRF        _PhotocellOpenFlag+0 
;FirmV_0_7_0.c,1102 :: 		Flasher=1;
	BSF         PORTD+0, 7 
;FirmV_0_7_0.c,1103 :: 		FlashFlag=1;
	MOVLW       1
	MOVWF       _FlashFlag+0 
;FirmV_0_7_0.c,1104 :: 		ClearTasks(0);
	CLRF        FARG_ClearTasks+0 
	CALL        _ClearTasks+0, 0
;FirmV_0_7_0.c,1105 :: 		AddTask(ms500+1,12);//Unlock
	MOVLW       1
	ADDWF       _ms500+0, 0 
	MOVWF       FARG_AddTask+0 
	MOVLW       0
	ADDWFC      _ms500+1, 0 
	MOVWF       FARG_AddTask+1 
	MOVLW       0
	ADDWFC      _ms500+2, 0 
	MOVWF       FARG_AddTask+2 
	MOVLW       0
	ADDWFC      _ms500+3, 0 
	MOVWF       FARG_AddTask+3 
	MOVLW       12
	MOVWF       FARG_AddTask+0 
	CALL        _AddTask+0, 0
;FirmV_0_7_0.c,1106 :: 		temp=ms500+delay;
	MOVF        State6_delay_L0+0, 0 
	ADDWF       _ms500+0, 0 
	MOVWF       R0 
	MOVLW       0
	ADDWFC      _ms500+1, 0 
	MOVWF       R1 
	MOVLW       0
	ADDWFC      _ms500+2, 0 
	MOVWF       R2 
	MOVLW       0
	ADDWFC      _ms500+3, 0 
	MOVWF       R3 
	MOVF        R0, 0 
	MOVWF       _temp+0 
	MOVF        R1, 0 
	MOVWF       _temp+1 
	MOVF        R2, 0 
	MOVWF       _temp+2 
	MOVF        R3, 0 
	MOVWF       _temp+3 
;FirmV_0_7_0.c,1107 :: 		AddTask(temp,1);
	MOVF        R0, 0 
	MOVWF       FARG_AddTask+0 
	MOVF        R1, 0 
	MOVWF       FARG_AddTask+1 
	MOVF        R2, 0 
	MOVWF       FARG_AddTask+2 
	MOVF        R3, 0 
	MOVWF       FARG_AddTask+3 
	MOVLW       1
	MOVWF       FARG_AddTask+0 
	CALL        _AddTask+0, 0
;FirmV_0_7_0.c,1108 :: 		AddTask(temp,5);
	MOVF        _temp+0, 0 
	MOVWF       FARG_AddTask+0 
	MOVF        _temp+1, 0 
	MOVWF       FARG_AddTask+1 
	MOVF        _temp+2, 0 
	MOVWF       FARG_AddTask+2 
	MOVF        _temp+3, 0 
	MOVWF       FARG_AddTask+3 
	MOVLW       5
	MOVWF       FARG_AddTask+0 
	CALL        _AddTask+0, 0
;FirmV_0_7_0.c,1109 :: 		M1isSlow=0;//speed up
	CLRF        _M1isSlow+0 
;FirmV_0_7_0.c,1110 :: 		temp=ms500+OverloadDelay+delay;
	MOVLW       6
	ADDWF       _ms500+0, 0 
	MOVWF       R0 
	MOVLW       0
	ADDWFC      _ms500+1, 0 
	MOVWF       R1 
	MOVLW       0
	ADDWFC      _ms500+2, 0 
	MOVWF       R2 
	MOVLW       0
	ADDWFC      _ms500+3, 0 
	MOVWF       R3 
	MOVF        State6_delay_L0+0, 0 
	ADDWF       R0, 1 
	MOVLW       0
	ADDWFC      R1, 1 
	ADDWFC      R2, 1 
	ADDWFC      R3, 1 
	MOVF        R0, 0 
	MOVWF       _temp+0 
	MOVF        R1, 0 
	MOVWF       _temp+1 
	MOVF        R2, 0 
	MOVWF       _temp+2 
	MOVF        R3, 0 
	MOVWF       _temp+3 
;FirmV_0_7_0.c,1111 :: 		AddTask(temp,10); //overload check
	MOVF        R0, 0 
	MOVWF       FARG_AddTask+0 
	MOVF        R1, 0 
	MOVWF       FARG_AddTask+1 
	MOVF        R2, 0 
	MOVWF       FARG_AddTask+2 
	MOVF        R3, 0 
	MOVWF       FARG_AddTask+3 
	MOVLW       10
	MOVWF       FARG_AddTask+0 
	CALL        _AddTask+0, 0
;FirmV_0_7_0.c,1112 :: 		temp=ms500+Door1OpenTime+delay;
	MOVF        _Door1OpenTime+0, 0 
	ADDWF       _ms500+0, 0 
	MOVWF       R0 
	MOVLW       0
	ADDWFC      _ms500+1, 0 
	MOVWF       R1 
	MOVLW       0
	ADDWFC      _ms500+2, 0 
	MOVWF       R2 
	MOVLW       0
	ADDWFC      _ms500+3, 0 
	MOVWF       R3 
	MOVF        State6_delay_L0+0, 0 
	ADDWF       R0, 1 
	MOVLW       0
	ADDWFC      R1, 1 
	ADDWFC      R2, 1 
	ADDWFC      R3, 1 
	MOVF        R0, 0 
	MOVWF       _temp+0 
	MOVF        R1, 0 
	MOVWF       _temp+1 
	MOVF        R2, 0 
	MOVWF       _temp+2 
	MOVF        R3, 0 
	MOVWF       _temp+3 
;FirmV_0_7_0.c,1113 :: 		AddTask(temp,3);//Stop motor
	MOVF        R0, 0 
	MOVWF       FARG_AddTask+0 
	MOVF        R1, 0 
	MOVWF       FARG_AddTask+1 
	MOVF        R2, 0 
	MOVWF       FARG_AddTask+2 
	MOVF        R3, 0 
	MOVWF       FARG_AddTask+3 
	MOVLW       3
	MOVWF       FARG_AddTask+0 
	CALL        _AddTask+0, 0
;FirmV_0_7_0.c,1114 :: 		if((Door2OpenTime!=0)&&(ActiveDoors==2))
	MOVF        _Door2OpenTime+0, 0 
	XORLW       0
	BTFSC       STATUS+0, 2 
	GOTO        L_State6225
	MOVF        _ActiveDoors+0, 0 
	XORLW       2
	BTFSS       STATUS+0, 2 
	GOTO        L_State6225
L__State6922:
;FirmV_0_7_0.c,1116 :: 		AddTask(ms500+ActionTimeDiff+delay,2);
	MOVF        _ActionTimeDiff+0, 0 
	ADDWF       _ms500+0, 0 
	MOVWF       FARG_AddTask+0 
	MOVLW       0
	ADDWFC      _ms500+1, 0 
	MOVWF       FARG_AddTask+1 
	MOVLW       0
	ADDWFC      _ms500+2, 0 
	MOVWF       FARG_AddTask+2 
	MOVLW       0
	ADDWFC      _ms500+3, 0 
	MOVWF       FARG_AddTask+3 
	MOVF        State6_delay_L0+0, 0 
	ADDWF       FARG_AddTask+0, 1 
	MOVLW       0
	ADDWFC      FARG_AddTask+1, 1 
	ADDWFC      FARG_AddTask+2, 1 
	ADDWFC      FARG_AddTask+3, 1 
	MOVLW       2
	MOVWF       FARG_AddTask+0 
	CALL        _AddTask+0, 0
;FirmV_0_7_0.c,1117 :: 		AddTask(ms500+ActionTimeDiff+delay,6);
	MOVF        _ActionTimeDiff+0, 0 
	ADDWF       _ms500+0, 0 
	MOVWF       FARG_AddTask+0 
	MOVLW       0
	ADDWFC      _ms500+1, 0 
	MOVWF       FARG_AddTask+1 
	MOVLW       0
	ADDWFC      _ms500+2, 0 
	MOVWF       FARG_AddTask+2 
	MOVLW       0
	ADDWFC      _ms500+3, 0 
	MOVWF       FARG_AddTask+3 
	MOVF        State6_delay_L0+0, 0 
	ADDWF       FARG_AddTask+0, 1 
	MOVLW       0
	ADDWFC      FARG_AddTask+1, 1 
	ADDWFC      FARG_AddTask+2, 1 
	ADDWFC      FARG_AddTask+3, 1 
	MOVLW       6
	MOVWF       FARG_AddTask+0 
	CALL        _AddTask+0, 0
;FirmV_0_7_0.c,1118 :: 		M2isSlow=0;//speed up
	CLRF        _M2isSlow+0 
;FirmV_0_7_0.c,1119 :: 		AddTask(ms500+ActionTimeDiff+OverloadDelay+delay,11); //overload check
	MOVF        _ActionTimeDiff+0, 0 
	ADDWF       _ms500+0, 0 
	MOVWF       FARG_AddTask+0 
	MOVLW       0
	ADDWFC      _ms500+1, 0 
	MOVWF       FARG_AddTask+1 
	MOVLW       0
	ADDWFC      _ms500+2, 0 
	MOVWF       FARG_AddTask+2 
	MOVLW       0
	ADDWFC      _ms500+3, 0 
	MOVWF       FARG_AddTask+3 
	MOVLW       6
	ADDWF       FARG_AddTask+0, 1 
	MOVLW       0
	ADDWFC      FARG_AddTask+1, 1 
	ADDWFC      FARG_AddTask+2, 1 
	ADDWFC      FARG_AddTask+3, 1 
	MOVF        State6_delay_L0+0, 0 
	ADDWF       FARG_AddTask+0, 1 
	MOVLW       0
	ADDWFC      FARG_AddTask+1, 1 
	ADDWFC      FARG_AddTask+2, 1 
	ADDWFC      FARG_AddTask+3, 1 
	MOVLW       11
	MOVWF       FARG_AddTask+0 
	CALL        _AddTask+0, 0
;FirmV_0_7_0.c,1120 :: 		AddTask(ms500+Door2OpenTime+ActionTimeDiff+delay,4);//Stop motor
	MOVF        _Door2OpenTime+0, 0 
	ADDWF       _ms500+0, 0 
	MOVWF       FARG_AddTask+0 
	MOVLW       0
	ADDWFC      _ms500+1, 0 
	MOVWF       FARG_AddTask+1 
	MOVLW       0
	ADDWFC      _ms500+2, 0 
	MOVWF       FARG_AddTask+2 
	MOVLW       0
	ADDWFC      _ms500+3, 0 
	MOVWF       FARG_AddTask+3 
	MOVF        _ActionTimeDiff+0, 0 
	ADDWF       FARG_AddTask+0, 1 
	MOVLW       0
	ADDWFC      FARG_AddTask+1, 1 
	ADDWFC      FARG_AddTask+2, 1 
	ADDWFC      FARG_AddTask+3, 1 
	MOVF        State6_delay_L0+0, 0 
	ADDWF       FARG_AddTask+0, 1 
	MOVLW       0
	ADDWFC      FARG_AddTask+1, 1 
	ADDWFC      FARG_AddTask+2, 1 
	ADDWFC      FARG_AddTask+3, 1 
	MOVLW       4
	MOVWF       FARG_AddTask+0 
	CALL        _AddTask+0, 0
;FirmV_0_7_0.c,1121 :: 		}
L_State6225:
;FirmV_0_7_0.c,1124 :: 		OpenDone=3;
	MOVLW       3
	MOVWF       _OpenDone+0 
;FirmV_0_7_0.c,1125 :: 		OverloadCheckFlag1=0;
	CLRF        _OverloadCheckFlag1+0 
;FirmV_0_7_0.c,1126 :: 		OverloadCheckFlag2=0;
	CLRF        _OverloadCheckFlag2+0 
;FirmV_0_7_0.c,1127 :: 		PassFlag=0;
	CLRF        _PassFlag+0 
;FirmV_0_7_0.c,1128 :: 		KeyNoiseEliminator=0;
	CLRF        _KeyNoiseEliminator+0 
;FirmV_0_7_0.c,1129 :: 		AutoClosePauseFlag=0;
	CLRF        _AutoClosePauseFlag+0 
;FirmV_0_7_0.c,1130 :: 		State=8;
	MOVLW       8
	MOVWF       _State+0 
;FirmV_0_7_0.c,1131 :: 		}
L_State6222:
;FirmV_0_7_0.c,1134 :: 		if(CheckTask(9)==1)
	MOVLW       9
	MOVWF       FARG_CheckTask+0 
	CALL        _CheckTask+0, 0
	MOVF        R0, 0 
	XORLW       1
	BTFSS       STATUS+0, 2 
	GOTO        L_State6226
;FirmV_0_7_0.c,1136 :: 		if((Door2CloseTime==0)||(ActiveDoors==1))
	MOVF        _Door2CloseTime+0, 0 
	XORLW       0
	BTFSC       STATUS+0, 2 
	GOTO        L__State6921
	MOVF        _ActiveDoors+0, 0 
	XORLW       1
	BTFSC       STATUS+0, 2 
	GOTO        L__State6921
	GOTO        L_State6229
L__State6921:
;FirmV_0_7_0.c,1138 :: 		ClearTasks(0);
	CLRF        FARG_ClearTasks+0 
	CALL        _ClearTasks+0, 0
;FirmV_0_7_0.c,1139 :: 		temp=ms500+delay;
	MOVF        State6_delay_L0+0, 0 
	ADDWF       _ms500+0, 0 
	MOVWF       R0 
	MOVLW       0
	ADDWFC      _ms500+1, 0 
	MOVWF       R1 
	MOVLW       0
	ADDWFC      _ms500+2, 0 
	MOVWF       R2 
	MOVLW       0
	ADDWFC      _ms500+3, 0 
	MOVWF       R3 
	MOVF        R0, 0 
	MOVWF       _temp+0 
	MOVF        R1, 0 
	MOVWF       _temp+1 
	MOVF        R2, 0 
	MOVWF       _temp+2 
	MOVF        R3, 0 
	MOVWF       _temp+3 
;FirmV_0_7_0.c,1140 :: 		AddTask(temp,1);
	MOVF        R0, 0 
	MOVWF       FARG_AddTask+0 
	MOVF        R1, 0 
	MOVWF       FARG_AddTask+1 
	MOVF        R2, 0 
	MOVWF       FARG_AddTask+2 
	MOVF        R3, 0 
	MOVWF       FARG_AddTask+3 
	MOVLW       1
	MOVWF       FARG_AddTask+0 
	CALL        _AddTask+0, 0
;FirmV_0_7_0.c,1141 :: 		AddTask(temp,5);
	MOVF        _temp+0, 0 
	MOVWF       FARG_AddTask+0 
	MOVF        _temp+1, 0 
	MOVWF       FARG_AddTask+1 
	MOVF        _temp+2, 0 
	MOVWF       FARG_AddTask+2 
	MOVF        _temp+3, 0 
	MOVWF       FARG_AddTask+3 
	MOVLW       5
	MOVWF       FARG_AddTask+0 
	CALL        _AddTask+0, 0
;FirmV_0_7_0.c,1142 :: 		M1isSlow=0;//speed up
	CLRF        _M1isSlow+0 
;FirmV_0_7_0.c,1143 :: 		temp=ms500+OverloadDelay+delay;
	MOVLW       6
	ADDWF       _ms500+0, 0 
	MOVWF       R0 
	MOVLW       0
	ADDWFC      _ms500+1, 0 
	MOVWF       R1 
	MOVLW       0
	ADDWFC      _ms500+2, 0 
	MOVWF       R2 
	MOVLW       0
	ADDWFC      _ms500+3, 0 
	MOVWF       R3 
	MOVF        State6_delay_L0+0, 0 
	ADDWF       R0, 1 
	MOVLW       0
	ADDWFC      R1, 1 
	ADDWFC      R2, 1 
	ADDWFC      R3, 1 
	MOVF        R0, 0 
	MOVWF       _temp+0 
	MOVF        R1, 0 
	MOVWF       _temp+1 
	MOVF        R2, 0 
	MOVWF       _temp+2 
	MOVF        R3, 0 
	MOVWF       _temp+3 
;FirmV_0_7_0.c,1144 :: 		AddTask(temp,10); //overload check
	MOVF        R0, 0 
	MOVWF       FARG_AddTask+0 
	MOVF        R1, 0 
	MOVWF       FARG_AddTask+1 
	MOVF        R2, 0 
	MOVWF       FARG_AddTask+2 
	MOVF        R3, 0 
	MOVWF       FARG_AddTask+3 
	MOVLW       10
	MOVWF       FARG_AddTask+0 
	CALL        _AddTask+0, 0
;FirmV_0_7_0.c,1145 :: 		temp=ms500+Door1CloseTime+delay;
	MOVF        _Door1CloseTime+0, 0 
	ADDWF       _ms500+0, 0 
	MOVWF       R0 
	MOVLW       0
	ADDWFC      _ms500+1, 0 
	MOVWF       R1 
	MOVLW       0
	ADDWFC      _ms500+2, 0 
	MOVWF       R2 
	MOVLW       0
	ADDWFC      _ms500+3, 0 
	MOVWF       R3 
	MOVF        State6_delay_L0+0, 0 
	ADDWF       R0, 1 
	MOVLW       0
	ADDWFC      R1, 1 
	ADDWFC      R2, 1 
	ADDWFC      R3, 1 
	MOVF        R0, 0 
	MOVWF       _temp+0 
	MOVF        R1, 0 
	MOVWF       _temp+1 
	MOVF        R2, 0 
	MOVWF       _temp+2 
	MOVF        R3, 0 
	MOVWF       _temp+3 
;FirmV_0_7_0.c,1146 :: 		AddTask(temp,3);//Stop motor
	MOVF        R0, 0 
	MOVWF       FARG_AddTask+0 
	MOVF        R1, 0 
	MOVWF       FARG_AddTask+1 
	MOVF        R2, 0 
	MOVWF       FARG_AddTask+2 
	MOVF        R3, 0 
	MOVWF       FARG_AddTask+3 
	MOVLW       3
	MOVWF       FARG_AddTask+0 
	CALL        _AddTask+0, 0
;FirmV_0_7_0.c,1147 :: 		}
L_State6229:
;FirmV_0_7_0.c,1148 :: 		if((Door2CloseTime!=0)&&(ActiveDoors==2))
	MOVF        _Door2CloseTime+0, 0 
	XORLW       0
	BTFSC       STATUS+0, 2 
	GOTO        L_State6232
	MOVF        _ActiveDoors+0, 0 
	XORLW       2
	BTFSS       STATUS+0, 2 
	GOTO        L_State6232
L__State6920:
;FirmV_0_7_0.c,1150 :: 		ClearTasks(0);
	CLRF        FARG_ClearTasks+0 
	CALL        _ClearTasks+0, 0
;FirmV_0_7_0.c,1151 :: 		temp=ms500+delay;
	MOVF        State6_delay_L0+0, 0 
	ADDWF       _ms500+0, 0 
	MOVWF       R0 
	MOVLW       0
	ADDWFC      _ms500+1, 0 
	MOVWF       R1 
	MOVLW       0
	ADDWFC      _ms500+2, 0 
	MOVWF       R2 
	MOVLW       0
	ADDWFC      _ms500+3, 0 
	MOVWF       R3 
	MOVF        R0, 0 
	MOVWF       _temp+0 
	MOVF        R1, 0 
	MOVWF       _temp+1 
	MOVF        R2, 0 
	MOVWF       _temp+2 
	MOVF        R3, 0 
	MOVWF       _temp+3 
;FirmV_0_7_0.c,1152 :: 		AddTask(temp,2);
	MOVF        R0, 0 
	MOVWF       FARG_AddTask+0 
	MOVF        R1, 0 
	MOVWF       FARG_AddTask+1 
	MOVF        R2, 0 
	MOVWF       FARG_AddTask+2 
	MOVF        R3, 0 
	MOVWF       FARG_AddTask+3 
	MOVLW       2
	MOVWF       FARG_AddTask+0 
	CALL        _AddTask+0, 0
;FirmV_0_7_0.c,1153 :: 		AddTask(temp,6);
	MOVF        _temp+0, 0 
	MOVWF       FARG_AddTask+0 
	MOVF        _temp+1, 0 
	MOVWF       FARG_AddTask+1 
	MOVF        _temp+2, 0 
	MOVWF       FARG_AddTask+2 
	MOVF        _temp+3, 0 
	MOVWF       FARG_AddTask+3 
	MOVLW       6
	MOVWF       FARG_AddTask+0 
	CALL        _AddTask+0, 0
;FirmV_0_7_0.c,1154 :: 		M1isSlow=0;//speed up
	CLRF        _M1isSlow+0 
;FirmV_0_7_0.c,1155 :: 		temp=ms500+OverloadDelay+delay;
	MOVLW       6
	ADDWF       _ms500+0, 0 
	MOVWF       R0 
	MOVLW       0
	ADDWFC      _ms500+1, 0 
	MOVWF       R1 
	MOVLW       0
	ADDWFC      _ms500+2, 0 
	MOVWF       R2 
	MOVLW       0
	ADDWFC      _ms500+3, 0 
	MOVWF       R3 
	MOVF        State6_delay_L0+0, 0 
	ADDWF       R0, 1 
	MOVLW       0
	ADDWFC      R1, 1 
	ADDWFC      R2, 1 
	ADDWFC      R3, 1 
	MOVF        R0, 0 
	MOVWF       _temp+0 
	MOVF        R1, 0 
	MOVWF       _temp+1 
	MOVF        R2, 0 
	MOVWF       _temp+2 
	MOVF        R3, 0 
	MOVWF       _temp+3 
;FirmV_0_7_0.c,1156 :: 		AddTask(temp,11); //overload check
	MOVF        R0, 0 
	MOVWF       FARG_AddTask+0 
	MOVF        R1, 0 
	MOVWF       FARG_AddTask+1 
	MOVF        R2, 0 
	MOVWF       FARG_AddTask+2 
	MOVF        R3, 0 
	MOVWF       FARG_AddTask+3 
	MOVLW       11
	MOVWF       FARG_AddTask+0 
	CALL        _AddTask+0, 0
;FirmV_0_7_0.c,1157 :: 		temp=ms500+Door1CloseTime+delay;
	MOVF        _Door1CloseTime+0, 0 
	ADDWF       _ms500+0, 0 
	MOVWF       R0 
	MOVLW       0
	ADDWFC      _ms500+1, 0 
	MOVWF       R1 
	MOVLW       0
	ADDWFC      _ms500+2, 0 
	MOVWF       R2 
	MOVLW       0
	ADDWFC      _ms500+3, 0 
	MOVWF       R3 
	MOVF        State6_delay_L0+0, 0 
	ADDWF       R0, 1 
	MOVLW       0
	ADDWFC      R1, 1 
	ADDWFC      R2, 1 
	ADDWFC      R3, 1 
	MOVF        R0, 0 
	MOVWF       _temp+0 
	MOVF        R1, 0 
	MOVWF       _temp+1 
	MOVF        R2, 0 
	MOVWF       _temp+2 
	MOVF        R3, 0 
	MOVWF       _temp+3 
;FirmV_0_7_0.c,1158 :: 		AddTask(temp,4);//Stop motor
	MOVF        R0, 0 
	MOVWF       FARG_AddTask+0 
	MOVF        R1, 0 
	MOVWF       FARG_AddTask+1 
	MOVF        R2, 0 
	MOVWF       FARG_AddTask+2 
	MOVF        R3, 0 
	MOVWF       FARG_AddTask+3 
	MOVLW       4
	MOVWF       FARG_AddTask+0 
	CALL        _AddTask+0, 0
;FirmV_0_7_0.c,1163 :: 		temp=ms500+ActionTimeDiff+delay;
	MOVF        _ActionTimeDiff+0, 0 
	ADDWF       _ms500+0, 0 
	MOVWF       R0 
	MOVLW       0
	ADDWFC      _ms500+1, 0 
	MOVWF       R1 
	MOVLW       0
	ADDWFC      _ms500+2, 0 
	MOVWF       R2 
	MOVLW       0
	ADDWFC      _ms500+3, 0 
	MOVWF       R3 
	MOVF        State6_delay_L0+0, 0 
	ADDWF       R0, 1 
	MOVLW       0
	ADDWFC      R1, 1 
	ADDWFC      R2, 1 
	ADDWFC      R3, 1 
	MOVF        R0, 0 
	MOVWF       _temp+0 
	MOVF        R1, 0 
	MOVWF       _temp+1 
	MOVF        R2, 0 
	MOVWF       _temp+2 
	MOVF        R3, 0 
	MOVWF       _temp+3 
;FirmV_0_7_0.c,1164 :: 		AddTask(temp,1);
	MOVF        R0, 0 
	MOVWF       FARG_AddTask+0 
	MOVF        R1, 0 
	MOVWF       FARG_AddTask+1 
	MOVF        R2, 0 
	MOVWF       FARG_AddTask+2 
	MOVF        R3, 0 
	MOVWF       FARG_AddTask+3 
	MOVLW       1
	MOVWF       FARG_AddTask+0 
	CALL        _AddTask+0, 0
;FirmV_0_7_0.c,1165 :: 		temp=ms500+ActionTimeDiff+delay;
	MOVF        _ActionTimeDiff+0, 0 
	ADDWF       _ms500+0, 0 
	MOVWF       R0 
	MOVLW       0
	ADDWFC      _ms500+1, 0 
	MOVWF       R1 
	MOVLW       0
	ADDWFC      _ms500+2, 0 
	MOVWF       R2 
	MOVLW       0
	ADDWFC      _ms500+3, 0 
	MOVWF       R3 
	MOVF        State6_delay_L0+0, 0 
	ADDWF       R0, 1 
	MOVLW       0
	ADDWFC      R1, 1 
	ADDWFC      R2, 1 
	ADDWFC      R3, 1 
	MOVF        R0, 0 
	MOVWF       _temp+0 
	MOVF        R1, 0 
	MOVWF       _temp+1 
	MOVF        R2, 0 
	MOVWF       _temp+2 
	MOVF        R3, 0 
	MOVWF       _temp+3 
;FirmV_0_7_0.c,1166 :: 		AddTask(temp,5);
	MOVF        R0, 0 
	MOVWF       FARG_AddTask+0 
	MOVF        R1, 0 
	MOVWF       FARG_AddTask+1 
	MOVF        R2, 0 
	MOVWF       FARG_AddTask+2 
	MOVF        R3, 0 
	MOVWF       FARG_AddTask+3 
	MOVLW       5
	MOVWF       FARG_AddTask+0 
	CALL        _AddTask+0, 0
;FirmV_0_7_0.c,1167 :: 		M2isSlow=0;//speed up
	CLRF        _M2isSlow+0 
;FirmV_0_7_0.c,1168 :: 		temp=ms500+ActionTimeDiff+OverloadDelay+delay;
	MOVF        _ActionTimeDiff+0, 0 
	ADDWF       _ms500+0, 0 
	MOVWF       R0 
	MOVLW       0
	ADDWFC      _ms500+1, 0 
	MOVWF       R1 
	MOVLW       0
	ADDWFC      _ms500+2, 0 
	MOVWF       R2 
	MOVLW       0
	ADDWFC      _ms500+3, 0 
	MOVWF       R3 
	MOVLW       6
	ADDWF       R0, 1 
	MOVLW       0
	ADDWFC      R1, 1 
	ADDWFC      R2, 1 
	ADDWFC      R3, 1 
	MOVF        State6_delay_L0+0, 0 
	ADDWF       R0, 1 
	MOVLW       0
	ADDWFC      R1, 1 
	ADDWFC      R2, 1 
	ADDWFC      R3, 1 
	MOVF        R0, 0 
	MOVWF       _temp+0 
	MOVF        R1, 0 
	MOVWF       _temp+1 
	MOVF        R2, 0 
	MOVWF       _temp+2 
	MOVF        R3, 0 
	MOVWF       _temp+3 
;FirmV_0_7_0.c,1169 :: 		AddTask(temp,10); //overload check
	MOVF        R0, 0 
	MOVWF       FARG_AddTask+0 
	MOVF        R1, 0 
	MOVWF       FARG_AddTask+1 
	MOVF        R2, 0 
	MOVWF       FARG_AddTask+2 
	MOVF        R3, 0 
	MOVWF       FARG_AddTask+3 
	MOVLW       10
	MOVWF       FARG_AddTask+0 
	CALL        _AddTask+0, 0
;FirmV_0_7_0.c,1170 :: 		temp=ms500+Door2CloseTime+delay+ActionTimeDiff;
	MOVF        _Door2CloseTime+0, 0 
	ADDWF       _ms500+0, 0 
	MOVWF       R0 
	MOVLW       0
	ADDWFC      _ms500+1, 0 
	MOVWF       R1 
	MOVLW       0
	ADDWFC      _ms500+2, 0 
	MOVWF       R2 
	MOVLW       0
	ADDWFC      _ms500+3, 0 
	MOVWF       R3 
	MOVF        State6_delay_L0+0, 0 
	ADDWF       R0, 1 
	MOVLW       0
	ADDWFC      R1, 1 
	ADDWFC      R2, 1 
	ADDWFC      R3, 1 
	MOVF        _ActionTimeDiff+0, 0 
	ADDWF       R0, 1 
	MOVLW       0
	ADDWFC      R1, 1 
	ADDWFC      R2, 1 
	ADDWFC      R3, 1 
	MOVF        R0, 0 
	MOVWF       _temp+0 
	MOVF        R1, 0 
	MOVWF       _temp+1 
	MOVF        R2, 0 
	MOVWF       _temp+2 
	MOVF        R3, 0 
	MOVWF       _temp+3 
;FirmV_0_7_0.c,1171 :: 		AddTask(temp,3);//Stop motor
	MOVF        R0, 0 
	MOVWF       FARG_AddTask+0 
	MOVF        R1, 0 
	MOVWF       FARG_AddTask+1 
	MOVF        R2, 0 
	MOVWF       FARG_AddTask+2 
	MOVF        R3, 0 
	MOVWF       FARG_AddTask+3 
	MOVLW       3
	MOVWF       FARG_AddTask+0 
	CALL        _AddTask+0, 0
;FirmV_0_7_0.c,1172 :: 		}
L_State6232:
;FirmV_0_7_0.c,1173 :: 		CloseDone=3;
	MOVLW       3
	MOVWF       _CloseDone+0 
;FirmV_0_7_0.c,1174 :: 		OverloadCheckFlag1=0;
	CLRF        _OverloadCheckFlag1+0 
;FirmV_0_7_0.c,1175 :: 		OverloadCheckFlag2=0;
	CLRF        _OverloadCheckFlag2+0 
;FirmV_0_7_0.c,1176 :: 		PassFlag=0;
	CLRF        _PassFlag+0 
;FirmV_0_7_0.c,1177 :: 		KeyNoiseEliminator=0;
	CLRF        _KeyNoiseEliminator+0 
;FirmV_0_7_0.c,1178 :: 		AutoClosePauseFlag=0;
	CLRF        _AutoClosePauseFlag+0 
;FirmV_0_7_0.c,1179 :: 		State=7;
	MOVLW       7
	MOVWF       _State+0 
;FirmV_0_7_0.c,1180 :: 		}
L_State6226:
;FirmV_0_7_0.c,1182 :: 		if((Events.Photocell.b0==1)&&(AutoCloseTime!=0)&&(PassFlag==0))
	BTFSS       _Events+6, 0 
	GOTO        L_State6235
	MOVLW       0
	XORWF       _AutoCloseTime+1, 0 
	BTFSS       STATUS+0, 2 
	GOTO        L__State61041
	MOVLW       0
	XORWF       _AutoCloseTime+0, 0 
L__State61041:
	BTFSC       STATUS+0, 2 
	GOTO        L_State6235
	MOVF        _PassFlag+0, 0 
	XORLW       0
	BTFSS       STATUS+0, 2 
	GOTO        L_State6235
L__State6919:
;FirmV_0_7_0.c,1183 :: 		{PassFlag=1; AutoClosePauseFlag=1;Logger("S6 Auto Close Paused",1);}
	MOVLW       1
	MOVWF       _PassFlag+0 
	MOVLW       1
	MOVWF       _AutoClosePauseFlag+0 
	MOVLW       ?lstr44_FirmV_0_7_0+0
	MOVWF       FARG_Logger_text+0 
	MOVLW       hi_addr(?lstr44_FirmV_0_7_0+0)
	MOVWF       FARG_Logger_text+1 
	MOVLW       1
	MOVWF       FARG_Logger_TimeStampFlag+0 
	CALL        _Logger+0, 0
L_State6235:
;FirmV_0_7_0.c,1185 :: 		if((PassFlag==1)&&(Events.Photocell.b0==0)&&(AutoCloseTime!=0))
	MOVF        _PassFlag+0, 0 
	XORLW       1
	BTFSS       STATUS+0, 2 
	GOTO        L_State6238
	BTFSC       _Events+6, 0 
	GOTO        L_State6238
	MOVLW       0
	XORWF       _AutoCloseTime+1, 0 
	BTFSS       STATUS+0, 2 
	GOTO        L__State61042
	MOVLW       0
	XORWF       _AutoCloseTime+0, 0 
L__State61042:
	BTFSC       STATUS+0, 2 
	GOTO        L_State6238
L__State6918:
;FirmV_0_7_0.c,1187 :: 		{AutoClosePauseFlag=0;PassFlag=0;Logger("S6 Auto Close Resumed",1);}
	CLRF        _AutoClosePauseFlag+0 
	CLRF        _PassFlag+0 
	MOVLW       ?lstr45_FirmV_0_7_0+0
	MOVWF       FARG_Logger_text+0 
	MOVLW       hi_addr(?lstr45_FirmV_0_7_0+0)
	MOVWF       FARG_Logger_text+1 
	MOVLW       1
	MOVWF       FARG_Logger_TimeStampFlag+0 
	CALL        _Logger+0, 0
;FirmV_0_7_0.c,1188 :: 		}
L_State6238:
;FirmV_0_7_0.c,1190 :: 		}
L_end_State6:
	RETURN      0
; end of _State6

_State7:

;FirmV_0_7_0.c,1212 :: 		void State7()
;FirmV_0_7_0.c,1214 :: 		Flasher=1;
	BSF         PORTD+0, 7 
;FirmV_0_7_0.c,1215 :: 		FlashFlag=1;
	MOVLW       1
	MOVWF       _FlashFlag+0 
;FirmV_0_7_0.c,1217 :: 		if(CheckTask(1))
	MOVLW       1
	MOVWF       FARG_CheckTask+0 
	CALL        _CheckTask+0, 0
	MOVF        R0, 1 
	BTFSC       STATUS+0, 2 
	GOTO        L_State7240
;FirmV_0_7_0.c,1218 :: 		{StartMotor(1,_Close);Logger("S7 Motor1Start",1);}
	MOVLW       1
	MOVWF       FARG_StartMotor+0 
	CLRF        FARG_StartMotor+0 
	CALL        _StartMotor+0, 0
	MOVLW       ?lstr46_FirmV_0_7_0+0
	MOVWF       FARG_Logger_text+0 
	MOVLW       hi_addr(?lstr46_FirmV_0_7_0+0)
	MOVWF       FARG_Logger_text+1 
	MOVLW       1
	MOVWF       FARG_Logger_TimeStampFlag+0 
	CALL        _Logger+0, 0
L_State7240:
;FirmV_0_7_0.c,1220 :: 		if(CheckTask(2))
	MOVLW       2
	MOVWF       FARG_CheckTask+0 
	CALL        _CheckTask+0, 0
	MOVF        R0, 1 
	BTFSC       STATUS+0, 2 
	GOTO        L_State7241
;FirmV_0_7_0.c,1221 :: 		{StartMotor(2,_Close);Logger("S7 Motor2Start",1);memcpy(LCDLine1,_closing,16);memcpy(LCDLine2,_Blank,16);LCDUpdateFlag=1;LCDLines=1;}
	MOVLW       2
	MOVWF       FARG_StartMotor+0 
	CLRF        FARG_StartMotor+0 
	CALL        _StartMotor+0, 0
	MOVLW       ?lstr47_FirmV_0_7_0+0
	MOVWF       FARG_Logger_text+0 
	MOVLW       hi_addr(?lstr47_FirmV_0_7_0+0)
	MOVWF       FARG_Logger_text+1 
	MOVLW       1
	MOVWF       FARG_Logger_TimeStampFlag+0 
	CALL        _Logger+0, 0
	MOVLW       _LCDLine1+0
	MOVWF       FARG_memcpy_d1+0 
	MOVLW       hi_addr(_LCDLine1+0)
	MOVWF       FARG_memcpy_d1+1 
	MOVLW       __closing+0
	MOVWF       FARG_memcpy_s1+0 
	MOVLW       hi_addr(__closing+0)
	MOVWF       FARG_memcpy_s1+1 
	MOVLW       16
	MOVWF       FARG_memcpy_n+0 
	MOVLW       0
	MOVWF       FARG_memcpy_n+1 
	CALL        _memcpy+0, 0
	MOVLW       _LCDLine2+0
	MOVWF       FARG_memcpy_d1+0 
	MOVLW       hi_addr(_LCDLine2+0)
	MOVWF       FARG_memcpy_d1+1 
	MOVLW       __Blank+0
	MOVWF       FARG_memcpy_s1+0 
	MOVLW       hi_addr(__Blank+0)
	MOVWF       FARG_memcpy_s1+1 
	MOVLW       16
	MOVWF       FARG_memcpy_n+0 
	MOVLW       0
	MOVWF       FARG_memcpy_n+1 
	CALL        _memcpy+0, 0
	MOVLW       1
	MOVWF       _LCDUpdateFlag+0 
	MOVLW       1
	MOVWF       _LCDLines+0 
L_State7241:
;FirmV_0_7_0.c,1223 :: 		if(CheckTask(10))
	MOVLW       10
	MOVWF       FARG_CheckTask+0 
	CALL        _CheckTask+0, 0
	MOVF        R0, 1 
	BTFSC       STATUS+0, 2 
	GOTO        L_State7242
;FirmV_0_7_0.c,1224 :: 		{OverloadCheckFlag1=1; OverloadInit(1);Logger("S7 M1 Overload Check",1);}
	MOVLW       1
	MOVWF       _OverloadCheckFlag1+0 
	MOVLW       1
	MOVWF       FARG_OverloadInit+0 
	CALL        _OverloadInit+0, 0
	MOVLW       ?lstr48_FirmV_0_7_0+0
	MOVWF       FARG_Logger_text+0 
	MOVLW       hi_addr(?lstr48_FirmV_0_7_0+0)
	MOVWF       FARG_Logger_text+1 
	MOVLW       1
	MOVWF       FARG_Logger_TimeStampFlag+0 
	CALL        _Logger+0, 0
L_State7242:
;FirmV_0_7_0.c,1226 :: 		if(CheckTask(11))
	MOVLW       11
	MOVWF       FARG_CheckTask+0 
	CALL        _CheckTask+0, 0
	MOVF        R0, 1 
	BTFSC       STATUS+0, 2 
	GOTO        L_State7243
;FirmV_0_7_0.c,1227 :: 		{OverloadCheckFlag2=1; OverloadInit(2);Logger("S7 M2 Overload Check",1);}
	MOVLW       1
	MOVWF       _OverloadCheckFlag2+0 
	MOVLW       2
	MOVWF       FARG_OverloadInit+0 
	CALL        _OverloadInit+0, 0
	MOVLW       ?lstr49_FirmV_0_7_0+0
	MOVWF       FARG_Logger_text+0 
	MOVLW       hi_addr(?lstr49_FirmV_0_7_0+0)
	MOVWF       FARG_Logger_text+1 
	MOVLW       1
	MOVWF       FARG_Logger_TimeStampFlag+0 
	CALL        _Logger+0, 0
L_State7243:
;FirmV_0_7_0.c,1229 :: 		if(CheckTask(5))
	MOVLW       5
	MOVWF       FARG_CheckTask+0 
	CALL        _CheckTask+0, 0
	MOVF        R0, 1 
	BTFSC       STATUS+0, 2 
	GOTO        L_State7244
;FirmV_0_7_0.c,1230 :: 		{SetMotorSpeed(1,Motor2FullSpeed); M1isSlow=0;Logger("S7 M1 Speed UP",1);}
	MOVLW       1
	MOVWF       FARG_SetMotorSpeed+0 
	MOVF        _Motor2FullSpeed+0, 0 
	MOVWF       FARG_SetMotorSpeed+0 
	CALL        _SetMotorSpeed+0, 0
	CLRF        _M1isSlow+0 
	MOVLW       ?lstr50_FirmV_0_7_0+0
	MOVWF       FARG_Logger_text+0 
	MOVLW       hi_addr(?lstr50_FirmV_0_7_0+0)
	MOVWF       FARG_Logger_text+1 
	MOVLW       1
	MOVWF       FARG_Logger_TimeStampFlag+0 
	CALL        _Logger+0, 0
L_State7244:
;FirmV_0_7_0.c,1232 :: 		if(CheckTask(6))
	MOVLW       6
	MOVWF       FARG_CheckTask+0 
	CALL        _CheckTask+0, 0
	MOVF        R0, 1 
	BTFSC       STATUS+0, 2 
	GOTO        L_State7245
;FirmV_0_7_0.c,1233 :: 		{SetMotorSpeed(Motor1FullSpeed,1); M2isSlow=0;Logger("S7 M2 Speed UP",1);}
	MOVF        _Motor1FullSpeed+0, 0 
	MOVWF       FARG_SetMotorSpeed+0 
	MOVLW       1
	MOVWF       FARG_SetMotorSpeed+0 
	CALL        _SetMotorSpeed+0, 0
	CLRF        _M2isSlow+0 
	MOVLW       ?lstr51_FirmV_0_7_0+0
	MOVWF       FARG_Logger_text+0 
	MOVLW       hi_addr(?lstr51_FirmV_0_7_0+0)
	MOVWF       FARG_Logger_text+1 
	MOVLW       1
	MOVWF       FARG_Logger_TimeStampFlag+0 
	CALL        _Logger+0, 0
L_State7245:
;FirmV_0_7_0.c,1235 :: 		if((CheckTask(3)||((OverloadCheckFlag1==1)&&(Events.Overload.b0==1)))&&(CloseDone.b0))
	MOVLW       3
	MOVWF       FARG_CheckTask+0 
	CALL        _CheckTask+0, 0
	MOVF        R0, 1 
	BTFSS       STATUS+0, 2 
	GOTO        L__State7931
	MOVF        _OverloadCheckFlag1+0, 0 
	XORLW       1
	BTFSS       STATUS+0, 2 
	GOTO        L__State7932
	BTFSS       _Events+5, 0 
	GOTO        L__State7932
	GOTO        L__State7931
L__State7932:
	GOTO        L_State7252
L__State7931:
	BTFSS       _CloseDone+0, 0 
	GOTO        L_State7252
L__State7930:
;FirmV_0_7_0.c,1236 :: 		{CloseDone.b0=0; StopMotor(1);Logger("S7 M1 Stoped",1);}
	BCF         _CloseDone+0, 0 
	MOVLW       1
	MOVWF       FARG_StopMotor+0 
	CALL        _StopMotor+0, 0
	MOVLW       ?lstr52_FirmV_0_7_0+0
	MOVWF       FARG_Logger_text+0 
	MOVLW       hi_addr(?lstr52_FirmV_0_7_0+0)
	MOVWF       FARG_Logger_text+1 
	MOVLW       1
	MOVWF       FARG_Logger_TimeStampFlag+0 
	CALL        _Logger+0, 0
L_State7252:
;FirmV_0_7_0.c,1238 :: 		if((CheckTask(4)||((OverloadCheckFlag2==1)&&(Events.Overload.b1==1)))&&(CloseDone.b1))
	MOVLW       4
	MOVWF       FARG_CheckTask+0 
	CALL        _CheckTask+0, 0
	MOVF        R0, 1 
	BTFSS       STATUS+0, 2 
	GOTO        L__State7928
	MOVF        _OverloadCheckFlag2+0, 0 
	XORLW       1
	BTFSS       STATUS+0, 2 
	GOTO        L__State7929
	BTFSS       _Events+5, 1 
	GOTO        L__State7929
	GOTO        L__State7928
L__State7929:
	GOTO        L_State7259
L__State7928:
	BTFSS       _CloseDone+0, 1 
	GOTO        L_State7259
L__State7927:
;FirmV_0_7_0.c,1239 :: 		{CloseDone.b1=0; StopMotor(2);Logger("S7 M2 Stoped",1);}
	BCF         _CloseDone+0, 1 
	MOVLW       2
	MOVWF       FARG_StopMotor+0 
	CALL        _StopMotor+0, 0
	MOVLW       ?lstr53_FirmV_0_7_0+0
	MOVWF       FARG_Logger_text+0 
	MOVLW       hi_addr(?lstr53_FirmV_0_7_0+0)
	MOVWF       FARG_Logger_text+1 
	MOVLW       1
	MOVWF       FARG_Logger_TimeStampFlag+0 
	CALL        _Logger+0, 0
L_State7259:
;FirmV_0_7_0.c,1241 :: 		if((Door2OpenTime==0)||(ActiveDoors==1))
	MOVF        _Door2OpenTime+0, 0 
	XORLW       0
	BTFSC       STATUS+0, 2 
	GOTO        L__State7926
	MOVF        _ActiveDoors+0, 0 
	XORLW       1
	BTFSC       STATUS+0, 2 
	GOTO        L__State7926
	GOTO        L_State7262
L__State7926:
;FirmV_0_7_0.c,1242 :: 		CloseDone.b1=0;
	BCF         _CloseDone+0, 1 
L_State7262:
;FirmV_0_7_0.c,1245 :: 		if(KeyNoiseEliminator>=NoiseEliminatorTreshold)
	MOVLW       3
	SUBWF       _KeyNoiseEliminator+0, 0 
	BTFSS       STATUS+0, 0 
	GOTO        L_State7263
;FirmV_0_7_0.c,1247 :: 		if((Events.Photocell.b0==1))
	BTFSS       _Events+6, 0 
	GOTO        L_State7264
;FirmV_0_7_0.c,1248 :: 		{StopMotor(1); StopMotor(2); OverloadCheckFlag1=0;OverloadCheckFlag2=0;State=6;PhotocellOpenFlag=1;Logger("S7 Photocell Int",1);ClearTasks(9);
	MOVLW       1
	MOVWF       FARG_StopMotor+0 
	CALL        _StopMotor+0, 0
	MOVLW       2
	MOVWF       FARG_StopMotor+0 
	CALL        _StopMotor+0, 0
	CLRF        _OverloadCheckFlag1+0 
	CLRF        _OverloadCheckFlag2+0 
	MOVLW       6
	MOVWF       _State+0 
	MOVLW       1
	MOVWF       _PhotocellOpenFlag+0 
	MOVLW       ?lstr54_FirmV_0_7_0+0
	MOVWF       FARG_Logger_text+0 
	MOVLW       hi_addr(?lstr54_FirmV_0_7_0+0)
	MOVWF       FARG_Logger_text+1 
	MOVLW       1
	MOVWF       FARG_Logger_TimeStampFlag+0 
	CALL        _Logger+0, 0
	MOVLW       9
	MOVWF       FARG_ClearTasks+0 
	CALL        _ClearTasks+0, 0
;FirmV_0_7_0.c,1249 :: 		memcpy(LCDLine1,_ErrPhoto,16);LCDUpdateFlag=1;LCDLines=1;}
	MOVLW       _LCDLine1+0
	MOVWF       FARG_memcpy_d1+0 
	MOVLW       hi_addr(_LCDLine1+0)
	MOVWF       FARG_memcpy_d1+1 
	MOVLW       __errPhoto+0
	MOVWF       FARG_memcpy_s1+0 
	MOVLW       hi_addr(__errPhoto+0)
	MOVWF       FARG_memcpy_s1+1 
	MOVLW       16
	MOVWF       FARG_memcpy_n+0 
	MOVLW       0
	MOVWF       FARG_memcpy_n+1 
	CALL        _memcpy+0, 0
	MOVLW       1
	MOVWF       _LCDUpdateFlag+0 
	MOVLW       1
	MOVWF       _LCDLines+0 
L_State7264:
;FirmV_0_7_0.c,1251 :: 		if((Events.Remote!=0))
	MOVF        _Events+4, 0 
	XORLW       0
	BTFSC       STATUS+0, 2 
	GOTO        L_State7265
;FirmV_0_7_0.c,1252 :: 		{StopMotor(1); StopMotor(2); State=6;OverloadCheckFlag1=0;OverloadCheckFlag2=0;Logger("S7 Remote Pressed",1);ClearTasks(9);
	MOVLW       1
	MOVWF       FARG_StopMotor+0 
	CALL        _StopMotor+0, 0
	MOVLW       2
	MOVWF       FARG_StopMotor+0 
	CALL        _StopMotor+0, 0
	MOVLW       6
	MOVWF       _State+0 
	CLRF        _OverloadCheckFlag1+0 
	CLRF        _OverloadCheckFlag2+0 
	MOVLW       ?lstr55_FirmV_0_7_0+0
	MOVWF       FARG_Logger_text+0 
	MOVLW       hi_addr(?lstr55_FirmV_0_7_0+0)
	MOVWF       FARG_Logger_text+1 
	MOVLW       1
	MOVWF       FARG_Logger_TimeStampFlag+0 
	CALL        _Logger+0, 0
	MOVLW       9
	MOVWF       FARG_ClearTasks+0 
	CALL        _ClearTasks+0, 0
;FirmV_0_7_0.c,1253 :: 		memcpy(LCDLine1,_ErrRemote,16);LCDUpdateFlag=1;LCDLines=1;}
	MOVLW       _LCDLine1+0
	MOVWF       FARG_memcpy_d1+0 
	MOVLW       hi_addr(_LCDLine1+0)
	MOVWF       FARG_memcpy_d1+1 
	MOVLW       __errRemote+0
	MOVWF       FARG_memcpy_s1+0 
	MOVLW       hi_addr(__errRemote+0)
	MOVWF       FARG_memcpy_s1+1 
	MOVLW       16
	MOVWF       FARG_memcpy_n+0 
	MOVLW       0
	MOVWF       FARG_memcpy_n+1 
	CALL        _memcpy+0, 0
	MOVLW       1
	MOVWF       _LCDUpdateFlag+0 
	MOVLW       1
	MOVWF       _LCDLines+0 
L_State7265:
;FirmV_0_7_0.c,1255 :: 		if((Events.Limiter==2)&&(LimiterEnable))
	MOVF        _Events+7, 0 
	XORLW       2
	BTFSS       STATUS+0, 2 
	GOTO        L_State7268
	MOVF        _LimiterEnable+0, 1 
	BTFSC       STATUS+0, 2 
	GOTO        L_State7268
L__State7925:
;FirmV_0_7_0.c,1256 :: 		{StopMotor(1); StopMotor(2); State=6;OverloadCheckFlag1=0;OverloadCheckFlag2=0;Logger("S7 Limit Switch Stop",1);ClearTasks(9);
	MOVLW       1
	MOVWF       FARG_StopMotor+0 
	CALL        _StopMotor+0, 0
	MOVLW       2
	MOVWF       FARG_StopMotor+0 
	CALL        _StopMotor+0, 0
	MOVLW       6
	MOVWF       _State+0 
	CLRF        _OverloadCheckFlag1+0 
	CLRF        _OverloadCheckFlag2+0 
	MOVLW       ?lstr56_FirmV_0_7_0+0
	MOVWF       FARG_Logger_text+0 
	MOVLW       hi_addr(?lstr56_FirmV_0_7_0+0)
	MOVWF       FARG_Logger_text+1 
	MOVLW       1
	MOVWF       FARG_Logger_TimeStampFlag+0 
	CALL        _Logger+0, 0
	MOVLW       9
	MOVWF       FARG_ClearTasks+0 
	CALL        _ClearTasks+0, 0
;FirmV_0_7_0.c,1257 :: 		memcpy(LCDLine2,_ErrLimit,16);LCDUpdateFlag=1;LCDLines=1;}
	MOVLW       _LCDLine2+0
	MOVWF       FARG_memcpy_d1+0 
	MOVLW       hi_addr(_LCDLine2+0)
	MOVWF       FARG_memcpy_d1+1 
	MOVLW       __errLimit+0
	MOVWF       FARG_memcpy_s1+0 
	MOVLW       hi_addr(__errLimit+0)
	MOVWF       FARG_memcpy_s1+1 
	MOVLW       16
	MOVWF       FARG_memcpy_n+0 
	MOVLW       0
	MOVWF       FARG_memcpy_n+1 
	CALL        _memcpy+0, 0
	MOVLW       1
	MOVWF       _LCDUpdateFlag+0 
	MOVLW       1
	MOVWF       _LCDLines+0 
L_State7268:
;FirmV_0_7_0.c,1258 :: 		}
L_State7263:
;FirmV_0_7_0.c,1261 :: 		if(CloseDone==0)
	MOVF        _CloseDone+0, 0 
	XORLW       0
	BTFSS       STATUS+0, 2 
	GOTO        L_State7269
;FirmV_0_7_0.c,1262 :: 		if(ReverseOnClose)
	MOVF        _ReverseOnClose+0, 1 
	BTFSC       STATUS+0, 2 
	GOTO        L_State7270
;FirmV_0_7_0.c,1263 :: 		{StartMotor(1,_Open);AddTask(ms500+1,14);SetMotorSpeed(1,Motor2FullSpeed);OverloadCheckFlag1=0; M1isSlow=0;SetMotorSpeed(Motor1FullSpeed,1);OverloadCheckFlag2=0; M2isSlow=0;
	MOVLW       1
	MOVWF       FARG_StartMotor+0 
	MOVLW       1
	MOVWF       FARG_StartMotor+0 
	CALL        _StartMotor+0, 0
	MOVLW       1
	ADDWF       _ms500+0, 0 
	MOVWF       FARG_AddTask+0 
	MOVLW       0
	ADDWFC      _ms500+1, 0 
	MOVWF       FARG_AddTask+1 
	MOVLW       0
	ADDWFC      _ms500+2, 0 
	MOVWF       FARG_AddTask+2 
	MOVLW       0
	ADDWFC      _ms500+3, 0 
	MOVWF       FARG_AddTask+3 
	MOVLW       14
	MOVWF       FARG_AddTask+0 
	CALL        _AddTask+0, 0
	MOVLW       1
	MOVWF       FARG_SetMotorSpeed+0 
	MOVF        _Motor2FullSpeed+0, 0 
	MOVWF       FARG_SetMotorSpeed+0 
	CALL        _SetMotorSpeed+0, 0
	CLRF        _OverloadCheckFlag1+0 
	CLRF        _M1isSlow+0 
	MOVF        _Motor1FullSpeed+0, 0 
	MOVWF       FARG_SetMotorSpeed+0 
	MOVLW       1
	MOVWF       FARG_SetMotorSpeed+0 
	CALL        _SetMotorSpeed+0, 0
	CLRF        _OverloadCheckFlag2+0 
	CLRF        _M2isSlow+0 
;FirmV_0_7_0.c,1264 :: 		AddTask(ms500+RelaseTime,3);AddTask(ms500+1+RelaseTime,4);AddTask(ms500+1+RelaseTime,13);CloseDone.b2=1;}
	MOVLW       1
	ADDWF       _ms500+0, 0 
	MOVWF       FARG_AddTask+0 
	MOVLW       0
	ADDWFC      _ms500+1, 0 
	MOVWF       FARG_AddTask+1 
	MOVLW       0
	ADDWFC      _ms500+2, 0 
	MOVWF       FARG_AddTask+2 
	MOVLW       0
	ADDWFC      _ms500+3, 0 
	MOVWF       FARG_AddTask+3 
	MOVLW       3
	MOVWF       FARG_AddTask+0 
	CALL        _AddTask+0, 0
	MOVLW       1
	ADDWF       _ms500+0, 0 
	MOVWF       FARG_AddTask+0 
	MOVLW       0
	ADDWFC      _ms500+1, 0 
	MOVWF       FARG_AddTask+1 
	MOVLW       0
	ADDWFC      _ms500+2, 0 
	MOVWF       FARG_AddTask+2 
	MOVLW       0
	ADDWFC      _ms500+3, 0 
	MOVWF       FARG_AddTask+3 
	MOVLW       1
	ADDWF       FARG_AddTask+0, 1 
	MOVLW       0
	ADDWFC      FARG_AddTask+1, 1 
	ADDWFC      FARG_AddTask+2, 1 
	ADDWFC      FARG_AddTask+3, 1 
	MOVLW       4
	MOVWF       FARG_AddTask+0 
	CALL        _AddTask+0, 0
	MOVLW       1
	ADDWF       _ms500+0, 0 
	MOVWF       FARG_AddTask+0 
	MOVLW       0
	ADDWFC      _ms500+1, 0 
	MOVWF       FARG_AddTask+1 
	MOVLW       0
	ADDWFC      _ms500+2, 0 
	MOVWF       FARG_AddTask+2 
	MOVLW       0
	ADDWFC      _ms500+3, 0 
	MOVWF       FARG_AddTask+3 
	MOVLW       1
	ADDWF       FARG_AddTask+0, 1 
	MOVLW       0
	ADDWFC      FARG_AddTask+1, 1 
	ADDWFC      FARG_AddTask+2, 1 
	ADDWFC      FARG_AddTask+3, 1 
	MOVLW       13
	MOVWF       FARG_AddTask+0 
	CALL        _AddTask+0, 0
	BSF         _CloseDone+0, 2 
	GOTO        L_State7271
L_State7270:
;FirmV_0_7_0.c,1266 :: 		{AddTask(ms500+1,13);CloseDone.b2=1;}
	MOVLW       1
	ADDWF       _ms500+0, 0 
	MOVWF       FARG_AddTask+0 
	MOVLW       0
	ADDWFC      _ms500+1, 0 
	MOVWF       FARG_AddTask+1 
	MOVLW       0
	ADDWFC      _ms500+2, 0 
	MOVWF       FARG_AddTask+2 
	MOVLW       0
	ADDWFC      _ms500+3, 0 
	MOVWF       FARG_AddTask+3 
	MOVLW       13
	MOVWF       FARG_AddTask+0 
	CALL        _AddTask+0, 0
	BSF         _CloseDone+0, 2 
L_State7271:
L_State7269:
;FirmV_0_7_0.c,1268 :: 		if(CheckTask(14))
	MOVLW       14
	MOVWF       FARG_CheckTask+0 
	CALL        _CheckTask+0, 0
	MOVF        R0, 1 
	BTFSC       STATUS+0, 2 
	GOTO        L_State7272
;FirmV_0_7_0.c,1269 :: 		StartMotor(2,_Open);
	MOVLW       2
	MOVWF       FARG_StartMotor+0 
	MOVLW       1
	MOVWF       FARG_StartMotor+0 
	CALL        _StartMotor+0, 0
L_State7272:
;FirmV_0_7_0.c,1271 :: 		if(CheckTask(13))
	MOVLW       13
	MOVWF       FARG_CheckTask+0 
	CALL        _CheckTask+0, 0
	MOVF        R0, 1 
	BTFSC       STATUS+0, 2 
	GOTO        L_State7273
;FirmV_0_7_0.c,1272 :: 		{State=1; PassFlag=0;PrevAC=0;ClearTasks(9);memcpy(LCDLine1,_close,16);memcpy(LCDLine2,_Blank,16);LCDUpdateFlag=1;LCDLines=1;}
	MOVLW       1
	MOVWF       _State+0 
	CLRF        _PassFlag+0 
	CLRF        _PrevAC+0 
	MOVLW       9
	MOVWF       FARG_ClearTasks+0 
	CALL        _ClearTasks+0, 0
	MOVLW       _LCDLine1+0
	MOVWF       FARG_memcpy_d1+0 
	MOVLW       hi_addr(_LCDLine1+0)
	MOVWF       FARG_memcpy_d1+1 
	MOVLW       __close+0
	MOVWF       FARG_memcpy_s1+0 
	MOVLW       hi_addr(__close+0)
	MOVWF       FARG_memcpy_s1+1 
	MOVLW       16
	MOVWF       FARG_memcpy_n+0 
	MOVLW       0
	MOVWF       FARG_memcpy_n+1 
	CALL        _memcpy+0, 0
	MOVLW       _LCDLine2+0
	MOVWF       FARG_memcpy_d1+0 
	MOVLW       hi_addr(_LCDLine2+0)
	MOVWF       FARG_memcpy_d1+1 
	MOVLW       __Blank+0
	MOVWF       FARG_memcpy_s1+0 
	MOVLW       hi_addr(__Blank+0)
	MOVWF       FARG_memcpy_s1+1 
	MOVLW       16
	MOVWF       FARG_memcpy_n+0 
	MOVLW       0
	MOVWF       FARG_memcpy_n+1 
	CALL        _memcpy+0, 0
	MOVLW       1
	MOVWF       _LCDUpdateFlag+0 
	MOVLW       1
	MOVWF       _LCDLines+0 
L_State7273:
;FirmV_0_7_0.c,1274 :: 		if((State==5)||(State==6))
	MOVF        _State+0, 0 
	XORLW       5
	BTFSC       STATUS+0, 2 
	GOTO        L__State7924
	MOVF        _State+0, 0 
	XORLW       6
	BTFSC       STATUS+0, 2 
	GOTO        L__State7924
	GOTO        L_State7276
L__State7924:
;FirmV_0_7_0.c,1275 :: 		{ClearTasks(0);if(AutoCloseTime!=0){AddTask(ms500+AutoCloseTime,9);AutoClosePauseFlag=0;PrevAC=0;Logger("S7 Autoclose Renewed",1);}}
	CLRF        FARG_ClearTasks+0 
	CALL        _ClearTasks+0, 0
	MOVLW       0
	XORWF       _AutoCloseTime+1, 0 
	BTFSS       STATUS+0, 2 
	GOTO        L__State71044
	MOVLW       0
	XORWF       _AutoCloseTime+0, 0 
L__State71044:
	BTFSC       STATUS+0, 2 
	GOTO        L_State7277
	MOVF        _AutoCloseTime+0, 0 
	ADDWF       _ms500+0, 0 
	MOVWF       FARG_AddTask+0 
	MOVF        _AutoCloseTime+1, 0 
	ADDWFC      _ms500+1, 0 
	MOVWF       FARG_AddTask+1 
	MOVLW       0
	ADDWFC      _ms500+2, 0 
	MOVWF       FARG_AddTask+2 
	MOVLW       0
	ADDWFC      _ms500+3, 0 
	MOVWF       FARG_AddTask+3 
	MOVLW       9
	MOVWF       FARG_AddTask+0 
	CALL        _AddTask+0, 0
	CLRF        _AutoClosePauseFlag+0 
	CLRF        _PrevAC+0 
	MOVLW       ?lstr57_FirmV_0_7_0+0
	MOVWF       FARG_Logger_text+0 
	MOVLW       hi_addr(?lstr57_FirmV_0_7_0+0)
	MOVWF       FARG_Logger_text+1 
	MOVLW       1
	MOVWF       FARG_Logger_TimeStampFlag+0 
	CALL        _Logger+0, 0
L_State7277:
L_State7276:
;FirmV_0_7_0.c,1278 :: 		}
L_end_State7:
	RETURN      0
; end of _State7

_State8:

;FirmV_0_7_0.c,1295 :: 		void State8()
;FirmV_0_7_0.c,1297 :: 		Flasher=1;
	BSF         PORTD+0, 7 
;FirmV_0_7_0.c,1298 :: 		FlashFlag=1;
	MOVLW       1
	MOVWF       _FlashFlag+0 
;FirmV_0_7_0.c,1300 :: 		if(CheckTask(1))
	MOVLW       1
	MOVWF       FARG_CheckTask+0 
	CALL        _CheckTask+0, 0
	MOVF        R0, 1 
	BTFSC       STATUS+0, 2 
	GOTO        L_State8278
;FirmV_0_7_0.c,1301 :: 		{StartMotor(1,_Open);Logger("S8 Motor1Start",1); Lock=0;memcpy(LCDLine1,_opening,16);memcpy(LCDLine2,_Blank,16);LCDUpdateFlag=1;LCDLines=1;}
	MOVLW       1
	MOVWF       FARG_StartMotor+0 
	MOVLW       1
	MOVWF       FARG_StartMotor+0 
	CALL        _StartMotor+0, 0
	MOVLW       ?lstr58_FirmV_0_7_0+0
	MOVWF       FARG_Logger_text+0 
	MOVLW       hi_addr(?lstr58_FirmV_0_7_0+0)
	MOVWF       FARG_Logger_text+1 
	MOVLW       1
	MOVWF       FARG_Logger_TimeStampFlag+0 
	CALL        _Logger+0, 0
	BCF         PORTD+0, 6 
	MOVLW       _LCDLine1+0
	MOVWF       FARG_memcpy_d1+0 
	MOVLW       hi_addr(_LCDLine1+0)
	MOVWF       FARG_memcpy_d1+1 
	MOVLW       __opening+0
	MOVWF       FARG_memcpy_s1+0 
	MOVLW       hi_addr(__opening+0)
	MOVWF       FARG_memcpy_s1+1 
	MOVLW       16
	MOVWF       FARG_memcpy_n+0 
	MOVLW       0
	MOVWF       FARG_memcpy_n+1 
	CALL        _memcpy+0, 0
	MOVLW       _LCDLine2+0
	MOVWF       FARG_memcpy_d1+0 
	MOVLW       hi_addr(_LCDLine2+0)
	MOVWF       FARG_memcpy_d1+1 
	MOVLW       __Blank+0
	MOVWF       FARG_memcpy_s1+0 
	MOVLW       hi_addr(__Blank+0)
	MOVWF       FARG_memcpy_s1+1 
	MOVLW       16
	MOVWF       FARG_memcpy_n+0 
	MOVLW       0
	MOVWF       FARG_memcpy_n+1 
	CALL        _memcpy+0, 0
	MOVLW       1
	MOVWF       _LCDUpdateFlag+0 
	MOVLW       1
	MOVWF       _LCDLines+0 
L_State8278:
;FirmV_0_7_0.c,1303 :: 		if(CheckTask(2))
	MOVLW       2
	MOVWF       FARG_CheckTask+0 
	CALL        _CheckTask+0, 0
	MOVF        R0, 1 
	BTFSC       STATUS+0, 2 
	GOTO        L_State8279
;FirmV_0_7_0.c,1304 :: 		{StartMotor(2,_Open);Logger("S8 Motor2Start",1); Lock=0;}
	MOVLW       2
	MOVWF       FARG_StartMotor+0 
	MOVLW       1
	MOVWF       FARG_StartMotor+0 
	CALL        _StartMotor+0, 0
	MOVLW       ?lstr59_FirmV_0_7_0+0
	MOVWF       FARG_Logger_text+0 
	MOVLW       hi_addr(?lstr59_FirmV_0_7_0+0)
	MOVWF       FARG_Logger_text+1 
	MOVLW       1
	MOVWF       FARG_Logger_TimeStampFlag+0 
	CALL        _Logger+0, 0
	BCF         PORTD+0, 6 
L_State8279:
;FirmV_0_7_0.c,1306 :: 		if(CheckTask(10))
	MOVLW       10
	MOVWF       FARG_CheckTask+0 
	CALL        _CheckTask+0, 0
	MOVF        R0, 1 
	BTFSC       STATUS+0, 2 
	GOTO        L_State8280
;FirmV_0_7_0.c,1307 :: 		{OverloadCheckFlag1=1; OverloadInit(1);Logger("S8 Overflow Flag1 Set",1);}
	MOVLW       1
	MOVWF       _OverloadCheckFlag1+0 
	MOVLW       1
	MOVWF       FARG_OverloadInit+0 
	CALL        _OverloadInit+0, 0
	MOVLW       ?lstr60_FirmV_0_7_0+0
	MOVWF       FARG_Logger_text+0 
	MOVLW       hi_addr(?lstr60_FirmV_0_7_0+0)
	MOVWF       FARG_Logger_text+1 
	MOVLW       1
	MOVWF       FARG_Logger_TimeStampFlag+0 
	CALL        _Logger+0, 0
L_State8280:
;FirmV_0_7_0.c,1309 :: 		if(CheckTask(11))
	MOVLW       11
	MOVWF       FARG_CheckTask+0 
	CALL        _CheckTask+0, 0
	MOVF        R0, 1 
	BTFSC       STATUS+0, 2 
	GOTO        L_State8281
;FirmV_0_7_0.c,1310 :: 		{OverloadCheckFlag2=1; OverloadInit(2);Logger("S8 Overflow Flag2 Set",1);}
	MOVLW       1
	MOVWF       _OverloadCheckFlag2+0 
	MOVLW       2
	MOVWF       FARG_OverloadInit+0 
	CALL        _OverloadInit+0, 0
	MOVLW       ?lstr61_FirmV_0_7_0+0
	MOVWF       FARG_Logger_text+0 
	MOVLW       hi_addr(?lstr61_FirmV_0_7_0+0)
	MOVWF       FARG_Logger_text+1 
	MOVLW       1
	MOVWF       FARG_Logger_TimeStampFlag+0 
	CALL        _Logger+0, 0
L_State8281:
;FirmV_0_7_0.c,1312 :: 		if(CheckTask(5))
	MOVLW       5
	MOVWF       FARG_CheckTask+0 
	CALL        _CheckTask+0, 0
	MOVF        R0, 1 
	BTFSC       STATUS+0, 2 
	GOTO        L_State8282
;FirmV_0_7_0.c,1313 :: 		{SetMotorSpeed(1,Motor2FullSpeed); M1isSlow=0;Logger("S8 Motor1 Fast",1);}
	MOVLW       1
	MOVWF       FARG_SetMotorSpeed+0 
	MOVF        _Motor2FullSpeed+0, 0 
	MOVWF       FARG_SetMotorSpeed+0 
	CALL        _SetMotorSpeed+0, 0
	CLRF        _M1isSlow+0 
	MOVLW       ?lstr62_FirmV_0_7_0+0
	MOVWF       FARG_Logger_text+0 
	MOVLW       hi_addr(?lstr62_FirmV_0_7_0+0)
	MOVWF       FARG_Logger_text+1 
	MOVLW       1
	MOVWF       FARG_Logger_TimeStampFlag+0 
	CALL        _Logger+0, 0
L_State8282:
;FirmV_0_7_0.c,1315 :: 		if(CheckTask(6))
	MOVLW       6
	MOVWF       FARG_CheckTask+0 
	CALL        _CheckTask+0, 0
	MOVF        R0, 1 
	BTFSC       STATUS+0, 2 
	GOTO        L_State8283
;FirmV_0_7_0.c,1316 :: 		{SetMotorSpeed(Motor1FullSpeed,1); M2isSlow=0;Logger("S8 Motor2 Fast",1);}
	MOVF        _Motor1FullSpeed+0, 0 
	MOVWF       FARG_SetMotorSpeed+0 
	MOVLW       1
	MOVWF       FARG_SetMotorSpeed+0 
	CALL        _SetMotorSpeed+0, 0
	CLRF        _M2isSlow+0 
	MOVLW       ?lstr63_FirmV_0_7_0+0
	MOVWF       FARG_Logger_text+0 
	MOVLW       hi_addr(?lstr63_FirmV_0_7_0+0)
	MOVWF       FARG_Logger_text+1 
	MOVLW       1
	MOVWF       FARG_Logger_TimeStampFlag+0 
	CALL        _Logger+0, 0
L_State8283:
;FirmV_0_7_0.c,1318 :: 		if((CheckTask(3)||((OverloadCheckFlag1==1)&&(Events.Overload.b0==1)))&&(OpenDone.b0))
	MOVLW       3
	MOVWF       FARG_CheckTask+0 
	CALL        _CheckTask+0, 0
	MOVF        R0, 1 
	BTFSS       STATUS+0, 2 
	GOTO        L__State8941
	MOVF        _OverloadCheckFlag1+0, 0 
	XORLW       1
	BTFSS       STATUS+0, 2 
	GOTO        L__State8942
	BTFSS       _Events+5, 0 
	GOTO        L__State8942
	GOTO        L__State8941
L__State8942:
	GOTO        L_State8290
L__State8941:
	BTFSS       _OpenDone+0, 0 
	GOTO        L_State8290
L__State8940:
;FirmV_0_7_0.c,1319 :: 		{OpenDone.b0=0; StopMotor(1);Logger("S8 Motor1 Stop",1);}
	BCF         _OpenDone+0, 0 
	MOVLW       1
	MOVWF       FARG_StopMotor+0 
	CALL        _StopMotor+0, 0
	MOVLW       ?lstr64_FirmV_0_7_0+0
	MOVWF       FARG_Logger_text+0 
	MOVLW       hi_addr(?lstr64_FirmV_0_7_0+0)
	MOVWF       FARG_Logger_text+1 
	MOVLW       1
	MOVWF       FARG_Logger_TimeStampFlag+0 
	CALL        _Logger+0, 0
L_State8290:
;FirmV_0_7_0.c,1321 :: 		if((CheckTask(4)||((OverloadCheckFlag2==1)&&(Events.Overload.b1==1)))&&(OpenDone.b1))
	MOVLW       4
	MOVWF       FARG_CheckTask+0 
	CALL        _CheckTask+0, 0
	MOVF        R0, 1 
	BTFSS       STATUS+0, 2 
	GOTO        L__State8938
	MOVF        _OverloadCheckFlag2+0, 0 
	XORLW       1
	BTFSS       STATUS+0, 2 
	GOTO        L__State8939
	BTFSS       _Events+5, 1 
	GOTO        L__State8939
	GOTO        L__State8938
L__State8939:
	GOTO        L_State8297
L__State8938:
	BTFSS       _OpenDone+0, 1 
	GOTO        L_State8297
L__State8937:
;FirmV_0_7_0.c,1322 :: 		{OpenDone.b1=0; StopMotor(2);Logger("S8 Motor2 Stop",1);}
	BCF         _OpenDone+0, 1 
	MOVLW       2
	MOVWF       FARG_StopMotor+0 
	CALL        _StopMotor+0, 0
	MOVLW       ?lstr65_FirmV_0_7_0+0
	MOVWF       FARG_Logger_text+0 
	MOVLW       hi_addr(?lstr65_FirmV_0_7_0+0)
	MOVWF       FARG_Logger_text+1 
	MOVLW       1
	MOVWF       FARG_Logger_TimeStampFlag+0 
	CALL        _Logger+0, 0
L_State8297:
;FirmV_0_7_0.c,1324 :: 		if(CheckTask(12))
	MOVLW       12
	MOVWF       FARG_CheckTask+0 
	CALL        _CheckTask+0, 0
	MOVF        R0, 1 
	BTFSC       STATUS+0, 2 
	GOTO        L_State8298
;FirmV_0_7_0.c,1325 :: 		{Lock=1;}
	BSF         PORTD+0, 6 
L_State8298:
;FirmV_0_7_0.c,1327 :: 		if((Door2OpenTime==0)||(ActiveDoors==1))
	MOVF        _Door2OpenTime+0, 0 
	XORLW       0
	BTFSC       STATUS+0, 2 
	GOTO        L__State8936
	MOVF        _ActiveDoors+0, 0 
	XORLW       1
	BTFSC       STATUS+0, 2 
	GOTO        L__State8936
	GOTO        L_State8301
L__State8936:
;FirmV_0_7_0.c,1328 :: 		OpenDone.b1=0;
	BCF         _OpenDone+0, 1 
L_State8301:
;FirmV_0_7_0.c,1331 :: 		if(KeyNoiseEliminator>=NoiseEliminatorTreshold)
	MOVLW       3
	SUBWF       _KeyNoiseEliminator+0, 0 
	BTFSS       STATUS+0, 0 
	GOTO        L_State8302
;FirmV_0_7_0.c,1333 :: 		if((Events.Photocell.b0==1)&&(OpenPhEnable))
	BTFSS       _Events+6, 0 
	GOTO        L_State8305
	MOVF        _OpenPhEnable+0, 1 
	BTFSC       STATUS+0, 2 
	GOTO        L_State8305
L__State8935:
;FirmV_0_7_0.c,1334 :: 		{StopMotor(1); StopMotor(2);OverloadCheckFlag1=0;OverloadCheckFlag2=0; State=5;Logger("S8 Photocell Int",1);ClearTasks(9);
	MOVLW       1
	MOVWF       FARG_StopMotor+0 
	CALL        _StopMotor+0, 0
	MOVLW       2
	MOVWF       FARG_StopMotor+0 
	CALL        _StopMotor+0, 0
	CLRF        _OverloadCheckFlag1+0 
	CLRF        _OverloadCheckFlag2+0 
	MOVLW       5
	MOVWF       _State+0 
	MOVLW       ?lstr66_FirmV_0_7_0+0
	MOVWF       FARG_Logger_text+0 
	MOVLW       hi_addr(?lstr66_FirmV_0_7_0+0)
	MOVWF       FARG_Logger_text+1 
	MOVLW       1
	MOVWF       FARG_Logger_TimeStampFlag+0 
	CALL        _Logger+0, 0
	MOVLW       9
	MOVWF       FARG_ClearTasks+0 
	CALL        _ClearTasks+0, 0
;FirmV_0_7_0.c,1335 :: 		memcpy(LCDLine1,_ErrPhoto,16);LCDUpdateFlag=1;LCDLines=1;}
	MOVLW       _LCDLine1+0
	MOVWF       FARG_memcpy_d1+0 
	MOVLW       hi_addr(_LCDLine1+0)
	MOVWF       FARG_memcpy_d1+1 
	MOVLW       __errPhoto+0
	MOVWF       FARG_memcpy_s1+0 
	MOVLW       hi_addr(__errPhoto+0)
	MOVWF       FARG_memcpy_s1+1 
	MOVLW       16
	MOVWF       FARG_memcpy_n+0 
	MOVLW       0
	MOVWF       FARG_memcpy_n+1 
	CALL        _memcpy+0, 0
	MOVLW       1
	MOVWF       _LCDUpdateFlag+0 
	MOVLW       1
	MOVWF       _LCDLines+0 
L_State8305:
;FirmV_0_7_0.c,1337 :: 		if((Events.Remote!=0))
	MOVF        _Events+4, 0 
	XORLW       0
	BTFSC       STATUS+0, 2 
	GOTO        L_State8306
;FirmV_0_7_0.c,1338 :: 		{StopMotor(1); StopMotor(2); State=5;OverloadCheckFlag1=0;OverloadCheckFlag2=0; Logger("S8 Motors Stoped (Remote)",1);ClearTasks(9);
	MOVLW       1
	MOVWF       FARG_StopMotor+0 
	CALL        _StopMotor+0, 0
	MOVLW       2
	MOVWF       FARG_StopMotor+0 
	CALL        _StopMotor+0, 0
	MOVLW       5
	MOVWF       _State+0 
	CLRF        _OverloadCheckFlag1+0 
	CLRF        _OverloadCheckFlag2+0 
	MOVLW       ?lstr67_FirmV_0_7_0+0
	MOVWF       FARG_Logger_text+0 
	MOVLW       hi_addr(?lstr67_FirmV_0_7_0+0)
	MOVWF       FARG_Logger_text+1 
	MOVLW       1
	MOVWF       FARG_Logger_TimeStampFlag+0 
	CALL        _Logger+0, 0
	MOVLW       9
	MOVWF       FARG_ClearTasks+0 
	CALL        _ClearTasks+0, 0
;FirmV_0_7_0.c,1339 :: 		memcpy(LCDLine1,_ErrRemote,16);LCDUpdateFlag=1;LCDLines=1;}
	MOVLW       _LCDLine1+0
	MOVWF       FARG_memcpy_d1+0 
	MOVLW       hi_addr(_LCDLine1+0)
	MOVWF       FARG_memcpy_d1+1 
	MOVLW       __errRemote+0
	MOVWF       FARG_memcpy_s1+0 
	MOVLW       hi_addr(__errRemote+0)
	MOVWF       FARG_memcpy_s1+1 
	MOVLW       16
	MOVWF       FARG_memcpy_n+0 
	MOVLW       0
	MOVWF       FARG_memcpy_n+1 
	CALL        _memcpy+0, 0
	MOVLW       1
	MOVWF       _LCDUpdateFlag+0 
	MOVLW       1
	MOVWF       _LCDLines+0 
L_State8306:
;FirmV_0_7_0.c,1341 :: 		if((Events.Limiter==1)&&(LimiterEnable))
	MOVF        _Events+7, 0 
	XORLW       1
	BTFSS       STATUS+0, 2 
	GOTO        L_State8309
	MOVF        _LimiterEnable+0, 1 
	BTFSC       STATUS+0, 2 
	GOTO        L_State8309
L__State8934:
;FirmV_0_7_0.c,1342 :: 		{StopMotor(1); StopMotor(2); State=5;OverloadCheckFlag1=0;OverloadCheckFlag2=0; Logger("S8 Limit Switch Stop",1);ClearTasks(9);
	MOVLW       1
	MOVWF       FARG_StopMotor+0 
	CALL        _StopMotor+0, 0
	MOVLW       2
	MOVWF       FARG_StopMotor+0 
	CALL        _StopMotor+0, 0
	MOVLW       5
	MOVWF       _State+0 
	CLRF        _OverloadCheckFlag1+0 
	CLRF        _OverloadCheckFlag2+0 
	MOVLW       ?lstr68_FirmV_0_7_0+0
	MOVWF       FARG_Logger_text+0 
	MOVLW       hi_addr(?lstr68_FirmV_0_7_0+0)
	MOVWF       FARG_Logger_text+1 
	MOVLW       1
	MOVWF       FARG_Logger_TimeStampFlag+0 
	CALL        _Logger+0, 0
	MOVLW       9
	MOVWF       FARG_ClearTasks+0 
	CALL        _ClearTasks+0, 0
;FirmV_0_7_0.c,1343 :: 		memcpy(LCDLine1,_ErrLimit,16);LCDUpdateFlag=1;LCDLines=1;}
	MOVLW       _LCDLine1+0
	MOVWF       FARG_memcpy_d1+0 
	MOVLW       hi_addr(_LCDLine1+0)
	MOVWF       FARG_memcpy_d1+1 
	MOVLW       __errLimit+0
	MOVWF       FARG_memcpy_s1+0 
	MOVLW       hi_addr(__errLimit+0)
	MOVWF       FARG_memcpy_s1+1 
	MOVLW       16
	MOVWF       FARG_memcpy_n+0 
	MOVLW       0
	MOVWF       FARG_memcpy_n+1 
	CALL        _memcpy+0, 0
	MOVLW       1
	MOVWF       _LCDUpdateFlag+0 
	MOVLW       1
	MOVWF       _LCDLines+0 
L_State8309:
;FirmV_0_7_0.c,1344 :: 		}
L_State8302:
;FirmV_0_7_0.c,1346 :: 		if(OpenDone==0)
	MOVF        _OpenDone+0, 0 
	XORLW       0
	BTFSS       STATUS+0, 2 
	GOTO        L_State8310
;FirmV_0_7_0.c,1348 :: 		if(AutoCloseTime!=0)
	MOVLW       0
	XORWF       _AutoCloseTime+1, 0 
	BTFSS       STATUS+0, 2 
	GOTO        L__State81046
	MOVLW       0
	XORWF       _AutoCloseTime+0, 0 
L__State81046:
	BTFSC       STATUS+0, 2 
	GOTO        L_State8311
;FirmV_0_7_0.c,1349 :: 		{AddTask(ms500+AutoCloseTime,9);}
	MOVF        _AutoCloseTime+0, 0 
	ADDWF       _ms500+0, 0 
	MOVWF       FARG_AddTask+0 
	MOVF        _AutoCloseTime+1, 0 
	ADDWFC      _ms500+1, 0 
	MOVWF       FARG_AddTask+1 
	MOVLW       0
	ADDWFC      _ms500+2, 0 
	MOVWF       FARG_AddTask+2 
	MOVLW       0
	ADDWFC      _ms500+3, 0 
	MOVWF       FARG_AddTask+3 
	MOVLW       9
	MOVWF       FARG_AddTask+0 
	CALL        _AddTask+0, 0
L_State8311:
;FirmV_0_7_0.c,1350 :: 		if(ReverseOnOpen)
	MOVF        _ReverseOnOpen+0, 1 
	BTFSC       STATUS+0, 2 
	GOTO        L_State8312
;FirmV_0_7_0.c,1351 :: 		{StartMotor(1,_Close);StartMotor(2,_Close);SetMotorSpeed(1,Motor2FullSpeed);OverloadCheckFlag1=0; M1isSlow=0;SetMotorSpeed(Motor1FullSpeed,1);OverloadCheckFlag2=0; M2isSlow=0;
	MOVLW       1
	MOVWF       FARG_StartMotor+0 
	CLRF        FARG_StartMotor+0 
	CALL        _StartMotor+0, 0
	MOVLW       2
	MOVWF       FARG_StartMotor+0 
	CLRF        FARG_StartMotor+0 
	CALL        _StartMotor+0, 0
	MOVLW       1
	MOVWF       FARG_SetMotorSpeed+0 
	MOVF        _Motor2FullSpeed+0, 0 
	MOVWF       FARG_SetMotorSpeed+0 
	CALL        _SetMotorSpeed+0, 0
	CLRF        _OverloadCheckFlag1+0 
	CLRF        _M1isSlow+0 
	MOVF        _Motor1FullSpeed+0, 0 
	MOVWF       FARG_SetMotorSpeed+0 
	MOVLW       1
	MOVWF       FARG_SetMotorSpeed+0 
	CALL        _SetMotorSpeed+0, 0
	CLRF        _OverloadCheckFlag2+0 
	CLRF        _M2isSlow+0 
;FirmV_0_7_0.c,1352 :: 		AddTask(ms500+RelaseTime,3);AddTask(ms500+RelaseTime,4);AddTask(ms500+1+RelaseTime,13);OpenDone.b2=1;}
	MOVLW       1
	ADDWF       _ms500+0, 0 
	MOVWF       FARG_AddTask+0 
	MOVLW       0
	ADDWFC      _ms500+1, 0 
	MOVWF       FARG_AddTask+1 
	MOVLW       0
	ADDWFC      _ms500+2, 0 
	MOVWF       FARG_AddTask+2 
	MOVLW       0
	ADDWFC      _ms500+3, 0 
	MOVWF       FARG_AddTask+3 
	MOVLW       3
	MOVWF       FARG_AddTask+0 
	CALL        _AddTask+0, 0
	MOVLW       1
	ADDWF       _ms500+0, 0 
	MOVWF       FARG_AddTask+0 
	MOVLW       0
	ADDWFC      _ms500+1, 0 
	MOVWF       FARG_AddTask+1 
	MOVLW       0
	ADDWFC      _ms500+2, 0 
	MOVWF       FARG_AddTask+2 
	MOVLW       0
	ADDWFC      _ms500+3, 0 
	MOVWF       FARG_AddTask+3 
	MOVLW       4
	MOVWF       FARG_AddTask+0 
	CALL        _AddTask+0, 0
	MOVLW       1
	ADDWF       _ms500+0, 0 
	MOVWF       FARG_AddTask+0 
	MOVLW       0
	ADDWFC      _ms500+1, 0 
	MOVWF       FARG_AddTask+1 
	MOVLW       0
	ADDWFC      _ms500+2, 0 
	MOVWF       FARG_AddTask+2 
	MOVLW       0
	ADDWFC      _ms500+3, 0 
	MOVWF       FARG_AddTask+3 
	MOVLW       1
	ADDWF       FARG_AddTask+0, 1 
	MOVLW       0
	ADDWFC      FARG_AddTask+1, 1 
	ADDWFC      FARG_AddTask+2, 1 
	ADDWFC      FARG_AddTask+3, 1 
	MOVLW       13
	MOVWF       FARG_AddTask+0 
	CALL        _AddTask+0, 0
	BSF         _OpenDone+0, 2 
	GOTO        L_State8313
L_State8312:
;FirmV_0_7_0.c,1354 :: 		{AddTask(ms500+1,13);OpenDone.b2=1;}
	MOVLW       1
	ADDWF       _ms500+0, 0 
	MOVWF       FARG_AddTask+0 
	MOVLW       0
	ADDWFC      _ms500+1, 0 
	MOVWF       FARG_AddTask+1 
	MOVLW       0
	ADDWFC      _ms500+2, 0 
	MOVWF       FARG_AddTask+2 
	MOVLW       0
	ADDWFC      _ms500+3, 0 
	MOVWF       FARG_AddTask+3 
	MOVLW       13
	MOVWF       FARG_AddTask+0 
	CALL        _AddTask+0, 0
	BSF         _OpenDone+0, 2 
L_State8313:
;FirmV_0_7_0.c,1355 :: 		}
L_State8310:
;FirmV_0_7_0.c,1358 :: 		if(CheckTask(13))
	MOVLW       13
	MOVWF       FARG_CheckTask+0 
	CALL        _CheckTask+0, 0
	MOVF        R0, 1 
	BTFSC       STATUS+0, 2 
	GOTO        L_State8314
;FirmV_0_7_0.c,1359 :: 		{State=2; PassFlag=0;PrevAC=0;ClearTasks(9);memcpy(LCDLine1,_open,16);memcpy(LCDLine2,_Blank,16);LCDUpdateFlag=1;LCDLines=1;}
	MOVLW       2
	MOVWF       _State+0 
	CLRF        _PassFlag+0 
	CLRF        _PrevAC+0 
	MOVLW       9
	MOVWF       FARG_ClearTasks+0 
	CALL        _ClearTasks+0, 0
	MOVLW       _LCDLine1+0
	MOVWF       FARG_memcpy_d1+0 
	MOVLW       hi_addr(_LCDLine1+0)
	MOVWF       FARG_memcpy_d1+1 
	MOVLW       __open+0
	MOVWF       FARG_memcpy_s1+0 
	MOVLW       hi_addr(__open+0)
	MOVWF       FARG_memcpy_s1+1 
	MOVLW       16
	MOVWF       FARG_memcpy_n+0 
	MOVLW       0
	MOVWF       FARG_memcpy_n+1 
	CALL        _memcpy+0, 0
	MOVLW       _LCDLine2+0
	MOVWF       FARG_memcpy_d1+0 
	MOVLW       hi_addr(_LCDLine2+0)
	MOVWF       FARG_memcpy_d1+1 
	MOVLW       __Blank+0
	MOVWF       FARG_memcpy_s1+0 
	MOVLW       hi_addr(__Blank+0)
	MOVWF       FARG_memcpy_s1+1 
	MOVLW       16
	MOVWF       FARG_memcpy_n+0 
	MOVLW       0
	MOVWF       FARG_memcpy_n+1 
	CALL        _memcpy+0, 0
	MOVLW       1
	MOVWF       _LCDUpdateFlag+0 
	MOVLW       1
	MOVWF       _LCDLines+0 
L_State8314:
;FirmV_0_7_0.c,1361 :: 		if((State==5)||(State==6))
	MOVF        _State+0, 0 
	XORLW       5
	BTFSC       STATUS+0, 2 
	GOTO        L__State8933
	MOVF        _State+0, 0 
	XORLW       6
	BTFSC       STATUS+0, 2 
	GOTO        L__State8933
	GOTO        L_State8317
L__State8933:
;FirmV_0_7_0.c,1362 :: 		{ClearTasks(0);if(AutoCloseTime!=0){AddTask(ms500+AutoCloseTime,9);AutoClosePauseFlag=0;PrevAC=0;Logger("S8 Autoclose Renewed",1);}}
	CLRF        FARG_ClearTasks+0 
	CALL        _ClearTasks+0, 0
	MOVLW       0
	XORWF       _AutoCloseTime+1, 0 
	BTFSS       STATUS+0, 2 
	GOTO        L__State81047
	MOVLW       0
	XORWF       _AutoCloseTime+0, 0 
L__State81047:
	BTFSC       STATUS+0, 2 
	GOTO        L_State8318
	MOVF        _AutoCloseTime+0, 0 
	ADDWF       _ms500+0, 0 
	MOVWF       FARG_AddTask+0 
	MOVF        _AutoCloseTime+1, 0 
	ADDWFC      _ms500+1, 0 
	MOVWF       FARG_AddTask+1 
	MOVLW       0
	ADDWFC      _ms500+2, 0 
	MOVWF       FARG_AddTask+2 
	MOVLW       0
	ADDWFC      _ms500+3, 0 
	MOVWF       FARG_AddTask+3 
	MOVLW       9
	MOVWF       FARG_AddTask+0 
	CALL        _AddTask+0, 0
	CLRF        _AutoClosePauseFlag+0 
	CLRF        _PrevAC+0 
	MOVLW       ?lstr69_FirmV_0_7_0+0
	MOVWF       FARG_Logger_text+0 
	MOVLW       hi_addr(?lstr69_FirmV_0_7_0+0)
	MOVWF       FARG_Logger_text+1 
	MOVLW       1
	MOVWF       FARG_Logger_TimeStampFlag+0 
	CALL        _Logger+0, 0
L_State8318:
L_State8317:
;FirmV_0_7_0.c,1365 :: 		}
L_end_State8:
	RETURN      0
; end of _State8

_LCDUpdater:

;FirmV_0_7_0.c,1374 :: 		void LCDUpdater()
;FirmV_0_7_0.c,1379 :: 		if(LCDUpdateFlag==1)
	MOVF        _LCDUpdateFlag+0, 0 
	XORLW       1
	BTFSS       STATUS+0, 2 
	GOTO        L_LCDUpdater319
;FirmV_0_7_0.c,1381 :: 		if(LCDLines!=line)
	MOVF        _LCDLines+0, 0 
	XORWF       LCDUpdater_line_L0+0, 0 
	BTFSC       STATUS+0, 2 
	GOTO        L_LCDUpdater320
;FirmV_0_7_0.c,1383 :: 		line=LCDLines;
	MOVF        _LCDLines+0, 0 
	MOVWF       LCDUpdater_line_L0+0 
;FirmV_0_7_0.c,1384 :: 		LCD_init(LCDLines);
	MOVF        _LCDLines+0, 0 
	MOVWF       FARG_LCD_Init+0 
	CALL        _LCD_Init+0, 0
;FirmV_0_7_0.c,1385 :: 		delay_ms(50);
	MOVLW       3
	MOVWF       R11, 0
	MOVLW       138
	MOVWF       R12, 0
	MOVLW       85
	MOVWF       R13, 0
L_LCDUpdater321:
	DECFSZ      R13, 1, 1
	BRA         L_LCDUpdater321
	DECFSZ      R12, 1, 1
	BRA         L_LCDUpdater321
	DECFSZ      R11, 1, 1
	BRA         L_LCDUpdater321
	NOP
	NOP
;FirmV_0_7_0.c,1386 :: 		}
L_LCDUpdater320:
;FirmV_0_7_0.c,1387 :: 		lcd_out(1,0,LCDLine1);
	MOVLW       1
	MOVWF       FARG_LCD_out+0 
	CLRF        FARG_LCD_out+0 
	MOVLW       _LCDLine1+0
	MOVWF       FARG_LCD_out+0 
	MOVLW       hi_addr(_LCDLine1+0)
	MOVWF       FARG_LCD_out+1 
	CALL        _LCD_out+0, 0
;FirmV_0_7_0.c,1388 :: 		if(!LCDFlash)
	MOVF        _LCDFlash+0, 1 
	BTFSS       STATUS+0, 2 
	GOTO        L_LCDUpdater322
;FirmV_0_7_0.c,1389 :: 		lcd_out(2,0,LCDLine2);
	MOVLW       2
	MOVWF       FARG_LCD_out+0 
	CLRF        FARG_LCD_out+0 
	MOVLW       _LCDLine2+0
	MOVWF       FARG_LCD_out+0 
	MOVLW       hi_addr(_LCDLine2+0)
	MOVWF       FARG_LCD_out+1 
	CALL        _LCD_out+0, 0
	GOTO        L_LCDUpdater323
L_LCDUpdater322:
;FirmV_0_7_0.c,1391 :: 		UpdateWhenFlashing=1;
	MOVLW       1
	MOVWF       LCDUpdater_UpdateWhenFlashing_L0+0 
L_LCDUpdater323:
;FirmV_0_7_0.c,1392 :: 		LCDUpdateFlag=0;
	CLRF        _LCDUpdateFlag+0 
;FirmV_0_7_0.c,1393 :: 		LCDTimeout=120;
	MOVLW       120
	MOVWF       _LCDTimeout+0 
;FirmV_0_7_0.c,1394 :: 		}
L_LCDUpdater319:
;FirmV_0_7_0.c,1396 :: 		if(LCDFlash)
	MOVF        _LCDFlash+0, 1 
	BTFSC       STATUS+0, 2 
	GOTO        L_LCDUpdater324
;FirmV_0_7_0.c,1398 :: 		if(((LCDFlashFlag)&&(LastLCDFlashState==0))||((LastLCDFlashState)&&(UpdatewhenFlashing)))
	MOVF        _LCDFlashFlag+0, 1 
	BTFSC       STATUS+0, 2 
	GOTO        L__LCDUpdater948
	MOVF        LCDUpdater_LastLCDFlashState_L0+0, 0 
	XORLW       0
	BTFSS       STATUS+0, 2 
	GOTO        L__LCDUpdater948
	GOTO        L__LCDUpdater946
L__LCDUpdater948:
	MOVF        LCDUpdater_LastLCDFlashState_L0+0, 1 
	BTFSC       STATUS+0, 2 
	GOTO        L__LCDUpdater947
	MOVF        LCDUpdater_UpdateWhenFlashing_L0+0, 1 
	BTFSC       STATUS+0, 2 
	GOTO        L__LCDUpdater947
	GOTO        L__LCDUpdater946
L__LCDUpdater947:
	GOTO        L_LCDUpdater331
L__LCDUpdater946:
;FirmV_0_7_0.c,1399 :: 		{memcpy(LCDLineTemp,LCDLine2,16);LCDLineTemp[0]='>';LCDLineTemp[1]='>';LCDLineTemp[2]='>';LCDLineTemp[13]='<';LCDLineTemp[14]='<';LCDLineTemp[15]='<';lcd_out(2,0,LCDLineTemp);LastLCDFlashState=1;UpdatewhenFlashing=0;}
	MOVLW       LCDUpdater_LCDLineTemp_L0+0
	MOVWF       FARG_memcpy_d1+0 
	MOVLW       hi_addr(LCDUpdater_LCDLineTemp_L0+0)
	MOVWF       FARG_memcpy_d1+1 
	MOVLW       _LCDLine2+0
	MOVWF       FARG_memcpy_s1+0 
	MOVLW       hi_addr(_LCDLine2+0)
	MOVWF       FARG_memcpy_s1+1 
	MOVLW       16
	MOVWF       FARG_memcpy_n+0 
	MOVLW       0
	MOVWF       FARG_memcpy_n+1 
	CALL        _memcpy+0, 0
	MOVLW       62
	MOVWF       LCDUpdater_LCDLineTemp_L0+0 
	MOVLW       62
	MOVWF       LCDUpdater_LCDLineTemp_L0+1 
	MOVLW       62
	MOVWF       LCDUpdater_LCDLineTemp_L0+2 
	MOVLW       60
	MOVWF       LCDUpdater_LCDLineTemp_L0+13 
	MOVLW       60
	MOVWF       LCDUpdater_LCDLineTemp_L0+14 
	MOVLW       60
	MOVWF       LCDUpdater_LCDLineTemp_L0+15 
	MOVLW       2
	MOVWF       FARG_LCD_out+0 
	CLRF        FARG_LCD_out+0 
	MOVLW       LCDUpdater_LCDLineTemp_L0+0
	MOVWF       FARG_LCD_out+0 
	MOVLW       hi_addr(LCDUpdater_LCDLineTemp_L0+0)
	MOVWF       FARG_LCD_out+1 
	CALL        _LCD_out+0, 0
	MOVLW       1
	MOVWF       LCDUpdater_LastLCDFlashState_L0+0 
	CLRF        LCDUpdater_UpdateWhenFlashing_L0+0 
L_LCDUpdater331:
;FirmV_0_7_0.c,1400 :: 		if(((!LCDFlashFlag)&&(LastLCDFlashState!=0))||((!LastLCDFlashState)&&(UpdatewhenFlashing)))
	MOVF        _LCDFlashFlag+0, 1 
	BTFSS       STATUS+0, 2 
	GOTO        L__LCDUpdater945
	MOVF        LCDUpdater_LastLCDFlashState_L0+0, 0 
	XORLW       0
	BTFSC       STATUS+0, 2 
	GOTO        L__LCDUpdater945
	GOTO        L__LCDUpdater943
L__LCDUpdater945:
	MOVF        LCDUpdater_LastLCDFlashState_L0+0, 1 
	BTFSS       STATUS+0, 2 
	GOTO        L__LCDUpdater944
	MOVF        LCDUpdater_UpdateWhenFlashing_L0+0, 1 
	BTFSC       STATUS+0, 2 
	GOTO        L__LCDUpdater944
	GOTO        L__LCDUpdater943
L__LCDUpdater944:
	GOTO        L_LCDUpdater338
L__LCDUpdater943:
;FirmV_0_7_0.c,1401 :: 		{lcd_out(2,0,LCDLine2);LastLCDFlashState=0;UpdatewhenFlashing=0;}
	MOVLW       2
	MOVWF       FARG_LCD_out+0 
	CLRF        FARG_LCD_out+0 
	MOVLW       _LCDLine2+0
	MOVWF       FARG_LCD_out+0 
	MOVLW       hi_addr(_LCDLine2+0)
	MOVWF       FARG_LCD_out+1 
	CALL        _LCD_out+0, 0
	CLRF        LCDUpdater_LastLCDFlashState_L0+0 
	CLRF        LCDUpdater_UpdateWhenFlashing_L0+0 
L_LCDUpdater338:
;FirmV_0_7_0.c,1402 :: 		}
L_LCDUpdater324:
;FirmV_0_7_0.c,1405 :: 		}
L_end_LCDUpdater:
	RETURN      0
; end of _LCDUpdater

_Init:

;FirmV_0_7_0.c,1425 :: 		void Init()
;FirmV_0_7_0.c,1427 :: 		char i=0;
	CLRF        Init_i_L0+0 
;FirmV_0_7_0.c,1429 :: 		porta=0;
	CLRF        PORTA+0 
;FirmV_0_7_0.c,1430 :: 		portb=0;
	CLRF        PORTB+0 
;FirmV_0_7_0.c,1431 :: 		portc=0;
	CLRF        PORTC+0 
;FirmV_0_7_0.c,1432 :: 		portd=0;
	CLRF        PORTD+0 
;FirmV_0_7_0.c,1433 :: 		porte=0;
	CLRF        PORTE+0 
;FirmV_0_7_0.c,1434 :: 		trisa=0b101111;
	MOVLW       47
	MOVWF       TRISA+0 
;FirmV_0_7_0.c,1435 :: 		trisb=0b00000111;
	MOVLW       7
	MOVWF       TRISB+0 
;FirmV_0_7_0.c,1436 :: 		trisc=0b10000100;
	MOVLW       132
	MOVWF       TRISC+0 
;FirmV_0_7_0.c,1437 :: 		trisd=0b00111111;
	MOVLW       63
	MOVWF       TRISD+0 
;FirmV_0_7_0.c,1438 :: 		trise=0b001;
	MOVLW       1
	MOVWF       TRISE+0 
;FirmV_0_7_0.c,1439 :: 		adcon1=0b1100;  // an6, an5 and an7 is digital
	MOVLW       12
	MOVWF       ADCON1+0 
;FirmV_0_7_0.c,1445 :: 		LCDBackLight=1;
	BSF         PORTA+0, 4 
;FirmV_0_7_0.c,1446 :: 		I2C1_init(100000);
	MOVLW       100
	MOVWF       SSPADD+0 
	CALL        _I2C1_Init+0, 0
;FirmV_0_7_0.c,1448 :: 		delay_ms(100);
	MOVLW       6
	MOVWF       R11, 0
	MOVLW       19
	MOVWF       R12, 0
	MOVLW       173
	MOVWF       R13, 0
L_Init339:
	DECFSZ      R13, 1, 1
	BRA         L_Init339
	DECFSZ      R12, 1, 1
	BRA         L_Init339
	DECFSZ      R11, 1, 1
	BRA         L_Init339
	NOP
	NOP
;FirmV_0_7_0.c,1450 :: 		LCD_init(1);
	MOVLW       1
	MOVWF       FARG_LCD_Init+0 
	CALL        _LCD_Init+0, 0
;FirmV_0_7_0.c,1451 :: 		LCDLines=1;
	MOVLW       1
	MOVWF       _LCDLines+0 
;FirmV_0_7_0.c,1452 :: 		delay_ms(300);
	MOVLW       16
	MOVWF       R11, 0
	MOVLW       57
	MOVWF       R12, 0
	MOVLW       13
	MOVWF       R13, 0
L_Init340:
	DECFSZ      R13, 1, 1
	BRA         L_Init340
	DECFSZ      R12, 1, 1
	BRA         L_Init340
	DECFSZ      R11, 1, 1
	BRA         L_Init340
	NOP
	NOP
;FirmV_0_7_0.c,1453 :: 		SetContrast(20);
	MOVLW       20
	MOVWF       FARG_SetContrast+0 
	CALL        _SetContrast+0, 0
;FirmV_0_7_0.c,1456 :: 		ms500=0;
	CLRF        _ms500+0 
	CLRF        _ms500+1 
	CLRF        _ms500+2 
	CLRF        _ms500+3 
;FirmV_0_7_0.c,1457 :: 		t0con=0b10000101; //enable tmr0 and prescalar
	MOVLW       133
	MOVWF       T0CON+0 
;FirmV_0_7_0.c,1458 :: 		intcon.b7=1;   //global int enable
	BSF         INTCON+0, 7 
;FirmV_0_7_0.c,1459 :: 		intcon.b5=1;  //tmr0 int enable
	BSF         INTCON+0, 5 
;FirmV_0_7_0.c,1460 :: 		intcon.b2=0; //tmr0 flag
	BCF         INTCON+0, 2 
;FirmV_0_7_0.c,1461 :: 		tmr0h=0xF3;
	MOVLW       243
	MOVWF       TMR0H+0 
;FirmV_0_7_0.c,1462 :: 		tmr0l=0xCA;
	MOVLW       202
	MOVWF       TMR0L+0 
;FirmV_0_7_0.c,1466 :: 		t1con=0b00011000;
	MOVLW       24
	MOVWF       T1CON+0 
;FirmV_0_7_0.c,1467 :: 		PEIE_GIEL_bit=1;
	BSF         PEIE_GIEL_bit+0, BitPos(PEIE_GIEL_bit+0) 
;FirmV_0_7_0.c,1468 :: 		TMR1IP_bit=1;
	BSF         TMR1IP_bit+0, BitPos(TMR1IP_bit+0) 
;FirmV_0_7_0.c,1469 :: 		TMR1IF_bit=0;
	BCF         TMR1IF_bit+0, BitPos(TMR1IF_bit+0) 
;FirmV_0_7_0.c,1470 :: 		TMR1IE_bit=0;
	BCF         TMR1IE_bit+0, BitPos(TMR1IE_bit+0) 
;FirmV_0_7_0.c,1474 :: 		t2con=0b00011011;
	MOVLW       27
	MOVWF       T2CON+0 
;FirmV_0_7_0.c,1475 :: 		PEIE_GIEL_bit=1;
	BSF         PEIE_GIEL_bit+0, BitPos(PEIE_GIEL_bit+0) 
;FirmV_0_7_0.c,1476 :: 		TMR2IP_bit=1;
	BSF         TMR2IP_bit+0, BitPos(TMR2IP_bit+0) 
;FirmV_0_7_0.c,1477 :: 		TMR2IF_bit=0;
	BCF         TMR2IF_bit+0, BitPos(TMR2IF_bit+0) 
;FirmV_0_7_0.c,1478 :: 		TMR2IE_bit=0;
	BCF         TMR2IE_bit+0, BitPos(TMR2IE_bit+0) 
;FirmV_0_7_0.c,1479 :: 		PR2=117;
	MOVLW       117
	MOVWF       PR2+0 
;FirmV_0_7_0.c,1483 :: 		t3con=0b00001000;
	MOVLW       8
	MOVWF       T3CON+0 
;FirmV_0_7_0.c,1484 :: 		PEIE_GIEL_bit=1;
	BSF         PEIE_GIEL_bit+0, BitPos(PEIE_GIEL_bit+0) 
;FirmV_0_7_0.c,1485 :: 		TMR3IP_bit=1;
	BSF         TMR3IP_bit+0, BitPos(TMR3IP_bit+0) 
;FirmV_0_7_0.c,1486 :: 		TMR3IF_bit=0;
	BCF         TMR3IF_bit+0, BitPos(TMR3IF_bit+0) 
;FirmV_0_7_0.c,1487 :: 		TMR3IE_bit=0;
	BCF         TMR3IE_bit+0, BitPos(TMR3IE_bit+0) 
;FirmV_0_7_0.c,1491 :: 		INT1IP_bit=1;
	BSF         INT1IP_bit+0, BitPos(INT1IP_bit+0) 
;FirmV_0_7_0.c,1492 :: 		INT1E_bit=1;
	BSF         INT1E_bit+0, BitPos(INT1E_bit+0) 
;FirmV_0_7_0.c,1493 :: 		INT1F_bit=0;
	BCF         INT1F_bit+0, BitPos(INT1F_bit+0) 
;FirmV_0_7_0.c,1494 :: 		INT2IP_bit=1;
	BSF         INT2IP_bit+0, BitPos(INT2IP_bit+0) 
;FirmV_0_7_0.c,1495 :: 		INT2E_bit=1;
	BSF         INT2E_bit+0, BitPos(INT2E_bit+0) 
;FirmV_0_7_0.c,1496 :: 		INT2F_bit=0;
	BCF         INT2F_bit+0, BitPos(INT2F_bit+0) 
;FirmV_0_7_0.c,1497 :: 		INTEDG1_bit=1;
	BSF         INTEDG1_bit+0, BitPos(INTEDG1_bit+0) 
;FirmV_0_7_0.c,1498 :: 		INTEDG2_bit=1;
	BSF         INTEDG2_bit+0, BitPos(INTEDG2_bit+0) 
;FirmV_0_7_0.c,1501 :: 		INT0F_bit=0;
	BCF         INT0F_bit+0, BitPos(INT0F_bit+0) 
;FirmV_0_7_0.c,1502 :: 		INT0E_bit=0;
	BCF         INT0E_bit+0, BitPos(INT0E_bit+0) 
;FirmV_0_7_0.c,1505 :: 		for(i=0;i<20;i++)
	CLRF        Init_i_L0+0 
L_Init341:
	MOVLW       20
	SUBWF       Init_i_L0+0, 0 
	BTFSC       STATUS+0, 0 
	GOTO        L_Init342
;FirmV_0_7_0.c,1506 :: 		Tasks[i].Expired=1;
	MOVLW       7
	MOVWF       R0 
	MOVLW       0
	MOVWF       R1 
	MOVF        Init_i_L0+0, 0 
	MOVWF       R4 
	MOVLW       0
	MOVWF       R5 
	CALL        _Mul_16X16_U+0, 0
	MOVLW       _Tasks+0
	ADDWF       R0, 1 
	MOVLW       hi_addr(_Tasks+0)
	ADDWFC      R1, 1 
	MOVLW       5
	ADDWF       R0, 0 
	MOVWF       FSR1 
	MOVLW       0
	ADDWFC      R1, 0 
	MOVWF       FSR1H 
	MOVLW       1
	MOVWF       POSTINC1+0 
;FirmV_0_7_0.c,1505 :: 		for(i=0;i<20;i++)
	INCF        Init_i_L0+0, 1 
;FirmV_0_7_0.c,1506 :: 		Tasks[i].Expired=1;
	GOTO        L_Init341
L_Init342:
;FirmV_0_7_0.c,1509 :: 		Events.Keys=0;
	CLRF        _Events+0 
;FirmV_0_7_0.c,1510 :: 		Events.Task1=0;
	CLRF        _Events+1 
;FirmV_0_7_0.c,1511 :: 		Events.Task2=0;
	CLRF        _Events+2 
;FirmV_0_7_0.c,1512 :: 		Events.Task3=0;
	CLRF        _Events+3 
;FirmV_0_7_0.c,1513 :: 		Events.Remote=0;
	CLRF        _Events+4 
;FirmV_0_7_0.c,1514 :: 		Events.Overload=0;
	CLRF        _Events+5 
;FirmV_0_7_0.c,1515 :: 		Events.Photocell=0;
	CLRF        _Events+6 
;FirmV_0_7_0.c,1518 :: 		State=0;
	CLRF        _State+0 
;FirmV_0_7_0.c,1521 :: 		UART1_init(115200);
	BSF         BAUDCON+0, 3, 0
	CLRF        SPBRGH+0 
	MOVLW       86
	MOVWF       SPBRG+0 
	BSF         TXSTA+0, 2, 0
	CALL        _UART1_Init+0, 0
;FirmV_0_7_0.c,1524 :: 		LoadConfigs();
	CALL        _LoadConfigs+0, 0
;FirmV_0_7_0.c,1528 :: 		}
L_end_Init:
	RETURN      0
; end of _Init

_TaskManager:

;FirmV_0_7_0.c,1542 :: 		void TaskManager()
;FirmV_0_7_0.c,1544 :: 		char i=0;
	CLRF        TaskManager_i_L0+0 
;FirmV_0_7_0.c,1545 :: 		for(i=0;i<20;i++)
	CLRF        TaskManager_i_L0+0 
L_TaskManager344:
	MOVLW       20
	SUBWF       TaskManager_i_L0+0, 0 
	BTFSC       STATUS+0, 0 
	GOTO        L_TaskManager345
;FirmV_0_7_0.c,1546 :: 		if((Tasks[i].Expired==0)&&(Tasks[i].Time==ms500)&&(Tasks[i].Fired==0))
	MOVLW       7
	MOVWF       R0 
	MOVLW       0
	MOVWF       R1 
	MOVF        TaskManager_i_L0+0, 0 
	MOVWF       R4 
	MOVLW       0
	MOVWF       R5 
	CALL        _Mul_16X16_U+0, 0
	MOVLW       _Tasks+0
	ADDWF       R0, 1 
	MOVLW       hi_addr(_Tasks+0)
	ADDWFC      R1, 1 
	MOVLW       5
	ADDWF       R0, 0 
	MOVWF       FSR0 
	MOVLW       0
	ADDWFC      R1, 0 
	MOVWF       FSR0H 
	MOVF        POSTINC0+0, 0 
	XORLW       0
	BTFSS       STATUS+0, 2 
	GOTO        L_TaskManager349
	MOVLW       7
	MOVWF       R0 
	MOVLW       0
	MOVWF       R1 
	MOVF        TaskManager_i_L0+0, 0 
	MOVWF       R4 
	MOVLW       0
	MOVWF       R5 
	CALL        _Mul_16X16_U+0, 0
	MOVLW       _Tasks+0
	ADDWF       R0, 1 
	MOVLW       hi_addr(_Tasks+0)
	ADDWFC      R1, 1 
	MOVLW       1
	ADDWF       R0, 0 
	MOVWF       FSR0 
	MOVLW       0
	ADDWFC      R1, 0 
	MOVWF       FSR0H 
	MOVF        POSTINC0+0, 0 
	MOVWF       R1 
	MOVF        POSTINC0+0, 0 
	MOVWF       R2 
	MOVF        POSTINC0+0, 0 
	MOVWF       R3 
	MOVF        POSTINC0+0, 0 
	MOVWF       R4 
	MOVF        R4, 0 
	XORWF       _ms500+3, 0 
	BTFSS       STATUS+0, 2 
	GOTO        L__TaskManager1051
	MOVF        R3, 0 
	XORWF       _ms500+2, 0 
	BTFSS       STATUS+0, 2 
	GOTO        L__TaskManager1051
	MOVF        R2, 0 
	XORWF       _ms500+1, 0 
	BTFSS       STATUS+0, 2 
	GOTO        L__TaskManager1051
	MOVF        R1, 0 
	XORWF       _ms500+0, 0 
L__TaskManager1051:
	BTFSS       STATUS+0, 2 
	GOTO        L_TaskManager349
	MOVLW       7
	MOVWF       R0 
	MOVLW       0
	MOVWF       R1 
	MOVF        TaskManager_i_L0+0, 0 
	MOVWF       R4 
	MOVLW       0
	MOVWF       R5 
	CALL        _Mul_16X16_U+0, 0
	MOVLW       _Tasks+0
	ADDWF       R0, 1 
	MOVLW       hi_addr(_Tasks+0)
	ADDWFC      R1, 1 
	MOVLW       6
	ADDWF       R0, 0 
	MOVWF       FSR0 
	MOVLW       0
	ADDWFC      R1, 0 
	MOVWF       FSR0H 
	MOVF        POSTINC0+0, 0 
	XORLW       0
	BTFSS       STATUS+0, 2 
	GOTO        L_TaskManager349
L__TaskManager949:
;FirmV_0_7_0.c,1547 :: 		Tasks[i].Fired=1;
	MOVLW       7
	MOVWF       R0 
	MOVLW       0
	MOVWF       R1 
	MOVF        TaskManager_i_L0+0, 0 
	MOVWF       R4 
	MOVLW       0
	MOVWF       R5 
	CALL        _Mul_16X16_U+0, 0
	MOVLW       _Tasks+0
	ADDWF       R0, 1 
	MOVLW       hi_addr(_Tasks+0)
	ADDWFC      R1, 1 
	MOVLW       6
	ADDWF       R0, 0 
	MOVWF       FSR1 
	MOVLW       0
	ADDWFC      R1, 0 
	MOVWF       FSR1H 
	MOVLW       1
	MOVWF       POSTINC1+0 
L_TaskManager349:
;FirmV_0_7_0.c,1545 :: 		for(i=0;i<20;i++)
	INCF        TaskManager_i_L0+0, 1 
;FirmV_0_7_0.c,1547 :: 		Tasks[i].Fired=1;
	GOTO        L_TaskManager344
L_TaskManager345:
;FirmV_0_7_0.c,1548 :: 		}
L_end_TaskManager:
	RETURN      0
; end of _TaskManager

_AddTask:

;FirmV_0_7_0.c,1560 :: 		void AddTask(unsigned long OccTime,char tcode)
;FirmV_0_7_0.c,1563 :: 		for(i=0;i<20;i++)
	CLRF        AddTask_i_L0+0 
L_AddTask350:
	MOVLW       20
	SUBWF       AddTask_i_L0+0, 0 
	BTFSC       STATUS+0, 0 
	GOTO        L_AddTask351
;FirmV_0_7_0.c,1564 :: 		if(Tasks[i].Expired==1)
	MOVLW       7
	MOVWF       R0 
	MOVLW       0
	MOVWF       R1 
	MOVF        AddTask_i_L0+0, 0 
	MOVWF       R4 
	MOVLW       0
	MOVWF       R5 
	CALL        _Mul_16X16_U+0, 0
	MOVLW       _Tasks+0
	ADDWF       R0, 1 
	MOVLW       hi_addr(_Tasks+0)
	ADDWFC      R1, 1 
	MOVLW       5
	ADDWF       R0, 0 
	MOVWF       FSR0 
	MOVLW       0
	ADDWFC      R1, 0 
	MOVWF       FSR0H 
	MOVF        POSTINC0+0, 0 
	XORLW       1
	BTFSS       STATUS+0, 2 
	GOTO        L_AddTask353
;FirmV_0_7_0.c,1566 :: 		Tasks[i].TaskCode=tcode;
	MOVLW       7
	MOVWF       R0 
	MOVLW       0
	MOVWF       R1 
	MOVF        AddTask_i_L0+0, 0 
	MOVWF       R4 
	MOVLW       0
	MOVWF       R5 
	CALL        _Mul_16X16_U+0, 0
	MOVLW       _Tasks+0
	ADDWF       R0, 0 
	MOVWF       FSR1 
	MOVLW       hi_addr(_Tasks+0)
	ADDWFC      R1, 0 
	MOVWF       FSR1H 
	MOVF        FARG_AddTask_tcode+0, 0 
	MOVWF       POSTINC1+0 
;FirmV_0_7_0.c,1567 :: 		Tasks[i].Time=OccTime;
	MOVLW       7
	MOVWF       R0 
	MOVLW       0
	MOVWF       R1 
	MOVF        AddTask_i_L0+0, 0 
	MOVWF       R4 
	MOVLW       0
	MOVWF       R5 
	CALL        _Mul_16X16_U+0, 0
	MOVLW       _Tasks+0
	ADDWF       R0, 1 
	MOVLW       hi_addr(_Tasks+0)
	ADDWFC      R1, 1 
	MOVLW       1
	ADDWF       R0, 0 
	MOVWF       FSR1 
	MOVLW       0
	ADDWFC      R1, 0 
	MOVWF       FSR1H 
	MOVF        FARG_AddTask_OccTime+0, 0 
	MOVWF       POSTINC1+0 
	MOVF        FARG_AddTask_OccTime+1, 0 
	MOVWF       POSTINC1+0 
	MOVF        FARG_AddTask_OccTime+2, 0 
	MOVWF       POSTINC1+0 
	MOVF        FARG_AddTask_OccTime+3, 0 
	MOVWF       POSTINC1+0 
;FirmV_0_7_0.c,1568 :: 		Tasks[i].Expired=0;
	MOVLW       7
	MOVWF       R0 
	MOVLW       0
	MOVWF       R1 
	MOVF        AddTask_i_L0+0, 0 
	MOVWF       R4 
	MOVLW       0
	MOVWF       R5 
	CALL        _Mul_16X16_U+0, 0
	MOVLW       _Tasks+0
	ADDWF       R0, 1 
	MOVLW       hi_addr(_Tasks+0)
	ADDWFC      R1, 1 
	MOVLW       5
	ADDWF       R0, 0 
	MOVWF       FSR1 
	MOVLW       0
	ADDWFC      R1, 0 
	MOVWF       FSR1H 
	CLRF        POSTINC1+0 
;FirmV_0_7_0.c,1569 :: 		Tasks[i].Fired=0;
	MOVLW       7
	MOVWF       R0 
	MOVLW       0
	MOVWF       R1 
	MOVF        AddTask_i_L0+0, 0 
	MOVWF       R4 
	MOVLW       0
	MOVWF       R5 
	CALL        _Mul_16X16_U+0, 0
	MOVLW       _Tasks+0
	ADDWF       R0, 1 
	MOVLW       hi_addr(_Tasks+0)
	ADDWFC      R1, 1 
	MOVLW       6
	ADDWF       R0, 0 
	MOVWF       FSR1 
	MOVLW       0
	ADDWFC      R1, 0 
	MOVWF       FSR1H 
	CLRF        POSTINC1+0 
;FirmV_0_7_0.c,1570 :: 		break;
	GOTO        L_AddTask351
;FirmV_0_7_0.c,1571 :: 		}
L_AddTask353:
;FirmV_0_7_0.c,1563 :: 		for(i=0;i<20;i++)
	INCF        AddTask_i_L0+0, 1 
;FirmV_0_7_0.c,1571 :: 		}
	GOTO        L_AddTask350
L_AddTask351:
;FirmV_0_7_0.c,1572 :: 		}
L_end_AddTask:
	RETURN      0
; end of _AddTask

_EventHandler:

;FirmV_0_7_0.c,1582 :: 		void EventHandler()
;FirmV_0_7_0.c,1585 :: 		Events.ExternalKeys=GetExternalKeysState();
	CALL        _GetExternalKeysState+0, 0
	MOVF        R0, 0 
	MOVWF       _Events+8 
;FirmV_0_7_0.c,1586 :: 		Events.Limiter=GetLimitSwitchState();
	CALL        _GetLimitSwitchState+0, 0
	MOVF        R0, 0 
	MOVWF       _Events+7 
;FirmV_0_7_0.c,1587 :: 		Events.Keys=GetKeysState();
	CALL        _GetKeysState+0, 0
	MOVF        R0, 0 
	MOVWF       _Events+0 
;FirmV_0_7_0.c,1588 :: 		Events.Remote=GetRemoteState();
	CALL        _GetRemoteState+0, 0
	MOVF        R0, 0 
	MOVWF       _Events+4 
;FirmV_0_7_0.c,1589 :: 		Events.Overload=GetOverloadState();
	CALL        _GetOverloadState+0, 0
	MOVF        R0, 0 
	MOVWF       _Events+5 
;FirmV_0_7_0.c,1590 :: 		Events.Photocell=GetPhotocellState();
	CALL        _GetPhotocellState+0, 0
	MOVF        R0, 0 
	MOVWF       _Events+6 
;FirmV_0_7_0.c,1592 :: 		for(i=0;i<20;i++)
	CLRF        EventHandler_i_L0+0 
L_EventHandler354:
	MOVLW       20
	SUBWF       EventHandler_i_L0+0, 0 
	BTFSC       STATUS+0, 0 
	GOTO        L_EventHandler355
;FirmV_0_7_0.c,1593 :: 		if((Tasks[i].Expired==0)&&(Tasks[i].Fired==1))
	MOVLW       7
	MOVWF       R0 
	MOVLW       0
	MOVWF       R1 
	MOVF        EventHandler_i_L0+0, 0 
	MOVWF       R4 
	MOVLW       0
	MOVWF       R5 
	CALL        _Mul_16X16_U+0, 0
	MOVLW       _Tasks+0
	ADDWF       R0, 1 
	MOVLW       hi_addr(_Tasks+0)
	ADDWFC      R1, 1 
	MOVLW       5
	ADDWF       R0, 0 
	MOVWF       FSR0 
	MOVLW       0
	ADDWFC      R1, 0 
	MOVWF       FSR0H 
	MOVF        POSTINC0+0, 0 
	XORLW       0
	BTFSS       STATUS+0, 2 
	GOTO        L_EventHandler359
	MOVLW       7
	MOVWF       R0 
	MOVLW       0
	MOVWF       R1 
	MOVF        EventHandler_i_L0+0, 0 
	MOVWF       R4 
	MOVLW       0
	MOVWF       R5 
	CALL        _Mul_16X16_U+0, 0
	MOVLW       _Tasks+0
	ADDWF       R0, 1 
	MOVLW       hi_addr(_Tasks+0)
	ADDWFC      R1, 1 
	MOVLW       6
	ADDWF       R0, 0 
	MOVWF       FSR0 
	MOVLW       0
	ADDWFC      R1, 0 
	MOVWF       FSR0H 
	MOVF        POSTINC0+0, 0 
	XORLW       1
	BTFSS       STATUS+0, 2 
	GOTO        L_EventHandler359
L__EventHandler950:
;FirmV_0_7_0.c,1595 :: 		if(Events.Task1==0)
	MOVF        _Events+1, 0 
	XORLW       0
	BTFSS       STATUS+0, 2 
	GOTO        L_EventHandler360
;FirmV_0_7_0.c,1596 :: 		{Events.Task1=Tasks[i].TaskCode; Tasks[i].Expired=1;Tasks[i].Fired=0;}
	MOVLW       7
	MOVWF       R0 
	MOVLW       0
	MOVWF       R1 
	MOVF        EventHandler_i_L0+0, 0 
	MOVWF       R4 
	MOVLW       0
	MOVWF       R5 
	CALL        _Mul_16X16_U+0, 0
	MOVLW       _Tasks+0
	ADDWF       R0, 0 
	MOVWF       R2 
	MOVLW       hi_addr(_Tasks+0)
	ADDWFC      R1, 0 
	MOVWF       R3 
	MOVFF       R2, FSR0
	MOVFF       R3, FSR0H
	MOVF        POSTINC0+0, 0 
	MOVWF       R0 
	MOVF        R0, 0 
	MOVWF       _Events+1 
	MOVLW       5
	ADDWF       R2, 0 
	MOVWF       FSR1 
	MOVLW       0
	ADDWFC      R3, 0 
	MOVWF       FSR1H 
	MOVLW       1
	MOVWF       POSTINC1+0 
	MOVLW       7
	MOVWF       R0 
	MOVLW       0
	MOVWF       R1 
	MOVF        EventHandler_i_L0+0, 0 
	MOVWF       R4 
	MOVLW       0
	MOVWF       R5 
	CALL        _Mul_16X16_U+0, 0
	MOVLW       _Tasks+0
	ADDWF       R0, 1 
	MOVLW       hi_addr(_Tasks+0)
	ADDWFC      R1, 1 
	MOVLW       6
	ADDWF       R0, 0 
	MOVWF       FSR1 
	MOVLW       0
	ADDWFC      R1, 0 
	MOVWF       FSR1H 
	CLRF        POSTINC1+0 
	GOTO        L_EventHandler361
L_EventHandler360:
;FirmV_0_7_0.c,1597 :: 		else if(Events.Task2==0)
	MOVF        _Events+2, 0 
	XORLW       0
	BTFSS       STATUS+0, 2 
	GOTO        L_EventHandler362
;FirmV_0_7_0.c,1598 :: 		{Events.Task2=Tasks[i].TaskCode;Tasks[i].Expired=1;Tasks[i].Fired=0;}
	MOVLW       7
	MOVWF       R0 
	MOVLW       0
	MOVWF       R1 
	MOVF        EventHandler_i_L0+0, 0 
	MOVWF       R4 
	MOVLW       0
	MOVWF       R5 
	CALL        _Mul_16X16_U+0, 0
	MOVLW       _Tasks+0
	ADDWF       R0, 0 
	MOVWF       R2 
	MOVLW       hi_addr(_Tasks+0)
	ADDWFC      R1, 0 
	MOVWF       R3 
	MOVFF       R2, FSR0
	MOVFF       R3, FSR0H
	MOVF        POSTINC0+0, 0 
	MOVWF       R0 
	MOVF        R0, 0 
	MOVWF       _Events+2 
	MOVLW       5
	ADDWF       R2, 0 
	MOVWF       FSR1 
	MOVLW       0
	ADDWFC      R3, 0 
	MOVWF       FSR1H 
	MOVLW       1
	MOVWF       POSTINC1+0 
	MOVLW       7
	MOVWF       R0 
	MOVLW       0
	MOVWF       R1 
	MOVF        EventHandler_i_L0+0, 0 
	MOVWF       R4 
	MOVLW       0
	MOVWF       R5 
	CALL        _Mul_16X16_U+0, 0
	MOVLW       _Tasks+0
	ADDWF       R0, 1 
	MOVLW       hi_addr(_Tasks+0)
	ADDWFC      R1, 1 
	MOVLW       6
	ADDWF       R0, 0 
	MOVWF       FSR1 
	MOVLW       0
	ADDWFC      R1, 0 
	MOVWF       FSR1H 
	CLRF        POSTINC1+0 
	GOTO        L_EventHandler363
L_EventHandler362:
;FirmV_0_7_0.c,1599 :: 		else if(Events.Task3==0)
	MOVF        _Events+3, 0 
	XORLW       0
	BTFSS       STATUS+0, 2 
	GOTO        L_EventHandler364
;FirmV_0_7_0.c,1600 :: 		{Events.Task3=Tasks[i].TaskCode;Tasks[i].Expired=1;Tasks[i].Fired=0;}
	MOVLW       7
	MOVWF       R0 
	MOVLW       0
	MOVWF       R1 
	MOVF        EventHandler_i_L0+0, 0 
	MOVWF       R4 
	MOVLW       0
	MOVWF       R5 
	CALL        _Mul_16X16_U+0, 0
	MOVLW       _Tasks+0
	ADDWF       R0, 0 
	MOVWF       R2 
	MOVLW       hi_addr(_Tasks+0)
	ADDWFC      R1, 0 
	MOVWF       R3 
	MOVFF       R2, FSR0
	MOVFF       R3, FSR0H
	MOVF        POSTINC0+0, 0 
	MOVWF       R0 
	MOVF        R0, 0 
	MOVWF       _Events+3 
	MOVLW       5
	ADDWF       R2, 0 
	MOVWF       FSR1 
	MOVLW       0
	ADDWFC      R3, 0 
	MOVWF       FSR1H 
	MOVLW       1
	MOVWF       POSTINC1+0 
	MOVLW       7
	MOVWF       R0 
	MOVLW       0
	MOVWF       R1 
	MOVF        EventHandler_i_L0+0, 0 
	MOVWF       R4 
	MOVLW       0
	MOVWF       R5 
	CALL        _Mul_16X16_U+0, 0
	MOVLW       _Tasks+0
	ADDWF       R0, 1 
	MOVLW       hi_addr(_Tasks+0)
	ADDWFC      R1, 1 
	MOVLW       6
	ADDWF       R0, 0 
	MOVWF       FSR1 
	MOVLW       0
	ADDWFC      R1, 0 
	MOVWF       FSR1H 
	CLRF        POSTINC1+0 
L_EventHandler364:
L_EventHandler363:
L_EventHandler361:
;FirmV_0_7_0.c,1601 :: 		}
L_EventHandler359:
;FirmV_0_7_0.c,1592 :: 		for(i=0;i<20;i++)
	INCF        EventHandler_i_L0+0, 1 
;FirmV_0_7_0.c,1601 :: 		}
	GOTO        L_EventHandler354
L_EventHandler355:
;FirmV_0_7_0.c,1602 :: 		}
L_end_EventHandler:
	RETURN      0
; end of _EventHandler

_GetKeysState:

;FirmV_0_7_0.c,1612 :: 		char GetKeysState()
;FirmV_0_7_0.c,1614 :: 		unsigned res=0;
;FirmV_0_7_0.c,1618 :: 		char resch=0,fin;
	CLRF        GetKeysState_resch_L0+0 
;FirmV_0_7_0.c,1619 :: 		resch.b0=~KeyDown;
	BTFSC       PORTD+0, 5 
	GOTO        L__GetKeysState1055
	BSF         GetKeysState_resch_L0+0, 0 
	GOTO        L__GetKeysState1056
L__GetKeysState1055:
	BCF         GetKeysState_resch_L0+0, 0 
L__GetKeysState1056:
;FirmV_0_7_0.c,1620 :: 		resch.b1=~KeyMenu;
	BTFSC       PORTE+0, 0 
	GOTO        L__GetKeysState1057
	BSF         GetKeysState_resch_L0+0, 1 
	GOTO        L__GetKeysState1058
L__GetKeysState1057:
	BCF         GetKeysState_resch_L0+0, 1 
L__GetKeysState1058:
;FirmV_0_7_0.c,1621 :: 		resch.b2=~KeyUp;
	BTFSC       PORTD+0, 4 
	GOTO        L__GetKeysState1059
	BSF         GetKeysState_resch_L0+0, 2 
	GOTO        L__GetKeysState1060
L__GetKeysState1059:
	BCF         GetKeysState_resch_L0+0, 2 
L__GetKeysState1060:
;FirmV_0_7_0.c,1623 :: 		if(DebouncingDelayUnpress<DebouncingFix)
	MOVLW       5
	SUBWF       _DebouncingDelayUnpress+0, 0 
	BTFSC       STATUS+0, 0 
	GOTO        L_GetKeysState365
;FirmV_0_7_0.c,1624 :: 		resch=0;
	CLRF        GetKeysState_resch_L0+0 
L_GetKeysState365:
;FirmV_0_7_0.c,1626 :: 		if((resch==0))
	MOVF        GetKeysState_resch_L0+0, 0 
	XORLW       0
	BTFSS       STATUS+0, 2 
	GOTO        L_GetKeysState366
;FirmV_0_7_0.c,1628 :: 		if(Pressed==0)
	MOVF        _Pressed+0, 0 
	XORLW       0
	BTFSS       STATUS+0, 2 
	GOTO        L_GetKeysState367
;FirmV_0_7_0.c,1629 :: 		{Repeat=0;RepeatCount=0;Pressed=0;fin=0;RepeatRate=0;}
	CLRF        GetKeysState_Repeat_L0+0 
	CLRF        GetKeysState_RepeatCount_L0+0 
	CLRF        _Pressed+0 
	CLRF        GetKeysState_fin_L0+0 
	CLRF        GetKeysState_RepeatRate_L0+0 
L_GetKeysState367:
;FirmV_0_7_0.c,1630 :: 		if(Pressed==1)
	MOVF        _Pressed+0, 0 
	XORLW       1
	BTFSS       STATUS+0, 2 
	GOTO        L_GetKeysState368
;FirmV_0_7_0.c,1631 :: 		if(DebouncingDelayPress>=DebouncingFix)
	MOVLW       5
	SUBWF       _DebouncingDelayPress+0, 0 
	BTFSS       STATUS+0, 0 
	GOTO        L_GetKeysState369
;FirmV_0_7_0.c,1632 :: 		{Repeat=0;RepeatCount=0;Pressed=0;fin=0;RepeatRate=0;DebouncingDelayUnpress=0;}
	CLRF        GetKeysState_Repeat_L0+0 
	CLRF        GetKeysState_RepeatCount_L0+0 
	CLRF        _Pressed+0 
	CLRF        GetKeysState_fin_L0+0 
	CLRF        GetKeysState_RepeatRate_L0+0 
	CLRF        _DebouncingDelayUnpress+0 
L_GetKeysState369:
L_GetKeysState368:
;FirmV_0_7_0.c,1633 :: 		}
L_GetKeysState366:
;FirmV_0_7_0.c,1638 :: 		if((Repeat==1)&&(KeyFlag>=RepeatSpeed))
	MOVF        GetKeysState_Repeat_L0+0, 0 
	XORLW       1
	BTFSS       STATUS+0, 2 
	GOTO        L_GetKeysState372
	MOVF        GetKeysState_RepeatSpeed_L0+0, 0 
	SUBWF       _KeyFlag+0, 0 
	BTFSS       STATUS+0, 0 
	GOTO        L_GetKeysState372
L__GetKeysState955:
;FirmV_0_7_0.c,1639 :: 		{RepeatRate=1;KeyFlag=0;if(RepeatCount<25)RepeatCount=RepeatCount+1;}
	MOVLW       1
	MOVWF       GetKeysState_RepeatRate_L0+0 
	CLRF        _KeyFlag+0 
	MOVLW       25
	SUBWF       GetKeysState_RepeatCount_L0+0, 0 
	BTFSC       STATUS+0, 0 
	GOTO        L_GetKeysState373
	INCF        GetKeysState_RepeatCount_L0+0, 1 
L_GetKeysState373:
L_GetKeysState372:
;FirmV_0_7_0.c,1643 :: 		if((resch!=0)&&(Pressed==1)&&(Repeat==0)&&(ms500==PressTime+KeyRepeatDelay))
	MOVF        GetKeysState_resch_L0+0, 0 
	XORLW       0
	BTFSC       STATUS+0, 2 
	GOTO        L_GetKeysState376
	MOVF        _Pressed+0, 0 
	XORLW       1
	BTFSS       STATUS+0, 2 
	GOTO        L_GetKeysState376
	MOVF        GetKeysState_Repeat_L0+0, 0 
	XORLW       0
	BTFSS       STATUS+0, 2 
	GOTO        L_GetKeysState376
	MOVLW       2
	ADDWF       GetKeysState_PressTime_L0+0, 0 
	MOVWF       R1 
	MOVLW       0
	ADDWFC      GetKeysState_PressTime_L0+1, 0 
	MOVWF       R2 
	MOVLW       0
	ADDWFC      GetKeysState_PressTime_L0+2, 0 
	MOVWF       R3 
	MOVLW       0
	ADDWFC      GetKeysState_PressTime_L0+3, 0 
	MOVWF       R4 
	MOVF        _ms500+3, 0 
	XORWF       R4, 0 
	BTFSS       STATUS+0, 2 
	GOTO        L__GetKeysState1061
	MOVF        _ms500+2, 0 
	XORWF       R3, 0 
	BTFSS       STATUS+0, 2 
	GOTO        L__GetKeysState1061
	MOVF        _ms500+1, 0 
	XORWF       R2, 0 
	BTFSS       STATUS+0, 2 
	GOTO        L__GetKeysState1061
	MOVF        _ms500+0, 0 
	XORWF       R1, 0 
L__GetKeysState1061:
	BTFSS       STATUS+0, 2 
	GOTO        L_GetKeysState376
L__GetKeysState954:
;FirmV_0_7_0.c,1644 :: 		{Repeat=1;KeyFlag=0;}
	MOVLW       1
	MOVWF       GetKeysState_Repeat_L0+0 
	CLRF        _KeyFlag+0 
L_GetKeysState376:
;FirmV_0_7_0.c,1646 :: 		if((resch!=0)&&(Pressed==1)&&(Repeat==0))
	MOVF        GetKeysState_resch_L0+0, 0 
	XORLW       0
	BTFSC       STATUS+0, 2 
	GOTO        L_GetKeysState379
	MOVF        _Pressed+0, 0 
	XORLW       1
	BTFSS       STATUS+0, 2 
	GOTO        L_GetKeysState379
	MOVF        GetKeysState_Repeat_L0+0, 0 
	XORLW       0
	BTFSS       STATUS+0, 2 
	GOTO        L_GetKeysState379
L__GetKeysState953:
;FirmV_0_7_0.c,1647 :: 		fin=0;
	CLRF        GetKeysState_fin_L0+0 
L_GetKeysState379:
;FirmV_0_7_0.c,1649 :: 		if((resch!=0)&&(Pressed==1)&&(Repeat==1))
	MOVF        GetKeysState_resch_L0+0, 0 
	XORLW       0
	BTFSC       STATUS+0, 2 
	GOTO        L_GetKeysState382
	MOVF        _Pressed+0, 0 
	XORLW       1
	BTFSS       STATUS+0, 2 
	GOTO        L_GetKeysState382
	MOVF        GetKeysState_Repeat_L0+0, 0 
	XORLW       1
	BTFSS       STATUS+0, 2 
	GOTO        L_GetKeysState382
L__GetKeysState952:
;FirmV_0_7_0.c,1650 :: 		{fin=resch*RepeatRate;RepeatRate=0;}
	MOVF        GetKeysState_resch_L0+0, 0 
	MULWF       GetKeysState_RepeatRate_L0+0 
	MOVF        PRODL+0, 0 
	MOVWF       GetKeysState_fin_L0+0 
	CLRF        GetKeysState_RepeatRate_L0+0 
L_GetKeysState382:
;FirmV_0_7_0.c,1653 :: 		if((resch!=0)&&(Pressed==0))
	MOVF        GetKeysState_resch_L0+0, 0 
	XORLW       0
	BTFSC       STATUS+0, 2 
	GOTO        L_GetKeysState385
	MOVF        _Pressed+0, 0 
	XORLW       0
	BTFSS       STATUS+0, 2 
	GOTO        L_GetKeysState385
L__GetKeysState951:
;FirmV_0_7_0.c,1654 :: 		{fin=resch; Pressed=1;PressTime=ms500;DebouncingDelayPress=0;}
	MOVF        GetKeysState_resch_L0+0, 0 
	MOVWF       GetKeysState_fin_L0+0 
	MOVLW       1
	MOVWF       _Pressed+0 
	MOVF        _ms500+0, 0 
	MOVWF       GetKeysState_PressTime_L0+0 
	MOVF        _ms500+1, 0 
	MOVWF       GetKeysState_PressTime_L0+1 
	MOVF        _ms500+2, 0 
	MOVWF       GetKeysState_PressTime_L0+2 
	MOVF        _ms500+3, 0 
	MOVWF       GetKeysState_PressTime_L0+3 
	CLRF        _DebouncingDelayPress+0 
L_GetKeysState385:
;FirmV_0_7_0.c,1657 :: 		if(fin != 0)
	MOVF        GetKeysState_fin_L0+0, 0 
	XORLW       0
	BTFSC       STATUS+0, 2 
	GOTO        L_GetKeysState386
;FirmV_0_7_0.c,1658 :: 		BuzzFlag=1;
	MOVLW       1
	MOVWF       _BuzzFlag+0 
L_GetKeysState386:
;FirmV_0_7_0.c,1660 :: 		return fin;
	MOVF        GetKeysState_fin_L0+0, 0 
	MOVWF       R0 
;FirmV_0_7_0.c,1661 :: 		}
L_end_GetKeysState:
	RETURN      0
; end of _GetKeysState

_GetExternalKeysState:

;FirmV_0_7_0.c,1671 :: 		char GetExternalKeysState()
;FirmV_0_7_0.c,1673 :: 		char out=0;
	CLRF        GetExternalKeysState_out_L0+0 
;FirmV_0_7_0.c,1674 :: 		if(KeyUp==0)
	BTFSC       PORTD+0, 4 
	GOTO        L_GetExternalKeysState387
;FirmV_0_7_0.c,1675 :: 		out.b0=1;
	BSF         GetExternalKeysState_out_L0+0, 0 
L_GetExternalKeysState387:
;FirmV_0_7_0.c,1676 :: 		if(KeyDown==0)
	BTFSC       PORTD+0, 5 
	GOTO        L_GetExternalKeysState388
;FirmV_0_7_0.c,1677 :: 		out.b1=1;
	BSF         GetExternalKeysState_out_L0+0, 1 
L_GetExternalKeysState388:
;FirmV_0_7_0.c,1678 :: 		return out;
	MOVF        GetExternalKeysState_out_L0+0, 0 
	MOVWF       R0 
;FirmV_0_7_0.c,1679 :: 		}
L_end_GetExternalKeysState:
	RETURN      0
; end of _GetExternalKeysState

_GetLimitSwitchState:

;FirmV_0_7_0.c,1692 :: 		char GetLimitSwitchState()
;FirmV_0_7_0.c,1694 :: 		if((Limit1==0)||(Limit2==0))
	BTFSS       PORTD+0, 0 
	GOTO        L__GetLimitSwitchState958
	BTFSS       PORTD+0, 1 
	GOTO        L__GetLimitSwitchState958
	GOTO        L_GetLimitSwitchState391
L__GetLimitSwitchState958:
;FirmV_0_7_0.c,1696 :: 		if(LimitCounter <= 100)
	MOVF        _LimitCounter+0, 0 
	SUBLW       100
	BTFSS       STATUS+0, 0 
	GOTO        L_GetLimitSwitchState392
;FirmV_0_7_0.c,1697 :: 		LimitCounter=LimitCounter+1;
	INCF        _LimitCounter+0, 1 
L_GetLimitSwitchState392:
;FirmV_0_7_0.c,1698 :: 		}
	GOTO        L_GetLimitSwitchState393
L_GetLimitSwitchState391:
;FirmV_0_7_0.c,1700 :: 		LimitCounter=0;
	CLRF        _LimitCounter+0 
L_GetLimitSwitchState393:
;FirmV_0_7_0.c,1702 :: 		if((LimitCounter >100) && (Limit1 == 0))
	MOVF        _LimitCounter+0, 0 
	SUBLW       100
	BTFSC       STATUS+0, 0 
	GOTO        L_GetLimitSwitchState396
	BTFSC       PORTD+0, 0 
	GOTO        L_GetLimitSwitchState396
L__GetLimitSwitchState957:
;FirmV_0_7_0.c,1703 :: 		return 1;
	MOVLW       1
	MOVWF       R0 
	GOTO        L_end_GetLimitSwitchState
L_GetLimitSwitchState396:
;FirmV_0_7_0.c,1704 :: 		if((LimitCounter >100) && (Limit2 == 0))
	MOVF        _LimitCounter+0, 0 
	SUBLW       100
	BTFSC       STATUS+0, 0 
	GOTO        L_GetLimitSwitchState399
	BTFSC       PORTD+0, 1 
	GOTO        L_GetLimitSwitchState399
L__GetLimitSwitchState956:
;FirmV_0_7_0.c,1705 :: 		return 2;
	MOVLW       2
	MOVWF       R0 
	GOTO        L_end_GetLimitSwitchState
L_GetLimitSwitchState399:
;FirmV_0_7_0.c,1706 :: 		return 0;
	CLRF        R0 
;FirmV_0_7_0.c,1707 :: 		}
L_end_GetLimitSwitchState:
	RETURN      0
; end of _GetLimitSwitchState

_GetRemoteState:

;FirmV_0_7_0.c,1716 :: 		char GetRemoteState()
;FirmV_0_7_0.c,1718 :: 		char res=0;
	CLRF        GetRemoteState_res_L0+0 
;FirmV_0_7_0.c,1719 :: 		res.b0=RemoteAFlag.b0;
	BTFSC       _RemoteAFlag+0, 0 
	GOTO        L__GetRemoteState1065
	BCF         GetRemoteState_res_L0+0, 0 
	GOTO        L__GetRemoteState1066
L__GetRemoteState1065:
	BSF         GetRemoteState_res_L0+0, 0 
L__GetRemoteState1066:
;FirmV_0_7_0.c,1720 :: 		res.b1=RemoteBFlag.b0;
	BTFSC       _RemoteBFlag+0, 0 
	GOTO        L__GetRemoteState1067
	BCF         GetRemoteState_res_L0+0, 1 
	GOTO        L__GetRemoteState1068
L__GetRemoteState1067:
	BSF         GetRemoteState_res_L0+0, 1 
L__GetRemoteState1068:
;FirmV_0_7_0.c,1721 :: 		RemoteAFlag=0;
	CLRF        _RemoteAFlag+0 
;FirmV_0_7_0.c,1722 :: 		RemoteBFlag=0;
	CLRF        _RemoteBFlag+0 
;FirmV_0_7_0.c,1725 :: 		if(State<20)
	MOVLW       20
	SUBWF       _State+0, 0 
	BTFSC       STATUS+0, 0 
	GOTO        L_GetRemoteState400
;FirmV_0_7_0.c,1727 :: 		res.b0=res.b0|Events.Keys.b2;//up key
	BTFSC       GetRemoteState_res_L0+0, 0 
	GOTO        L__GetRemoteState1069
	BTFSC       _Events+0, 2 
	GOTO        L__GetRemoteState1069
	BCF         GetRemoteState_res_L0+0, 0 
	GOTO        L__GetRemoteState1070
L__GetRemoteState1069:
	BSF         GetRemoteState_res_L0+0, 0 
L__GetRemoteState1070:
;FirmV_0_7_0.c,1728 :: 		res.b1=res.b1|Events.Keys.b0;//down key
	BTFSC       GetRemoteState_res_L0+0, 1 
	GOTO        L__GetRemoteState1071
	BTFSC       _Events+0, 0 
	GOTO        L__GetRemoteState1071
	BCF         GetRemoteState_res_L0+0, 1 
	GOTO        L__GetRemoteState1072
L__GetRemoteState1071:
	BSF         GetRemoteState_res_L0+0, 1 
L__GetRemoteState1072:
;FirmV_0_7_0.c,1729 :: 		}
L_GetRemoteState400:
;FirmV_0_7_0.c,1731 :: 		return res;
	MOVF        GetRemoteState_res_L0+0, 0 
	MOVWF       R0 
;FirmV_0_7_0.c,1732 :: 		}
L_end_GetRemoteState:
	RETURN      0
; end of _GetRemoteState

_GetOverloadState:

;FirmV_0_7_0.c,1742 :: 		char GetOverloadState()
;FirmV_0_7_0.c,1744 :: 		char res=0;
	CLRF        GetOverloadState_res_L0+0 
;FirmV_0_7_0.c,1746 :: 		VCapM1=ADC_Read(0);
	CLRF        FARG_ADC_Read_channel+0 
	CALL        _ADC_Read+0, 0
	MOVF        R0, 0 
	MOVWF       _VCapM1+0 
	MOVF        R1, 0 
	MOVWF       _VCapM1+1 
;FirmV_0_7_0.c,1747 :: 		VCapM2=ADC_Read(1);
	MOVLW       1
	MOVWF       FARG_ADC_Read_channel+0 
	CALL        _ADC_Read+0, 0
	MOVF        R0, 0 
	MOVWF       _VCapM2+0 
	MOVF        R1, 0 
	MOVWF       _VCapM2+1 
;FirmV_0_7_0.c,1750 :: 		if(OverloadCheckFlag1==0)
	MOVF        _OverloadCheckFlag1+0, 0 
	XORLW       0
	BTFSS       STATUS+0, 2 
	GOTO        L_GetOverloadState401
;FirmV_0_7_0.c,1751 :: 		OverloadCounter1=0;
	CLRF        _OverloadCounter1+0 
	CLRF        _OverloadCounter1+1 
L_GetOverloadState401:
;FirmV_0_7_0.c,1753 :: 		if(OverloadCheckFlag2==0)
	MOVF        _OverloadCheckFlag2+0, 0 
	XORLW       0
	BTFSS       STATUS+0, 2 
	GOTO        L_GetOverloadState402
;FirmV_0_7_0.c,1754 :: 		OverloadCounter2=0;
	CLRF        _OverloadCounter2+0 
	CLRF        _OverloadCounter2+1 
L_GetOverloadState402:
;FirmV_0_7_0.c,1757 :: 		if(Motor1FullSpeed!=0)
	MOVF        _Motor1FullSpeed+0, 0 
	XORLW       0
	BTFSC       STATUS+0, 2 
	GOTO        L_GetOverloadState403
;FirmV_0_7_0.c,1761 :: 		if(VCapM1<OverloadTreshold1)
	MOVF        _OverloadTreshold1+1, 0 
	SUBWF       _VCapM1+1, 0 
	BTFSS       STATUS+0, 2 
	GOTO        L__GetOverloadState1074
	MOVF        _OverloadTreshold1+0, 0 
	SUBWF       _VCapM1+0, 0 
L__GetOverloadState1074:
	BTFSC       STATUS+0, 0 
	GOTO        L_GetOverloadState404
;FirmV_0_7_0.c,1763 :: 		if(OverloadCounter1<65530)
	MOVLW       255
	SUBWF       _OverloadCounter1+1, 0 
	BTFSS       STATUS+0, 2 
	GOTO        L__GetOverloadState1075
	MOVLW       250
	SUBWF       _OverloadCounter1+0, 0 
L__GetOverloadState1075:
	BTFSC       STATUS+0, 0 
	GOTO        L_GetOverloadState405
;FirmV_0_7_0.c,1764 :: 		OverloadCounter1=OverloadCounter1+1;
	INFSNZ      _OverloadCounter1+0, 1 
	INCF        _OverloadCounter1+1, 1 
L_GetOverloadState405:
;FirmV_0_7_0.c,1765 :: 		}
	GOTO        L_GetOverloadState406
L_GetOverloadState404:
;FirmV_0_7_0.c,1768 :: 		if(OverloadCounter1>0)
	MOVLW       0
	MOVWF       R0 
	MOVF        _OverloadCounter1+1, 0 
	SUBWF       R0, 0 
	BTFSS       STATUS+0, 2 
	GOTO        L__GetOverloadState1076
	MOVF        _OverloadCounter1+0, 0 
	SUBLW       0
L__GetOverloadState1076:
	BTFSC       STATUS+0, 0 
	GOTO        L_GetOverloadState407
;FirmV_0_7_0.c,1769 :: 		OverloadCounter1=OverloadCounter1-1;
	MOVLW       1
	SUBWF       _OverloadCounter1+0, 1 
	MOVLW       0
	SUBWFB      _OverloadCounter1+1, 1 
L_GetOverloadState407:
;FirmV_0_7_0.c,1770 :: 		}
L_GetOverloadState406:
;FirmV_0_7_0.c,1771 :: 		}
	GOTO        L_GetOverloadState408
L_GetOverloadState403:
;FirmV_0_7_0.c,1773 :: 		{OverloadCounter1=0;}
	CLRF        _OverloadCounter1+0 
	CLRF        _OverloadCounter1+1 
L_GetOverloadState408:
;FirmV_0_7_0.c,1775 :: 		if (OverloadCounter1>OverloadDuration1)
	MOVF        _OverloadCounter1+1, 0 
	SUBWF       _OverloadDuration1+1, 0 
	BTFSS       STATUS+0, 2 
	GOTO        L__GetOverloadState1077
	MOVF        _OverloadCounter1+0, 0 
	SUBWF       _OverloadDuration1+0, 0 
L__GetOverloadState1077:
	BTFSC       STATUS+0, 0 
	GOTO        L_GetOverloadState409
;FirmV_0_7_0.c,1776 :: 		res.b0=1;
	BSF         GetOverloadState_res_L0+0, 0 
L_GetOverloadState409:
;FirmV_0_7_0.c,1781 :: 		if(Motor2FullSpeed!=0)
	MOVF        _Motor2FullSpeed+0, 0 
	XORLW       0
	BTFSC       STATUS+0, 2 
	GOTO        L_GetOverloadState410
;FirmV_0_7_0.c,1783 :: 		if(VCapM2<OverloadTreshold2)
	MOVF        _OverloadTreshold2+1, 0 
	SUBWF       _VCapM2+1, 0 
	BTFSS       STATUS+0, 2 
	GOTO        L__GetOverloadState1078
	MOVF        _OverloadTreshold2+0, 0 
	SUBWF       _VCapM2+0, 0 
L__GetOverloadState1078:
	BTFSC       STATUS+0, 0 
	GOTO        L_GetOverloadState411
;FirmV_0_7_0.c,1785 :: 		if(OverloadCounter2<65530)
	MOVLW       255
	SUBWF       _OverloadCounter2+1, 0 
	BTFSS       STATUS+0, 2 
	GOTO        L__GetOverloadState1079
	MOVLW       250
	SUBWF       _OverloadCounter2+0, 0 
L__GetOverloadState1079:
	BTFSC       STATUS+0, 0 
	GOTO        L_GetOverloadState412
;FirmV_0_7_0.c,1786 :: 		OverloadCounter2=OverloadCounter2+1;
	INFSNZ      _OverloadCounter2+0, 1 
	INCF        _OverloadCounter2+1, 1 
L_GetOverloadState412:
;FirmV_0_7_0.c,1787 :: 		}
	GOTO        L_GetOverloadState413
L_GetOverloadState411:
;FirmV_0_7_0.c,1790 :: 		if(OverloadCounter2>0)
	MOVLW       0
	MOVWF       R0 
	MOVF        _OverloadCounter2+1, 0 
	SUBWF       R0, 0 
	BTFSS       STATUS+0, 2 
	GOTO        L__GetOverloadState1080
	MOVF        _OverloadCounter2+0, 0 
	SUBLW       0
L__GetOverloadState1080:
	BTFSC       STATUS+0, 0 
	GOTO        L_GetOverloadState414
;FirmV_0_7_0.c,1791 :: 		OverloadCounter2=OverloadCounter2-1;
	MOVLW       1
	SUBWF       _OverloadCounter2+0, 1 
	MOVLW       0
	SUBWFB      _OverloadCounter2+1, 1 
L_GetOverloadState414:
;FirmV_0_7_0.c,1792 :: 		}
L_GetOverloadState413:
;FirmV_0_7_0.c,1793 :: 		}
	GOTO        L_GetOverloadState415
L_GetOverloadState410:
;FirmV_0_7_0.c,1795 :: 		{OverloadCounter2=0;}
	CLRF        _OverloadCounter2+0 
	CLRF        _OverloadCounter2+1 
L_GetOverloadState415:
;FirmV_0_7_0.c,1798 :: 		if (OverloadCounter2>OverloadDuration2)
	MOVF        _OverloadCounter2+1, 0 
	SUBWF       _OverloadDuration2+1, 0 
	BTFSS       STATUS+0, 2 
	GOTO        L__GetOverloadState1081
	MOVF        _OverloadCounter2+0, 0 
	SUBWF       _OverloadDuration2+0, 0 
L__GetOverloadState1081:
	BTFSC       STATUS+0, 0 
	GOTO        L_GetOverloadState416
;FirmV_0_7_0.c,1799 :: 		res.b1=1;
	BSF         GetOverloadState_res_L0+0, 1 
L_GetOverloadState416:
;FirmV_0_7_0.c,1801 :: 		return res;
	MOVF        GetOverloadState_res_L0+0, 0 
	MOVWF       R0 
;FirmV_0_7_0.c,1802 :: 		}
L_end_GetOverloadState:
	RETURN      0
; end of _GetOverloadState

_GetPhotocellState:

;FirmV_0_7_0.c,1815 :: 		char GetPhotocellState()
;FirmV_0_7_0.c,1817 :: 		if(Phcell2==0)
	BTFSC       PORTD+0, 2 
	GOTO        L_GetPhotocellState417
;FirmV_0_7_0.c,1818 :: 		{if(PhotocellCount<=20)PhotocellCount=PhotocellCount+1;}
	MOVF        _PhotocellCount+0, 0 
	SUBLW       20
	BTFSS       STATUS+0, 0 
	GOTO        L_GetPhotocellState418
	INCF        _PhotocellCount+0, 1 
L_GetPhotocellState418:
	GOTO        L_GetPhotocellState419
L_GetPhotocellState417:
;FirmV_0_7_0.c,1820 :: 		{PhotocellCount=0;}
	CLRF        _PhotocellCount+0 
L_GetPhotocellState419:
;FirmV_0_7_0.c,1821 :: 		if(PhotocellCount>=20)
	MOVLW       20
	SUBWF       _PhotocellCount+0, 0 
	BTFSS       STATUS+0, 0 
	GOTO        L_GetPhotocellState420
;FirmV_0_7_0.c,1822 :: 		return 1;
	MOVLW       1
	MOVWF       R0 
	GOTO        L_end_GetPhotocellState
L_GetPhotocellState420:
;FirmV_0_7_0.c,1824 :: 		return 0;
	CLRF        R0 
;FirmV_0_7_0.c,1825 :: 		}
L_end_GetPhotocellState:
	RETURN      0
; end of _GetPhotocellState

_SetMotorSpeed:

;FirmV_0_7_0.c,1837 :: 		void SetMotorSpeed(char M1FullSpeed,char M2FullSpeed)
;FirmV_0_7_0.c,1839 :: 		if((M1FullSpeed==0)||(M2FullSpeed==0))
	MOVF        FARG_SetMotorSpeed_M1FullSpeed+0, 0 
	XORLW       0
	BTFSC       STATUS+0, 2 
	GOTO        L__SetMotorSpeed959
	MOVF        FARG_SetMotorSpeed_M2FullSpeed+0, 0 
	XORLW       0
	BTFSC       STATUS+0, 2 
	GOTO        L__SetMotorSpeed959
	GOTO        L_SetMotorSpeed424
L__SetMotorSpeed959:
;FirmV_0_7_0.c,1840 :: 		INT0E_bit=1;
	BSF         INT0E_bit+0, BitPos(INT0E_bit+0) 
	GOTO        L_SetMotorSpeed425
L_SetMotorSpeed424:
;FirmV_0_7_0.c,1842 :: 		INT0E_bit=0;
	BCF         INT0E_bit+0, BitPos(INT0E_bit+0) 
L_SetMotorSpeed425:
;FirmV_0_7_0.c,1844 :: 		Motor1FullSpeed=M1FullSpeed;
	MOVF        FARG_SetMotorSpeed_M1FullSpeed+0, 0 
	MOVWF       _Motor1FullSpeed+0 
;FirmV_0_7_0.c,1845 :: 		Motor2FullSpeed=M2FullSpeed;
	MOVF        FARG_SetMotorSpeed_M2FullSpeed+0, 0 
	MOVWF       _Motor2FullSpeed+0 
;FirmV_0_7_0.c,1846 :: 		}
L_end_SetMotorSpeed:
	RETURN      0
; end of _SetMotorSpeed

_OverloadInit:

;FirmV_0_7_0.c,1857 :: 		void OverloadInit(char ch)
;FirmV_0_7_0.c,1859 :: 		if(ch==1)
	MOVF        FARG_OverloadInit_ch+0, 0 
	XORLW       1
	BTFSS       STATUS+0, 2 
	GOTO        L_OverloadInit426
;FirmV_0_7_0.c,1861 :: 		OverloadCounter1=0;
	CLRF        _OverloadCounter1+0 
	CLRF        _OverloadCounter1+1 
;FirmV_0_7_0.c,1862 :: 		Events.Overload.b0=0;
	BCF         _Events+5, 0 
;FirmV_0_7_0.c,1863 :: 		}
L_OverloadInit426:
;FirmV_0_7_0.c,1865 :: 		if(ch==2)
	MOVF        FARG_OverloadInit_ch+0, 0 
	XORLW       2
	BTFSS       STATUS+0, 2 
	GOTO        L_OverloadInit427
;FirmV_0_7_0.c,1867 :: 		OverloadCounter2=0;
	CLRF        _OverloadCounter2+0 
	CLRF        _OverloadCounter2+1 
;FirmV_0_7_0.c,1868 :: 		Events.Overload.b1=0;
	BCF         _Events+5, 1 
;FirmV_0_7_0.c,1869 :: 		}
L_OverloadInit427:
;FirmV_0_7_0.c,1870 :: 		}
L_end_OverloadInit:
	RETURN      0
; end of _OverloadInit

_SaveConfigs:

;FirmV_0_7_0.c,1881 :: 		void SaveConfigs()
;FirmV_0_7_0.c,1884 :: 		EEPROM_Write(1,Door1OpenTime);
	MOVLW       1
	MOVWF       FARG_EEPROM_Write_address+0 
	MOVLW       0
	MOVWF       FARG_EEPROM_Write_address+1 
	MOVF        _Door1OpenTime+0, 0 
	MOVWF       FARG_EEPROM_Write_data_+0 
	CALL        _EEPROM_Write+0, 0
;FirmV_0_7_0.c,1885 :: 		EEPROM_Write(2,Door2OpenTime);
	MOVLW       2
	MOVWF       FARG_EEPROM_Write_address+0 
	MOVLW       0
	MOVWF       FARG_EEPROM_Write_address+1 
	MOVF        _Door2OpenTime+0, 0 
	MOVWF       FARG_EEPROM_Write_data_+0 
	CALL        _EEPROM_Write+0, 0
;FirmV_0_7_0.c,1886 :: 		EEPROM_Write(3,Door1CloseTime);
	MOVLW       3
	MOVWF       FARG_EEPROM_Write_address+0 
	MOVLW       0
	MOVWF       FARG_EEPROM_Write_address+1 
	MOVF        _Door1CloseTime+0, 0 
	MOVWF       FARG_EEPROM_Write_data_+0 
	CALL        _EEPROM_Write+0, 0
;FirmV_0_7_0.c,1887 :: 		EEPROM_Write(4,Door2CloseTime);
	MOVLW       4
	MOVWF       FARG_EEPROM_Write_address+0 
	MOVLW       0
	MOVWF       FARG_EEPROM_Write_address+1 
	MOVF        _Door2CloseTime+0, 0 
	MOVWF       FARG_EEPROM_Write_data_+0 
	CALL        _EEPROM_Write+0, 0
;FirmV_0_7_0.c,1888 :: 		EEPROM_Write(5,ActionTimeDiff);
	MOVLW       5
	MOVWF       FARG_EEPROM_Write_address+0 
	MOVLW       0
	MOVWF       FARG_EEPROM_Write_address+1 
	MOVF        _ActionTimeDiff+0, 0 
	MOVWF       FARG_EEPROM_Write_data_+0 
	CALL        _EEPROM_Write+0, 0
;FirmV_0_7_0.c,1889 :: 		EEPROM_Write(6,OpenSoftStartTime);
	MOVLW       6
	MOVWF       FARG_EEPROM_Write_address+0 
	MOVLW       0
	MOVWF       FARG_EEPROM_Write_address+1 
	MOVF        _OpenSoftStartTime+0, 0 
	MOVWF       FARG_EEPROM_Write_data_+0 
	CALL        _EEPROM_Write+0, 0
;FirmV_0_7_0.c,1890 :: 		EEPROM_Write(7,OpenSoftStopTime);
	MOVLW       7
	MOVWF       FARG_EEPROM_Write_address+0 
	MOVLW       0
	MOVWF       FARG_EEPROM_Write_address+1 
	MOVF        _OpenSoftStopTime+0, 0 
	MOVWF       FARG_EEPROM_Write_data_+0 
	CALL        _EEPROM_Write+0, 0
;FirmV_0_7_0.c,1891 :: 		EEPROM_Write(8,CloseSoftStartTime);
	MOVLW       8
	MOVWF       FARG_EEPROM_Write_address+0 
	MOVLW       0
	MOVWF       FARG_EEPROM_Write_address+1 
	MOVF        _CloseSoftStartTime+0, 0 
	MOVWF       FARG_EEPROM_Write_data_+0 
	CALL        _EEPROM_Write+0, 0
;FirmV_0_7_0.c,1892 :: 		EEPROM_Write(9,CloseSoftStopTime);
	MOVLW       9
	MOVWF       FARG_EEPROM_Write_address+0 
	MOVLW       0
	MOVWF       FARG_EEPROM_Write_address+1 
	MOVF        _CloseSoftStopTime+0, 0 
	MOVWF       FARG_EEPROM_Write_data_+0 
	CALL        _EEPROM_Write+0, 0
;FirmV_0_7_0.c,1893 :: 		EEPROM_Write(10,Hi(AutoCloseTime));
	MOVLW       10
	MOVWF       FARG_EEPROM_Write_address+0 
	MOVLW       0
	MOVWF       FARG_EEPROM_Write_address+1 
	MOVF        _AutoCloseTime+1, 0 
	MOVWF       FARG_EEPROM_Write_data_+0 
	CALL        _EEPROM_Write+0, 0
;FirmV_0_7_0.c,1894 :: 		EEPROM_Write(11,Lo(AutoCloseTime));
	MOVLW       11
	MOVWF       FARG_EEPROM_Write_address+0 
	MOVLW       0
	MOVWF       FARG_EEPROM_Write_address+1 
	MOVF        _AutoCloseTime+0, 0 
	MOVWF       FARG_EEPROM_Write_data_+0 
	CALL        _EEPROM_Write+0, 0
;FirmV_0_7_0.c,1895 :: 		EEPROM_Write(12,OverloadSens1);
	MOVLW       12
	MOVWF       FARG_EEPROM_Write_address+0 
	MOVLW       0
	MOVWF       FARG_EEPROM_Write_address+1 
	MOVF        _OverloadSens1+0, 0 
	MOVWF       FARG_EEPROM_Write_data_+0 
	CALL        _EEPROM_Write+0, 0
;FirmV_0_7_0.c,1896 :: 		EEPROM_Write(13,CloseAfterPass);
	MOVLW       13
	MOVWF       FARG_EEPROM_Write_address+0 
	MOVLW       0
	MOVWF       FARG_EEPROM_Write_address+1 
	MOVF        _CloseAfterPass+0, 0 
	MOVWF       FARG_EEPROM_Write_data_+0 
	CALL        _EEPROM_Write+0, 0
;FirmV_0_7_0.c,1897 :: 		EEPROM_Write(14,LockForce);
	MOVLW       14
	MOVWF       FARG_EEPROM_Write_address+0 
	MOVLW       0
	MOVWF       FARG_EEPROM_Write_address+1 
	MOVF        _LockForce+0, 0 
	MOVWF       FARG_EEPROM_Write_data_+0 
	CALL        _EEPROM_Write+0, 0
;FirmV_0_7_0.c,1898 :: 		EEPROM_Write(15,OpenPhEnable);
	MOVLW       15
	MOVWF       FARG_EEPROM_Write_address+0 
	MOVLW       0
	MOVWF       FARG_EEPROM_Write_address+1 
	MOVF        _OpenPhEnable+0, 0 
	MOVWF       FARG_EEPROM_Write_data_+0 
	CALL        _EEPROM_Write+0, 0
;FirmV_0_7_0.c,1899 :: 		EEPROM_Write(16,LimiterEnable);
	MOVLW       16
	MOVWF       FARG_EEPROM_Write_address+0 
	MOVLW       0
	MOVWF       FARG_EEPROM_Write_address+1 
	MOVF        _LimiterEnable+0, 0 
	MOVWF       FARG_EEPROM_Write_data_+0 
	CALL        _EEPROM_Write+0, 0
;FirmV_0_7_0.c,1900 :: 		EEPROM_Write(17,ReverseOnOpen);
	MOVLW       17
	MOVWF       FARG_EEPROM_Write_address+0 
	MOVLW       0
	MOVWF       FARG_EEPROM_Write_address+1 
	MOVF        _ReverseOnOpen+0, 0 
	MOVWF       FARG_EEPROM_Write_data_+0 
	CALL        _EEPROM_Write+0, 0
;FirmV_0_7_0.c,1901 :: 		EEPROM_Write(18,OverloadTime1);
	MOVLW       18
	MOVWF       FARG_EEPROM_Write_address+0 
	MOVLW       0
	MOVWF       FARG_EEPROM_Write_address+1 
	MOVF        _OverloadTime1+0, 0 
	MOVWF       FARG_EEPROM_Write_data_+0 
	CALL        _EEPROM_Write+0, 0
;FirmV_0_7_0.c,1902 :: 		EEPROM_Write(19,OverloadSens2);
	MOVLW       19
	MOVWF       FARG_EEPROM_Write_address+0 
	MOVLW       0
	MOVWF       FARG_EEPROM_Write_address+1 
	MOVF        _OverloadSens2+0, 0 
	MOVWF       FARG_EEPROM_Write_data_+0 
	CALL        _EEPROM_Write+0, 0
;FirmV_0_7_0.c,1903 :: 		EEPROM_Write(20,OverloadTime2);
	MOVLW       20
	MOVWF       FARG_EEPROM_Write_address+0 
	MOVLW       0
	MOVWF       FARG_EEPROM_Write_address+1 
	MOVF        _OverloadTime2+0, 0 
	MOVWF       FARG_EEPROM_Write_data_+0 
	CALL        _EEPROM_Write+0, 0
;FirmV_0_7_0.c,1904 :: 		EEPROM_Write(21,M1SoftPower);
	MOVLW       21
	MOVWF       FARG_EEPROM_Write_address+0 
	MOVLW       0
	MOVWF       FARG_EEPROM_Write_address+1 
	MOVF        _M1SoftPower+0, 0 
	MOVWF       FARG_EEPROM_Write_data_+0 
	CALL        _EEPROM_Write+0, 0
;FirmV_0_7_0.c,1905 :: 		EEPROM_Write(22,M2SoftPower);
	MOVLW       22
	MOVWF       FARG_EEPROM_Write_address+0 
	MOVLW       0
	MOVWF       FARG_EEPROM_Write_address+1 
	MOVF        _M2SoftPower+0, 0 
	MOVWF       FARG_EEPROM_Write_data_+0 
	CALL        _EEPROM_Write+0, 0
;FirmV_0_7_0.c,1906 :: 		EEPROM_Write(23,ReverseOnClose);
	MOVLW       23
	MOVWF       FARG_EEPROM_Write_address+0 
	MOVLW       0
	MOVWF       FARG_EEPROM_Write_address+1 
	MOVF        _ReverseOnClose+0, 0 
	MOVWF       FARG_EEPROM_Write_data_+0 
	CALL        _EEPROM_Write+0, 0
;FirmV_0_7_0.c,1907 :: 		SetOverloadParams(OverloadSens1,OverloadTime1,OverloadSens2,OverloadTime2);
	MOVF        _OverloadSens1+0, 0 
	MOVWF       FARG_SetOverloadParams+0 
	MOVF        _OverloadTime1+0, 0 
	MOVWF       FARG_SetOverloadParams+0 
	MOVF        _OverloadSens2+0, 0 
	MOVWF       FARG_SetOverloadParams+0 
	MOVF        _OverloadTime2+0, 0 
	MOVWF       FARG_SetOverloadParams+0 
	CALL        _SetOverloadParams+0, 0
;FirmV_0_7_0.c,1908 :: 		SetSoftPower();
	CALL        _SetSoftPower+0, 0
;FirmV_0_7_0.c,1910 :: 		}
L_end_SaveConfigs:
	RETURN      0
; end of _SaveConfigs

_LoadConfigs:

;FirmV_0_7_0.c,1923 :: 		void LoadConfigs()
;FirmV_0_7_0.c,1925 :: 		Door1OpenTime=EEPROM_Read(1);
	MOVLW       1
	MOVWF       FARG_EEPROM_Read_address+0 
	MOVLW       0
	MOVWF       FARG_EEPROM_Read_address+1 
	CALL        _EEPROM_Read+0, 0
	MOVF        R0, 0 
	MOVWF       _Door1OpenTime+0 
;FirmV_0_7_0.c,1926 :: 		Door2OpenTime=EEPROM_Read(2);
	MOVLW       2
	MOVWF       FARG_EEPROM_Read_address+0 
	MOVLW       0
	MOVWF       FARG_EEPROM_Read_address+1 
	CALL        _EEPROM_Read+0, 0
	MOVF        R0, 0 
	MOVWF       _Door2OpenTime+0 
;FirmV_0_7_0.c,1927 :: 		Door1CloseTime=EEPROM_Read(3);
	MOVLW       3
	MOVWF       FARG_EEPROM_Read_address+0 
	MOVLW       0
	MOVWF       FARG_EEPROM_Read_address+1 
	CALL        _EEPROM_Read+0, 0
	MOVF        R0, 0 
	MOVWF       _Door1CloseTime+0 
;FirmV_0_7_0.c,1928 :: 		Door2CloseTime=EEPROM_Read(4);
	MOVLW       4
	MOVWF       FARG_EEPROM_Read_address+0 
	MOVLW       0
	MOVWF       FARG_EEPROM_Read_address+1 
	CALL        _EEPROM_Read+0, 0
	MOVF        R0, 0 
	MOVWF       _Door2CloseTime+0 
;FirmV_0_7_0.c,1929 :: 		ActionTimeDiff=EEPROM_Read(5);
	MOVLW       5
	MOVWF       FARG_EEPROM_Read_address+0 
	MOVLW       0
	MOVWF       FARG_EEPROM_Read_address+1 
	CALL        _EEPROM_Read+0, 0
	MOVF        R0, 0 
	MOVWF       _ActionTimeDiff+0 
;FirmV_0_7_0.c,1930 :: 		OpenSoftStartTime=EEPROM_Read(6);
	MOVLW       6
	MOVWF       FARG_EEPROM_Read_address+0 
	MOVLW       0
	MOVWF       FARG_EEPROM_Read_address+1 
	CALL        _EEPROM_Read+0, 0
	MOVF        R0, 0 
	MOVWF       _OpenSoftStartTime+0 
;FirmV_0_7_0.c,1931 :: 		OpenSoftStopTime=EEPROM_Read(7);
	MOVLW       7
	MOVWF       FARG_EEPROM_Read_address+0 
	MOVLW       0
	MOVWF       FARG_EEPROM_Read_address+1 
	CALL        _EEPROM_Read+0, 0
	MOVF        R0, 0 
	MOVWF       _OpenSoftStopTime+0 
;FirmV_0_7_0.c,1932 :: 		CloseSoftStartTime=EEPROM_Read(8);
	MOVLW       8
	MOVWF       FARG_EEPROM_Read_address+0 
	MOVLW       0
	MOVWF       FARG_EEPROM_Read_address+1 
	CALL        _EEPROM_Read+0, 0
	MOVF        R0, 0 
	MOVWF       _CloseSoftStartTime+0 
;FirmV_0_7_0.c,1933 :: 		CloseSoftStopTime=EEPROM_Read(9);
	MOVLW       9
	MOVWF       FARG_EEPROM_Read_address+0 
	MOVLW       0
	MOVWF       FARG_EEPROM_Read_address+1 
	CALL        _EEPROM_Read+0, 0
	MOVF        R0, 0 
	MOVWF       _CloseSoftStopTime+0 
;FirmV_0_7_0.c,1934 :: 		AutoCloseTime=EEPROM_Read(10);
	MOVLW       10
	MOVWF       FARG_EEPROM_Read_address+0 
	MOVLW       0
	MOVWF       FARG_EEPROM_Read_address+1 
	CALL        _EEPROM_Read+0, 0
	MOVF        R0, 0 
	MOVWF       _AutoCloseTime+0 
	MOVLW       0
	MOVWF       _AutoCloseTime+1 
;FirmV_0_7_0.c,1935 :: 		AutoCloseTime=AutoCloseTime<<8;
	MOVF        _AutoCloseTime+0, 0 
	MOVWF       _AutoCloseTime+1 
	CLRF        _AutoCloseTime+0 
;FirmV_0_7_0.c,1936 :: 		AutoCloseTime=AutocloseTime|EEPROM_Read(11);
	MOVLW       11
	MOVWF       FARG_EEPROM_Read_address+0 
	MOVLW       0
	MOVWF       FARG_EEPROM_Read_address+1 
	CALL        _EEPROM_Read+0, 0
	MOVF        R0, 0 
	IORWF       _AutoCloseTime+0, 1 
	MOVLW       0
	IORWF       _AutoCloseTime+1, 1 
;FirmV_0_7_0.c,1937 :: 		OverloadSens1=EEPROM_Read(12);
	MOVLW       12
	MOVWF       FARG_EEPROM_Read_address+0 
	MOVLW       0
	MOVWF       FARG_EEPROM_Read_address+1 
	CALL        _EEPROM_Read+0, 0
	MOVF        R0, 0 
	MOVWF       _OverloadSens1+0 
;FirmV_0_7_0.c,1938 :: 		CloseAfterPass=EEPROM_Read(13);
	MOVLW       13
	MOVWF       FARG_EEPROM_Read_address+0 
	MOVLW       0
	MOVWF       FARG_EEPROM_Read_address+1 
	CALL        _EEPROM_Read+0, 0
	MOVF        R0, 0 
	MOVWF       _CloseAfterPass+0 
;FirmV_0_7_0.c,1939 :: 		LockForce=EEPROM_Read(14);
	MOVLW       14
	MOVWF       FARG_EEPROM_Read_address+0 
	MOVLW       0
	MOVWF       FARG_EEPROM_Read_address+1 
	CALL        _EEPROM_Read+0, 0
	MOVF        R0, 0 
	MOVWF       _LockForce+0 
;FirmV_0_7_0.c,1940 :: 		OpenPhEnable=EEPROM_Read(15);
	MOVLW       15
	MOVWF       FARG_EEPROM_Read_address+0 
	MOVLW       0
	MOVWF       FARG_EEPROM_Read_address+1 
	CALL        _EEPROM_Read+0, 0
	MOVF        R0, 0 
	MOVWF       _OpenPhEnable+0 
;FirmV_0_7_0.c,1941 :: 		LimiterEnable=EEPROM_Read(16);
	MOVLW       16
	MOVWF       FARG_EEPROM_Read_address+0 
	MOVLW       0
	MOVWF       FARG_EEPROM_Read_address+1 
	CALL        _EEPROM_Read+0, 0
	MOVF        R0, 0 
	MOVWF       _LimiterEnable+0 
;FirmV_0_7_0.c,1942 :: 		ReverseOnOpen=EEPROM_Read(17);
	MOVLW       17
	MOVWF       FARG_EEPROM_Read_address+0 
	MOVLW       0
	MOVWF       FARG_EEPROM_Read_address+1 
	CALL        _EEPROM_Read+0, 0
	MOVF        R0, 0 
	MOVWF       _ReverseOnOpen+0 
;FirmV_0_7_0.c,1943 :: 		OverloadTime1=EEPROM_Read(18);
	MOVLW       18
	MOVWF       FARG_EEPROM_Read_address+0 
	MOVLW       0
	MOVWF       FARG_EEPROM_Read_address+1 
	CALL        _EEPROM_Read+0, 0
	MOVF        R0, 0 
	MOVWF       _OverloadTime1+0 
;FirmV_0_7_0.c,1944 :: 		OverloadSens2=EEPROM_Read(19);
	MOVLW       19
	MOVWF       FARG_EEPROM_Read_address+0 
	MOVLW       0
	MOVWF       FARG_EEPROM_Read_address+1 
	CALL        _EEPROM_Read+0, 0
	MOVF        R0, 0 
	MOVWF       _OverloadSens2+0 
;FirmV_0_7_0.c,1945 :: 		OverloadTime2=EEPROM_Read(20);
	MOVLW       20
	MOVWF       FARG_EEPROM_Read_address+0 
	MOVLW       0
	MOVWF       FARG_EEPROM_Read_address+1 
	CALL        _EEPROM_Read+0, 0
	MOVF        R0, 0 
	MOVWF       _OverloadTime2+0 
;FirmV_0_7_0.c,1946 :: 		M1SoftPower=EEPROM_Read(21);
	MOVLW       21
	MOVWF       FARG_EEPROM_Read_address+0 
	MOVLW       0
	MOVWF       FARG_EEPROM_Read_address+1 
	CALL        _EEPROM_Read+0, 0
	MOVF        R0, 0 
	MOVWF       _M1SoftPower+0 
	MOVLW       0
	MOVWF       _M1SoftPower+1 
;FirmV_0_7_0.c,1947 :: 		M2SoftPower=EEPROM_Read(22);
	MOVLW       22
	MOVWF       FARG_EEPROM_Read_address+0 
	MOVLW       0
	MOVWF       FARG_EEPROM_Read_address+1 
	CALL        _EEPROM_Read+0, 0
	MOVF        R0, 0 
	MOVWF       _M2SoftPower+0 
	MOVLW       0
	MOVWF       _M2SoftPower+1 
;FirmV_0_7_0.c,1948 :: 		ReverseOnClose=EEPROM_Read(23);
	MOVLW       23
	MOVWF       FARG_EEPROM_Read_address+0 
	MOVLW       0
	MOVWF       FARG_EEPROM_Read_address+1 
	CALL        _EEPROM_Read+0, 0
	MOVF        R0, 0 
	MOVWF       _ReverseOnClose+0 
;FirmV_0_7_0.c,1949 :: 		SetSoftPower();
	CALL        _SetSoftPower+0, 0
;FirmV_0_7_0.c,1950 :: 		SetOverloadParams(OverloadSens1,OverloadTime1,OverloadSens2,OverloadTime2);
	MOVF        _OverloadSens1+0, 0 
	MOVWF       FARG_SetOverloadParams+0 
	MOVF        _OverloadTime1+0, 0 
	MOVWF       FARG_SetOverloadParams+0 
	MOVF        _OverloadSens2+0, 0 
	MOVWF       FARG_SetOverloadParams+0 
	MOVF        _OverloadTime2+0, 0 
	MOVWF       FARG_SetOverloadParams+0 
	CALL        _SetOverloadParams+0, 0
;FirmV_0_7_0.c,1952 :: 		}
L_end_LoadConfigs:
	RETURN      0
; end of _LoadConfigs

_FactorySettings:

;FirmV_0_7_0.c,1965 :: 		void FactorySettings()
;FirmV_0_7_0.c,1967 :: 		Door1OpenTime=20;
	MOVLW       20
	MOVWF       _Door1OpenTime+0 
;FirmV_0_7_0.c,1968 :: 		Door1CloseTime=20;
	MOVLW       20
	MOVWF       _Door1CloseTime+0 
;FirmV_0_7_0.c,1969 :: 		Door2OpenTime=20;
	MOVLW       20
	MOVWF       _Door2OpenTime+0 
;FirmV_0_7_0.c,1970 :: 		Door2CloseTime=20;
	MOVLW       20
	MOVWF       _Door2CloseTime+0 
;FirmV_0_7_0.c,1971 :: 		OverloadSens1=7;
	MOVLW       7
	MOVWF       _OverloadSens1+0 
;FirmV_0_7_0.c,1972 :: 		OverloadTime1=2;
	MOVLW       2
	MOVWF       _OverloadTime1+0 
;FirmV_0_7_0.c,1973 :: 		OverloadSens2=7;
	MOVLW       7
	MOVWF       _OverloadSens2+0 
;FirmV_0_7_0.c,1974 :: 		OverloadTime2=2;
	MOVLW       2
	MOVWF       _OverloadTime2+0 
;FirmV_0_7_0.c,1975 :: 		SetOverloadParams(7,2,7,2);
	MOVLW       7
	MOVWF       FARG_SetOverloadParams+0 
	MOVLW       2
	MOVWF       FARG_SetOverloadParams+0 
	MOVLW       7
	MOVWF       FARG_SetOverloadParams+0 
	MOVLW       2
	MOVWF       FARG_SetOverloadParams+0 
	CALL        _SetOverloadParams+0, 0
;FirmV_0_7_0.c,1976 :: 		OpenSoftStopTime=10;
	MOVLW       10
	MOVWF       _OpenSoftStopTime+0 
;FirmV_0_7_0.c,1977 :: 		OpenSoftStartTime=4;
	MOVLW       4
	MOVWF       _OpenSoftStartTime+0 
;FirmV_0_7_0.c,1978 :: 		CloseSoftStopTime=10;
	MOVLW       10
	MOVWF       _CloseSoftStopTime+0 
;FirmV_0_7_0.c,1979 :: 		CloseSoftStartTime=4;
	MOVLW       4
	MOVWF       _CloseSoftStartTime+0 
;FirmV_0_7_0.c,1980 :: 		ActionTimeDiff=12;
	MOVLW       12
	MOVWF       _ActionTimeDiff+0 
;FirmV_0_7_0.c,1981 :: 		AutoCloseTime=0;
	CLRF        _AutoCloseTime+0 
	CLRF        _AutoCloseTime+1 
;FirmV_0_7_0.c,1982 :: 		LockForce=0;
	CLRF        _LockForce+0 
;FirmV_0_7_0.c,1983 :: 		OpenPhEnable=0;
	CLRF        _OpenPhEnable+0 
;FirmV_0_7_0.c,1984 :: 		LimiterEnable=0;
	CLRF        _LimiterEnable+0 
;FirmV_0_7_0.c,1985 :: 		CloseAfterPass=0;
	CLRF        _CloseAfterPass+0 
;FirmV_0_7_0.c,1986 :: 		ReverseOnOpen=0;
	CLRF        _ReverseOnOpen+0 
;FirmV_0_7_0.c,1987 :: 		ReverseOnClose=0;
	CLRF        _ReverseOnClose+0 
;FirmV_0_7_0.c,1989 :: 		SaveConfigs();
	CALL        _SaveConfigs+0, 0
;FirmV_0_7_0.c,1990 :: 		}
L_end_FactorySettings:
	RETURN      0
; end of _FactorySettings

_StartMotor:

;FirmV_0_7_0.c,1996 :: 		void StartMotor(char Mx,char Dir)
;FirmV_0_7_0.c,1998 :: 		if(Mx==1)
	MOVF        FARG_StartMotor_Mx+0, 0 
	XORLW       1
	BTFSS       STATUS+0, 2 
	GOTO        L_StartMotor428
;FirmV_0_7_0.c,2000 :: 		Motor1Dir=Dir;
	BTFSC       FARG_StartMotor_Dir+0, 0 
	GOTO        L__StartMotor1089
	BCF         PORTC+0, 1 
	GOTO        L__StartMotor1090
L__StartMotor1089:
	BSF         PORTC+0, 1 
L__StartMotor1090:
;FirmV_0_7_0.c,2001 :: 		delay_ms(100);
	MOVLW       6
	MOVWF       R11, 0
	MOVLW       19
	MOVWF       R12, 0
	MOVLW       173
	MOVWF       R13, 0
L_StartMotor429:
	DECFSZ      R13, 1, 1
	BRA         L_StartMotor429
	DECFSZ      R12, 1, 1
	BRA         L_StartMotor429
	DECFSZ      R11, 1, 1
	BRA         L_StartMotor429
	NOP
	NOP
;FirmV_0_7_0.c,2002 :: 		Motor1Start=1;
	MOVLW       1
	MOVWF       _Motor1Start+0 
;FirmV_0_7_0.c,2003 :: 		Motor1=1;
	BSF         PORTB+0, 3 
;FirmV_0_7_0.c,2004 :: 		}
L_StartMotor428:
;FirmV_0_7_0.c,2006 :: 		if(Mx==2)
	MOVF        FARG_StartMotor_Mx+0, 0 
	XORLW       2
	BTFSS       STATUS+0, 2 
	GOTO        L_StartMotor430
;FirmV_0_7_0.c,2008 :: 		Motor2Dir=Dir;
	BTFSC       FARG_StartMotor_Dir+0, 0 
	GOTO        L__StartMotor1091
	BCF         PORTC+0, 0 
	GOTO        L__StartMotor1092
L__StartMotor1091:
	BSF         PORTC+0, 0 
L__StartMotor1092:
;FirmV_0_7_0.c,2009 :: 		delay_ms(100);
	MOVLW       6
	MOVWF       R11, 0
	MOVLW       19
	MOVWF       R12, 0
	MOVLW       173
	MOVWF       R13, 0
L_StartMotor431:
	DECFSZ      R13, 1, 1
	BRA         L_StartMotor431
	DECFSZ      R12, 1, 1
	BRA         L_StartMotor431
	DECFSZ      R11, 1, 1
	BRA         L_StartMotor431
	NOP
	NOP
;FirmV_0_7_0.c,2010 :: 		Motor2Start=1;
	MOVLW       1
	MOVWF       _Motor2Start+0 
;FirmV_0_7_0.c,2011 :: 		Motor2=1;
	BSF         PORTB+0, 4 
;FirmV_0_7_0.c,2012 :: 		}
L_StartMotor430:
;FirmV_0_7_0.c,2013 :: 		}
L_end_StartMotor:
	RETURN      0
; end of _StartMotor

_StopMotor:

;FirmV_0_7_0.c,2016 :: 		void StopMotor(char Mx)
;FirmV_0_7_0.c,2018 :: 		if(Mx==1)
	MOVF        FARG_StopMotor_Mx+0, 0 
	XORLW       1
	BTFSS       STATUS+0, 2 
	GOTO        L_StopMotor432
;FirmV_0_7_0.c,2020 :: 		Motor1Start=0;
	CLRF        _Motor1Start+0 
;FirmV_0_7_0.c,2021 :: 		Motor1=0;
	BCF         PORTB+0, 3 
;FirmV_0_7_0.c,2022 :: 		}
L_StopMotor432:
;FirmV_0_7_0.c,2024 :: 		if(Mx==2)
	MOVF        FARG_StopMotor_Mx+0, 0 
	XORLW       2
	BTFSS       STATUS+0, 2 
	GOTO        L_StopMotor433
;FirmV_0_7_0.c,2026 :: 		Motor2Start=0;
	CLRF        _Motor2Start+0 
;FirmV_0_7_0.c,2027 :: 		Motor2=0;
	BCF         PORTB+0, 4 
;FirmV_0_7_0.c,2028 :: 		}
L_StopMotor433:
;FirmV_0_7_0.c,2029 :: 		}
L_end_StopMotor:
	RETURN      0
; end of _StopMotor

_CheckTask:

;FirmV_0_7_0.c,2041 :: 		char CheckTask(char TaskCode)
;FirmV_0_7_0.c,2043 :: 		if(Events.Task1==TaskCode)
	MOVF        _Events+1, 0 
	XORWF       FARG_CheckTask_TaskCode+0, 0 
	BTFSS       STATUS+0, 2 
	GOTO        L_CheckTask434
;FirmV_0_7_0.c,2044 :: 		{Events.Task1=0; return 1;}
	CLRF        _Events+1 
	MOVLW       1
	MOVWF       R0 
	GOTO        L_end_CheckTask
L_CheckTask434:
;FirmV_0_7_0.c,2046 :: 		if(Events.Task2==TaskCode)
	MOVF        _Events+2, 0 
	XORWF       FARG_CheckTask_TaskCode+0, 0 
	BTFSS       STATUS+0, 2 
	GOTO        L_CheckTask435
;FirmV_0_7_0.c,2047 :: 		{Events.Task2=0; return 1;}
	CLRF        _Events+2 
	MOVLW       1
	MOVWF       R0 
	GOTO        L_end_CheckTask
L_CheckTask435:
;FirmV_0_7_0.c,2049 :: 		if(Events.Task3==TaskCode)
	MOVF        _Events+3, 0 
	XORWF       FARG_CheckTask_TaskCode+0, 0 
	BTFSS       STATUS+0, 2 
	GOTO        L_CheckTask436
;FirmV_0_7_0.c,2050 :: 		{Events.Task3=0; return 1;}
	CLRF        _Events+3 
	MOVLW       1
	MOVWF       R0 
	GOTO        L_end_CheckTask
L_CheckTask436:
;FirmV_0_7_0.c,2052 :: 		return 0;
	CLRF        R0 
;FirmV_0_7_0.c,2054 :: 		}
L_end_CheckTask:
	RETURN      0
; end of _CheckTask

_ReturnAutoclose:

;FirmV_0_7_0.c,2062 :: 		char ReturnAutoclose()
;FirmV_0_7_0.c,2066 :: 		for(i=0;i<20;i++)
	CLRF        ReturnAutoclose_i_L0+0 
L_ReturnAutoclose437:
	MOVLW       20
	SUBWF       ReturnAutoclose_i_L0+0, 0 
	BTFSC       STATUS+0, 0 
	GOTO        L_ReturnAutoclose438
;FirmV_0_7_0.c,2068 :: 		if((Tasks[i].Expired==0)&&(Tasks[i].TaskCode==9))
	MOVLW       7
	MOVWF       R0 
	MOVLW       0
	MOVWF       R1 
	MOVF        ReturnAutoclose_i_L0+0, 0 
	MOVWF       R4 
	MOVLW       0
	MOVWF       R5 
	CALL        _Mul_16X16_U+0, 0
	MOVLW       _Tasks+0
	ADDWF       R0, 1 
	MOVLW       hi_addr(_Tasks+0)
	ADDWFC      R1, 1 
	MOVLW       5
	ADDWF       R0, 0 
	MOVWF       FSR0 
	MOVLW       0
	ADDWFC      R1, 0 
	MOVWF       FSR0H 
	MOVF        POSTINC0+0, 0 
	XORLW       0
	BTFSS       STATUS+0, 2 
	GOTO        L_ReturnAutoclose442
	MOVLW       7
	MOVWF       R0 
	MOVLW       0
	MOVWF       R1 
	MOVF        ReturnAutoclose_i_L0+0, 0 
	MOVWF       R4 
	MOVLW       0
	MOVWF       R5 
	CALL        _Mul_16X16_U+0, 0
	MOVLW       _Tasks+0
	ADDWF       R0, 0 
	MOVWF       FSR0 
	MOVLW       hi_addr(_Tasks+0)
	ADDWFC      R1, 0 
	MOVWF       FSR0H 
	MOVF        POSTINC0+0, 0 
	MOVWF       R1 
	MOVF        R1, 0 
	XORLW       9
	BTFSS       STATUS+0, 2 
	GOTO        L_ReturnAutoclose442
L__ReturnAutoclose960:
;FirmV_0_7_0.c,2069 :: 		{t=Tasks[i].Time;break;}
	MOVLW       7
	MOVWF       R0 
	MOVLW       0
	MOVWF       R1 
	MOVF        ReturnAutoclose_i_L0+0, 0 
	MOVWF       R4 
	MOVLW       0
	MOVWF       R5 
	CALL        _Mul_16X16_U+0, 0
	MOVLW       _Tasks+0
	ADDWF       R0, 1 
	MOVLW       hi_addr(_Tasks+0)
	ADDWFC      R1, 1 
	MOVLW       1
	ADDWF       R0, 0 
	MOVWF       FSR0 
	MOVLW       0
	ADDWFC      R1, 0 
	MOVWF       FSR0H 
	MOVF        POSTINC0+0, 0 
	MOVWF       ReturnAutoclose_t_L0+0 
	MOVF        POSTINC0+0, 0 
	MOVWF       ReturnAutoclose_t_L0+1 
	MOVF        POSTINC0+0, 0 
	MOVWF       ReturnAutoclose_t_L0+2 
	MOVF        POSTINC0+0, 0 
	MOVWF       ReturnAutoclose_t_L0+3 
	GOTO        L_ReturnAutoclose438
L_ReturnAutoclose442:
;FirmV_0_7_0.c,2066 :: 		for(i=0;i<20;i++)
	INCF        ReturnAutoclose_i_L0+0, 1 
;FirmV_0_7_0.c,2070 :: 		}
	GOTO        L_ReturnAutoclose437
L_ReturnAutoclose438:
;FirmV_0_7_0.c,2072 :: 		if(i>=20) i=0;
	MOVLW       20
	SUBWF       ReturnAutoclose_i_L0+0, 0 
	BTFSS       STATUS+0, 0 
	GOTO        L_ReturnAutoclose443
	CLRF        ReturnAutoclose_i_L0+0 
	GOTO        L_ReturnAutoclose444
L_ReturnAutoclose443:
;FirmV_0_7_0.c,2073 :: 		else i=t-ms500;
	MOVF        _ms500+0, 0 
	SUBWF       ReturnAutoclose_t_L0+0, 0 
	MOVWF       ReturnAutoclose_i_L0+0 
L_ReturnAutoclose444:
;FirmV_0_7_0.c,2074 :: 		return i;
	MOVF        ReturnAutoclose_i_L0+0, 0 
	MOVWF       R0 
;FirmV_0_7_0.c,2075 :: 		}
L_end_ReturnAutoclose:
	RETURN      0
; end of _ReturnAutoclose

_GetAutocloseTime:

;FirmV_0_7_0.c,2085 :: 		char GetAutocloseTime()
;FirmV_0_7_0.c,2089 :: 		for(i=0;i<20;i++)
	CLRF        GetAutocloseTime_i_L0+0 
L_GetAutocloseTime445:
	MOVLW       20
	SUBWF       GetAutocloseTime_i_L0+0, 0 
	BTFSC       STATUS+0, 0 
	GOTO        L_GetAutocloseTime446
;FirmV_0_7_0.c,2091 :: 		if((Tasks[i].Expired==0)&&(Tasks[i].TaskCode==9))
	MOVLW       7
	MOVWF       R0 
	MOVLW       0
	MOVWF       R1 
	MOVF        GetAutocloseTime_i_L0+0, 0 
	MOVWF       R4 
	MOVLW       0
	MOVWF       R5 
	CALL        _Mul_16X16_U+0, 0
	MOVLW       _Tasks+0
	ADDWF       R0, 1 
	MOVLW       hi_addr(_Tasks+0)
	ADDWFC      R1, 1 
	MOVLW       5
	ADDWF       R0, 0 
	MOVWF       FSR0 
	MOVLW       0
	ADDWFC      R1, 0 
	MOVWF       FSR0H 
	MOVF        POSTINC0+0, 0 
	XORLW       0
	BTFSS       STATUS+0, 2 
	GOTO        L_GetAutocloseTime450
	MOVLW       7
	MOVWF       R0 
	MOVLW       0
	MOVWF       R1 
	MOVF        GetAutocloseTime_i_L0+0, 0 
	MOVWF       R4 
	MOVLW       0
	MOVWF       R5 
	CALL        _Mul_16X16_U+0, 0
	MOVLW       _Tasks+0
	ADDWF       R0, 0 
	MOVWF       FSR0 
	MOVLW       hi_addr(_Tasks+0)
	ADDWFC      R1, 0 
	MOVWF       FSR0H 
	MOVF        POSTINC0+0, 0 
	MOVWF       R1 
	MOVF        R1, 0 
	XORLW       9
	BTFSS       STATUS+0, 2 
	GOTO        L_GetAutocloseTime450
L__GetAutocloseTime961:
;FirmV_0_7_0.c,2092 :: 		{t=Tasks[i].Time;Tasks[i].Expired=1;break;}
	MOVLW       7
	MOVWF       R0 
	MOVLW       0
	MOVWF       R1 
	MOVF        GetAutocloseTime_i_L0+0, 0 
	MOVWF       R4 
	MOVLW       0
	MOVWF       R5 
	CALL        _Mul_16X16_U+0, 0
	MOVLW       _Tasks+0
	ADDWF       R0, 1 
	MOVLW       hi_addr(_Tasks+0)
	ADDWFC      R1, 1 
	MOVLW       1
	ADDWF       R0, 0 
	MOVWF       FSR0 
	MOVLW       0
	ADDWFC      R1, 0 
	MOVWF       FSR0H 
	MOVF        POSTINC0+0, 0 
	MOVWF       GetAutocloseTime_t_L0+0 
	MOVF        POSTINC0+0, 0 
	MOVWF       GetAutocloseTime_t_L0+1 
	MOVF        POSTINC0+0, 0 
	MOVWF       GetAutocloseTime_t_L0+2 
	MOVF        POSTINC0+0, 0 
	MOVWF       GetAutocloseTime_t_L0+3 
	MOVLW       5
	ADDWF       R0, 0 
	MOVWF       FSR1 
	MOVLW       0
	ADDWFC      R1, 0 
	MOVWF       FSR1H 
	MOVLW       1
	MOVWF       POSTINC1+0 
	GOTO        L_GetAutocloseTime446
L_GetAutocloseTime450:
;FirmV_0_7_0.c,2089 :: 		for(i=0;i<20;i++)
	INCF        GetAutocloseTime_i_L0+0, 1 
;FirmV_0_7_0.c,2093 :: 		}
	GOTO        L_GetAutocloseTime445
L_GetAutocloseTime446:
;FirmV_0_7_0.c,2094 :: 		i=t-ms500;
	MOVF        _ms500+0, 0 
	SUBWF       GetAutocloseTime_t_L0+0, 0 
	MOVWF       R1 
	MOVF        R1, 0 
	MOVWF       GetAutocloseTime_i_L0+0 
;FirmV_0_7_0.c,2095 :: 		if(i>=20) i=0;
	MOVLW       20
	SUBWF       R1, 0 
	BTFSS       STATUS+0, 0 
	GOTO        L_GetAutocloseTime451
	CLRF        GetAutocloseTime_i_L0+0 
L_GetAutocloseTime451:
;FirmV_0_7_0.c,2096 :: 		return i;
	MOVF        GetAutocloseTime_i_L0+0, 0 
	MOVWF       R0 
;FirmV_0_7_0.c,2097 :: 		}
L_end_GetAutocloseTime:
	RETURN      0
; end of _GetAutocloseTime

_ClearTasks:

;FirmV_0_7_0.c,2114 :: 		void ClearTasks(char except)
;FirmV_0_7_0.c,2117 :: 		for(i=0;i<20;i++)
	CLRF        ClearTasks_i_L0+0 
L_ClearTasks452:
	MOVLW       20
	SUBWF       ClearTasks_i_L0+0, 0 
	BTFSC       STATUS+0, 0 
	GOTO        L_ClearTasks453
;FirmV_0_7_0.c,2118 :: 		if((Tasks[i].Expired==0)&&(Tasks[i].TaskCode!=except))
	MOVLW       7
	MOVWF       R0 
	MOVLW       0
	MOVWF       R1 
	MOVF        ClearTasks_i_L0+0, 0 
	MOVWF       R4 
	MOVLW       0
	MOVWF       R5 
	CALL        _Mul_16X16_U+0, 0
	MOVLW       _Tasks+0
	ADDWF       R0, 1 
	MOVLW       hi_addr(_Tasks+0)
	ADDWFC      R1, 1 
	MOVLW       5
	ADDWF       R0, 0 
	MOVWF       FSR0 
	MOVLW       0
	ADDWFC      R1, 0 
	MOVWF       FSR0H 
	MOVF        POSTINC0+0, 0 
	XORLW       0
	BTFSS       STATUS+0, 2 
	GOTO        L_ClearTasks457
	MOVLW       7
	MOVWF       R0 
	MOVLW       0
	MOVWF       R1 
	MOVF        ClearTasks_i_L0+0, 0 
	MOVWF       R4 
	MOVLW       0
	MOVWF       R5 
	CALL        _Mul_16X16_U+0, 0
	MOVLW       _Tasks+0
	ADDWF       R0, 0 
	MOVWF       FSR0 
	MOVLW       hi_addr(_Tasks+0)
	ADDWFC      R1, 0 
	MOVWF       FSR0H 
	MOVF        POSTINC0+0, 0 
	MOVWF       R1 
	MOVF        R1, 0 
	XORWF       FARG_ClearTasks_except+0, 0 
	BTFSC       STATUS+0, 2 
	GOTO        L_ClearTasks457
L__ClearTasks962:
;FirmV_0_7_0.c,2119 :: 		Tasks[i].Expired=1;
	MOVLW       7
	MOVWF       R0 
	MOVLW       0
	MOVWF       R1 
	MOVF        ClearTasks_i_L0+0, 0 
	MOVWF       R4 
	MOVLW       0
	MOVWF       R5 
	CALL        _Mul_16X16_U+0, 0
	MOVLW       _Tasks+0
	ADDWF       R0, 1 
	MOVLW       hi_addr(_Tasks+0)
	ADDWFC      R1, 1 
	MOVLW       5
	ADDWF       R0, 0 
	MOVWF       FSR1 
	MOVLW       0
	ADDWFC      R1, 0 
	MOVWF       FSR1H 
	MOVLW       1
	MOVWF       POSTINC1+0 
L_ClearTasks457:
;FirmV_0_7_0.c,2117 :: 		for(i=0;i<20;i++)
	INCF        ClearTasks_i_L0+0, 1 
;FirmV_0_7_0.c,2119 :: 		Tasks[i].Expired=1;
	GOTO        L_ClearTasks452
L_ClearTasks453:
;FirmV_0_7_0.c,2120 :: 		}
L_end_ClearTasks:
	RETURN      0
; end of _ClearTasks

_Menu0:

;FirmV_0_7_0.c,2135 :: 		void Menu0()
;FirmV_0_7_0.c,2137 :: 		LCDLines=2;
	MOVLW       2
	MOVWF       _LCDLines+0 
;FirmV_0_7_0.c,2138 :: 		memcpy(LCDLine2,"                ",16);
	MOVLW       _LCDLine2+0
	MOVWF       FARG_memcpy_d1+0 
	MOVLW       hi_addr(_LCDLine2+0)
	MOVWF       FARG_memcpy_d1+1 
	MOVLW       ?lstr70_FirmV_0_7_0+0
	MOVWF       FARG_memcpy_s1+0 
	MOVLW       hi_addr(?lstr70_FirmV_0_7_0+0)
	MOVWF       FARG_memcpy_s1+1 
	MOVLW       16
	MOVWF       FARG_memcpy_n+0 
	MOVLW       0
	MOVWF       FARG_memcpy_n+1 
	CALL        _memcpy+0, 0
;FirmV_0_7_0.c,2140 :: 		if(MenuPointer==0)
	MOVF        _MenuPointer+0, 0 
	XORLW       0
	BTFSS       STATUS+0, 2 
	GOTO        L_Menu0458
;FirmV_0_7_0.c,2141 :: 		{memcpy(LCDLine1,"00 Learning Mode",16);LCDUpdateFlag=1;
	MOVLW       _LCDLine1+0
	MOVWF       FARG_memcpy_d1+0 
	MOVLW       hi_addr(_LCDLine1+0)
	MOVWF       FARG_memcpy_d1+1 
	MOVLW       ?lstr71_FirmV_0_7_0+0
	MOVWF       FARG_memcpy_s1+0 
	MOVLW       hi_addr(?lstr71_FirmV_0_7_0+0)
	MOVWF       FARG_memcpy_s1+1 
	MOVLW       16
	MOVWF       FARG_memcpy_n+0 
	MOVLW       0
	MOVWF       FARG_memcpy_n+1 
	CALL        _memcpy+0, 0
	MOVLW       1
	MOVWF       _LCDUpdateFlag+0 
;FirmV_0_7_0.c,2142 :: 		if(LearningMode==0)memcpy(LCDLine2,"      Auto      ",16);
	MOVF        _LearningMode+0, 0 
	XORLW       0
	BTFSS       STATUS+0, 2 
	GOTO        L_Menu0459
	MOVLW       _LCDLine2+0
	MOVWF       FARG_memcpy_d1+0 
	MOVLW       hi_addr(_LCDLine2+0)
	MOVWF       FARG_memcpy_d1+1 
	MOVLW       ?lstr72_FirmV_0_7_0+0
	MOVWF       FARG_memcpy_s1+0 
	MOVLW       hi_addr(?lstr72_FirmV_0_7_0+0)
	MOVWF       FARG_memcpy_s1+1 
	MOVLW       16
	MOVWF       FARG_memcpy_n+0 
	MOVLW       0
	MOVWF       FARG_memcpy_n+1 
	CALL        _memcpy+0, 0
L_Menu0459:
;FirmV_0_7_0.c,2143 :: 		if(LearningMode==1)memcpy(LCDLine2,"     Manual     ",16);}
	MOVF        _LearningMode+0, 0 
	XORLW       1
	BTFSS       STATUS+0, 2 
	GOTO        L_Menu0460
	MOVLW       _LCDLine2+0
	MOVWF       FARG_memcpy_d1+0 
	MOVLW       hi_addr(_LCDLine2+0)
	MOVWF       FARG_memcpy_d1+1 
	MOVLW       ?lstr73_FirmV_0_7_0+0
	MOVWF       FARG_memcpy_s1+0 
	MOVLW       hi_addr(?lstr73_FirmV_0_7_0+0)
	MOVWF       FARG_memcpy_s1+1 
	MOVLW       16
	MOVWF       FARG_memcpy_n+0 
	MOVLW       0
	MOVWF       FARG_memcpy_n+1 
	CALL        _memcpy+0, 0
L_Menu0460:
L_Menu0458:
;FirmV_0_7_0.c,2145 :: 		if(MenuPointer==1)
	MOVF        _MenuPointer+0, 0 
	XORLW       1
	BTFSS       STATUS+0, 2 
	GOTO        L_Menu0461
;FirmV_0_7_0.c,2146 :: 		{memcpy(LCDLine1,"01 D1 Open Time ",16);LCDUpdateFlag=1;
	MOVLW       _LCDLine1+0
	MOVWF       FARG_memcpy_d1+0 
	MOVLW       hi_addr(_LCDLine1+0)
	MOVWF       FARG_memcpy_d1+1 
	MOVLW       ?lstr74_FirmV_0_7_0+0
	MOVWF       FARG_memcpy_s1+0 
	MOVLW       hi_addr(?lstr74_FirmV_0_7_0+0)
	MOVWF       FARG_memcpy_s1+1 
	MOVLW       16
	MOVWF       FARG_memcpy_n+0 
	MOVLW       0
	MOVWF       FARG_memcpy_n+1 
	CALL        _memcpy+0, 0
	MOVLW       1
	MOVWF       _LCDUpdateFlag+0 
;FirmV_0_7_0.c,2147 :: 		charValueToStr(Door1OpenTime,LCDLine2+6);}
	MOVF        _Door1OpenTime+0, 0 
	MOVWF       FARG_charValueToStr+0 
	MOVLW       _LCDLine2+6
	MOVWF       FARG_charValueToStr+0 
	MOVLW       hi_addr(_LCDLine2+6)
	MOVWF       FARG_charValueToStr+1 
	CALL        _charValueToStr+0, 0
L_Menu0461:
;FirmV_0_7_0.c,2149 :: 		if(MenuPointer==2)
	MOVF        _MenuPointer+0, 0 
	XORLW       2
	BTFSS       STATUS+0, 2 
	GOTO        L_Menu0462
;FirmV_0_7_0.c,2150 :: 		{memcpy(LCDLine1,"02 D2 Open Time ",16);LCDUpdateFlag=1;
	MOVLW       _LCDLine1+0
	MOVWF       FARG_memcpy_d1+0 
	MOVLW       hi_addr(_LCDLine1+0)
	MOVWF       FARG_memcpy_d1+1 
	MOVLW       ?lstr75_FirmV_0_7_0+0
	MOVWF       FARG_memcpy_s1+0 
	MOVLW       hi_addr(?lstr75_FirmV_0_7_0+0)
	MOVWF       FARG_memcpy_s1+1 
	MOVLW       16
	MOVWF       FARG_memcpy_n+0 
	MOVLW       0
	MOVWF       FARG_memcpy_n+1 
	CALL        _memcpy+0, 0
	MOVLW       1
	MOVWF       _LCDUpdateFlag+0 
;FirmV_0_7_0.c,2151 :: 		charValueToStr(Door2OpenTime,LCDLine2+6);}
	MOVF        _Door2OpenTime+0, 0 
	MOVWF       FARG_charValueToStr+0 
	MOVLW       _LCDLine2+6
	MOVWF       FARG_charValueToStr+0 
	MOVLW       hi_addr(_LCDLine2+6)
	MOVWF       FARG_charValueToStr+1 
	CALL        _charValueToStr+0, 0
L_Menu0462:
;FirmV_0_7_0.c,2153 :: 		if(MenuPointer==3)
	MOVF        _MenuPointer+0, 0 
	XORLW       3
	BTFSS       STATUS+0, 2 
	GOTO        L_Menu0463
;FirmV_0_7_0.c,2154 :: 		{memcpy(LCDLine1,"03 D1 Close Time",16);LCDUpdateFlag=1;
	MOVLW       _LCDLine1+0
	MOVWF       FARG_memcpy_d1+0 
	MOVLW       hi_addr(_LCDLine1+0)
	MOVWF       FARG_memcpy_d1+1 
	MOVLW       ?lstr76_FirmV_0_7_0+0
	MOVWF       FARG_memcpy_s1+0 
	MOVLW       hi_addr(?lstr76_FirmV_0_7_0+0)
	MOVWF       FARG_memcpy_s1+1 
	MOVLW       16
	MOVWF       FARG_memcpy_n+0 
	MOVLW       0
	MOVWF       FARG_memcpy_n+1 
	CALL        _memcpy+0, 0
	MOVLW       1
	MOVWF       _LCDUpdateFlag+0 
;FirmV_0_7_0.c,2155 :: 		charValueToStr(Door1CloseTime,LCDLine2+6);}
	MOVF        _Door1CloseTime+0, 0 
	MOVWF       FARG_charValueToStr+0 
	MOVLW       _LCDLine2+6
	MOVWF       FARG_charValueToStr+0 
	MOVLW       hi_addr(_LCDLine2+6)
	MOVWF       FARG_charValueToStr+1 
	CALL        _charValueToStr+0, 0
L_Menu0463:
;FirmV_0_7_0.c,2157 :: 		if(MenuPointer==4)
	MOVF        _MenuPointer+0, 0 
	XORLW       4
	BTFSS       STATUS+0, 2 
	GOTO        L_Menu0464
;FirmV_0_7_0.c,2158 :: 		{memcpy(LCDLine1,"04 D2 Close Time",16);LCDUpdateFlag=1;
	MOVLW       _LCDLine1+0
	MOVWF       FARG_memcpy_d1+0 
	MOVLW       hi_addr(_LCDLine1+0)
	MOVWF       FARG_memcpy_d1+1 
	MOVLW       ?lstr77_FirmV_0_7_0+0
	MOVWF       FARG_memcpy_s1+0 
	MOVLW       hi_addr(?lstr77_FirmV_0_7_0+0)
	MOVWF       FARG_memcpy_s1+1 
	MOVLW       16
	MOVWF       FARG_memcpy_n+0 
	MOVLW       0
	MOVWF       FARG_memcpy_n+1 
	CALL        _memcpy+0, 0
	MOVLW       1
	MOVWF       _LCDUpdateFlag+0 
;FirmV_0_7_0.c,2159 :: 		charValueToStr(Door2CloseTime,LCDLine2+6);}
	MOVF        _Door2CloseTime+0, 0 
	MOVWF       FARG_charValueToStr+0 
	MOVLW       _LCDLine2+6
	MOVWF       FARG_charValueToStr+0 
	MOVLW       hi_addr(_LCDLine2+6)
	MOVWF       FARG_charValueToStr+1 
	CALL        _charValueToStr+0, 0
L_Menu0464:
;FirmV_0_7_0.c,2161 :: 		if(MenuPointer==5)
	MOVF        _MenuPointer+0, 0 
	XORLW       5
	BTFSS       STATUS+0, 2 
	GOTO        L_Menu0465
;FirmV_0_7_0.c,2162 :: 		{memcpy(LCDLine1,"05 Op Soft Start",16);LCDUpdateFlag=1;
	MOVLW       _LCDLine1+0
	MOVWF       FARG_memcpy_d1+0 
	MOVLW       hi_addr(_LCDLine1+0)
	MOVWF       FARG_memcpy_d1+1 
	MOVLW       ?lstr78_FirmV_0_7_0+0
	MOVWF       FARG_memcpy_s1+0 
	MOVLW       hi_addr(?lstr78_FirmV_0_7_0+0)
	MOVWF       FARG_memcpy_s1+1 
	MOVLW       16
	MOVWF       FARG_memcpy_n+0 
	MOVLW       0
	MOVWF       FARG_memcpy_n+1 
	CALL        _memcpy+0, 0
	MOVLW       1
	MOVWF       _LCDUpdateFlag+0 
;FirmV_0_7_0.c,2163 :: 		charValueToStr(OpenSoftStartTime,LCDLine2+6);}
	MOVF        _OpenSoftStartTime+0, 0 
	MOVWF       FARG_charValueToStr+0 
	MOVLW       _LCDLine2+6
	MOVWF       FARG_charValueToStr+0 
	MOVLW       hi_addr(_LCDLine2+6)
	MOVWF       FARG_charValueToStr+1 
	CALL        _charValueToStr+0, 0
L_Menu0465:
;FirmV_0_7_0.c,2165 :: 		if(MenuPointer==6)
	MOVF        _MenuPointer+0, 0 
	XORLW       6
	BTFSS       STATUS+0, 2 
	GOTO        L_Menu0466
;FirmV_0_7_0.c,2166 :: 		{memcpy(LCDLine1,"06 Op Soft Stop ",16);LCDUpdateFlag=1;
	MOVLW       _LCDLine1+0
	MOVWF       FARG_memcpy_d1+0 
	MOVLW       hi_addr(_LCDLine1+0)
	MOVWF       FARG_memcpy_d1+1 
	MOVLW       ?lstr79_FirmV_0_7_0+0
	MOVWF       FARG_memcpy_s1+0 
	MOVLW       hi_addr(?lstr79_FirmV_0_7_0+0)
	MOVWF       FARG_memcpy_s1+1 
	MOVLW       16
	MOVWF       FARG_memcpy_n+0 
	MOVLW       0
	MOVWF       FARG_memcpy_n+1 
	CALL        _memcpy+0, 0
	MOVLW       1
	MOVWF       _LCDUpdateFlag+0 
;FirmV_0_7_0.c,2167 :: 		charValueToStr(OpenSoftStopTime,LCDLine2+6);}
	MOVF        _OpenSoftStopTime+0, 0 
	MOVWF       FARG_charValueToStr+0 
	MOVLW       _LCDLine2+6
	MOVWF       FARG_charValueToStr+0 
	MOVLW       hi_addr(_LCDLine2+6)
	MOVWF       FARG_charValueToStr+1 
	CALL        _charValueToStr+0, 0
L_Menu0466:
;FirmV_0_7_0.c,2169 :: 		if(MenuPointer==7)
	MOVF        _MenuPointer+0, 0 
	XORLW       7
	BTFSS       STATUS+0, 2 
	GOTO        L_Menu0467
;FirmV_0_7_0.c,2170 :: 		{memcpy(LCDLine1,"07 Cl Soft Start",16);LCDUpdateFlag=1;
	MOVLW       _LCDLine1+0
	MOVWF       FARG_memcpy_d1+0 
	MOVLW       hi_addr(_LCDLine1+0)
	MOVWF       FARG_memcpy_d1+1 
	MOVLW       ?lstr80_FirmV_0_7_0+0
	MOVWF       FARG_memcpy_s1+0 
	MOVLW       hi_addr(?lstr80_FirmV_0_7_0+0)
	MOVWF       FARG_memcpy_s1+1 
	MOVLW       16
	MOVWF       FARG_memcpy_n+0 
	MOVLW       0
	MOVWF       FARG_memcpy_n+1 
	CALL        _memcpy+0, 0
	MOVLW       1
	MOVWF       _LCDUpdateFlag+0 
;FirmV_0_7_0.c,2171 :: 		charValueToStr(CloseSoftStartTime,LCDLine2+6);}
	MOVF        _CloseSoftStartTime+0, 0 
	MOVWF       FARG_charValueToStr+0 
	MOVLW       _LCDLine2+6
	MOVWF       FARG_charValueToStr+0 
	MOVLW       hi_addr(_LCDLine2+6)
	MOVWF       FARG_charValueToStr+1 
	CALL        _charValueToStr+0, 0
L_Menu0467:
;FirmV_0_7_0.c,2173 :: 		if(MenuPointer==8)
	MOVF        _MenuPointer+0, 0 
	XORLW       8
	BTFSS       STATUS+0, 2 
	GOTO        L_Menu0468
;FirmV_0_7_0.c,2174 :: 		{memcpy(LCDLine1,"08 Cl Soft Stop ",16);LCDUpdateFlag=1;
	MOVLW       _LCDLine1+0
	MOVWF       FARG_memcpy_d1+0 
	MOVLW       hi_addr(_LCDLine1+0)
	MOVWF       FARG_memcpy_d1+1 
	MOVLW       ?lstr81_FirmV_0_7_0+0
	MOVWF       FARG_memcpy_s1+0 
	MOVLW       hi_addr(?lstr81_FirmV_0_7_0+0)
	MOVWF       FARG_memcpy_s1+1 
	MOVLW       16
	MOVWF       FARG_memcpy_n+0 
	MOVLW       0
	MOVWF       FARG_memcpy_n+1 
	CALL        _memcpy+0, 0
	MOVLW       1
	MOVWF       _LCDUpdateFlag+0 
;FirmV_0_7_0.c,2175 :: 		charValueToStr(CloseSoftStopTime,LCDLine2+6);}
	MOVF        _CloseSoftStopTime+0, 0 
	MOVWF       FARG_charValueToStr+0 
	MOVLW       _LCDLine2+6
	MOVWF       FARG_charValueToStr+0 
	MOVLW       hi_addr(_LCDLine2+6)
	MOVWF       FARG_charValueToStr+1 
	CALL        _charValueToStr+0, 0
L_Menu0468:
;FirmV_0_7_0.c,2177 :: 		if(MenuPointer==9)
	MOVF        _MenuPointer+0, 0 
	XORLW       9
	BTFSS       STATUS+0, 2 
	GOTO        L_Menu0469
;FirmV_0_7_0.c,2178 :: 		{memcpy(LCDLine1,"09 M1 Soft Power",16);LCDUpdateFlag=1;
	MOVLW       _LCDLine1+0
	MOVWF       FARG_memcpy_d1+0 
	MOVLW       hi_addr(_LCDLine1+0)
	MOVWF       FARG_memcpy_d1+1 
	MOVLW       ?lstr82_FirmV_0_7_0+0
	MOVWF       FARG_memcpy_s1+0 
	MOVLW       hi_addr(?lstr82_FirmV_0_7_0+0)
	MOVWF       FARG_memcpy_s1+1 
	MOVLW       16
	MOVWF       FARG_memcpy_n+0 
	MOVLW       0
	MOVWF       FARG_memcpy_n+1 
	CALL        _memcpy+0, 0
	MOVLW       1
	MOVWF       _LCDUpdateFlag+0 
;FirmV_0_7_0.c,2179 :: 		bytetostr(M1SoftPower,LCDLine2+6);}
	MOVF        _M1SoftPower+0, 0 
	MOVWF       FARG_ByteToStr_input+0 
	MOVLW       _LCDLine2+6
	MOVWF       FARG_ByteToStr_output+0 
	MOVLW       hi_addr(_LCDLine2+6)
	MOVWF       FARG_ByteToStr_output+1 
	CALL        _ByteToStr+0, 0
L_Menu0469:
;FirmV_0_7_0.c,2181 :: 		if(MenuPointer==10)
	MOVF        _MenuPointer+0, 0 
	XORLW       10
	BTFSS       STATUS+0, 2 
	GOTO        L_Menu0470
;FirmV_0_7_0.c,2182 :: 		{memcpy(LCDLine1,"10 M2 Soft Power",16);LCDUpdateFlag=1;
	MOVLW       _LCDLine1+0
	MOVWF       FARG_memcpy_d1+0 
	MOVLW       hi_addr(_LCDLine1+0)
	MOVWF       FARG_memcpy_d1+1 
	MOVLW       ?lstr83_FirmV_0_7_0+0
	MOVWF       FARG_memcpy_s1+0 
	MOVLW       hi_addr(?lstr83_FirmV_0_7_0+0)
	MOVWF       FARG_memcpy_s1+1 
	MOVLW       16
	MOVWF       FARG_memcpy_n+0 
	MOVLW       0
	MOVWF       FARG_memcpy_n+1 
	CALL        _memcpy+0, 0
	MOVLW       1
	MOVWF       _LCDUpdateFlag+0 
;FirmV_0_7_0.c,2183 :: 		bytetostr(M2SoftPower,LCDLine2+6);}
	MOVF        _M2SoftPower+0, 0 
	MOVWF       FARG_ByteToStr_input+0 
	MOVLW       _LCDLine2+6
	MOVWF       FARG_ByteToStr_output+0 
	MOVLW       hi_addr(_LCDLine2+6)
	MOVWF       FARG_ByteToStr_output+1 
	CALL        _ByteToStr+0, 0
L_Menu0470:
;FirmV_0_7_0.c,2185 :: 		if(MenuPointer==11)
	MOVF        _MenuPointer+0, 0 
	XORLW       11
	BTFSS       STATUS+0, 2 
	GOTO        L_Menu0471
;FirmV_0_7_0.c,2186 :: 		{memcpy(LCDLine1,"11 M1 Overl Sens",16);LCDUpdateFlag=1;
	MOVLW       _LCDLine1+0
	MOVWF       FARG_memcpy_d1+0 
	MOVLW       hi_addr(_LCDLine1+0)
	MOVWF       FARG_memcpy_d1+1 
	MOVLW       ?lstr84_FirmV_0_7_0+0
	MOVWF       FARG_memcpy_s1+0 
	MOVLW       hi_addr(?lstr84_FirmV_0_7_0+0)
	MOVWF       FARG_memcpy_s1+1 
	MOVLW       16
	MOVWF       FARG_memcpy_n+0 
	MOVLW       0
	MOVWF       FARG_memcpy_n+1 
	CALL        _memcpy+0, 0
	MOVLW       1
	MOVWF       _LCDUpdateFlag+0 
;FirmV_0_7_0.c,2187 :: 		bytetostr(OverloadSens1,LCDLine2+3);if(OverloadSens1>7)memcpy(LCDLine2+7,"250Kg-",6);else memcpy(LCDLine2+7,"250Kg+",6);}
	MOVF        _OverloadSens1+0, 0 
	MOVWF       FARG_ByteToStr_input+0 
	MOVLW       _LCDLine2+3
	MOVWF       FARG_ByteToStr_output+0 
	MOVLW       hi_addr(_LCDLine2+3)
	MOVWF       FARG_ByteToStr_output+1 
	CALL        _ByteToStr+0, 0
	MOVF        _OverloadSens1+0, 0 
	SUBLW       7
	BTFSC       STATUS+0, 0 
	GOTO        L_Menu0472
	MOVLW       _LCDLine2+7
	MOVWF       FARG_memcpy_d1+0 
	MOVLW       hi_addr(_LCDLine2+7)
	MOVWF       FARG_memcpy_d1+1 
	MOVLW       ?lstr85_FirmV_0_7_0+0
	MOVWF       FARG_memcpy_s1+0 
	MOVLW       hi_addr(?lstr85_FirmV_0_7_0+0)
	MOVWF       FARG_memcpy_s1+1 
	MOVLW       6
	MOVWF       FARG_memcpy_n+0 
	MOVLW       0
	MOVWF       FARG_memcpy_n+1 
	CALL        _memcpy+0, 0
	GOTO        L_Menu0473
L_Menu0472:
	MOVLW       _LCDLine2+7
	MOVWF       FARG_memcpy_d1+0 
	MOVLW       hi_addr(_LCDLine2+7)
	MOVWF       FARG_memcpy_d1+1 
	MOVLW       ?lstr86_FirmV_0_7_0+0
	MOVWF       FARG_memcpy_s1+0 
	MOVLW       hi_addr(?lstr86_FirmV_0_7_0+0)
	MOVWF       FARG_memcpy_s1+1 
	MOVLW       6
	MOVWF       FARG_memcpy_n+0 
	MOVLW       0
	MOVWF       FARG_memcpy_n+1 
	CALL        _memcpy+0, 0
L_Menu0473:
L_Menu0471:
;FirmV_0_7_0.c,2189 :: 		if(MenuPointer==12)
	MOVF        _MenuPointer+0, 0 
	XORLW       12
	BTFSS       STATUS+0, 2 
	GOTO        L_Menu0474
;FirmV_0_7_0.c,2190 :: 		{memcpy(LCDLine1,"12 M2 Overl Sens",16);LCDUpdateFlag=1;
	MOVLW       _LCDLine1+0
	MOVWF       FARG_memcpy_d1+0 
	MOVLW       hi_addr(_LCDLine1+0)
	MOVWF       FARG_memcpy_d1+1 
	MOVLW       ?lstr87_FirmV_0_7_0+0
	MOVWF       FARG_memcpy_s1+0 
	MOVLW       hi_addr(?lstr87_FirmV_0_7_0+0)
	MOVWF       FARG_memcpy_s1+1 
	MOVLW       16
	MOVWF       FARG_memcpy_n+0 
	MOVLW       0
	MOVWF       FARG_memcpy_n+1 
	CALL        _memcpy+0, 0
	MOVLW       1
	MOVWF       _LCDUpdateFlag+0 
;FirmV_0_7_0.c,2191 :: 		bytetostr(OverloadSens2,LCDLine2+3);if(OverloadSens2>7)memcpy(LCDLine2+7,"250Kg-",6);else memcpy(LCDLine2+7,"250Kg+",6);}
	MOVF        _OverloadSens2+0, 0 
	MOVWF       FARG_ByteToStr_input+0 
	MOVLW       _LCDLine2+3
	MOVWF       FARG_ByteToStr_output+0 
	MOVLW       hi_addr(_LCDLine2+3)
	MOVWF       FARG_ByteToStr_output+1 
	CALL        _ByteToStr+0, 0
	MOVF        _OverloadSens2+0, 0 
	SUBLW       7
	BTFSC       STATUS+0, 0 
	GOTO        L_Menu0475
	MOVLW       _LCDLine2+7
	MOVWF       FARG_memcpy_d1+0 
	MOVLW       hi_addr(_LCDLine2+7)
	MOVWF       FARG_memcpy_d1+1 
	MOVLW       ?lstr88_FirmV_0_7_0+0
	MOVWF       FARG_memcpy_s1+0 
	MOVLW       hi_addr(?lstr88_FirmV_0_7_0+0)
	MOVWF       FARG_memcpy_s1+1 
	MOVLW       6
	MOVWF       FARG_memcpy_n+0 
	MOVLW       0
	MOVWF       FARG_memcpy_n+1 
	CALL        _memcpy+0, 0
	GOTO        L_Menu0476
L_Menu0475:
	MOVLW       _LCDLine2+7
	MOVWF       FARG_memcpy_d1+0 
	MOVLW       hi_addr(_LCDLine2+7)
	MOVWF       FARG_memcpy_d1+1 
	MOVLW       ?lstr89_FirmV_0_7_0+0
	MOVWF       FARG_memcpy_s1+0 
	MOVLW       hi_addr(?lstr89_FirmV_0_7_0+0)
	MOVWF       FARG_memcpy_s1+1 
	MOVLW       6
	MOVWF       FARG_memcpy_n+0 
	MOVLW       0
	MOVWF       FARG_memcpy_n+1 
	CALL        _memcpy+0, 0
L_Menu0476:
L_Menu0474:
;FirmV_0_7_0.c,2193 :: 		if(MenuPointer==13)
	MOVF        _MenuPointer+0, 0 
	XORLW       13
	BTFSS       STATUS+0, 2 
	GOTO        L_Menu0477
;FirmV_0_7_0.c,2194 :: 		{memcpy(LCDLine1,"13 M1 Overl Time",16);LCDUpdateFlag=1;
	MOVLW       _LCDLine1+0
	MOVWF       FARG_memcpy_d1+0 
	MOVLW       hi_addr(_LCDLine1+0)
	MOVWF       FARG_memcpy_d1+1 
	MOVLW       ?lstr90_FirmV_0_7_0+0
	MOVWF       FARG_memcpy_s1+0 
	MOVLW       hi_addr(?lstr90_FirmV_0_7_0+0)
	MOVWF       FARG_memcpy_s1+1 
	MOVLW       16
	MOVWF       FARG_memcpy_n+0 
	MOVLW       0
	MOVWF       FARG_memcpy_n+1 
	CALL        _memcpy+0, 0
	MOVLW       1
	MOVWF       _LCDUpdateFlag+0 
;FirmV_0_7_0.c,2195 :: 		charValueToStr(OverloadTime1,LCDLine2+6);}
	MOVF        _OverloadTime1+0, 0 
	MOVWF       FARG_charValueToStr+0 
	MOVLW       _LCDLine2+6
	MOVWF       FARG_charValueToStr+0 
	MOVLW       hi_addr(_LCDLine2+6)
	MOVWF       FARG_charValueToStr+1 
	CALL        _charValueToStr+0, 0
L_Menu0477:
;FirmV_0_7_0.c,2197 :: 		if(MenuPointer==14)
	MOVF        _MenuPointer+0, 0 
	XORLW       14
	BTFSS       STATUS+0, 2 
	GOTO        L_Menu0478
;FirmV_0_7_0.c,2198 :: 		{memcpy(LCDLine1,"14 M2 Overl Time",16);LCDUpdateFlag=1;
	MOVLW       _LCDLine1+0
	MOVWF       FARG_memcpy_d1+0 
	MOVLW       hi_addr(_LCDLine1+0)
	MOVWF       FARG_memcpy_d1+1 
	MOVLW       ?lstr91_FirmV_0_7_0+0
	MOVWF       FARG_memcpy_s1+0 
	MOVLW       hi_addr(?lstr91_FirmV_0_7_0+0)
	MOVWF       FARG_memcpy_s1+1 
	MOVLW       16
	MOVWF       FARG_memcpy_n+0 
	MOVLW       0
	MOVWF       FARG_memcpy_n+1 
	CALL        _memcpy+0, 0
	MOVLW       1
	MOVWF       _LCDUpdateFlag+0 
;FirmV_0_7_0.c,2199 :: 		charValueToStr(OverloadTime2,LCDLine2+6);}
	MOVF        _OverloadTime2+0, 0 
	MOVWF       FARG_charValueToStr+0 
	MOVLW       _LCDLine2+6
	MOVWF       FARG_charValueToStr+0 
	MOVLW       hi_addr(_LCDLine2+6)
	MOVWF       FARG_charValueToStr+1 
	CALL        _charValueToStr+0, 0
L_Menu0478:
;FirmV_0_7_0.c,2201 :: 		if(MenuPointer==15)
	MOVF        _MenuPointer+0, 0 
	XORLW       15
	BTFSS       STATUS+0, 2 
	GOTO        L_Menu0479
;FirmV_0_7_0.c,2202 :: 		{memcpy(LCDLine1,"15 Interval Time",16);LCDUpdateFlag=1;
	MOVLW       _LCDLine1+0
	MOVWF       FARG_memcpy_d1+0 
	MOVLW       hi_addr(_LCDLine1+0)
	MOVWF       FARG_memcpy_d1+1 
	MOVLW       ?lstr92_FirmV_0_7_0+0
	MOVWF       FARG_memcpy_s1+0 
	MOVLW       hi_addr(?lstr92_FirmV_0_7_0+0)
	MOVWF       FARG_memcpy_s1+1 
	MOVLW       16
	MOVWF       FARG_memcpy_n+0 
	MOVLW       0
	MOVWF       FARG_memcpy_n+1 
	CALL        _memcpy+0, 0
	MOVLW       1
	MOVWF       _LCDUpdateFlag+0 
;FirmV_0_7_0.c,2203 :: 		charValueToStr(ActionTimeDiff,LCDLine2+6);}
	MOVF        _ActionTimeDiff+0, 0 
	MOVWF       FARG_charValueToStr+0 
	MOVLW       _LCDLine2+6
	MOVWF       FARG_charValueToStr+0 
	MOVLW       hi_addr(_LCDLine2+6)
	MOVWF       FARG_charValueToStr+1 
	CALL        _charValueToStr+0, 0
L_Menu0479:
;FirmV_0_7_0.c,2205 :: 		if(MenuPointer==16)
	MOVF        _MenuPointer+0, 0 
	XORLW       16
	BTFSS       STATUS+0, 2 
	GOTO        L_Menu0480
;FirmV_0_7_0.c,2206 :: 		{memcpy(LCDLine1,"16 Auto-close T ",16);LCDUpdateFlag=1;
	MOVLW       _LCDLine1+0
	MOVWF       FARG_memcpy_d1+0 
	MOVLW       hi_addr(_LCDLine1+0)
	MOVWF       FARG_memcpy_d1+1 
	MOVLW       ?lstr93_FirmV_0_7_0+0
	MOVWF       FARG_memcpy_s1+0 
	MOVLW       hi_addr(?lstr93_FirmV_0_7_0+0)
	MOVWF       FARG_memcpy_s1+1 
	MOVLW       16
	MOVWF       FARG_memcpy_n+0 
	MOVLW       0
	MOVWF       FARG_memcpy_n+1 
	CALL        _memcpy+0, 0
	MOVLW       1
	MOVWF       _LCDUpdateFlag+0 
;FirmV_0_7_0.c,2207 :: 		intValueToStr(AutoCloseTime,LCDLine2+4);}
	MOVF        _AutoCloseTime+0, 0 
	MOVWF       FARG_intValueToStr+0 
	MOVF        _AutoCloseTime+1, 0 
	MOVWF       FARG_intValueToStr+1 
	MOVLW       _LCDLine2+4
	MOVWF       FARG_intValueToStr+0 
	MOVLW       hi_addr(_LCDLine2+4)
	MOVWF       FARG_intValueToStr+1 
	CALL        _intValueToStr+0, 0
L_Menu0480:
;FirmV_0_7_0.c,2209 :: 		if(MenuPointer==17)
	MOVF        _MenuPointer+0, 0 
	XORLW       17
	BTFSS       STATUS+0, 2 
	GOTO        L_Menu0481
;FirmV_0_7_0.c,2210 :: 		{memcpy(LCDLine1,"17 Factory Reset",16);LCDUpdateFlag=1;}
	MOVLW       _LCDLine1+0
	MOVWF       FARG_memcpy_d1+0 
	MOVLW       hi_addr(_LCDLine1+0)
	MOVWF       FARG_memcpy_d1+1 
	MOVLW       ?lstr94_FirmV_0_7_0+0
	MOVWF       FARG_memcpy_s1+0 
	MOVLW       hi_addr(?lstr94_FirmV_0_7_0+0)
	MOVWF       FARG_memcpy_s1+1 
	MOVLW       16
	MOVWF       FARG_memcpy_n+0 
	MOVLW       0
	MOVWF       FARG_memcpy_n+1 
	CALL        _memcpy+0, 0
	MOVLW       1
	MOVWF       _LCDUpdateFlag+0 
L_Menu0481:
;FirmV_0_7_0.c,2212 :: 		if(MenuPointer==18)
	MOVF        _MenuPointer+0, 0 
	XORLW       18
	BTFSS       STATUS+0, 2 
	GOTO        L_Menu0482
;FirmV_0_7_0.c,2213 :: 		{memcpy(LCDLine1,"18 Open Photo En",16);LCDUpdateFlag=1;
	MOVLW       _LCDLine1+0
	MOVWF       FARG_memcpy_d1+0 
	MOVLW       hi_addr(_LCDLine1+0)
	MOVWF       FARG_memcpy_d1+1 
	MOVLW       ?lstr95_FirmV_0_7_0+0
	MOVWF       FARG_memcpy_s1+0 
	MOVLW       hi_addr(?lstr95_FirmV_0_7_0+0)
	MOVWF       FARG_memcpy_s1+1 
	MOVLW       16
	MOVWF       FARG_memcpy_n+0 
	MOVLW       0
	MOVWF       FARG_memcpy_n+1 
	CALL        _memcpy+0, 0
	MOVLW       1
	MOVWF       _LCDUpdateFlag+0 
;FirmV_0_7_0.c,2214 :: 		if(OpenPhEnable==0) memcpy(LCDLine2+6,"No     ",7);else memcpy(LCDLine2+6,"Yes     ",8);}
	MOVF        _OpenPhEnable+0, 0 
	XORLW       0
	BTFSS       STATUS+0, 2 
	GOTO        L_Menu0483
	MOVLW       _LCDLine2+6
	MOVWF       FARG_memcpy_d1+0 
	MOVLW       hi_addr(_LCDLine2+6)
	MOVWF       FARG_memcpy_d1+1 
	MOVLW       ?lstr96_FirmV_0_7_0+0
	MOVWF       FARG_memcpy_s1+0 
	MOVLW       hi_addr(?lstr96_FirmV_0_7_0+0)
	MOVWF       FARG_memcpy_s1+1 
	MOVLW       7
	MOVWF       FARG_memcpy_n+0 
	MOVLW       0
	MOVWF       FARG_memcpy_n+1 
	CALL        _memcpy+0, 0
	GOTO        L_Menu0484
L_Menu0483:
	MOVLW       _LCDLine2+6
	MOVWF       FARG_memcpy_d1+0 
	MOVLW       hi_addr(_LCDLine2+6)
	MOVWF       FARG_memcpy_d1+1 
	MOVLW       ?lstr97_FirmV_0_7_0+0
	MOVWF       FARG_memcpy_s1+0 
	MOVLW       hi_addr(?lstr97_FirmV_0_7_0+0)
	MOVWF       FARG_memcpy_s1+1 
	MOVLW       8
	MOVWF       FARG_memcpy_n+0 
	MOVLW       0
	MOVWF       FARG_memcpy_n+1 
	CALL        _memcpy+0, 0
L_Menu0484:
L_Menu0482:
;FirmV_0_7_0.c,2216 :: 		if(MenuPointer==19)
	MOVF        _MenuPointer+0, 0 
	XORLW       19
	BTFSS       STATUS+0, 2 
	GOTO        L_Menu0485
;FirmV_0_7_0.c,2217 :: 		{memcpy(LCDLine1,"19 Limit Enable ",16);LCDUpdateFlag=1;
	MOVLW       _LCDLine1+0
	MOVWF       FARG_memcpy_d1+0 
	MOVLW       hi_addr(_LCDLine1+0)
	MOVWF       FARG_memcpy_d1+1 
	MOVLW       ?lstr98_FirmV_0_7_0+0
	MOVWF       FARG_memcpy_s1+0 
	MOVLW       hi_addr(?lstr98_FirmV_0_7_0+0)
	MOVWF       FARG_memcpy_s1+1 
	MOVLW       16
	MOVWF       FARG_memcpy_n+0 
	MOVLW       0
	MOVWF       FARG_memcpy_n+1 
	CALL        _memcpy+0, 0
	MOVLW       1
	MOVWF       _LCDUpdateFlag+0 
;FirmV_0_7_0.c,2218 :: 		if(LimiterEnable==0) memcpy(LCDLine2+6,"No     ",7);else memcpy(LCDLine2+6,"Yes     ",8);}
	MOVF        _LimiterEnable+0, 0 
	XORLW       0
	BTFSS       STATUS+0, 2 
	GOTO        L_Menu0486
	MOVLW       _LCDLine2+6
	MOVWF       FARG_memcpy_d1+0 
	MOVLW       hi_addr(_LCDLine2+6)
	MOVWF       FARG_memcpy_d1+1 
	MOVLW       ?lstr99_FirmV_0_7_0+0
	MOVWF       FARG_memcpy_s1+0 
	MOVLW       hi_addr(?lstr99_FirmV_0_7_0+0)
	MOVWF       FARG_memcpy_s1+1 
	MOVLW       7
	MOVWF       FARG_memcpy_n+0 
	MOVLW       0
	MOVWF       FARG_memcpy_n+1 
	CALL        _memcpy+0, 0
	GOTO        L_Menu0487
L_Menu0486:
	MOVLW       _LCDLine2+6
	MOVWF       FARG_memcpy_d1+0 
	MOVLW       hi_addr(_LCDLine2+6)
	MOVWF       FARG_memcpy_d1+1 
	MOVLW       ?lstr100_FirmV_0_7_0+0
	MOVWF       FARG_memcpy_s1+0 
	MOVLW       hi_addr(?lstr100_FirmV_0_7_0+0)
	MOVWF       FARG_memcpy_s1+1 
	MOVLW       8
	MOVWF       FARG_memcpy_n+0 
	MOVLW       0
	MOVWF       FARG_memcpy_n+1 
	CALL        _memcpy+0, 0
L_Menu0487:
L_Menu0485:
;FirmV_0_7_0.c,2220 :: 		if(MenuPointer==20)
	MOVF        _MenuPointer+0, 0 
	XORLW       20
	BTFSS       STATUS+0, 2 
	GOTO        L_Menu0488
;FirmV_0_7_0.c,2221 :: 		{memcpy(LCDLine1,"20 Reverse Open ",16);LCDUpdateFlag=1;
	MOVLW       _LCDLine1+0
	MOVWF       FARG_memcpy_d1+0 
	MOVLW       hi_addr(_LCDLine1+0)
	MOVWF       FARG_memcpy_d1+1 
	MOVLW       ?lstr101_FirmV_0_7_0+0
	MOVWF       FARG_memcpy_s1+0 
	MOVLW       hi_addr(?lstr101_FirmV_0_7_0+0)
	MOVWF       FARG_memcpy_s1+1 
	MOVLW       16
	MOVWF       FARG_memcpy_n+0 
	MOVLW       0
	MOVWF       FARG_memcpy_n+1 
	CALL        _memcpy+0, 0
	MOVLW       1
	MOVWF       _LCDUpdateFlag+0 
;FirmV_0_7_0.c,2222 :: 		if(ReverseOnOpen==0) memcpy(LCDLine2+6,"No     ",7);else memcpy(LCDLine2+6,"Yes     ",8);}
	MOVF        _ReverseOnOpen+0, 0 
	XORLW       0
	BTFSS       STATUS+0, 2 
	GOTO        L_Menu0489
	MOVLW       _LCDLine2+6
	MOVWF       FARG_memcpy_d1+0 
	MOVLW       hi_addr(_LCDLine2+6)
	MOVWF       FARG_memcpy_d1+1 
	MOVLW       ?lstr102_FirmV_0_7_0+0
	MOVWF       FARG_memcpy_s1+0 
	MOVLW       hi_addr(?lstr102_FirmV_0_7_0+0)
	MOVWF       FARG_memcpy_s1+1 
	MOVLW       7
	MOVWF       FARG_memcpy_n+0 
	MOVLW       0
	MOVWF       FARG_memcpy_n+1 
	CALL        _memcpy+0, 0
	GOTO        L_Menu0490
L_Menu0489:
	MOVLW       _LCDLine2+6
	MOVWF       FARG_memcpy_d1+0 
	MOVLW       hi_addr(_LCDLine2+6)
	MOVWF       FARG_memcpy_d1+1 
	MOVLW       ?lstr103_FirmV_0_7_0+0
	MOVWF       FARG_memcpy_s1+0 
	MOVLW       hi_addr(?lstr103_FirmV_0_7_0+0)
	MOVWF       FARG_memcpy_s1+1 
	MOVLW       8
	MOVWF       FARG_memcpy_n+0 
	MOVLW       0
	MOVWF       FARG_memcpy_n+1 
	CALL        _memcpy+0, 0
L_Menu0490:
L_Menu0488:
;FirmV_0_7_0.c,2224 :: 		if(MenuPointer==21)
	MOVF        _MenuPointer+0, 0 
	XORLW       21
	BTFSS       STATUS+0, 2 
	GOTO        L_Menu0491
;FirmV_0_7_0.c,2225 :: 		{memcpy(LCDLine1,"21 Reverse Close ",16);LCDUpdateFlag=1;
	MOVLW       _LCDLine1+0
	MOVWF       FARG_memcpy_d1+0 
	MOVLW       hi_addr(_LCDLine1+0)
	MOVWF       FARG_memcpy_d1+1 
	MOVLW       ?lstr104_FirmV_0_7_0+0
	MOVWF       FARG_memcpy_s1+0 
	MOVLW       hi_addr(?lstr104_FirmV_0_7_0+0)
	MOVWF       FARG_memcpy_s1+1 
	MOVLW       16
	MOVWF       FARG_memcpy_n+0 
	MOVLW       0
	MOVWF       FARG_memcpy_n+1 
	CALL        _memcpy+0, 0
	MOVLW       1
	MOVWF       _LCDUpdateFlag+0 
;FirmV_0_7_0.c,2226 :: 		if(ReverseOnClose==0) memcpy(LCDLine2+6,"No     ",7);else memcpy(LCDLine2+6,"Yes     ",8);}
	MOVF        _ReverseOnClose+0, 0 
	XORLW       0
	BTFSS       STATUS+0, 2 
	GOTO        L_Menu0492
	MOVLW       _LCDLine2+6
	MOVWF       FARG_memcpy_d1+0 
	MOVLW       hi_addr(_LCDLine2+6)
	MOVWF       FARG_memcpy_d1+1 
	MOVLW       ?lstr105_FirmV_0_7_0+0
	MOVWF       FARG_memcpy_s1+0 
	MOVLW       hi_addr(?lstr105_FirmV_0_7_0+0)
	MOVWF       FARG_memcpy_s1+1 
	MOVLW       7
	MOVWF       FARG_memcpy_n+0 
	MOVLW       0
	MOVWF       FARG_memcpy_n+1 
	CALL        _memcpy+0, 0
	GOTO        L_Menu0493
L_Menu0492:
	MOVLW       _LCDLine2+6
	MOVWF       FARG_memcpy_d1+0 
	MOVLW       hi_addr(_LCDLine2+6)
	MOVWF       FARG_memcpy_d1+1 
	MOVLW       ?lstr106_FirmV_0_7_0+0
	MOVWF       FARG_memcpy_s1+0 
	MOVLW       hi_addr(?lstr106_FirmV_0_7_0+0)
	MOVWF       FARG_memcpy_s1+1 
	MOVLW       8
	MOVWF       FARG_memcpy_n+0 
	MOVLW       0
	MOVWF       FARG_memcpy_n+1 
	CALL        _memcpy+0, 0
L_Menu0493:
L_Menu0491:
;FirmV_0_7_0.c,2228 :: 		if(MenuPointer==22)
	MOVF        _MenuPointer+0, 0 
	XORLW       22
	BTFSS       STATUS+0, 2 
	GOTO        L_Menu0494
;FirmV_0_7_0.c,2229 :: 		{memcpy(LCDLine1,"22 Lock Force   ",16);LCDUpdateFlag=1;
	MOVLW       _LCDLine1+0
	MOVWF       FARG_memcpy_d1+0 
	MOVLW       hi_addr(_LCDLine1+0)
	MOVWF       FARG_memcpy_d1+1 
	MOVLW       ?lstr107_FirmV_0_7_0+0
	MOVWF       FARG_memcpy_s1+0 
	MOVLW       hi_addr(?lstr107_FirmV_0_7_0+0)
	MOVWF       FARG_memcpy_s1+1 
	MOVLW       16
	MOVWF       FARG_memcpy_n+0 
	MOVLW       0
	MOVWF       FARG_memcpy_n+1 
	CALL        _memcpy+0, 0
	MOVLW       1
	MOVWF       _LCDUpdateFlag+0 
;FirmV_0_7_0.c,2230 :: 		if(LockForce==0) memcpy(LCDLine2+6,"No     ",7);else memcpy(LCDLine2+6,"Yes     ",8);}
	MOVF        _LockForce+0, 0 
	XORLW       0
	BTFSS       STATUS+0, 2 
	GOTO        L_Menu0495
	MOVLW       _LCDLine2+6
	MOVWF       FARG_memcpy_d1+0 
	MOVLW       hi_addr(_LCDLine2+6)
	MOVWF       FARG_memcpy_d1+1 
	MOVLW       ?lstr108_FirmV_0_7_0+0
	MOVWF       FARG_memcpy_s1+0 
	MOVLW       hi_addr(?lstr108_FirmV_0_7_0+0)
	MOVWF       FARG_memcpy_s1+1 
	MOVLW       7
	MOVWF       FARG_memcpy_n+0 
	MOVLW       0
	MOVWF       FARG_memcpy_n+1 
	CALL        _memcpy+0, 0
	GOTO        L_Menu0496
L_Menu0495:
	MOVLW       _LCDLine2+6
	MOVWF       FARG_memcpy_d1+0 
	MOVLW       hi_addr(_LCDLine2+6)
	MOVWF       FARG_memcpy_d1+1 
	MOVLW       ?lstr109_FirmV_0_7_0+0
	MOVWF       FARG_memcpy_s1+0 
	MOVLW       hi_addr(?lstr109_FirmV_0_7_0+0)
	MOVWF       FARG_memcpy_s1+1 
	MOVLW       8
	MOVWF       FARG_memcpy_n+0 
	MOVLW       0
	MOVWF       FARG_memcpy_n+1 
	CALL        _memcpy+0, 0
L_Menu0496:
L_Menu0494:
;FirmV_0_7_0.c,2232 :: 		if(MenuPointer==23)
	MOVF        _MenuPointer+0, 0 
	XORLW       23
	BTFSS       STATUS+0, 2 
	GOTO        L_Menu0497
;FirmV_0_7_0.c,2233 :: 		{memcpy(LCDLine1,"23 Au-Cl Pass   ",16);LCDUpdateFlag=1;
	MOVLW       _LCDLine1+0
	MOVWF       FARG_memcpy_d1+0 
	MOVLW       hi_addr(_LCDLine1+0)
	MOVWF       FARG_memcpy_d1+1 
	MOVLW       ?lstr110_FirmV_0_7_0+0
	MOVWF       FARG_memcpy_s1+0 
	MOVLW       hi_addr(?lstr110_FirmV_0_7_0+0)
	MOVWF       FARG_memcpy_s1+1 
	MOVLW       16
	MOVWF       FARG_memcpy_n+0 
	MOVLW       0
	MOVWF       FARG_memcpy_n+1 
	CALL        _memcpy+0, 0
	MOVLW       1
	MOVWF       _LCDUpdateFlag+0 
;FirmV_0_7_0.c,2234 :: 		charValueToStr(CloseAfterPass,LCDLine2+6);}
	MOVF        _CloseAfterPass+0, 0 
	MOVWF       FARG_charValueToStr+0 
	MOVLW       _LCDLine2+6
	MOVWF       FARG_charValueToStr+0 
	MOVLW       hi_addr(_LCDLine2+6)
	MOVWF       FARG_charValueToStr+1 
	CALL        _charValueToStr+0, 0
L_Menu0497:
;FirmV_0_7_0.c,2236 :: 		if(MenuPointer==24)
	MOVF        _MenuPointer+0, 0 
	XORLW       24
	BTFSS       STATUS+0, 2 
	GOTO        L_Menu0498
;FirmV_0_7_0.c,2237 :: 		{memcpy(LCDLine1,"24 Save Changes ",16);LCDUpdateFlag=1;}
	MOVLW       _LCDLine1+0
	MOVWF       FARG_memcpy_d1+0 
	MOVLW       hi_addr(_LCDLine1+0)
	MOVWF       FARG_memcpy_d1+1 
	MOVLW       ?lstr111_FirmV_0_7_0+0
	MOVWF       FARG_memcpy_s1+0 
	MOVLW       hi_addr(?lstr111_FirmV_0_7_0+0)
	MOVWF       FARG_memcpy_s1+1 
	MOVLW       16
	MOVWF       FARG_memcpy_n+0 
	MOVLW       0
	MOVWF       FARG_memcpy_n+1 
	CALL        _memcpy+0, 0
	MOVLW       1
	MOVWF       _LCDUpdateFlag+0 
L_Menu0498:
;FirmV_0_7_0.c,2239 :: 		if(MenuPointer==25)
	MOVF        _MenuPointer+0, 0 
	XORLW       25
	BTFSS       STATUS+0, 2 
	GOTO        L_Menu0499
;FirmV_0_7_0.c,2240 :: 		{memcpy(LCDLine1,"25 Discard Exit ",16);LCDUpdateFlag=1;}
	MOVLW       _LCDLine1+0
	MOVWF       FARG_memcpy_d1+0 
	MOVLW       hi_addr(_LCDLine1+0)
	MOVWF       FARG_memcpy_d1+1 
	MOVLW       ?lstr112_FirmV_0_7_0+0
	MOVWF       FARG_memcpy_s1+0 
	MOVLW       hi_addr(?lstr112_FirmV_0_7_0+0)
	MOVWF       FARG_memcpy_s1+1 
	MOVLW       16
	MOVWF       FARG_memcpy_n+0 
	MOVLW       0
	MOVWF       FARG_memcpy_n+1 
	CALL        _memcpy+0, 0
	MOVLW       1
	MOVWF       _LCDUpdateFlag+0 
L_Menu0499:
;FirmV_0_7_0.c,2243 :: 		State=101;
	MOVLW       101
	MOVWF       _State+0 
;FirmV_0_7_0.c,2244 :: 		}
L_end_Menu0:
	RETURN      0
; end of _Menu0

_About:

;FirmV_0_7_0.c,2252 :: 		void About()
;FirmV_0_7_0.c,2254 :: 		if((Events.Keys.b1==1))
	BTFSS       _Events+0, 1 
	GOTO        L_About500
;FirmV_0_7_0.c,2255 :: 		AboutCounter=AboutCounter+1;
	INCF        _AboutCounter+0, 1 
L_About500:
;FirmV_0_7_0.c,2257 :: 		if(AboutCounter==1)
	MOVF        _AboutCounter+0, 0 
	XORLW       1
	BTFSS       STATUS+0, 2 
	GOTO        L_About501
;FirmV_0_7_0.c,2258 :: 		{memcpy(LCDLine1,Crypto[2],16);
	MOVLW       _LCDLine1+0
	MOVWF       FARG_memcpy_d1+0 
	MOVLW       hi_addr(_LCDLine1+0)
	MOVWF       FARG_memcpy_d1+1 
	MOVLW       _crypto+32
	MOVWF       FARG_memcpy_s1+0 
	MOVLW       hi_addr(_crypto+32)
	MOVWF       FARG_memcpy_s1+1 
	MOVLW       16
	MOVWF       FARG_memcpy_n+0 
	MOVLW       0
	MOVWF       FARG_memcpy_n+1 
	CALL        _memcpy+0, 0
;FirmV_0_7_0.c,2259 :: 		memcpy(LCDLine2,Crypto[3],16);
	MOVLW       _LCDLine2+0
	MOVWF       FARG_memcpy_d1+0 
	MOVLW       hi_addr(_LCDLine2+0)
	MOVWF       FARG_memcpy_d1+1 
	MOVLW       _crypto+48
	MOVWF       FARG_memcpy_s1+0 
	MOVLW       hi_addr(_crypto+48)
	MOVWF       FARG_memcpy_s1+1 
	MOVLW       16
	MOVWF       FARG_memcpy_n+0 
	MOVLW       0
	MOVWF       FARG_memcpy_n+1 
	CALL        _memcpy+0, 0
;FirmV_0_7_0.c,2260 :: 		LCDUpdateFlag=1;
	MOVLW       1
	MOVWF       _LCDUpdateFlag+0 
;FirmV_0_7_0.c,2261 :: 		}
L_About501:
;FirmV_0_7_0.c,2263 :: 		if(AboutCounter==2)
	MOVF        _AboutCounter+0, 0 
	XORLW       2
	BTFSS       STATUS+0, 2 
	GOTO        L_About502
;FirmV_0_7_0.c,2264 :: 		{memcpy(LCDLine1,Crypto[4],16);
	MOVLW       _LCDLine1+0
	MOVWF       FARG_memcpy_d1+0 
	MOVLW       hi_addr(_LCDLine1+0)
	MOVWF       FARG_memcpy_d1+1 
	MOVLW       _crypto+64
	MOVWF       FARG_memcpy_s1+0 
	MOVLW       hi_addr(_crypto+64)
	MOVWF       FARG_memcpy_s1+1 
	MOVLW       16
	MOVWF       FARG_memcpy_n+0 
	MOVLW       0
	MOVWF       FARG_memcpy_n+1 
	CALL        _memcpy+0, 0
;FirmV_0_7_0.c,2265 :: 		memcpy(LCDLine2,Crypto[5],16);
	MOVLW       _LCDLine2+0
	MOVWF       FARG_memcpy_d1+0 
	MOVLW       hi_addr(_LCDLine2+0)
	MOVWF       FARG_memcpy_d1+1 
	MOVLW       _crypto+80
	MOVWF       FARG_memcpy_s1+0 
	MOVLW       hi_addr(_crypto+80)
	MOVWF       FARG_memcpy_s1+1 
	MOVLW       16
	MOVWF       FARG_memcpy_n+0 
	MOVLW       0
	MOVWF       FARG_memcpy_n+1 
	CALL        _memcpy+0, 0
;FirmV_0_7_0.c,2266 :: 		LCDUpdateFlag=1;
	MOVLW       1
	MOVWF       _LCDUpdateFlag+0 
;FirmV_0_7_0.c,2267 :: 		}
L_About502:
;FirmV_0_7_0.c,2269 :: 		if(AboutCounter==3)
	MOVF        _AboutCounter+0, 0 
	XORLW       3
	BTFSS       STATUS+0, 2 
	GOTO        L_About503
;FirmV_0_7_0.c,2270 :: 		{State=100;}
	MOVLW       100
	MOVWF       _State+0 
L_About503:
;FirmV_0_7_0.c,2271 :: 		}
L_end_About:
	RETURN      0
; end of _About

_Menu1:

;FirmV_0_7_0.c,2280 :: 		void Menu1()
;FirmV_0_7_0.c,2283 :: 		if((Events.Keys.b0==1))
	BTFSS       _Events+0, 0 
	GOTO        L_Menu1504
;FirmV_0_7_0.c,2284 :: 		{if(MenuPointer==0){MenuPointer=25;}else{MenuPointer=MenuPointer-1;}State=100;}
	MOVF        _MenuPointer+0, 0 
	XORLW       0
	BTFSS       STATUS+0, 2 
	GOTO        L_Menu1505
	MOVLW       25
	MOVWF       _MenuPointer+0 
	GOTO        L_Menu1506
L_Menu1505:
	DECF        _MenuPointer+0, 1 
L_Menu1506:
	MOVLW       100
	MOVWF       _State+0 
L_Menu1504:
;FirmV_0_7_0.c,2286 :: 		if((Events.Keys.b2==1))
	BTFSS       _Events+0, 2 
	GOTO        L_Menu1507
;FirmV_0_7_0.c,2287 :: 		{if(MenuPointer==25){MenuPointer=0;}else{MenuPointer=MenuPointer+1;}State=100;}
	MOVF        _MenuPointer+0, 0 
	XORLW       25
	BTFSS       STATUS+0, 2 
	GOTO        L_Menu1508
	CLRF        _MenuPointer+0 
	GOTO        L_Menu1509
L_Menu1508:
	INCF        _MenuPointer+0, 1 
L_Menu1509:
	MOVLW       100
	MOVWF       _State+0 
L_Menu1507:
;FirmV_0_7_0.c,2289 :: 		if((Events.Keys.b1==1))
	BTFSS       _Events+0, 1 
	GOTO        L_Menu1510
;FirmV_0_7_0.c,2290 :: 		{State=102;}
	MOVLW       102
	MOVWF       _State+0 
L_Menu1510:
;FirmV_0_7_0.c,2292 :: 		if(Events.Keys==0b101)
	MOVF        _Events+0, 0 
	XORLW       5
	BTFSS       STATUS+0, 2 
	GOTO        L_Menu1511
;FirmV_0_7_0.c,2293 :: 		{memcpy(LCDLine1,Crypto[0],16);AboutCounter=0;memcpy(LCDLine2,Crypto[1],16);LCDLines=2;LCDUpdateFlag=1;State=250;}
	MOVLW       _LCDLine1+0
	MOVWF       FARG_memcpy_d1+0 
	MOVLW       hi_addr(_LCDLine1+0)
	MOVWF       FARG_memcpy_d1+1 
	MOVLW       _crypto+0
	MOVWF       FARG_memcpy_s1+0 
	MOVLW       hi_addr(_crypto+0)
	MOVWF       FARG_memcpy_s1+1 
	MOVLW       16
	MOVWF       FARG_memcpy_n+0 
	MOVLW       0
	MOVWF       FARG_memcpy_n+1 
	CALL        _memcpy+0, 0
	CLRF        _AboutCounter+0 
	MOVLW       _LCDLine2+0
	MOVWF       FARG_memcpy_d1+0 
	MOVLW       hi_addr(_LCDLine2+0)
	MOVWF       FARG_memcpy_d1+1 
	MOVLW       _crypto+16
	MOVWF       FARG_memcpy_s1+0 
	MOVLW       hi_addr(_crypto+16)
	MOVWF       FARG_memcpy_s1+1 
	MOVLW       16
	MOVWF       FARG_memcpy_n+0 
	MOVLW       0
	MOVWF       FARG_memcpy_n+1 
	CALL        _memcpy+0, 0
	MOVLW       2
	MOVWF       _LCDLines+0 
	MOVLW       1
	MOVWF       _LCDUpdateFlag+0 
	MOVLW       250
	MOVWF       _State+0 
L_Menu1511:
;FirmV_0_7_0.c,2296 :: 		}
L_end_Menu1:
	RETURN      0
; end of _Menu1

_Menu2:

;FirmV_0_7_0.c,2304 :: 		void Menu2()
;FirmV_0_7_0.c,2307 :: 		LCDFlash=1;
	MOVLW       1
	MOVWF       _LCDFlash+0 
;FirmV_0_7_0.c,2309 :: 		if(Events.Keys.b1==1)
	BTFSS       _Events+0, 1 
	GOTO        L_Menu2512
;FirmV_0_7_0.c,2311 :: 		LCDFlash=0;LCDFlashFlag=0;State=101;;Menu0();
	CLRF        _LCDFlash+0 
	CLRF        _LCDFlashFlag+0 
	MOVLW       101
	MOVWF       _State+0 
	CALL        _Menu0+0, 0
;FirmV_0_7_0.c,2312 :: 		if(MenuPointer==0)
	MOVF        _MenuPointer+0, 0 
	XORLW       0
	BTFSS       STATUS+0, 2 
	GOTO        L_Menu2513
;FirmV_0_7_0.c,2314 :: 		LearnPhase=0;
	CLRF        _LearnPhase+0 
;FirmV_0_7_0.c,2315 :: 		if(LearningMode==0)
	MOVF        _LearningMode+0, 0 
	XORLW       0
	BTFSS       STATUS+0, 2 
	GOTO        L_Menu2514
;FirmV_0_7_0.c,2316 :: 		{State=200;LongBuzzFlag=1;}
	MOVLW       200
	MOVWF       _State+0 
	MOVLW       1
	MOVWF       _LongBuzzFlag+0 
L_Menu2514:
;FirmV_0_7_0.c,2317 :: 		if(LearningMode==1)
	MOVF        _LearningMode+0, 0 
	XORLW       1
	BTFSS       STATUS+0, 2 
	GOTO        L_Menu2515
;FirmV_0_7_0.c,2318 :: 		{State=201;LongBuzzFlag=1;}
	MOVLW       201
	MOVWF       _State+0 
	MOVLW       1
	MOVWF       _LongBuzzFlag+0 
L_Menu2515:
;FirmV_0_7_0.c,2319 :: 		}
L_Menu2513:
;FirmV_0_7_0.c,2320 :: 		}
L_Menu2512:
;FirmV_0_7_0.c,2323 :: 		if(MenuPointer==0)
	MOVF        _MenuPointer+0, 0 
	XORLW       0
	BTFSS       STATUS+0, 2 
	GOTO        L_Menu2516
;FirmV_0_7_0.c,2324 :: 		{ if((Events.Keys.b0==1)&&(LearningMode>0))
	BTFSS       _Events+0, 0 
	GOTO        L_Menu2519
	MOVF        _LearningMode+0, 0 
	SUBLW       0
	BTFSC       STATUS+0, 0 
	GOTO        L_Menu2519
L__Menu21008:
;FirmV_0_7_0.c,2325 :: 		{LearningMode=LearningMode-1;Menu0();State=102;}
	DECF        _LearningMode+0, 1 
	CALL        _Menu0+0, 0
	MOVLW       102
	MOVWF       _State+0 
L_Menu2519:
;FirmV_0_7_0.c,2326 :: 		if((Events.Keys.b2==1)&&(LearningMode<1))
	BTFSS       _Events+0, 2 
	GOTO        L_Menu2522
	MOVLW       1
	SUBWF       _LearningMode+0, 0 
	BTFSC       STATUS+0, 0 
	GOTO        L_Menu2522
L__Menu21007:
;FirmV_0_7_0.c,2327 :: 		{LearningMode=LearningMode+1;Menu0();State=102;}
	INCF        _LearningMode+0, 1 
	CALL        _Menu0+0, 0
	MOVLW       102
	MOVWF       _State+0 
L_Menu2522:
;FirmV_0_7_0.c,2328 :: 		}
L_Menu2516:
;FirmV_0_7_0.c,2332 :: 		if(MenuPointer==1)
	MOVF        _MenuPointer+0, 0 
	XORLW       1
	BTFSS       STATUS+0, 2 
	GOTO        L_Menu2523
;FirmV_0_7_0.c,2333 :: 		{ if((Events.Keys.b0==1)&&(Door1OpenTime>0))
	BTFSS       _Events+0, 0 
	GOTO        L_Menu2526
	MOVF        _Door1OpenTime+0, 0 
	SUBLW       0
	BTFSC       STATUS+0, 0 
	GOTO        L_Menu2526
L__Menu21006:
;FirmV_0_7_0.c,2334 :: 		{Door1OpenTime=Door1OpenTime-1;Menu0();State=102;}
	DECF        _Door1OpenTime+0, 1 
	CALL        _Menu0+0, 0
	MOVLW       102
	MOVWF       _State+0 
L_Menu2526:
;FirmV_0_7_0.c,2335 :: 		if((Events.Keys.b2==1)&&(Door1OpenTime<255))
	BTFSS       _Events+0, 2 
	GOTO        L_Menu2529
	MOVLW       255
	SUBWF       _Door1OpenTime+0, 0 
	BTFSC       STATUS+0, 0 
	GOTO        L_Menu2529
L__Menu21005:
;FirmV_0_7_0.c,2336 :: 		{Door1OpenTime=Door1OpenTime+1;Menu0();State=102;}
	INCF        _Door1OpenTime+0, 1 
	CALL        _Menu0+0, 0
	MOVLW       102
	MOVWF       _State+0 
L_Menu2529:
;FirmV_0_7_0.c,2337 :: 		}
L_Menu2523:
;FirmV_0_7_0.c,2341 :: 		if(MenuPointer==2)
	MOVF        _MenuPointer+0, 0 
	XORLW       2
	BTFSS       STATUS+0, 2 
	GOTO        L_Menu2530
;FirmV_0_7_0.c,2342 :: 		{ if((Events.Keys.b0==1)&&(Door2OpenTime>0))
	BTFSS       _Events+0, 0 
	GOTO        L_Menu2533
	MOVF        _Door2OpenTime+0, 0 
	SUBLW       0
	BTFSC       STATUS+0, 0 
	GOTO        L_Menu2533
L__Menu21004:
;FirmV_0_7_0.c,2343 :: 		{Door2OpenTime=Door2OpenTime-1;Menu0();State=102;}
	DECF        _Door2OpenTime+0, 1 
	CALL        _Menu0+0, 0
	MOVLW       102
	MOVWF       _State+0 
L_Menu2533:
;FirmV_0_7_0.c,2344 :: 		if((Events.Keys.b2==1)&&(Door2OpenTime<255))
	BTFSS       _Events+0, 2 
	GOTO        L_Menu2536
	MOVLW       255
	SUBWF       _Door2OpenTime+0, 0 
	BTFSC       STATUS+0, 0 
	GOTO        L_Menu2536
L__Menu21003:
;FirmV_0_7_0.c,2345 :: 		{Door2OpenTime=Door2OpenTime+1;Menu0();State=102;}
	INCF        _Door2OpenTime+0, 1 
	CALL        _Menu0+0, 0
	MOVLW       102
	MOVWF       _State+0 
L_Menu2536:
;FirmV_0_7_0.c,2346 :: 		}
L_Menu2530:
;FirmV_0_7_0.c,2349 :: 		if(MenuPointer==3)
	MOVF        _MenuPointer+0, 0 
	XORLW       3
	BTFSS       STATUS+0, 2 
	GOTO        L_Menu2537
;FirmV_0_7_0.c,2350 :: 		{ if((Events.Keys.b0==1)&&(Door1CloseTime>0))
	BTFSS       _Events+0, 0 
	GOTO        L_Menu2540
	MOVF        _Door1CloseTime+0, 0 
	SUBLW       0
	BTFSC       STATUS+0, 0 
	GOTO        L_Menu2540
L__Menu21002:
;FirmV_0_7_0.c,2351 :: 		{Door1CloseTime=Door1CloseTime-1;Menu0();State=102;}
	DECF        _Door1CloseTime+0, 1 
	CALL        _Menu0+0, 0
	MOVLW       102
	MOVWF       _State+0 
L_Menu2540:
;FirmV_0_7_0.c,2352 :: 		if((Events.Keys.b2==1)&&(Door1CloseTime<255))
	BTFSS       _Events+0, 2 
	GOTO        L_Menu2543
	MOVLW       255
	SUBWF       _Door1CloseTime+0, 0 
	BTFSC       STATUS+0, 0 
	GOTO        L_Menu2543
L__Menu21001:
;FirmV_0_7_0.c,2353 :: 		{Door1CloseTime=Door1CloseTime+1;Menu0();State=102;}
	INCF        _Door1CloseTime+0, 1 
	CALL        _Menu0+0, 0
	MOVLW       102
	MOVWF       _State+0 
L_Menu2543:
;FirmV_0_7_0.c,2354 :: 		}
L_Menu2537:
;FirmV_0_7_0.c,2357 :: 		if(MenuPointer==4)
	MOVF        _MenuPointer+0, 0 
	XORLW       4
	BTFSS       STATUS+0, 2 
	GOTO        L_Menu2544
;FirmV_0_7_0.c,2358 :: 		{ if((Events.Keys.b0==1)&&(Door2CloseTime>0))
	BTFSS       _Events+0, 0 
	GOTO        L_Menu2547
	MOVF        _Door2CloseTime+0, 0 
	SUBLW       0
	BTFSC       STATUS+0, 0 
	GOTO        L_Menu2547
L__Menu21000:
;FirmV_0_7_0.c,2359 :: 		{Door2CloseTime=Door2CloseTime-1;Menu0();State=102;}
	DECF        _Door2CloseTime+0, 1 
	CALL        _Menu0+0, 0
	MOVLW       102
	MOVWF       _State+0 
L_Menu2547:
;FirmV_0_7_0.c,2360 :: 		if((Events.Keys.b2==1)&&(Door2CloseTime<255))
	BTFSS       _Events+0, 2 
	GOTO        L_Menu2550
	MOVLW       255
	SUBWF       _Door2CloseTime+0, 0 
	BTFSC       STATUS+0, 0 
	GOTO        L_Menu2550
L__Menu2999:
;FirmV_0_7_0.c,2361 :: 		{Door2CloseTime=Door2CloseTime+1;Menu0();State=102;}
	INCF        _Door2CloseTime+0, 1 
	CALL        _Menu0+0, 0
	MOVLW       102
	MOVWF       _State+0 
L_Menu2550:
;FirmV_0_7_0.c,2362 :: 		}
L_Menu2544:
;FirmV_0_7_0.c,2366 :: 		if(MenuPointer==5)
	MOVF        _MenuPointer+0, 0 
	XORLW       5
	BTFSS       STATUS+0, 2 
	GOTO        L_Menu2551
;FirmV_0_7_0.c,2367 :: 		{ if((Events.Keys.b0==1)&&(OpenSoftStartTime>0))
	BTFSS       _Events+0, 0 
	GOTO        L_Menu2554
	MOVF        _OpenSoftStartTime+0, 0 
	SUBLW       0
	BTFSC       STATUS+0, 0 
	GOTO        L_Menu2554
L__Menu2998:
;FirmV_0_7_0.c,2368 :: 		{OpenSoftStartTime=OpenSoftStartTime-1;Menu0();State=102;}
	DECF        _OpenSoftStartTime+0, 1 
	CALL        _Menu0+0, 0
	MOVLW       102
	MOVWF       _State+0 
L_Menu2554:
;FirmV_0_7_0.c,2369 :: 		if((Events.Keys.b2==1)&&(OpenSoftStartTime<255))
	BTFSS       _Events+0, 2 
	GOTO        L_Menu2557
	MOVLW       255
	SUBWF       _OpenSoftStartTime+0, 0 
	BTFSC       STATUS+0, 0 
	GOTO        L_Menu2557
L__Menu2997:
;FirmV_0_7_0.c,2370 :: 		{OpenSoftStartTime=OpenSoftStartTime+1;Menu0();State=102;}
	INCF        _OpenSoftStartTime+0, 1 
	CALL        _Menu0+0, 0
	MOVLW       102
	MOVWF       _State+0 
L_Menu2557:
;FirmV_0_7_0.c,2371 :: 		}
L_Menu2551:
;FirmV_0_7_0.c,2374 :: 		if(MenuPointer==6)
	MOVF        _MenuPointer+0, 0 
	XORLW       6
	BTFSS       STATUS+0, 2 
	GOTO        L_Menu2558
;FirmV_0_7_0.c,2375 :: 		{ if((Events.Keys.b0==1)&&(OpenSoftStopTime>0))
	BTFSS       _Events+0, 0 
	GOTO        L_Menu2561
	MOVF        _OpenSoftStopTime+0, 0 
	SUBLW       0
	BTFSC       STATUS+0, 0 
	GOTO        L_Menu2561
L__Menu2996:
;FirmV_0_7_0.c,2376 :: 		{OpenSoftStopTime=OpenSoftStopTime-1;Menu0();State=102;}
	DECF        _OpenSoftStopTime+0, 1 
	CALL        _Menu0+0, 0
	MOVLW       102
	MOVWF       _State+0 
L_Menu2561:
;FirmV_0_7_0.c,2377 :: 		if((Events.Keys.b2==1)&&(OpenSoftStopTime<255))
	BTFSS       _Events+0, 2 
	GOTO        L_Menu2564
	MOVLW       255
	SUBWF       _OpenSoftStopTime+0, 0 
	BTFSC       STATUS+0, 0 
	GOTO        L_Menu2564
L__Menu2995:
;FirmV_0_7_0.c,2378 :: 		{OpenSoftStopTime=OpenSoftStopTime+1;Menu0();State=102;}
	INCF        _OpenSoftStopTime+0, 1 
	CALL        _Menu0+0, 0
	MOVLW       102
	MOVWF       _State+0 
L_Menu2564:
;FirmV_0_7_0.c,2379 :: 		}
L_Menu2558:
;FirmV_0_7_0.c,2382 :: 		if(MenuPointer==7)
	MOVF        _MenuPointer+0, 0 
	XORLW       7
	BTFSS       STATUS+0, 2 
	GOTO        L_Menu2565
;FirmV_0_7_0.c,2383 :: 		{ if((Events.Keys.b0==1)&&(CloseSoftStartTime>0))
	BTFSS       _Events+0, 0 
	GOTO        L_Menu2568
	MOVF        _CloseSoftStartTime+0, 0 
	SUBLW       0
	BTFSC       STATUS+0, 0 
	GOTO        L_Menu2568
L__Menu2994:
;FirmV_0_7_0.c,2384 :: 		{CloseSoftStartTime=CloseSoftStartTime-1;Menu0();State=102;}
	DECF        _CloseSoftStartTime+0, 1 
	CALL        _Menu0+0, 0
	MOVLW       102
	MOVWF       _State+0 
L_Menu2568:
;FirmV_0_7_0.c,2385 :: 		if((Events.Keys.b2==1)&&(CloseSoftStartTime<255))
	BTFSS       _Events+0, 2 
	GOTO        L_Menu2571
	MOVLW       255
	SUBWF       _CloseSoftStartTime+0, 0 
	BTFSC       STATUS+0, 0 
	GOTO        L_Menu2571
L__Menu2993:
;FirmV_0_7_0.c,2386 :: 		{CloseSoftStartTime=CloseSoftStartTime+1;Menu0();State=102;}
	INCF        _CloseSoftStartTime+0, 1 
	CALL        _Menu0+0, 0
	MOVLW       102
	MOVWF       _State+0 
L_Menu2571:
;FirmV_0_7_0.c,2387 :: 		}
L_Menu2565:
;FirmV_0_7_0.c,2390 :: 		if(MenuPointer==8)
	MOVF        _MenuPointer+0, 0 
	XORLW       8
	BTFSS       STATUS+0, 2 
	GOTO        L_Menu2572
;FirmV_0_7_0.c,2391 :: 		{ if((Events.Keys.b0==1)&&(CloseSoftStopTime>0))
	BTFSS       _Events+0, 0 
	GOTO        L_Menu2575
	MOVF        _CloseSoftStopTime+0, 0 
	SUBLW       0
	BTFSC       STATUS+0, 0 
	GOTO        L_Menu2575
L__Menu2992:
;FirmV_0_7_0.c,2392 :: 		{CloseSoftStopTime=CloseSoftStopTime-1;Menu0();State=102;}
	DECF        _CloseSoftStopTime+0, 1 
	CALL        _Menu0+0, 0
	MOVLW       102
	MOVWF       _State+0 
L_Menu2575:
;FirmV_0_7_0.c,2393 :: 		if((Events.Keys.b2==1)&&(CloseSoftStopTime<255))
	BTFSS       _Events+0, 2 
	GOTO        L_Menu2578
	MOVLW       255
	SUBWF       _CloseSoftStopTime+0, 0 
	BTFSC       STATUS+0, 0 
	GOTO        L_Menu2578
L__Menu2991:
;FirmV_0_7_0.c,2394 :: 		{CloseSoftStopTime=CloseSoftStopTime+1;Menu0();State=102;}
	INCF        _CloseSoftStopTime+0, 1 
	CALL        _Menu0+0, 0
	MOVLW       102
	MOVWF       _State+0 
L_Menu2578:
;FirmV_0_7_0.c,2395 :: 		}
L_Menu2572:
;FirmV_0_7_0.c,2399 :: 		if(MenuPointer==9)
	MOVF        _MenuPointer+0, 0 
	XORLW       9
	BTFSS       STATUS+0, 2 
	GOTO        L_Menu2579
;FirmV_0_7_0.c,2400 :: 		{ if((Events.Keys.b0==1)&&(M1SoftPower>1))
	BTFSS       _Events+0, 0 
	GOTO        L_Menu2582
	MOVLW       0
	MOVWF       R0 
	MOVF        _M1SoftPower+1, 0 
	SUBWF       R0, 0 
	BTFSS       STATUS+0, 2 
	GOTO        L__Menu21102
	MOVF        _M1SoftPower+0, 0 
	SUBLW       1
L__Menu21102:
	BTFSC       STATUS+0, 0 
	GOTO        L_Menu2582
L__Menu2990:
;FirmV_0_7_0.c,2401 :: 		{M1SoftPower=M1SoftPower-1;Menu0();State=102;}
	MOVLW       1
	SUBWF       _M1SoftPower+0, 1 
	MOVLW       0
	SUBWFB      _M1SoftPower+1, 1 
	CALL        _Menu0+0, 0
	MOVLW       102
	MOVWF       _State+0 
L_Menu2582:
;FirmV_0_7_0.c,2402 :: 		if((Events.Keys.b2==1)&&(M1SoftPower<10))
	BTFSS       _Events+0, 2 
	GOTO        L_Menu2585
	MOVLW       0
	SUBWF       _M1SoftPower+1, 0 
	BTFSS       STATUS+0, 2 
	GOTO        L__Menu21103
	MOVLW       10
	SUBWF       _M1SoftPower+0, 0 
L__Menu21103:
	BTFSC       STATUS+0, 0 
	GOTO        L_Menu2585
L__Menu2989:
;FirmV_0_7_0.c,2403 :: 		{M1SoftPower=M1SoftPower+1;Menu0();State=102;}
	INFSNZ      _M1SoftPower+0, 1 
	INCF        _M1SoftPower+1, 1 
	CALL        _Menu0+0, 0
	MOVLW       102
	MOVWF       _State+0 
L_Menu2585:
;FirmV_0_7_0.c,2404 :: 		}
L_Menu2579:
;FirmV_0_7_0.c,2407 :: 		if(MenuPointer==10)
	MOVF        _MenuPointer+0, 0 
	XORLW       10
	BTFSS       STATUS+0, 2 
	GOTO        L_Menu2586
;FirmV_0_7_0.c,2408 :: 		{ if((Events.Keys.b0==1)&&(M2SoftPower>1))
	BTFSS       _Events+0, 0 
	GOTO        L_Menu2589
	MOVLW       0
	MOVWF       R0 
	MOVF        _M2SoftPower+1, 0 
	SUBWF       R0, 0 
	BTFSS       STATUS+0, 2 
	GOTO        L__Menu21104
	MOVF        _M2SoftPower+0, 0 
	SUBLW       1
L__Menu21104:
	BTFSC       STATUS+0, 0 
	GOTO        L_Menu2589
L__Menu2988:
;FirmV_0_7_0.c,2409 :: 		{M2SoftPower=M2SoftPower-1;Menu0();State=102;}
	MOVLW       1
	SUBWF       _M2SoftPower+0, 1 
	MOVLW       0
	SUBWFB      _M2SoftPower+1, 1 
	CALL        _Menu0+0, 0
	MOVLW       102
	MOVWF       _State+0 
L_Menu2589:
;FirmV_0_7_0.c,2410 :: 		if((Events.Keys.b2==1)&&(M2SoftPower<10))
	BTFSS       _Events+0, 2 
	GOTO        L_Menu2592
	MOVLW       0
	SUBWF       _M2SoftPower+1, 0 
	BTFSS       STATUS+0, 2 
	GOTO        L__Menu21105
	MOVLW       10
	SUBWF       _M2SoftPower+0, 0 
L__Menu21105:
	BTFSC       STATUS+0, 0 
	GOTO        L_Menu2592
L__Menu2987:
;FirmV_0_7_0.c,2411 :: 		{M2SoftPower=M2SoftPower+1;Menu0();State=102;}
	INFSNZ      _M2SoftPower+0, 1 
	INCF        _M2SoftPower+1, 1 
	CALL        _Menu0+0, 0
	MOVLW       102
	MOVWF       _State+0 
L_Menu2592:
;FirmV_0_7_0.c,2412 :: 		}
L_Menu2586:
;FirmV_0_7_0.c,2416 :: 		if(MenuPointer==11)
	MOVF        _MenuPointer+0, 0 
	XORLW       11
	BTFSS       STATUS+0, 2 
	GOTO        L_Menu2593
;FirmV_0_7_0.c,2417 :: 		{ if((Events.Keys.b0==1)&&(OverloadSens1>0))
	BTFSS       _Events+0, 0 
	GOTO        L_Menu2596
	MOVF        _OverloadSens1+0, 0 
	SUBLW       0
	BTFSC       STATUS+0, 0 
	GOTO        L_Menu2596
L__Menu2986:
;FirmV_0_7_0.c,2418 :: 		{OverloadSens1=OverloadSens1-1;Menu0();State=102;}
	DECF        _OverloadSens1+0, 1 
	CALL        _Menu0+0, 0
	MOVLW       102
	MOVWF       _State+0 
L_Menu2596:
;FirmV_0_7_0.c,2419 :: 		if((Events.Keys.b2==1)&&(OverloadSens1<15))
	BTFSS       _Events+0, 2 
	GOTO        L_Menu2599
	MOVLW       15
	SUBWF       _OverloadSens1+0, 0 
	BTFSC       STATUS+0, 0 
	GOTO        L_Menu2599
L__Menu2985:
;FirmV_0_7_0.c,2420 :: 		{OverloadSens1=OverloadSens1+1;Menu0();State=102;}
	INCF        _OverloadSens1+0, 1 
	CALL        _Menu0+0, 0
	MOVLW       102
	MOVWF       _State+0 
L_Menu2599:
;FirmV_0_7_0.c,2421 :: 		}
L_Menu2593:
;FirmV_0_7_0.c,2425 :: 		if(MenuPointer==12)
	MOVF        _MenuPointer+0, 0 
	XORLW       12
	BTFSS       STATUS+0, 2 
	GOTO        L_Menu2600
;FirmV_0_7_0.c,2426 :: 		{ if((Events.Keys.b0==1)&&(OverloadSens2>0))
	BTFSS       _Events+0, 0 
	GOTO        L_Menu2603
	MOVF        _OverloadSens2+0, 0 
	SUBLW       0
	BTFSC       STATUS+0, 0 
	GOTO        L_Menu2603
L__Menu2984:
;FirmV_0_7_0.c,2427 :: 		{OverloadSens2=OverloadSens2-1;Menu0();State=102;}
	DECF        _OverloadSens2+0, 1 
	CALL        _Menu0+0, 0
	MOVLW       102
	MOVWF       _State+0 
L_Menu2603:
;FirmV_0_7_0.c,2428 :: 		if((Events.Keys.b2==1)&&(OverloadSens2<15))
	BTFSS       _Events+0, 2 
	GOTO        L_Menu2606
	MOVLW       15
	SUBWF       _OverloadSens2+0, 0 
	BTFSC       STATUS+0, 0 
	GOTO        L_Menu2606
L__Menu2983:
;FirmV_0_7_0.c,2429 :: 		{OverloadSens2=OverloadSens2+1;Menu0();State=102;}
	INCF        _OverloadSens2+0, 1 
	CALL        _Menu0+0, 0
	MOVLW       102
	MOVWF       _State+0 
L_Menu2606:
;FirmV_0_7_0.c,2430 :: 		}
L_Menu2600:
;FirmV_0_7_0.c,2433 :: 		if(MenuPointer==13)
	MOVF        _MenuPointer+0, 0 
	XORLW       13
	BTFSS       STATUS+0, 2 
	GOTO        L_Menu2607
;FirmV_0_7_0.c,2434 :: 		{ if((Events.Keys.b0==1)&&(OverloadTime1>0))
	BTFSS       _Events+0, 0 
	GOTO        L_Menu2610
	MOVF        _OverloadTime1+0, 0 
	SUBLW       0
	BTFSC       STATUS+0, 0 
	GOTO        L_Menu2610
L__Menu2982:
;FirmV_0_7_0.c,2435 :: 		{OverloadTime1=OverloadTime1-1;Menu0();State=102;}
	DECF        _OverloadTime1+0, 1 
	CALL        _Menu0+0, 0
	MOVLW       102
	MOVWF       _State+0 
L_Menu2610:
;FirmV_0_7_0.c,2436 :: 		if((Events.Keys.b2==1)&&(OverloadTime1<10))
	BTFSS       _Events+0, 2 
	GOTO        L_Menu2613
	MOVLW       10
	SUBWF       _OverloadTime1+0, 0 
	BTFSC       STATUS+0, 0 
	GOTO        L_Menu2613
L__Menu2981:
;FirmV_0_7_0.c,2437 :: 		{OverloadTime1=OverloadTime1+1;Menu0();State=102;}
	INCF        _OverloadTime1+0, 1 
	CALL        _Menu0+0, 0
	MOVLW       102
	MOVWF       _State+0 
L_Menu2613:
;FirmV_0_7_0.c,2438 :: 		}
L_Menu2607:
;FirmV_0_7_0.c,2442 :: 		if(MenuPointer==14)
	MOVF        _MenuPointer+0, 0 
	XORLW       14
	BTFSS       STATUS+0, 2 
	GOTO        L_Menu2614
;FirmV_0_7_0.c,2443 :: 		{ if((Events.Keys.b0==1)&&(OverloadTime2>0))
	BTFSS       _Events+0, 0 
	GOTO        L_Menu2617
	MOVF        _OverloadTime2+0, 0 
	SUBLW       0
	BTFSC       STATUS+0, 0 
	GOTO        L_Menu2617
L__Menu2980:
;FirmV_0_7_0.c,2444 :: 		{OverloadTime2=OverloadTime2-1;Menu0();State=102;}
	DECF        _OverloadTime2+0, 1 
	CALL        _Menu0+0, 0
	MOVLW       102
	MOVWF       _State+0 
L_Menu2617:
;FirmV_0_7_0.c,2445 :: 		if((Events.Keys.b2==1)&&(OverloadTime2<10))
	BTFSS       _Events+0, 2 
	GOTO        L_Menu2620
	MOVLW       10
	SUBWF       _OverloadTime2+0, 0 
	BTFSC       STATUS+0, 0 
	GOTO        L_Menu2620
L__Menu2979:
;FirmV_0_7_0.c,2446 :: 		{OverloadTime2=OverloadTime2+1;Menu0();State=102;}
	INCF        _OverloadTime2+0, 1 
	CALL        _Menu0+0, 0
	MOVLW       102
	MOVWF       _State+0 
L_Menu2620:
;FirmV_0_7_0.c,2447 :: 		}
L_Menu2614:
;FirmV_0_7_0.c,2450 :: 		if(MenuPointer==15)
	MOVF        _MenuPointer+0, 0 
	XORLW       15
	BTFSS       STATUS+0, 2 
	GOTO        L_Menu2621
;FirmV_0_7_0.c,2451 :: 		{ if((Events.Keys.b0==1)&&(ActionTimeDiff>0))
	BTFSS       _Events+0, 0 
	GOTO        L_Menu2624
	MOVF        _ActionTimeDiff+0, 0 
	SUBLW       0
	BTFSC       STATUS+0, 0 
	GOTO        L_Menu2624
L__Menu2978:
;FirmV_0_7_0.c,2452 :: 		{ActionTimeDiff=ActionTimeDiff-1;Menu0();State=102;}
	DECF        _ActionTimeDiff+0, 1 
	CALL        _Menu0+0, 0
	MOVLW       102
	MOVWF       _State+0 
L_Menu2624:
;FirmV_0_7_0.c,2453 :: 		if((Events.Keys.b2==1)&&(ActionTimeDiff<255))
	BTFSS       _Events+0, 2 
	GOTO        L_Menu2627
	MOVLW       255
	SUBWF       _ActionTimeDiff+0, 0 
	BTFSC       STATUS+0, 0 
	GOTO        L_Menu2627
L__Menu2977:
;FirmV_0_7_0.c,2454 :: 		{ActionTimeDiff=ActionTimeDiff+1;Menu0();State=102;}
	INCF        _ActionTimeDiff+0, 1 
	CALL        _Menu0+0, 0
	MOVLW       102
	MOVWF       _State+0 
L_Menu2627:
;FirmV_0_7_0.c,2455 :: 		}
L_Menu2621:
;FirmV_0_7_0.c,2458 :: 		if(MenuPointer==16)
	MOVF        _MenuPointer+0, 0 
	XORLW       16
	BTFSS       STATUS+0, 2 
	GOTO        L_Menu2628
;FirmV_0_7_0.c,2459 :: 		{ if((Events.Keys.b0==1)&&(AutoCloseTime>0))
	BTFSS       _Events+0, 0 
	GOTO        L_Menu2631
	MOVLW       0
	MOVWF       R0 
	MOVF        _AutoCloseTime+1, 0 
	SUBWF       R0, 0 
	BTFSS       STATUS+0, 2 
	GOTO        L__Menu21106
	MOVF        _AutoCloseTime+0, 0 
	SUBLW       0
L__Menu21106:
	BTFSC       STATUS+0, 0 
	GOTO        L_Menu2631
L__Menu2976:
;FirmV_0_7_0.c,2460 :: 		{AutoCloseTime=AutoCloseTime-1;Menu0();State=102;}
	MOVLW       1
	SUBWF       _AutoCloseTime+0, 1 
	MOVLW       0
	SUBWFB      _AutoCloseTime+1, 1 
	CALL        _Menu0+0, 0
	MOVLW       102
	MOVWF       _State+0 
L_Menu2631:
;FirmV_0_7_0.c,2461 :: 		if((Events.Keys.b2==1)&&(AutoCloseTime<65000))
	BTFSS       _Events+0, 2 
	GOTO        L_Menu2634
	MOVLW       253
	SUBWF       _AutoCloseTime+1, 0 
	BTFSS       STATUS+0, 2 
	GOTO        L__Menu21107
	MOVLW       232
	SUBWF       _AutoCloseTime+0, 0 
L__Menu21107:
	BTFSC       STATUS+0, 0 
	GOTO        L_Menu2634
L__Menu2975:
;FirmV_0_7_0.c,2462 :: 		{AutoCloseTime=AutoCloseTime+1;Menu0();State=102;}
	INFSNZ      _AutoCloseTime+0, 1 
	INCF        _AutoCloseTime+1, 1 
	CALL        _Menu0+0, 0
	MOVLW       102
	MOVWF       _State+0 
L_Menu2634:
;FirmV_0_7_0.c,2463 :: 		}
L_Menu2628:
;FirmV_0_7_0.c,2466 :: 		if(MenuPointer==17)
	MOVF        _MenuPointer+0, 0 
	XORLW       17
	BTFSS       STATUS+0, 2 
	GOTO        L_Menu2635
;FirmV_0_7_0.c,2468 :: 		State=0;
	CLRF        _State+0 
;FirmV_0_7_0.c,2469 :: 		memcpy(LCDLine1,Sipher,16);
	MOVLW       _LCDLine1+0
	MOVWF       FARG_memcpy_d1+0 
	MOVLW       hi_addr(_LCDLine1+0)
	MOVWF       FARG_memcpy_d1+1 
	MOVLW       _Sipher+0
	MOVWF       FARG_memcpy_s1+0 
	MOVLW       hi_addr(_Sipher+0)
	MOVWF       FARG_memcpy_s1+1 
	MOVLW       16
	MOVWF       FARG_memcpy_n+0 
	MOVLW       0
	MOVWF       FARG_memcpy_n+1 
	CALL        _memcpy+0, 0
;FirmV_0_7_0.c,2470 :: 		LCDLines=1;
	MOVLW       1
	MOVWF       _LCDLines+0 
;FirmV_0_7_0.c,2471 :: 		LCDFlash=0; LCDFlashFlag=0;
	CLRF        _LCDFlash+0 
	CLRF        _LCDFlashFlag+0 
;FirmV_0_7_0.c,2472 :: 		LCDUpdateFlag=1;
	MOVLW       1
	MOVWF       _LCDUpdateFlag+0 
;FirmV_0_7_0.c,2473 :: 		LongBuzzFlag=1;
	MOVLW       1
	MOVWF       _LongBuzzFlag+0 
;FirmV_0_7_0.c,2474 :: 		FactorySettings();
	CALL        _FactorySettings+0, 0
;FirmV_0_7_0.c,2475 :: 		SaveConfigs();
	CALL        _SaveConfigs+0, 0
;FirmV_0_7_0.c,2476 :: 		}
L_Menu2635:
;FirmV_0_7_0.c,2479 :: 		if(MenuPointer==18)
	MOVF        _MenuPointer+0, 0 
	XORLW       18
	BTFSS       STATUS+0, 2 
	GOTO        L_Menu2636
;FirmV_0_7_0.c,2480 :: 		{ if((Events.Keys.b0==1)&&(OpenPhEnable>0))
	BTFSS       _Events+0, 0 
	GOTO        L_Menu2639
	MOVF        _OpenPhEnable+0, 0 
	SUBLW       0
	BTFSC       STATUS+0, 0 
	GOTO        L_Menu2639
L__Menu2974:
;FirmV_0_7_0.c,2481 :: 		{OpenPhEnable=OpenPhEnable-1;Menu0();State=102;}
	DECF        _OpenPhEnable+0, 1 
	CALL        _Menu0+0, 0
	MOVLW       102
	MOVWF       _State+0 
L_Menu2639:
;FirmV_0_7_0.c,2482 :: 		if((Events.Keys.b2==1)&&(OpenPhEnable<1))
	BTFSS       _Events+0, 2 
	GOTO        L_Menu2642
	MOVLW       1
	SUBWF       _OpenPhEnable+0, 0 
	BTFSC       STATUS+0, 0 
	GOTO        L_Menu2642
L__Menu2973:
;FirmV_0_7_0.c,2483 :: 		{OpenPhEnable=OpenPhEnable+1;Menu0();State=102;}
	INCF        _OpenPhEnable+0, 1 
	CALL        _Menu0+0, 0
	MOVLW       102
	MOVWF       _State+0 
L_Menu2642:
;FirmV_0_7_0.c,2484 :: 		}
L_Menu2636:
;FirmV_0_7_0.c,2488 :: 		if(MenuPointer==19)
	MOVF        _MenuPointer+0, 0 
	XORLW       19
	BTFSS       STATUS+0, 2 
	GOTO        L_Menu2643
;FirmV_0_7_0.c,2489 :: 		{ if((Events.Keys.b0==1)&&(LimiterEnable>0))
	BTFSS       _Events+0, 0 
	GOTO        L_Menu2646
	MOVF        _LimiterEnable+0, 0 
	SUBLW       0
	BTFSC       STATUS+0, 0 
	GOTO        L_Menu2646
L__Menu2972:
;FirmV_0_7_0.c,2490 :: 		{LimiterEnable=LimiterEnable-1;Menu0();State=102;}
	DECF        _LimiterEnable+0, 1 
	CALL        _Menu0+0, 0
	MOVLW       102
	MOVWF       _State+0 
L_Menu2646:
;FirmV_0_7_0.c,2491 :: 		if((Events.Keys.b2==1)&&(LimiterEnable<1))
	BTFSS       _Events+0, 2 
	GOTO        L_Menu2649
	MOVLW       1
	SUBWF       _LimiterEnable+0, 0 
	BTFSC       STATUS+0, 0 
	GOTO        L_Menu2649
L__Menu2971:
;FirmV_0_7_0.c,2492 :: 		{LimiterEnable=LimiterEnable+1;Menu0();State=102;}
	INCF        _LimiterEnable+0, 1 
	CALL        _Menu0+0, 0
	MOVLW       102
	MOVWF       _State+0 
L_Menu2649:
;FirmV_0_7_0.c,2493 :: 		}
L_Menu2643:
;FirmV_0_7_0.c,2496 :: 		if(MenuPointer==20)
	MOVF        _MenuPointer+0, 0 
	XORLW       20
	BTFSS       STATUS+0, 2 
	GOTO        L_Menu2650
;FirmV_0_7_0.c,2497 :: 		{ if((Events.Keys.b0==1)&&(ReverseOnOpen>0))
	BTFSS       _Events+0, 0 
	GOTO        L_Menu2653
	MOVF        _ReverseOnOpen+0, 0 
	SUBLW       0
	BTFSC       STATUS+0, 0 
	GOTO        L_Menu2653
L__Menu2970:
;FirmV_0_7_0.c,2498 :: 		{ReverseOnOpen=ReverseOnOpen-1;Menu0();State=102;}
	DECF        _ReverseOnOpen+0, 1 
	CALL        _Menu0+0, 0
	MOVLW       102
	MOVWF       _State+0 
L_Menu2653:
;FirmV_0_7_0.c,2499 :: 		if((Events.Keys.b2==1)&&(ReverseOnOpen<1))
	BTFSS       _Events+0, 2 
	GOTO        L_Menu2656
	MOVLW       1
	SUBWF       _ReverseOnOpen+0, 0 
	BTFSC       STATUS+0, 0 
	GOTO        L_Menu2656
L__Menu2969:
;FirmV_0_7_0.c,2500 :: 		{ReverseOnOpen=ReverseOnOpen+1;Menu0();State=102;}
	INCF        _ReverseOnOpen+0, 1 
	CALL        _Menu0+0, 0
	MOVLW       102
	MOVWF       _State+0 
L_Menu2656:
;FirmV_0_7_0.c,2501 :: 		}
L_Menu2650:
;FirmV_0_7_0.c,2505 :: 		if(MenuPointer==21)
	MOVF        _MenuPointer+0, 0 
	XORLW       21
	BTFSS       STATUS+0, 2 
	GOTO        L_Menu2657
;FirmV_0_7_0.c,2506 :: 		{ if((Events.Keys.b0==1)&&(ReverseOnClose>0))
	BTFSS       _Events+0, 0 
	GOTO        L_Menu2660
	MOVF        _ReverseOnClose+0, 0 
	SUBLW       0
	BTFSC       STATUS+0, 0 
	GOTO        L_Menu2660
L__Menu2968:
;FirmV_0_7_0.c,2507 :: 		{ReverseOnClose=ReverseOnClose-1;Menu0();State=102;}
	DECF        _ReverseOnClose+0, 1 
	CALL        _Menu0+0, 0
	MOVLW       102
	MOVWF       _State+0 
L_Menu2660:
;FirmV_0_7_0.c,2508 :: 		if((Events.Keys.b2==1)&&(ReverseOnClose<1))
	BTFSS       _Events+0, 2 
	GOTO        L_Menu2663
	MOVLW       1
	SUBWF       _ReverseOnClose+0, 0 
	BTFSC       STATUS+0, 0 
	GOTO        L_Menu2663
L__Menu2967:
;FirmV_0_7_0.c,2509 :: 		{ReverseOnClose=ReverseOnClose+1;Menu0();State=102;}
	INCF        _ReverseOnClose+0, 1 
	CALL        _Menu0+0, 0
	MOVLW       102
	MOVWF       _State+0 
L_Menu2663:
;FirmV_0_7_0.c,2510 :: 		}
L_Menu2657:
;FirmV_0_7_0.c,2513 :: 		if(MenuPointer==22)
	MOVF        _MenuPointer+0, 0 
	XORLW       22
	BTFSS       STATUS+0, 2 
	GOTO        L_Menu2664
;FirmV_0_7_0.c,2514 :: 		{ if((Events.Keys.b0==1)&&(LockForce>0))
	BTFSS       _Events+0, 0 
	GOTO        L_Menu2667
	MOVF        _LockForce+0, 0 
	SUBLW       0
	BTFSC       STATUS+0, 0 
	GOTO        L_Menu2667
L__Menu2966:
;FirmV_0_7_0.c,2515 :: 		{LockForce=LockForce-1;Menu0();State=102;}
	DECF        _LockForce+0, 1 
	CALL        _Menu0+0, 0
	MOVLW       102
	MOVWF       _State+0 
L_Menu2667:
;FirmV_0_7_0.c,2516 :: 		if((Events.Keys.b2==1)&&(LockForce<1))
	BTFSS       _Events+0, 2 
	GOTO        L_Menu2670
	MOVLW       1
	SUBWF       _LockForce+0, 0 
	BTFSC       STATUS+0, 0 
	GOTO        L_Menu2670
L__Menu2965:
;FirmV_0_7_0.c,2517 :: 		{LockForce=LockForce+1;Menu0();State=102;}
	INCF        _LockForce+0, 1 
	CALL        _Menu0+0, 0
	MOVLW       102
	MOVWF       _State+0 
L_Menu2670:
;FirmV_0_7_0.c,2518 :: 		}
L_Menu2664:
;FirmV_0_7_0.c,2521 :: 		if(MenuPointer==23)
	MOVF        _MenuPointer+0, 0 
	XORLW       23
	BTFSS       STATUS+0, 2 
	GOTO        L_Menu2671
;FirmV_0_7_0.c,2522 :: 		{ if((Events.Keys.b0==1)&&(CloseAfterPass>0))
	BTFSS       _Events+0, 0 
	GOTO        L_Menu2674
	MOVF        _CloseAfterPass+0, 0 
	SUBLW       0
	BTFSC       STATUS+0, 0 
	GOTO        L_Menu2674
L__Menu2964:
;FirmV_0_7_0.c,2523 :: 		{CloseAfterPass=CloseAfterPass-1;if(CloseAfterPass==9) CloseAfterPass=0;Menu0();State=102;}
	DECF        _CloseAfterPass+0, 1 
	MOVF        _CloseAfterPass+0, 0 
	XORLW       9
	BTFSS       STATUS+0, 2 
	GOTO        L_Menu2675
	CLRF        _CloseAfterPass+0 
L_Menu2675:
	CALL        _Menu0+0, 0
	MOVLW       102
	MOVWF       _State+0 
L_Menu2674:
;FirmV_0_7_0.c,2524 :: 		if((Events.Keys.b2==1)&&(CloseAfterPass<255))
	BTFSS       _Events+0, 2 
	GOTO        L_Menu2678
	MOVLW       255
	SUBWF       _CloseAfterPass+0, 0 
	BTFSC       STATUS+0, 0 
	GOTO        L_Menu2678
L__Menu2963:
;FirmV_0_7_0.c,2525 :: 		{CloseAfterPass=CloseAfterPass+1;if(CloseAfterPass==1) CloseAfterPass=10;Menu0();State=102;}
	INCF        _CloseAfterPass+0, 1 
	MOVF        _CloseAfterPass+0, 0 
	XORLW       1
	BTFSS       STATUS+0, 2 
	GOTO        L_Menu2679
	MOVLW       10
	MOVWF       _CloseAfterPass+0 
L_Menu2679:
	CALL        _Menu0+0, 0
	MOVLW       102
	MOVWF       _State+0 
L_Menu2678:
;FirmV_0_7_0.c,2526 :: 		}
L_Menu2671:
;FirmV_0_7_0.c,2529 :: 		if(MenuPointer==24)
	MOVF        _MenuPointer+0, 0 
	XORLW       24
	BTFSS       STATUS+0, 2 
	GOTO        L_Menu2680
;FirmV_0_7_0.c,2531 :: 		State=103;
	MOVLW       103
	MOVWF       _State+0 
;FirmV_0_7_0.c,2532 :: 		memcpy(LCDLine1,Sipher,16);
	MOVLW       _LCDLine1+0
	MOVWF       FARG_memcpy_d1+0 
	MOVLW       hi_addr(_LCDLine1+0)
	MOVWF       FARG_memcpy_d1+1 
	MOVLW       _Sipher+0
	MOVWF       FARG_memcpy_s1+0 
	MOVLW       hi_addr(_Sipher+0)
	MOVWF       FARG_memcpy_s1+1 
	MOVLW       16
	MOVWF       FARG_memcpy_n+0 
	MOVLW       0
	MOVWF       FARG_memcpy_n+1 
	CALL        _memcpy+0, 0
;FirmV_0_7_0.c,2533 :: 		LCDFlash=0;
	CLRF        _LCDFlash+0 
;FirmV_0_7_0.c,2534 :: 		LCDLines=1;
	MOVLW       1
	MOVWF       _LCDLines+0 
;FirmV_0_7_0.c,2535 :: 		LCDUpdateFlag=1;
	MOVLW       1
	MOVWF       _LCDUpdateFlag+0 
;FirmV_0_7_0.c,2536 :: 		LongBuzzFlag=1;
	MOVLW       1
	MOVWF       _LongBuzzFlag+0 
;FirmV_0_7_0.c,2537 :: 		}
L_Menu2680:
;FirmV_0_7_0.c,2540 :: 		if(MenuPointer==25)
	MOVF        _MenuPointer+0, 0 
	XORLW       25
	BTFSS       STATUS+0, 2 
	GOTO        L_Menu2681
;FirmV_0_7_0.c,2542 :: 		State=0;
	CLRF        _State+0 
;FirmV_0_7_0.c,2543 :: 		memcpy(LCDLine1,Sipher,16);
	MOVLW       _LCDLine1+0
	MOVWF       FARG_memcpy_d1+0 
	MOVLW       hi_addr(_LCDLine1+0)
	MOVWF       FARG_memcpy_d1+1 
	MOVLW       _Sipher+0
	MOVWF       FARG_memcpy_s1+0 
	MOVLW       hi_addr(_Sipher+0)
	MOVWF       FARG_memcpy_s1+1 
	MOVLW       16
	MOVWF       FARG_memcpy_n+0 
	MOVLW       0
	MOVWF       FARG_memcpy_n+1 
	CALL        _memcpy+0, 0
;FirmV_0_7_0.c,2544 :: 		LCDFlash=0;
	CLRF        _LCDFlash+0 
;FirmV_0_7_0.c,2545 :: 		LCDLines=1;
	MOVLW       1
	MOVWF       _LCDLines+0 
;FirmV_0_7_0.c,2546 :: 		LCDUpdateFlag=1;
	MOVLW       1
	MOVWF       _LCDUpdateFlag+0 
;FirmV_0_7_0.c,2547 :: 		LoadConfigs();
	CALL        _LoadConfigs+0, 0
;FirmV_0_7_0.c,2548 :: 		LongBuzzFlag=1;
	MOVLW       1
	MOVWF       _LongBuzzFlag+0 
;FirmV_0_7_0.c,2549 :: 		}
L_Menu2681:
;FirmV_0_7_0.c,2550 :: 		}
L_end_Menu2:
	RETURN      0
; end of _Menu2

_Menu3:

;FirmV_0_7_0.c,2562 :: 		void Menu3()
;FirmV_0_7_0.c,2564 :: 		SaveConfigs();
	CALL        _SaveConfigs+0, 0
;FirmV_0_7_0.c,2565 :: 		State=0;
	CLRF        _State+0 
;FirmV_0_7_0.c,2566 :: 		}
L_end_Menu3:
	RETURN      0
; end of _Menu3

_LearnAuto:

;FirmV_0_7_0.c,2580 :: 		void LearnAuto()
;FirmV_0_7_0.c,2586 :: 		if(Events.Keys.b1)
	BTFSS       _Events+0, 1 
	GOTO        L_LearnAuto682
;FirmV_0_7_0.c,2588 :: 		State=1;
	MOVLW       1
	MOVWF       _State+0 
;FirmV_0_7_0.c,2589 :: 		Flasher=0;
	BCF         PORTD+0, 7 
;FirmV_0_7_0.c,2590 :: 		memcpy(LCDLine1,_open,16);
	MOVLW       _LCDLine1+0
	MOVWF       FARG_memcpy_d1+0 
	MOVLW       hi_addr(_LCDLine1+0)
	MOVWF       FARG_memcpy_d1+1 
	MOVLW       __open+0
	MOVWF       FARG_memcpy_s1+0 
	MOVLW       hi_addr(__open+0)
	MOVWF       FARG_memcpy_s1+1 
	MOVLW       16
	MOVWF       FARG_memcpy_n+0 
	MOVLW       0
	MOVWF       FARG_memcpy_n+1 
	CALL        _memcpy+0, 0
;FirmV_0_7_0.c,2591 :: 		memcpy(LCDLine2," Learn Canceled ",16);
	MOVLW       _LCDLine2+0
	MOVWF       FARG_memcpy_d1+0 
	MOVLW       hi_addr(_LCDLine2+0)
	MOVWF       FARG_memcpy_d1+1 
	MOVLW       ?lstr113_FirmV_0_7_0+0
	MOVWF       FARG_memcpy_s1+0 
	MOVLW       hi_addr(?lstr113_FirmV_0_7_0+0)
	MOVWF       FARG_memcpy_s1+1 
	MOVLW       16
	MOVWF       FARG_memcpy_n+0 
	MOVLW       0
	MOVWF       FARG_memcpy_n+1 
	CALL        _memcpy+0, 0
;FirmV_0_7_0.c,2592 :: 		LCDLines=2;
	MOVLW       2
	MOVWF       _LCDLines+0 
;FirmV_0_7_0.c,2593 :: 		LCDUpdateFlag=1;
	MOVLW       1
	MOVWF       _LCDUpdateFlag+0 
;FirmV_0_7_0.c,2594 :: 		}
L_LearnAuto682:
;FirmV_0_7_0.c,2596 :: 		switch(LearnPhase)
	GOTO        L_LearnAuto683
;FirmV_0_7_0.c,2598 :: 		case 0:
L_LearnAuto685:
;FirmV_0_7_0.c,2599 :: 		Flasher=1;
	BSF         PORTD+0, 7 
;FirmV_0_7_0.c,2601 :: 		if(Events.Remote.b0==1) {DoorNo=2; LearnPhase=LearnPhase+1;BuzzFlag=1;} if(Events.Remote.b1==1) {DoorNo=1;LearnPhase=3;BuzzFlag=1;}
	BTFSS       _Events+4, 0 
	GOTO        L_LearnAuto686
	MOVLW       2
	MOVWF       LearnAuto_DoorNo_L0+0 
	INCF        _LearnPhase+0, 1 
	MOVLW       1
	MOVWF       _BuzzFlag+0 
L_LearnAuto686:
	BTFSS       _Events+4, 1 
	GOTO        L_LearnAuto687
	MOVLW       1
	MOVWF       LearnAuto_DoorNo_L0+0 
	MOVLW       3
	MOVWF       _LearnPhase+0 
	MOVLW       1
	MOVWF       _BuzzFlag+0 
L_LearnAuto687:
;FirmV_0_7_0.c,2602 :: 		OverloadCheckFlag1=0;OverloadCheckFlag2=0;
	CLRF        _OverloadCheckFlag1+0 
	CLRF        _OverloadCheckFlag2+0 
;FirmV_0_7_0.c,2603 :: 		break;
	GOTO        L_LearnAuto684
;FirmV_0_7_0.c,2605 :: 		case 1: //Start D2 and enable overload sensing after 3s
L_LearnAuto688:
;FirmV_0_7_0.c,2606 :: 		StartMotor(2,_Close);AddTask(ms500+6,21);LearnPhase=LearnPhase+1;
	MOVLW       2
	MOVWF       FARG_StartMotor_Mx+0 
	CLRF        FARG_StartMotor_Dir+0 
	CALL        _StartMotor+0, 0
	MOVLW       6
	ADDWF       _ms500+0, 0 
	MOVWF       FARG_AddTask_OccTime+0 
	MOVLW       0
	ADDWFC      _ms500+1, 0 
	MOVWF       FARG_AddTask_OccTime+1 
	MOVLW       0
	ADDWFC      _ms500+2, 0 
	MOVWF       FARG_AddTask_OccTime+2 
	MOVLW       0
	ADDWFC      _ms500+3, 0 
	MOVWF       FARG_AddTask_OccTime+3 
	MOVLW       21
	MOVWF       FARG_AddTask_tcode+0 
	CALL        _AddTask+0, 0
	INCF        _LearnPhase+0, 1 
;FirmV_0_7_0.c,2607 :: 		break;
	GOTO        L_LearnAuto684
;FirmV_0_7_0.c,2609 :: 		case 2: //Check if D2 reaches end of its course
L_LearnAuto689:
;FirmV_0_7_0.c,2610 :: 		if((Events.Overload.b1==1)&&(OverloadCheckFlag2==1)){OverloadCheckFlag2=0;StopMotor(2);LearnPhase=LearnPhase+1;}
	BTFSS       _Events+5, 1 
	GOTO        L_LearnAuto692
	MOVF        _OverloadCheckFlag2+0, 0 
	XORLW       1
	BTFSS       STATUS+0, 2 
	GOTO        L_LearnAuto692
L__LearnAuto1014:
	CLRF        _OverloadCheckFlag2+0 
	MOVLW       2
	MOVWF       FARG_StopMotor_Mx+0 
	CALL        _StopMotor+0, 0
	INCF        _LearnPhase+0, 1 
L_LearnAuto692:
;FirmV_0_7_0.c,2611 :: 		if(CheckTask(21))OverloadCheckFlag2=1;
	MOVLW       21
	MOVWF       FARG_CheckTask_TaskCode+0 
	CALL        _CheckTask+0, 0
	MOVF        R0, 1 
	BTFSC       STATUS+0, 2 
	GOTO        L_LearnAuto693
	MOVLW       1
	MOVWF       _OverloadCheckFlag2+0 
L_LearnAuto693:
;FirmV_0_7_0.c,2612 :: 		break;
	GOTO        L_LearnAuto684
;FirmV_0_7_0.c,2614 :: 		case 3: //Start D1 and enable overload sensin after 3 s
L_LearnAuto694:
;FirmV_0_7_0.c,2615 :: 		StartMotor(1,_Close);AddTask(ms500+6,20);LearnPhase=LearnPhase+1;;
	MOVLW       1
	MOVWF       FARG_StartMotor_Mx+0 
	CLRF        FARG_StartMotor_Dir+0 
	CALL        _StartMotor+0, 0
	MOVLW       6
	ADDWF       _ms500+0, 0 
	MOVWF       FARG_AddTask_OccTime+0 
	MOVLW       0
	ADDWFC      _ms500+1, 0 
	MOVWF       FARG_AddTask_OccTime+1 
	MOVLW       0
	ADDWFC      _ms500+2, 0 
	MOVWF       FARG_AddTask_OccTime+2 
	MOVLW       0
	ADDWFC      _ms500+3, 0 
	MOVWF       FARG_AddTask_OccTime+3 
	MOVLW       20
	MOVWF       FARG_AddTask_tcode+0 
	CALL        _AddTask+0, 0
	INCF        _LearnPhase+0, 1 
;FirmV_0_7_0.c,2617 :: 		case 4: //Check if D1 reaches end of its course
L_LearnAuto695:
;FirmV_0_7_0.c,2618 :: 		if((Events.Overload.b0==1)&&(OverloadCheckFlag1==1)){OverloadCheckFlag1=0;StopMotor(1);LearnPhase=LearnPhase+1;}
	BTFSS       _Events+5, 0 
	GOTO        L_LearnAuto698
	MOVF        _OverloadCheckFlag1+0, 0 
	XORLW       1
	BTFSS       STATUS+0, 2 
	GOTO        L_LearnAuto698
L__LearnAuto1013:
	CLRF        _OverloadCheckFlag1+0 
	MOVLW       1
	MOVWF       FARG_StopMotor_Mx+0 
	CALL        _StopMotor+0, 0
	INCF        _LearnPhase+0, 1 
L_LearnAuto698:
;FirmV_0_7_0.c,2619 :: 		if(CheckTask(20))OverloadCheckFlag1=1;
	MOVLW       20
	MOVWF       FARG_CheckTask_TaskCode+0 
	CALL        _CheckTask+0, 0
	MOVF        R0, 1 
	BTFSC       STATUS+0, 2 
	GOTO        L_LearnAuto699
	MOVLW       1
	MOVWF       _OverloadCheckFlag1+0 
L_LearnAuto699:
;FirmV_0_7_0.c,2620 :: 		break;
	GOTO        L_LearnAuto684
;FirmV_0_7_0.c,2622 :: 		case 5: //Start D1 for opening and save start time and enable overload sensing after 3s
L_LearnAuto700:
;FirmV_0_7_0.c,2623 :: 		startT=ms500;StartMotor(1,_Open);AddTask(ms500+6,20);LearnPhase=LearnPhase+1;
	MOVF        _ms500+0, 0 
	MOVWF       LearnAuto_startT_L0+0 
	MOVF        _ms500+1, 0 
	MOVWF       LearnAuto_startT_L0+1 
	MOVF        _ms500+2, 0 
	MOVWF       LearnAuto_startT_L0+2 
	MOVF        _ms500+3, 0 
	MOVWF       LearnAuto_startT_L0+3 
	MOVLW       1
	MOVWF       FARG_StartMotor_Mx+0 
	MOVLW       1
	MOVWF       FARG_StartMotor_Dir+0 
	CALL        _StartMotor+0, 0
	MOVLW       6
	ADDWF       _ms500+0, 0 
	MOVWF       FARG_AddTask_OccTime+0 
	MOVLW       0
	ADDWFC      _ms500+1, 0 
	MOVWF       FARG_AddTask_OccTime+1 
	MOVLW       0
	ADDWFC      _ms500+2, 0 
	MOVWF       FARG_AddTask_OccTime+2 
	MOVLW       0
	ADDWFC      _ms500+3, 0 
	MOVWF       FARG_AddTask_OccTime+3 
	MOVLW       20
	MOVWF       FARG_AddTask_tcode+0 
	CALL        _AddTask+0, 0
	INCF        _LearnPhase+0, 1 
;FirmV_0_7_0.c,2624 :: 		break;
	GOTO        L_LearnAuto684
;FirmV_0_7_0.c,2626 :: 		case 6: //Check if D1 reaches end of its course and save the stop time
L_LearnAuto701:
;FirmV_0_7_0.c,2627 :: 		if((Events.Overload.b0==1)&&(OverloadCheckFlag1==1)){OverloadCheckFlag1=0;StopMotor(1);if(DoorNo==1)LearnPhase=11;else LearnPhase=LearnPhase+1;stopT=ms500;RawData.D1OpenTime=(char)(stopT-startT);}
	BTFSS       _Events+5, 0 
	GOTO        L_LearnAuto704
	MOVF        _OverloadCheckFlag1+0, 0 
	XORLW       1
	BTFSS       STATUS+0, 2 
	GOTO        L_LearnAuto704
L__LearnAuto1012:
	CLRF        _OverloadCheckFlag1+0 
	MOVLW       1
	MOVWF       FARG_StopMotor_Mx+0 
	CALL        _StopMotor+0, 0
	MOVF        LearnAuto_DoorNo_L0+0, 0 
	XORLW       1
	BTFSS       STATUS+0, 2 
	GOTO        L_LearnAuto705
	MOVLW       11
	MOVWF       _LearnPhase+0 
	GOTO        L_LearnAuto706
L_LearnAuto705:
	INCF        _LearnPhase+0, 1 
L_LearnAuto706:
	MOVF        LearnAuto_startT_L0+0, 0 
	SUBWF       _ms500+0, 0 
	MOVWF       R0 
	MOVF        R0, 0 
	MOVWF       LearnAuto_RawData_L0+1 
L_LearnAuto704:
;FirmV_0_7_0.c,2628 :: 		if(CheckTask(20))OverloadCheckFlag1=1;
	MOVLW       20
	MOVWF       FARG_CheckTask_TaskCode+0 
	CALL        _CheckTask+0, 0
	MOVF        R0, 1 
	BTFSC       STATUS+0, 2 
	GOTO        L_LearnAuto707
	MOVLW       1
	MOVWF       _OverloadCheckFlag1+0 
L_LearnAuto707:
;FirmV_0_7_0.c,2629 :: 		break;
	GOTO        L_LearnAuto684
;FirmV_0_7_0.c,2631 :: 		case 7: //Start D2 for opening and save start time and enable overload sensing after 3s
L_LearnAuto708:
;FirmV_0_7_0.c,2632 :: 		startT=ms500;StartMotor(2,_Open);AddTask(ms500+6,21);LearnPhase=LearnPhase+1;
	MOVF        _ms500+0, 0 
	MOVWF       LearnAuto_startT_L0+0 
	MOVF        _ms500+1, 0 
	MOVWF       LearnAuto_startT_L0+1 
	MOVF        _ms500+2, 0 
	MOVWF       LearnAuto_startT_L0+2 
	MOVF        _ms500+3, 0 
	MOVWF       LearnAuto_startT_L0+3 
	MOVLW       2
	MOVWF       FARG_StartMotor_Mx+0 
	MOVLW       1
	MOVWF       FARG_StartMotor_Dir+0 
	CALL        _StartMotor+0, 0
	MOVLW       6
	ADDWF       _ms500+0, 0 
	MOVWF       FARG_AddTask_OccTime+0 
	MOVLW       0
	ADDWFC      _ms500+1, 0 
	MOVWF       FARG_AddTask_OccTime+1 
	MOVLW       0
	ADDWFC      _ms500+2, 0 
	MOVWF       FARG_AddTask_OccTime+2 
	MOVLW       0
	ADDWFC      _ms500+3, 0 
	MOVWF       FARG_AddTask_OccTime+3 
	MOVLW       21
	MOVWF       FARG_AddTask_tcode+0 
	CALL        _AddTask+0, 0
	INCF        _LearnPhase+0, 1 
;FirmV_0_7_0.c,2633 :: 		break;
	GOTO        L_LearnAuto684
;FirmV_0_7_0.c,2635 :: 		case 8: //Check if D2 reaches end of its course and save the stop time
L_LearnAuto709:
;FirmV_0_7_0.c,2636 :: 		if((Events.Overload.b1==1)&&(OverloadCheckFlag2==1)){OverloadCheckFlag2=0;StopMotor(2);LearnPhase=LearnPhase+1;stopT=ms500;RawData.D2OpenTime=(char)(stopT-startT);}
	BTFSS       _Events+5, 1 
	GOTO        L_LearnAuto712
	MOVF        _OverloadCheckFlag2+0, 0 
	XORLW       1
	BTFSS       STATUS+0, 2 
	GOTO        L_LearnAuto712
L__LearnAuto1011:
	CLRF        _OverloadCheckFlag2+0 
	MOVLW       2
	MOVWF       FARG_StopMotor_Mx+0 
	CALL        _StopMotor+0, 0
	INCF        _LearnPhase+0, 1 
	MOVF        LearnAuto_startT_L0+0, 0 
	SUBWF       _ms500+0, 0 
	MOVWF       R0 
	MOVF        R0, 0 
	MOVWF       LearnAuto_RawData_L0+3 
L_LearnAuto712:
;FirmV_0_7_0.c,2637 :: 		if(CheckTask(21))OverloadCheckFlag2=1;
	MOVLW       21
	MOVWF       FARG_CheckTask_TaskCode+0 
	CALL        _CheckTask+0, 0
	MOVF        R0, 1 
	BTFSC       STATUS+0, 2 
	GOTO        L_LearnAuto713
	MOVLW       1
	MOVWF       _OverloadCheckFlag2+0 
L_LearnAuto713:
;FirmV_0_7_0.c,2638 :: 		break;
	GOTO        L_LearnAuto684
;FirmV_0_7_0.c,2640 :: 		case 9: //Start D2 for closing and save start time and enable overload sensing after 6s
L_LearnAuto714:
;FirmV_0_7_0.c,2641 :: 		startT=ms500;StartMotor(2,_Close);AddTask(ms500+6,21);LearnPhase=LearnPhase+1;
	MOVF        _ms500+0, 0 
	MOVWF       LearnAuto_startT_L0+0 
	MOVF        _ms500+1, 0 
	MOVWF       LearnAuto_startT_L0+1 
	MOVF        _ms500+2, 0 
	MOVWF       LearnAuto_startT_L0+2 
	MOVF        _ms500+3, 0 
	MOVWF       LearnAuto_startT_L0+3 
	MOVLW       2
	MOVWF       FARG_StartMotor_Mx+0 
	CLRF        FARG_StartMotor_Dir+0 
	CALL        _StartMotor+0, 0
	MOVLW       6
	ADDWF       _ms500+0, 0 
	MOVWF       FARG_AddTask_OccTime+0 
	MOVLW       0
	ADDWFC      _ms500+1, 0 
	MOVWF       FARG_AddTask_OccTime+1 
	MOVLW       0
	ADDWFC      _ms500+2, 0 
	MOVWF       FARG_AddTask_OccTime+2 
	MOVLW       0
	ADDWFC      _ms500+3, 0 
	MOVWF       FARG_AddTask_OccTime+3 
	MOVLW       21
	MOVWF       FARG_AddTask_tcode+0 
	CALL        _AddTask+0, 0
	INCF        _LearnPhase+0, 1 
;FirmV_0_7_0.c,2642 :: 		break;
	GOTO        L_LearnAuto684
;FirmV_0_7_0.c,2644 :: 		case 10: //Check if D2 reaches end of its course and save the stop time
L_LearnAuto715:
;FirmV_0_7_0.c,2645 :: 		if((Events.Overload.b1==1)&&(OverloadCheckFlag2==1)){OverloadCheckFlag2=0;StopMotor(2);LearnPhase=LearnPhase+1;stopT=ms500;RawData.D2CloseTime=(char)(stopT-startT);}
	BTFSS       _Events+5, 1 
	GOTO        L_LearnAuto718
	MOVF        _OverloadCheckFlag2+0, 0 
	XORLW       1
	BTFSS       STATUS+0, 2 
	GOTO        L_LearnAuto718
L__LearnAuto1010:
	CLRF        _OverloadCheckFlag2+0 
	MOVLW       2
	MOVWF       FARG_StopMotor_Mx+0 
	CALL        _StopMotor+0, 0
	INCF        _LearnPhase+0, 1 
	MOVF        LearnAuto_startT_L0+0, 0 
	SUBWF       _ms500+0, 0 
	MOVWF       R0 
	MOVF        R0, 0 
	MOVWF       LearnAuto_RawData_L0+2 
L_LearnAuto718:
;FirmV_0_7_0.c,2646 :: 		if(CheckTask(21))OverloadCheckFlag2=1;
	MOVLW       21
	MOVWF       FARG_CheckTask_TaskCode+0 
	CALL        _CheckTask+0, 0
	MOVF        R0, 1 
	BTFSC       STATUS+0, 2 
	GOTO        L_LearnAuto719
	MOVLW       1
	MOVWF       _OverloadCheckFlag2+0 
L_LearnAuto719:
;FirmV_0_7_0.c,2647 :: 		break;
	GOTO        L_LearnAuto684
;FirmV_0_7_0.c,2649 :: 		case 11: //Start D1 for closing and save start time and enable overload sensing after 3s
L_LearnAuto720:
;FirmV_0_7_0.c,2650 :: 		startT=ms500;StartMotor(1,_Close);AddTask(ms500+6,20);LearnPhase=LearnPhase+1;
	MOVF        _ms500+0, 0 
	MOVWF       LearnAuto_startT_L0+0 
	MOVF        _ms500+1, 0 
	MOVWF       LearnAuto_startT_L0+1 
	MOVF        _ms500+2, 0 
	MOVWF       LearnAuto_startT_L0+2 
	MOVF        _ms500+3, 0 
	MOVWF       LearnAuto_startT_L0+3 
	MOVLW       1
	MOVWF       FARG_StartMotor_Mx+0 
	CLRF        FARG_StartMotor_Dir+0 
	CALL        _StartMotor+0, 0
	MOVLW       6
	ADDWF       _ms500+0, 0 
	MOVWF       FARG_AddTask_OccTime+0 
	MOVLW       0
	ADDWFC      _ms500+1, 0 
	MOVWF       FARG_AddTask_OccTime+1 
	MOVLW       0
	ADDWFC      _ms500+2, 0 
	MOVWF       FARG_AddTask_OccTime+2 
	MOVLW       0
	ADDWFC      _ms500+3, 0 
	MOVWF       FARG_AddTask_OccTime+3 
	MOVLW       20
	MOVWF       FARG_AddTask_tcode+0 
	CALL        _AddTask+0, 0
	INCF        _LearnPhase+0, 1 
;FirmV_0_7_0.c,2651 :: 		break;
	GOTO        L_LearnAuto684
;FirmV_0_7_0.c,2653 :: 		case 12: //Check if D1 reaches end of its course and save the stop time
L_LearnAuto721:
;FirmV_0_7_0.c,2654 :: 		if((Events.Overload.b0==1)&&(OverloadCheckFlag1==1)){OverloadCheckFlag1=0;StopMotor(1);LearnPhase=LearnPhase+1;stopT=ms500;RawData.D1CloseTime=(char)(stopT-startT);}
	BTFSS       _Events+5, 0 
	GOTO        L_LearnAuto724
	MOVF        _OverloadCheckFlag1+0, 0 
	XORLW       1
	BTFSS       STATUS+0, 2 
	GOTO        L_LearnAuto724
L__LearnAuto1009:
	CLRF        _OverloadCheckFlag1+0 
	MOVLW       1
	MOVWF       FARG_StopMotor_Mx+0 
	CALL        _StopMotor+0, 0
	INCF        _LearnPhase+0, 1 
	MOVF        LearnAuto_startT_L0+0, 0 
	SUBWF       _ms500+0, 0 
	MOVWF       R0 
	MOVF        R0, 0 
	MOVWF       LearnAuto_RawData_L0+0 
L_LearnAuto724:
;FirmV_0_7_0.c,2655 :: 		if(CheckTask(20))OverloadCheckFlag1=1;
	MOVLW       20
	MOVWF       FARG_CheckTask_TaskCode+0 
	CALL        _CheckTask+0, 0
	MOVF        R0, 1 
	BTFSC       STATUS+0, 2 
	GOTO        L_LearnAuto725
	MOVLW       1
	MOVWF       _OverloadCheckFlag1+0 
L_LearnAuto725:
;FirmV_0_7_0.c,2656 :: 		break;
	GOTO        L_LearnAuto684
;FirmV_0_7_0.c,2658 :: 		case 13:
L_LearnAuto726:
;FirmV_0_7_0.c,2659 :: 		AutoLearnCalculator(&RawData);
	MOVLW       LearnAuto_RawData_L0+0
	MOVWF       FARG_AutoLearnCalculator+0 
	MOVLW       hi_addr(LearnAuto_RawData_L0+0)
	MOVWF       FARG_AutoLearnCalculator+1 
	CALL        _AutoLearnCalculator+0, 0
;FirmV_0_7_0.c,2660 :: 		SaveLearnData(&RawData,DoorNo);
	MOVLW       LearnAuto_RawData_L0+0
	MOVWF       FARG_SaveLearnData+0 
	MOVLW       hi_addr(LearnAuto_RawData_L0+0)
	MOVWF       FARG_SaveLearnData+1 
	MOVF        LearnAuto_DoorNo_L0+0, 0 
	MOVWF       FARG_SaveLearnData+0 
	CALL        _SaveLearnData+0, 0
;FirmV_0_7_0.c,2661 :: 		memcpy(LCDLine1," Learn Complete ",16);
	MOVLW       _LCDLine1+0
	MOVWF       FARG_memcpy_d1+0 
	MOVLW       hi_addr(_LCDLine1+0)
	MOVWF       FARG_memcpy_d1+1 
	MOVLW       ?lstr114_FirmV_0_7_0+0
	MOVWF       FARG_memcpy_s1+0 
	MOVLW       hi_addr(?lstr114_FirmV_0_7_0+0)
	MOVWF       FARG_memcpy_s1+1 
	MOVLW       16
	MOVWF       FARG_memcpy_n+0 
	MOVLW       0
	MOVWF       FARG_memcpy_n+1 
	CALL        _memcpy+0, 0
;FirmV_0_7_0.c,2662 :: 		memcpy(LCDLine2,"     Ready      ",16);
	MOVLW       _LCDLine2+0
	MOVWF       FARG_memcpy_d1+0 
	MOVLW       hi_addr(_LCDLine2+0)
	MOVWF       FARG_memcpy_d1+1 
	MOVLW       ?lstr115_FirmV_0_7_0+0
	MOVWF       FARG_memcpy_s1+0 
	MOVLW       hi_addr(?lstr115_FirmV_0_7_0+0)
	MOVWF       FARG_memcpy_s1+1 
	MOVLW       16
	MOVWF       FARG_memcpy_n+0 
	MOVLW       0
	MOVWF       FARG_memcpy_n+1 
	CALL        _memcpy+0, 0
;FirmV_0_7_0.c,2663 :: 		LCDLines=2;
	MOVLW       2
	MOVWF       _LCDLines+0 
;FirmV_0_7_0.c,2664 :: 		LCDUpdateFlag=1;
	MOVLW       1
	MOVWF       _LCDUpdateFlag+0 
;FirmV_0_7_0.c,2665 :: 		Flasher=0;
	BCF         PORTD+0, 7 
;FirmV_0_7_0.c,2667 :: 		State=0;
	CLRF        _State+0 
;FirmV_0_7_0.c,2668 :: 		break;
	GOTO        L_LearnAuto684
;FirmV_0_7_0.c,2671 :: 		}
L_LearnAuto683:
	MOVF        _LearnPhase+0, 0 
	XORLW       0
	BTFSC       STATUS+0, 2 
	GOTO        L_LearnAuto685
	MOVF        _LearnPhase+0, 0 
	XORLW       1
	BTFSC       STATUS+0, 2 
	GOTO        L_LearnAuto688
	MOVF        _LearnPhase+0, 0 
	XORLW       2
	BTFSC       STATUS+0, 2 
	GOTO        L_LearnAuto689
	MOVF        _LearnPhase+0, 0 
	XORLW       3
	BTFSC       STATUS+0, 2 
	GOTO        L_LearnAuto694
	MOVF        _LearnPhase+0, 0 
	XORLW       4
	BTFSC       STATUS+0, 2 
	GOTO        L_LearnAuto695
	MOVF        _LearnPhase+0, 0 
	XORLW       5
	BTFSC       STATUS+0, 2 
	GOTO        L_LearnAuto700
	MOVF        _LearnPhase+0, 0 
	XORLW       6
	BTFSC       STATUS+0, 2 
	GOTO        L_LearnAuto701
	MOVF        _LearnPhase+0, 0 
	XORLW       7
	BTFSC       STATUS+0, 2 
	GOTO        L_LearnAuto708
	MOVF        _LearnPhase+0, 0 
	XORLW       8
	BTFSC       STATUS+0, 2 
	GOTO        L_LearnAuto709
	MOVF        _LearnPhase+0, 0 
	XORLW       9
	BTFSC       STATUS+0, 2 
	GOTO        L_LearnAuto714
	MOVF        _LearnPhase+0, 0 
	XORLW       10
	BTFSC       STATUS+0, 2 
	GOTO        L_LearnAuto715
	MOVF        _LearnPhase+0, 0 
	XORLW       11
	BTFSC       STATUS+0, 2 
	GOTO        L_LearnAuto720
	MOVF        _LearnPhase+0, 0 
	XORLW       12
	BTFSC       STATUS+0, 2 
	GOTO        L_LearnAuto721
	MOVF        _LearnPhase+0, 0 
	XORLW       13
	BTFSC       STATUS+0, 2 
	GOTO        L_LearnAuto726
L_LearnAuto684:
;FirmV_0_7_0.c,2675 :: 		}
L_end_LearnAuto:
	RETURN      0
; end of _LearnAuto

_AutoLearnCalculator:

;FirmV_0_7_0.c,2695 :: 		void AutoLearnCalculator(Learn *raw)
;FirmV_0_7_0.c,2698 :: 		(*raw).D1OpenTime=(*raw).D1OpenTime+10;
	MOVLW       1
	ADDWF       FARG_AutoLearnCalculator_raw+0, 0 
	MOVWF       R1 
	MOVLW       0
	ADDWFC      FARG_AutoLearnCalculator_raw+1, 0 
	MOVWF       R2 
	MOVFF       R1, FSR0
	MOVFF       R2, FSR0H
	MOVLW       10
	ADDWF       POSTINC0+0, 0 
	MOVWF       R0 
	MOVFF       R1, FSR1
	MOVFF       R2, FSR1H
	MOVF        R0, 0 
	MOVWF       POSTINC1+0 
;FirmV_0_7_0.c,2699 :: 		(*raw).D2OpenTime=(*raw).D2OpenTime+10;
	MOVLW       3
	ADDWF       FARG_AutoLearnCalculator_raw+0, 0 
	MOVWF       R1 
	MOVLW       0
	ADDWFC      FARG_AutoLearnCalculator_raw+1, 0 
	MOVWF       R2 
	MOVFF       R1, FSR0
	MOVFF       R2, FSR0H
	MOVLW       10
	ADDWF       POSTINC0+0, 0 
	MOVWF       R0 
	MOVFF       R1, FSR1
	MOVFF       R2, FSR1H
	MOVF        R0, 0 
	MOVWF       POSTINC1+0 
;FirmV_0_7_0.c,2700 :: 		(*raw).D1CloseTime=(*raw).D1CloseTime+10;
	MOVFF       FARG_AutoLearnCalculator_raw+0, FSR0
	MOVFF       FARG_AutoLearnCalculator_raw+1, FSR0H
	MOVF        POSTINC0+0, 0 
	MOVWF       R0 
	MOVFF       FARG_AutoLearnCalculator_raw+0, FSR1
	MOVFF       FARG_AutoLearnCalculator_raw+1, FSR1H
	MOVLW       10
	ADDWF       R0, 0 
	MOVWF       POSTINC1+0 
;FirmV_0_7_0.c,2701 :: 		(*raw).D2CloseTime=(*raw).D2CloseTime+10;
	MOVLW       2
	ADDWF       FARG_AutoLearnCalculator_raw+0, 0 
	MOVWF       R1 
	MOVLW       0
	ADDWFC      FARG_AutoLearnCalculator_raw+1, 0 
	MOVWF       R2 
	MOVFF       R1, FSR0
	MOVFF       R2, FSR0H
	MOVLW       10
	ADDWF       POSTINC0+0, 0 
	MOVWF       R0 
	MOVFF       R1, FSR1
	MOVFF       R2, FSR1H
	MOVF        R0, 0 
	MOVWF       POSTINC1+0 
;FirmV_0_7_0.c,2703 :: 		(*raw).D1OpenSoftStart=4;
	MOVLW       4
	ADDWF       FARG_AutoLearnCalculator_raw+0, 0 
	MOVWF       FSR1 
	MOVLW       0
	ADDWFC      FARG_AutoLearnCalculator_raw+1, 0 
	MOVWF       FSR1H 
	MOVLW       4
	MOVWF       POSTINC1+0 
;FirmV_0_7_0.c,2704 :: 		(*raw).D1CloseSoftStart=4;
	MOVLW       6
	ADDWF       FARG_AutoLearnCalculator_raw+0, 0 
	MOVWF       FSR1 
	MOVLW       0
	ADDWFC      FARG_AutoLearnCalculator_raw+1, 0 
	MOVWF       FSR1H 
	MOVLW       4
	MOVWF       POSTINC1+0 
;FirmV_0_7_0.c,2705 :: 		(*raw).D2OpenSoftStart=4;
	MOVLW       8
	ADDWF       FARG_AutoLearnCalculator_raw+0, 0 
	MOVWF       FSR1 
	MOVLW       0
	ADDWFC      FARG_AutoLearnCalculator_raw+1, 0 
	MOVWF       FSR1H 
	MOVLW       4
	MOVWF       POSTINC1+0 
;FirmV_0_7_0.c,2706 :: 		(*raw).D2CloseSoftStart=4;
	MOVLW       10
	ADDWF       FARG_AutoLearnCalculator_raw+0, 0 
	MOVWF       FSR1 
	MOVLW       0
	ADDWFC      FARG_AutoLearnCalculator_raw+1, 0 
	MOVWF       FSR1H 
	MOVLW       4
	MOVWF       POSTINC1+0 
;FirmV_0_7_0.c,2708 :: 		(*raw).D1OpenSoftStop=10;
	MOVLW       5
	ADDWF       FARG_AutoLearnCalculator_raw+0, 0 
	MOVWF       FSR1 
	MOVLW       0
	ADDWFC      FARG_AutoLearnCalculator_raw+1, 0 
	MOVWF       FSR1H 
	MOVLW       10
	MOVWF       POSTINC1+0 
;FirmV_0_7_0.c,2709 :: 		(*raw).D2OpenSoftStop=10;
	MOVLW       9
	ADDWF       FARG_AutoLearnCalculator_raw+0, 0 
	MOVWF       FSR1 
	MOVLW       0
	ADDWFC      FARG_AutoLearnCalculator_raw+1, 0 
	MOVWF       FSR1H 
	MOVLW       10
	MOVWF       POSTINC1+0 
;FirmV_0_7_0.c,2710 :: 		(*raw).D1CloseSoftStop=10;
	MOVLW       7
	ADDWF       FARG_AutoLearnCalculator_raw+0, 0 
	MOVWF       FSR1 
	MOVLW       0
	ADDWFC      FARG_AutoLearnCalculator_raw+1, 0 
	MOVWF       FSR1H 
	MOVLW       10
	MOVWF       POSTINC1+0 
;FirmV_0_7_0.c,2711 :: 		(*raw).D2CloseSoftStop=10;
	MOVLW       11
	ADDWF       FARG_AutoLearnCalculator_raw+0, 0 
	MOVWF       FSR1 
	MOVLW       0
	ADDWFC      FARG_AutoLearnCalculator_raw+1, 0 
	MOVWF       FSR1H 
	MOVLW       10
	MOVWF       POSTINC1+0 
;FirmV_0_7_0.c,2713 :: 		}
L_end_AutoLearnCalculator:
	RETURN      0
; end of _AutoLearnCalculator

_SaveLearnData:

;FirmV_0_7_0.c,2725 :: 		void SaveLearnData(Learn *d,char DCount)
;FirmV_0_7_0.c,2727 :: 		Door1OpenTime=(*d).D1OpenTime;
	MOVLW       1
	ADDWF       FARG_SaveLearnData_d+0, 0 
	MOVWF       FSR0 
	MOVLW       0
	ADDWFC      FARG_SaveLearnData_d+1, 0 
	MOVWF       FSR0H 
	MOVF        POSTINC0+0, 0 
	MOVWF       _Door1OpenTime+0 
;FirmV_0_7_0.c,2728 :: 		Door1CloseTime=(*d).D1CloseTime;
	MOVFF       FARG_SaveLearnData_d+0, FSR0
	MOVFF       FARG_SaveLearnData_d+1, FSR0H
	MOVF        POSTINC0+0, 0 
	MOVWF       _Door1CloseTime+0 
;FirmV_0_7_0.c,2729 :: 		if(DCount==2)
	MOVF        FARG_SaveLearnData_DCount+0, 0 
	XORLW       2
	BTFSS       STATUS+0, 2 
	GOTO        L_SaveLearnData727
;FirmV_0_7_0.c,2731 :: 		Door2OpenTime=(*d).D2OpenTime;
	MOVLW       3
	ADDWF       FARG_SaveLearnData_d+0, 0 
	MOVWF       FSR0 
	MOVLW       0
	ADDWFC      FARG_SaveLearnData_d+1, 0 
	MOVWF       FSR0H 
	MOVF        POSTINC0+0, 0 
	MOVWF       _Door2OpenTime+0 
;FirmV_0_7_0.c,2732 :: 		Door2CloseTime=(*d).D2CloseTime;
	MOVLW       2
	ADDWF       FARG_SaveLearnData_d+0, 0 
	MOVWF       FSR0 
	MOVLW       0
	ADDWFC      FARG_SaveLearnData_d+1, 0 
	MOVWF       FSR0H 
	MOVF        POSTINC0+0, 0 
	MOVWF       _Door2CloseTime+0 
;FirmV_0_7_0.c,2733 :: 		OpenSoftStartTime=((*d).D1OpenSoftStart+(*d).D2OpenSoftStart)/2;
	MOVLW       4
	ADDWF       FARG_SaveLearnData_d+0, 0 
	MOVWF       FSR0 
	MOVLW       0
	ADDWFC      FARG_SaveLearnData_d+1, 0 
	MOVWF       FSR0H 
	MOVLW       8
	ADDWF       FARG_SaveLearnData_d+0, 0 
	MOVWF       FSR2 
	MOVLW       0
	ADDWFC      FARG_SaveLearnData_d+1, 0 
	MOVWF       FSR2H 
	MOVF        POSTINC2+0, 0 
	ADDWF       POSTINC0+0, 0 
	MOVWF       R3 
	CLRF        R4 
	MOVLW       0
	ADDWFC      R4, 1 
	MOVF        R3, 0 
	MOVWF       R0 
	MOVF        R4, 0 
	MOVWF       R1 
	RRCF        R1, 1 
	RRCF        R0, 1 
	BCF         R1, 7 
	BTFSC       R1, 6 
	BSF         R1, 7 
	MOVF        R0, 0 
	MOVWF       _OpenSoftStartTime+0 
;FirmV_0_7_0.c,2734 :: 		OpenSoftStopTime=((*d).D1OpenSoftStop+(*d).D2OpenSoftStop)/2;
	MOVLW       5
	ADDWF       FARG_SaveLearnData_d+0, 0 
	MOVWF       FSR0 
	MOVLW       0
	ADDWFC      FARG_SaveLearnData_d+1, 0 
	MOVWF       FSR0H 
	MOVLW       9
	ADDWF       FARG_SaveLearnData_d+0, 0 
	MOVWF       FSR2 
	MOVLW       0
	ADDWFC      FARG_SaveLearnData_d+1, 0 
	MOVWF       FSR2H 
	MOVF        POSTINC2+0, 0 
	ADDWF       POSTINC0+0, 0 
	MOVWF       R3 
	CLRF        R4 
	MOVLW       0
	ADDWFC      R4, 1 
	MOVF        R3, 0 
	MOVWF       R0 
	MOVF        R4, 0 
	MOVWF       R1 
	RRCF        R1, 1 
	RRCF        R0, 1 
	BCF         R1, 7 
	BTFSC       R1, 6 
	BSF         R1, 7 
	MOVF        R0, 0 
	MOVWF       _OpenSoftStopTime+0 
;FirmV_0_7_0.c,2735 :: 		CloseSoftStartTime=((*d).D1CloseSoftStart+(*d).D2CloseSoftStart)/2;
	MOVLW       6
	ADDWF       FARG_SaveLearnData_d+0, 0 
	MOVWF       FSR0 
	MOVLW       0
	ADDWFC      FARG_SaveLearnData_d+1, 0 
	MOVWF       FSR0H 
	MOVLW       10
	ADDWF       FARG_SaveLearnData_d+0, 0 
	MOVWF       FSR2 
	MOVLW       0
	ADDWFC      FARG_SaveLearnData_d+1, 0 
	MOVWF       FSR2H 
	MOVF        POSTINC2+0, 0 
	ADDWF       POSTINC0+0, 0 
	MOVWF       R3 
	CLRF        R4 
	MOVLW       0
	ADDWFC      R4, 1 
	MOVF        R3, 0 
	MOVWF       R0 
	MOVF        R4, 0 
	MOVWF       R1 
	RRCF        R1, 1 
	RRCF        R0, 1 
	BCF         R1, 7 
	BTFSC       R1, 6 
	BSF         R1, 7 
	MOVF        R0, 0 
	MOVWF       _CloseSoftStartTime+0 
;FirmV_0_7_0.c,2736 :: 		CloseSoftStopTime=((*d).D1CloseSoftStop+(*d).D2CloseSoftStop)/2;
	MOVLW       7
	ADDWF       FARG_SaveLearnData_d+0, 0 
	MOVWF       FSR0 
	MOVLW       0
	ADDWFC      FARG_SaveLearnData_d+1, 0 
	MOVWF       FSR0H 
	MOVLW       11
	ADDWF       FARG_SaveLearnData_d+0, 0 
	MOVWF       FSR2 
	MOVLW       0
	ADDWFC      FARG_SaveLearnData_d+1, 0 
	MOVWF       FSR2H 
	MOVF        POSTINC2+0, 0 
	ADDWF       POSTINC0+0, 0 
	MOVWF       R3 
	CLRF        R4 
	MOVLW       0
	ADDWFC      R4, 1 
	MOVF        R3, 0 
	MOVWF       R0 
	MOVF        R4, 0 
	MOVWF       R1 
	RRCF        R1, 1 
	RRCF        R0, 1 
	BCF         R1, 7 
	BTFSC       R1, 6 
	BSF         R1, 7 
	MOVF        R0, 0 
	MOVWF       _CloseSoftStopTime+0 
;FirmV_0_7_0.c,2737 :: 		}
	GOTO        L_SaveLearnData728
L_SaveLearnData727:
;FirmV_0_7_0.c,2740 :: 		Door2OpenTime=0;
	CLRF        _Door2OpenTime+0 
;FirmV_0_7_0.c,2741 :: 		Door2CloseTime=0;
	CLRF        _Door2CloseTime+0 
;FirmV_0_7_0.c,2742 :: 		OpenSoftStartTime=(*d).D1OpenSoftStart;
	MOVLW       4
	ADDWF       FARG_SaveLearnData_d+0, 0 
	MOVWF       FSR0 
	MOVLW       0
	ADDWFC      FARG_SaveLearnData_d+1, 0 
	MOVWF       FSR0H 
	MOVF        POSTINC0+0, 0 
	MOVWF       _OpenSoftStartTime+0 
;FirmV_0_7_0.c,2743 :: 		OpenSoftStopTime=(*d).D1OpenSoftStop;
	MOVLW       5
	ADDWF       FARG_SaveLearnData_d+0, 0 
	MOVWF       FSR0 
	MOVLW       0
	ADDWFC      FARG_SaveLearnData_d+1, 0 
	MOVWF       FSR0H 
	MOVF        POSTINC0+0, 0 
	MOVWF       _OpenSoftStopTime+0 
;FirmV_0_7_0.c,2744 :: 		CloseSoftStartTime=(*d).D1CloseSoftStart;
	MOVLW       6
	ADDWF       FARG_SaveLearnData_d+0, 0 
	MOVWF       FSR0 
	MOVLW       0
	ADDWFC      FARG_SaveLearnData_d+1, 0 
	MOVWF       FSR0H 
	MOVF        POSTINC0+0, 0 
	MOVWF       _CloseSoftStartTime+0 
;FirmV_0_7_0.c,2745 :: 		CloseSoftStopTime=(*d).D1CloseSoftStop;
	MOVLW       7
	ADDWF       FARG_SaveLearnData_d+0, 0 
	MOVWF       FSR0 
	MOVLW       0
	ADDWFC      FARG_SaveLearnData_d+1, 0 
	MOVWF       FSR0H 
	MOVF        POSTINC0+0, 0 
	MOVWF       _CloseSoftStopTime+0 
;FirmV_0_7_0.c,2746 :: 		}
L_SaveLearnData728:
;FirmV_0_7_0.c,2748 :: 		SaveConfigs();
	CALL        _SaveConfigs+0, 0
;FirmV_0_7_0.c,2749 :: 		}
L_end_SaveLearnData:
	RETURN      0
; end of _SaveLearnData

_LearnManual:

;FirmV_0_7_0.c,2764 :: 		void LearnManual()
;FirmV_0_7_0.c,2771 :: 		if(Events.Keys.b1)
	BTFSS       _Events+0, 1 
	GOTO        L_LearnManual729
;FirmV_0_7_0.c,2773 :: 		State=1;
	MOVLW       1
	MOVWF       _State+0 
;FirmV_0_7_0.c,2774 :: 		Flasher=0;
	BCF         PORTD+0, 7 
;FirmV_0_7_0.c,2775 :: 		memcpy(LCDLine1,_open,16);
	MOVLW       _LCDLine1+0
	MOVWF       FARG_memcpy_d1+0 
	MOVLW       hi_addr(_LCDLine1+0)
	MOVWF       FARG_memcpy_d1+1 
	MOVLW       __open+0
	MOVWF       FARG_memcpy_s1+0 
	MOVLW       hi_addr(__open+0)
	MOVWF       FARG_memcpy_s1+1 
	MOVLW       16
	MOVWF       FARG_memcpy_n+0 
	MOVLW       0
	MOVWF       FARG_memcpy_n+1 
	CALL        _memcpy+0, 0
;FirmV_0_7_0.c,2776 :: 		memcpy(LCDLine2," Learn Canceled ",16);
	MOVLW       _LCDLine2+0
	MOVWF       FARG_memcpy_d1+0 
	MOVLW       hi_addr(_LCDLine2+0)
	MOVWF       FARG_memcpy_d1+1 
	MOVLW       ?lstr116_FirmV_0_7_0+0
	MOVWF       FARG_memcpy_s1+0 
	MOVLW       hi_addr(?lstr116_FirmV_0_7_0+0)
	MOVWF       FARG_memcpy_s1+1 
	MOVLW       16
	MOVWF       FARG_memcpy_n+0 
	MOVLW       0
	MOVWF       FARG_memcpy_n+1 
	CALL        _memcpy+0, 0
;FirmV_0_7_0.c,2777 :: 		LCDLines=2;
	MOVLW       2
	MOVWF       _LCDLines+0 
;FirmV_0_7_0.c,2778 :: 		LCDUpdateFlag=1;
	MOVLW       1
	MOVWF       _LCDUpdateFlag+0 
;FirmV_0_7_0.c,2779 :: 		}
L_LearnManual729:
;FirmV_0_7_0.c,2781 :: 		switch(LearnPhase)
	GOTO        L_LearnManual730
;FirmV_0_7_0.c,2783 :: 		case 0:
L_LearnManual732:
;FirmV_0_7_0.c,2784 :: 		Flasher=1;
	BSF         PORTD+0, 7 
;FirmV_0_7_0.c,2786 :: 		if(Events.Remote.b0==1){LearnPhase=LearnPhase+1; DoorNo=2;BuzzFlag=1;}if(Events.Remote.b1==1){LearnPhase=3; DoorNo=1;BuzzFlag=1;}
	BTFSS       _Events+4, 0 
	GOTO        L_LearnManual733
	INCF        _LearnPhase+0, 1 
	MOVLW       2
	MOVWF       LearnManual_DoorNo_L0+0 
	MOVLW       1
	MOVWF       _BuzzFlag+0 
L_LearnManual733:
	BTFSS       _Events+4, 1 
	GOTO        L_LearnManual734
	MOVLW       3
	MOVWF       _LearnPhase+0 
	MOVLW       1
	MOVWF       LearnManual_DoorNo_L0+0 
	MOVLW       1
	MOVWF       _BuzzFlag+0 
L_LearnManual734:
;FirmV_0_7_0.c,2787 :: 		break;
	GOTO        L_LearnManual731
;FirmV_0_7_0.c,2789 :: 		case 1: //Start D2 and enable overload sensing after 1s
L_LearnManual735:
;FirmV_0_7_0.c,2790 :: 		StartMotor(2,_Close);AddTask(ms500+4,21);LearnPhase=LearnPhase+1;OverloadCheckFlag2=0;
	MOVLW       2
	MOVWF       FARG_StartMotor_Mx+0 
	CLRF        FARG_StartMotor_Dir+0 
	CALL        _StartMotor+0, 0
	MOVLW       4
	ADDWF       _ms500+0, 0 
	MOVWF       FARG_AddTask_OccTime+0 
	MOVLW       0
	ADDWFC      _ms500+1, 0 
	MOVWF       FARG_AddTask_OccTime+1 
	MOVLW       0
	ADDWFC      _ms500+2, 0 
	MOVWF       FARG_AddTask_OccTime+2 
	MOVLW       0
	ADDWFC      _ms500+3, 0 
	MOVWF       FARG_AddTask_OccTime+3 
	MOVLW       21
	MOVWF       FARG_AddTask_tcode+0 
	CALL        _AddTask+0, 0
	INCF        _LearnPhase+0, 1 
	CLRF        _OverloadCheckFlag2+0 
;FirmV_0_7_0.c,2791 :: 		break;
	GOTO        L_LearnManual731
;FirmV_0_7_0.c,2793 :: 		case 2: //Check if D2 reaches end of its course
L_LearnManual736:
;FirmV_0_7_0.c,2794 :: 		if((Events.Overload.b1==1)&&(OverloadCheckFlag2==1)){OverloadCheckFlag2=0;StopMotor(2);LearnPhase=LearnPhase+1;}
	BTFSS       _Events+5, 1 
	GOTO        L_LearnManual739
	MOVF        _OverloadCheckFlag2+0, 0 
	XORLW       1
	BTFSS       STATUS+0, 2 
	GOTO        L_LearnManual739
L__LearnManual1016:
	CLRF        _OverloadCheckFlag2+0 
	MOVLW       2
	MOVWF       FARG_StopMotor_Mx+0 
	CALL        _StopMotor+0, 0
	INCF        _LearnPhase+0, 1 
L_LearnManual739:
;FirmV_0_7_0.c,2795 :: 		if(CheckTask(21))OverloadCheckFlag2=1;
	MOVLW       21
	MOVWF       FARG_CheckTask_TaskCode+0 
	CALL        _CheckTask+0, 0
	MOVF        R0, 1 
	BTFSC       STATUS+0, 2 
	GOTO        L_LearnManual740
	MOVLW       1
	MOVWF       _OverloadCheckFlag2+0 
L_LearnManual740:
;FirmV_0_7_0.c,2796 :: 		break;
	GOTO        L_LearnManual731
;FirmV_0_7_0.c,2798 :: 		case 3: //Start D1 and enable overload sensin after 1 s
L_LearnManual741:
;FirmV_0_7_0.c,2799 :: 		StartMotor(1,_Close);AddTask(ms500+4,20);LearnPhase=LearnPhase+1;;OverloadCheckFlag1=0;
	MOVLW       1
	MOVWF       FARG_StartMotor_Mx+0 
	CLRF        FARG_StartMotor_Dir+0 
	CALL        _StartMotor+0, 0
	MOVLW       4
	ADDWF       _ms500+0, 0 
	MOVWF       FARG_AddTask_OccTime+0 
	MOVLW       0
	ADDWFC      _ms500+1, 0 
	MOVWF       FARG_AddTask_OccTime+1 
	MOVLW       0
	ADDWFC      _ms500+2, 0 
	MOVWF       FARG_AddTask_OccTime+2 
	MOVLW       0
	ADDWFC      _ms500+3, 0 
	MOVWF       FARG_AddTask_OccTime+3 
	MOVLW       20
	MOVWF       FARG_AddTask_tcode+0 
	CALL        _AddTask+0, 0
	INCF        _LearnPhase+0, 1 
	CLRF        _OverloadCheckFlag1+0 
;FirmV_0_7_0.c,2801 :: 		case 4: //Check if D1 reaches end of its course
L_LearnManual742:
;FirmV_0_7_0.c,2802 :: 		if((Events.Overload.b0==1)&&(OverloadCheckFlag1==1)){OverloadCheckFlag1=0;StopMotor(1);LearnPhase=LearnPhase+1;}
	BTFSS       _Events+5, 0 
	GOTO        L_LearnManual745
	MOVF        _OverloadCheckFlag1+0, 0 
	XORLW       1
	BTFSS       STATUS+0, 2 
	GOTO        L_LearnManual745
L__LearnManual1015:
	CLRF        _OverloadCheckFlag1+0 
	MOVLW       1
	MOVWF       FARG_StopMotor_Mx+0 
	CALL        _StopMotor+0, 0
	INCF        _LearnPhase+0, 1 
L_LearnManual745:
;FirmV_0_7_0.c,2803 :: 		if(CheckTask(20))OverloadCheckFlag1=1;
	MOVLW       20
	MOVWF       FARG_CheckTask_TaskCode+0 
	CALL        _CheckTask+0, 0
	MOVF        R0, 1 
	BTFSC       STATUS+0, 2 
	GOTO        L_LearnManual746
	MOVLW       1
	MOVWF       _OverloadCheckFlag1+0 
L_LearnManual746:
;FirmV_0_7_0.c,2804 :: 		break;
	GOTO        L_LearnManual731
;FirmV_0_7_0.c,2806 :: 		case 5: //Wait for remote to start D1 and slow down
L_LearnManual747:
;FirmV_0_7_0.c,2807 :: 		if(Events.Remote!=0){t1=ms500;StartMotor(1,_Open);SetMotorSpeed(0,Motor2FullSpeed);M1isSlow=1;LearnPhase=LearnPhase+1;}
	MOVF        _Events+4, 0 
	XORLW       0
	BTFSC       STATUS+0, 2 
	GOTO        L_LearnManual748
	MOVF        _ms500+0, 0 
	MOVWF       LearnManual_t1_L0+0 
	MOVF        _ms500+1, 0 
	MOVWF       LearnManual_t1_L0+1 
	MOVF        _ms500+2, 0 
	MOVWF       LearnManual_t1_L0+2 
	MOVF        _ms500+3, 0 
	MOVWF       LearnManual_t1_L0+3 
	MOVLW       1
	MOVWF       FARG_StartMotor_Mx+0 
	MOVLW       1
	MOVWF       FARG_StartMotor_Dir+0 
	CALL        _StartMotor+0, 0
	CLRF        FARG_SetMotorSpeed_M1FullSpeed+0 
	MOVF        _Motor2FullSpeed+0, 0 
	MOVWF       FARG_SetMotorSpeed_M2FullSpeed+0 
	CALL        _SetMotorSpeed+0, 0
	MOVLW       1
	MOVWF       _M1isSlow+0 
	INCF        _LearnPhase+0, 1 
L_LearnManual748:
;FirmV_0_7_0.c,2808 :: 		break;
	GOTO        L_LearnManual731
;FirmV_0_7_0.c,2810 :: 		case 6: //check for Remote press and fast up
L_LearnManual749:
;FirmV_0_7_0.c,2811 :: 		if(Events.Remote!=0){LearnPhase=LearnPhase+1;t2=ms500;SetMotorSpeed(1,Motor2FullSpeed);M1isSlow=0;}
	MOVF        _Events+4, 0 
	XORLW       0
	BTFSC       STATUS+0, 2 
	GOTO        L_LearnManual750
	INCF        _LearnPhase+0, 1 
	MOVF        _ms500+0, 0 
	MOVWF       LearnManual_t2_L0+0 
	MOVF        _ms500+1, 0 
	MOVWF       LearnManual_t2_L0+1 
	MOVF        _ms500+2, 0 
	MOVWF       LearnManual_t2_L0+2 
	MOVF        _ms500+3, 0 
	MOVWF       LearnManual_t2_L0+3 
	MOVLW       1
	MOVWF       FARG_SetMotorSpeed_M1FullSpeed+0 
	MOVF        _Motor2FullSpeed+0, 0 
	MOVWF       FARG_SetMotorSpeed_M2FullSpeed+0 
	CALL        _SetMotorSpeed+0, 0
	CLRF        _M1isSlow+0 
L_LearnManual750:
;FirmV_0_7_0.c,2812 :: 		break;
	GOTO        L_LearnManual731
;FirmV_0_7_0.c,2814 :: 		case 7: //check for Remote press and slow down
L_LearnManual751:
;FirmV_0_7_0.c,2815 :: 		if(Events.Remote!=0){LearnPhase=LearnPhase+1;t3=ms500;SetMotorSpeed(0,Motor2FullSpeed);M1isSlow=1;}
	MOVF        _Events+4, 0 
	XORLW       0
	BTFSC       STATUS+0, 2 
	GOTO        L_LearnManual752
	INCF        _LearnPhase+0, 1 
	MOVF        _ms500+0, 0 
	MOVWF       LearnManual_t3_L0+0 
	MOVF        _ms500+1, 0 
	MOVWF       LearnManual_t3_L0+1 
	MOVF        _ms500+2, 0 
	MOVWF       LearnManual_t3_L0+2 
	MOVF        _ms500+3, 0 
	MOVWF       LearnManual_t3_L0+3 
	CLRF        FARG_SetMotorSpeed_M1FullSpeed+0 
	MOVF        _Motor2FullSpeed+0, 0 
	MOVWF       FARG_SetMotorSpeed_M2FullSpeed+0 
	CALL        _SetMotorSpeed+0, 0
	MOVLW       1
	MOVWF       _M1isSlow+0 
L_LearnManual752:
;FirmV_0_7_0.c,2816 :: 		break;
	GOTO        L_LearnManual731
;FirmV_0_7_0.c,2818 :: 		case 8: //check for Remote press and stop
L_LearnManual753:
;FirmV_0_7_0.c,2819 :: 		if(Events.Remote!=0){if(DoorNo==2)LearnPhase=LearnPhase+1;else LearnPhase=17;t4=ms500;StopMotor(1);
	MOVF        _Events+4, 0 
	XORLW       0
	BTFSC       STATUS+0, 2 
	GOTO        L_LearnManual754
	MOVF        LearnManual_DoorNo_L0+0, 0 
	XORLW       2
	BTFSS       STATUS+0, 2 
	GOTO        L_LearnManual755
	INCF        _LearnPhase+0, 1 
	GOTO        L_LearnManual756
L_LearnManual755:
	MOVLW       17
	MOVWF       _LearnPhase+0 
L_LearnManual756:
	MOVF        _ms500+0, 0 
	MOVWF       LearnManual_t4_L0+0 
	MOVF        _ms500+1, 0 
	MOVWF       LearnManual_t4_L0+1 
	MOVF        _ms500+2, 0 
	MOVWF       LearnManual_t4_L0+2 
	MOVF        _ms500+3, 0 
	MOVWF       LearnManual_t4_L0+3 
	MOVLW       1
	MOVWF       FARG_StopMotor_Mx+0 
	CALL        _StopMotor+0, 0
;FirmV_0_7_0.c,2820 :: 		RawData.D1OpenTime=(char)(t4-t1);
	MOVF        LearnManual_t1_L0+0, 0 
	SUBWF       LearnManual_t4_L0+0, 0 
	MOVWF       R0 
	MOVF        R0, 0 
	MOVWF       LearnManual_RawData_L0+1 
;FirmV_0_7_0.c,2821 :: 		RawData.D1OpenSoftStart=(char)(t2-t1);
	MOVF        LearnManual_t1_L0+0, 0 
	SUBWF       LearnManual_t2_L0+0, 0 
	MOVWF       R0 
	MOVF        R0, 0 
	MOVWF       LearnManual_RawData_L0+4 
;FirmV_0_7_0.c,2822 :: 		RawData.D1OpenSoftStop=(char)(t4-t3);
	MOVF        LearnManual_t3_L0+0, 0 
	SUBWF       LearnManual_t4_L0+0, 0 
	MOVWF       R0 
	MOVF        R0, 0 
	MOVWF       LearnManual_RawData_L0+5 
;FirmV_0_7_0.c,2823 :: 		}
L_LearnManual754:
;FirmV_0_7_0.c,2824 :: 		break;
	GOTO        L_LearnManual731
;FirmV_0_7_0.c,2826 :: 		case 9: //Wait for remote to start D2 and slow down
L_LearnManual757:
;FirmV_0_7_0.c,2827 :: 		if(Events.Remote!=0){t1=ms500;StartMotor(2,_Open);SetMotorSpeed(Motor1FullSpeed,0);M2isSlow=1;LearnPhase=LearnPhase+1;}
	MOVF        _Events+4, 0 
	XORLW       0
	BTFSC       STATUS+0, 2 
	GOTO        L_LearnManual758
	MOVF        _ms500+0, 0 
	MOVWF       LearnManual_t1_L0+0 
	MOVF        _ms500+1, 0 
	MOVWF       LearnManual_t1_L0+1 
	MOVF        _ms500+2, 0 
	MOVWF       LearnManual_t1_L0+2 
	MOVF        _ms500+3, 0 
	MOVWF       LearnManual_t1_L0+3 
	MOVLW       2
	MOVWF       FARG_StartMotor_Mx+0 
	MOVLW       1
	MOVWF       FARG_StartMotor_Dir+0 
	CALL        _StartMotor+0, 0
	MOVF        _Motor1FullSpeed+0, 0 
	MOVWF       FARG_SetMotorSpeed_M1FullSpeed+0 
	CLRF        FARG_SetMotorSpeed_M2FullSpeed+0 
	CALL        _SetMotorSpeed+0, 0
	MOVLW       1
	MOVWF       _M2isSlow+0 
	INCF        _LearnPhase+0, 1 
L_LearnManual758:
;FirmV_0_7_0.c,2828 :: 		break;
	GOTO        L_LearnManual731
;FirmV_0_7_0.c,2830 :: 		case 10: //check for Remote press and fast up
L_LearnManual759:
;FirmV_0_7_0.c,2831 :: 		if(Events.Remote!=0){LearnPhase=LearnPhase+1;t2=ms500;SetMotorSpeed(Motor1FullSpeed,1);M2isSlow=0;}
	MOVF        _Events+4, 0 
	XORLW       0
	BTFSC       STATUS+0, 2 
	GOTO        L_LearnManual760
	INCF        _LearnPhase+0, 1 
	MOVF        _ms500+0, 0 
	MOVWF       LearnManual_t2_L0+0 
	MOVF        _ms500+1, 0 
	MOVWF       LearnManual_t2_L0+1 
	MOVF        _ms500+2, 0 
	MOVWF       LearnManual_t2_L0+2 
	MOVF        _ms500+3, 0 
	MOVWF       LearnManual_t2_L0+3 
	MOVF        _Motor1FullSpeed+0, 0 
	MOVWF       FARG_SetMotorSpeed_M1FullSpeed+0 
	MOVLW       1
	MOVWF       FARG_SetMotorSpeed_M2FullSpeed+0 
	CALL        _SetMotorSpeed+0, 0
	CLRF        _M2isSlow+0 
L_LearnManual760:
;FirmV_0_7_0.c,2832 :: 		break;
	GOTO        L_LearnManual731
;FirmV_0_7_0.c,2834 :: 		case 11: //check for Remote press and slow down
L_LearnManual761:
;FirmV_0_7_0.c,2835 :: 		if(Events.Remote!=0){LearnPhase=LearnPhase+1;t3=ms500;SetMotorSpeed(Motor1FullSpeed,0);M2isSlow=1;}
	MOVF        _Events+4, 0 
	XORLW       0
	BTFSC       STATUS+0, 2 
	GOTO        L_LearnManual762
	INCF        _LearnPhase+0, 1 
	MOVF        _ms500+0, 0 
	MOVWF       LearnManual_t3_L0+0 
	MOVF        _ms500+1, 0 
	MOVWF       LearnManual_t3_L0+1 
	MOVF        _ms500+2, 0 
	MOVWF       LearnManual_t3_L0+2 
	MOVF        _ms500+3, 0 
	MOVWF       LearnManual_t3_L0+3 
	MOVF        _Motor1FullSpeed+0, 0 
	MOVWF       FARG_SetMotorSpeed_M1FullSpeed+0 
	CLRF        FARG_SetMotorSpeed_M2FullSpeed+0 
	CALL        _SetMotorSpeed+0, 0
	MOVLW       1
	MOVWF       _M2isSlow+0 
L_LearnManual762:
;FirmV_0_7_0.c,2836 :: 		break;
	GOTO        L_LearnManual731
;FirmV_0_7_0.c,2838 :: 		case 12: //check for Remote press and stop
L_LearnManual763:
;FirmV_0_7_0.c,2839 :: 		if(Events.Remote!=0){LearnPhase=LearnPhase+1;t4=ms500;StopMotor(2);
	MOVF        _Events+4, 0 
	XORLW       0
	BTFSC       STATUS+0, 2 
	GOTO        L_LearnManual764
	INCF        _LearnPhase+0, 1 
	MOVF        _ms500+0, 0 
	MOVWF       LearnManual_t4_L0+0 
	MOVF        _ms500+1, 0 
	MOVWF       LearnManual_t4_L0+1 
	MOVF        _ms500+2, 0 
	MOVWF       LearnManual_t4_L0+2 
	MOVF        _ms500+3, 0 
	MOVWF       LearnManual_t4_L0+3 
	MOVLW       2
	MOVWF       FARG_StopMotor_Mx+0 
	CALL        _StopMotor+0, 0
;FirmV_0_7_0.c,2840 :: 		RawData.D2OpenTime=(char)(t4-t1);
	MOVF        LearnManual_t1_L0+0, 0 
	SUBWF       LearnManual_t4_L0+0, 0 
	MOVWF       R0 
	MOVF        R0, 0 
	MOVWF       LearnManual_RawData_L0+3 
;FirmV_0_7_0.c,2841 :: 		RawData.D2OpenSoftStart=(char)(t2-t1);
	MOVF        LearnManual_t1_L0+0, 0 
	SUBWF       LearnManual_t2_L0+0, 0 
	MOVWF       R0 
	MOVF        R0, 0 
	MOVWF       LearnManual_RawData_L0+8 
;FirmV_0_7_0.c,2842 :: 		RawData.D2OpenSoftStop=(char)(t4-t3);
	MOVF        LearnManual_t3_L0+0, 0 
	SUBWF       LearnManual_t4_L0+0, 0 
	MOVWF       R0 
	MOVF        R0, 0 
	MOVWF       LearnManual_RawData_L0+9 
;FirmV_0_7_0.c,2843 :: 		}
L_LearnManual764:
;FirmV_0_7_0.c,2844 :: 		break;
	GOTO        L_LearnManual731
;FirmV_0_7_0.c,2846 :: 		case 13: //Wait for remote to start D2 and slow down
L_LearnManual765:
;FirmV_0_7_0.c,2847 :: 		if(Events.Remote!=0){t1=ms500;StartMotor(2,_Close);SetMotorSpeed(Motor1FullSpeed,0);M2isSlow=1;LearnPhase=LearnPhase+1;}
	MOVF        _Events+4, 0 
	XORLW       0
	BTFSC       STATUS+0, 2 
	GOTO        L_LearnManual766
	MOVF        _ms500+0, 0 
	MOVWF       LearnManual_t1_L0+0 
	MOVF        _ms500+1, 0 
	MOVWF       LearnManual_t1_L0+1 
	MOVF        _ms500+2, 0 
	MOVWF       LearnManual_t1_L0+2 
	MOVF        _ms500+3, 0 
	MOVWF       LearnManual_t1_L0+3 
	MOVLW       2
	MOVWF       FARG_StartMotor_Mx+0 
	CLRF        FARG_StartMotor_Dir+0 
	CALL        _StartMotor+0, 0
	MOVF        _Motor1FullSpeed+0, 0 
	MOVWF       FARG_SetMotorSpeed_M1FullSpeed+0 
	CLRF        FARG_SetMotorSpeed_M2FullSpeed+0 
	CALL        _SetMotorSpeed+0, 0
	MOVLW       1
	MOVWF       _M2isSlow+0 
	INCF        _LearnPhase+0, 1 
L_LearnManual766:
;FirmV_0_7_0.c,2848 :: 		break;
	GOTO        L_LearnManual731
;FirmV_0_7_0.c,2850 :: 		case 14: //check for Remote press and fast up
L_LearnManual767:
;FirmV_0_7_0.c,2851 :: 		if(Events.Remote!=0){LearnPhase=LearnPhase+1;t2=ms500;SetMotorSpeed(Motor1FullSpeed,1);M2isSlow=0;}
	MOVF        _Events+4, 0 
	XORLW       0
	BTFSC       STATUS+0, 2 
	GOTO        L_LearnManual768
	INCF        _LearnPhase+0, 1 
	MOVF        _ms500+0, 0 
	MOVWF       LearnManual_t2_L0+0 
	MOVF        _ms500+1, 0 
	MOVWF       LearnManual_t2_L0+1 
	MOVF        _ms500+2, 0 
	MOVWF       LearnManual_t2_L0+2 
	MOVF        _ms500+3, 0 
	MOVWF       LearnManual_t2_L0+3 
	MOVF        _Motor1FullSpeed+0, 0 
	MOVWF       FARG_SetMotorSpeed_M1FullSpeed+0 
	MOVLW       1
	MOVWF       FARG_SetMotorSpeed_M2FullSpeed+0 
	CALL        _SetMotorSpeed+0, 0
	CLRF        _M2isSlow+0 
L_LearnManual768:
;FirmV_0_7_0.c,2852 :: 		break;
	GOTO        L_LearnManual731
;FirmV_0_7_0.c,2854 :: 		case 15: //check for Remote press and slow down
L_LearnManual769:
;FirmV_0_7_0.c,2855 :: 		if(Events.Remote!=0){LearnPhase=LearnPhase+1;t3=ms500;SetMotorSpeed(Motor1FullSpeed,0);M2isSlow=1;}
	MOVF        _Events+4, 0 
	XORLW       0
	BTFSC       STATUS+0, 2 
	GOTO        L_LearnManual770
	INCF        _LearnPhase+0, 1 
	MOVF        _ms500+0, 0 
	MOVWF       LearnManual_t3_L0+0 
	MOVF        _ms500+1, 0 
	MOVWF       LearnManual_t3_L0+1 
	MOVF        _ms500+2, 0 
	MOVWF       LearnManual_t3_L0+2 
	MOVF        _ms500+3, 0 
	MOVWF       LearnManual_t3_L0+3 
	MOVF        _Motor1FullSpeed+0, 0 
	MOVWF       FARG_SetMotorSpeed_M1FullSpeed+0 
	CLRF        FARG_SetMotorSpeed_M2FullSpeed+0 
	CALL        _SetMotorSpeed+0, 0
	MOVLW       1
	MOVWF       _M2isSlow+0 
L_LearnManual770:
;FirmV_0_7_0.c,2856 :: 		break;
	GOTO        L_LearnManual731
;FirmV_0_7_0.c,2858 :: 		case 16: //check for Remote press and stop
L_LearnManual771:
;FirmV_0_7_0.c,2859 :: 		if(Events.Remote!=0){LearnPhase=LearnPhase+1;t4=ms500;StopMotor(2);
	MOVF        _Events+4, 0 
	XORLW       0
	BTFSC       STATUS+0, 2 
	GOTO        L_LearnManual772
	INCF        _LearnPhase+0, 1 
	MOVF        _ms500+0, 0 
	MOVWF       LearnManual_t4_L0+0 
	MOVF        _ms500+1, 0 
	MOVWF       LearnManual_t4_L0+1 
	MOVF        _ms500+2, 0 
	MOVWF       LearnManual_t4_L0+2 
	MOVF        _ms500+3, 0 
	MOVWF       LearnManual_t4_L0+3 
	MOVLW       2
	MOVWF       FARG_StopMotor_Mx+0 
	CALL        _StopMotor+0, 0
;FirmV_0_7_0.c,2860 :: 		RawData.D2CloseTime=(char)(t4-t1);
	MOVF        LearnManual_t1_L0+0, 0 
	SUBWF       LearnManual_t4_L0+0, 0 
	MOVWF       R0 
	MOVF        R0, 0 
	MOVWF       LearnManual_RawData_L0+2 
;FirmV_0_7_0.c,2861 :: 		RawData.D2CloseSoftStart=(char)(t2-t1);
	MOVF        LearnManual_t1_L0+0, 0 
	SUBWF       LearnManual_t2_L0+0, 0 
	MOVWF       R0 
	MOVF        R0, 0 
	MOVWF       LearnManual_RawData_L0+10 
;FirmV_0_7_0.c,2862 :: 		RawData.D2CloseSoftStop=(char)(t4-t3);
	MOVF        LearnManual_t3_L0+0, 0 
	SUBWF       LearnManual_t4_L0+0, 0 
	MOVWF       R0 
	MOVF        R0, 0 
	MOVWF       LearnManual_RawData_L0+11 
;FirmV_0_7_0.c,2863 :: 		}
L_LearnManual772:
;FirmV_0_7_0.c,2864 :: 		break;
	GOTO        L_LearnManual731
;FirmV_0_7_0.c,2866 :: 		case 17: //Wait for remote to start D1 and slow down
L_LearnManual773:
;FirmV_0_7_0.c,2867 :: 		if(Events.Remote!=0){t1=ms500;StartMotor(1,_Close);SetMotorSpeed(0,Motor2FullSpeed);M1isSlow=1;LearnPhase=LearnPhase+1;}
	MOVF        _Events+4, 0 
	XORLW       0
	BTFSC       STATUS+0, 2 
	GOTO        L_LearnManual774
	MOVF        _ms500+0, 0 
	MOVWF       LearnManual_t1_L0+0 
	MOVF        _ms500+1, 0 
	MOVWF       LearnManual_t1_L0+1 
	MOVF        _ms500+2, 0 
	MOVWF       LearnManual_t1_L0+2 
	MOVF        _ms500+3, 0 
	MOVWF       LearnManual_t1_L0+3 
	MOVLW       1
	MOVWF       FARG_StartMotor_Mx+0 
	CLRF        FARG_StartMotor_Dir+0 
	CALL        _StartMotor+0, 0
	CLRF        FARG_SetMotorSpeed_M1FullSpeed+0 
	MOVF        _Motor2FullSpeed+0, 0 
	MOVWF       FARG_SetMotorSpeed_M2FullSpeed+0 
	CALL        _SetMotorSpeed+0, 0
	MOVLW       1
	MOVWF       _M1isSlow+0 
	INCF        _LearnPhase+0, 1 
L_LearnManual774:
;FirmV_0_7_0.c,2868 :: 		break;
	GOTO        L_LearnManual731
;FirmV_0_7_0.c,2870 :: 		case 18: //check for Remote press and fast up
L_LearnManual775:
;FirmV_0_7_0.c,2871 :: 		if(Events.Remote!=0){LearnPhase=LearnPhase+1;t2=ms500;SetMotorSpeed(1,Motor2FullSpeed);M1isSlow=0;}
	MOVF        _Events+4, 0 
	XORLW       0
	BTFSC       STATUS+0, 2 
	GOTO        L_LearnManual776
	INCF        _LearnPhase+0, 1 
	MOVF        _ms500+0, 0 
	MOVWF       LearnManual_t2_L0+0 
	MOVF        _ms500+1, 0 
	MOVWF       LearnManual_t2_L0+1 
	MOVF        _ms500+2, 0 
	MOVWF       LearnManual_t2_L0+2 
	MOVF        _ms500+3, 0 
	MOVWF       LearnManual_t2_L0+3 
	MOVLW       1
	MOVWF       FARG_SetMotorSpeed_M1FullSpeed+0 
	MOVF        _Motor2FullSpeed+0, 0 
	MOVWF       FARG_SetMotorSpeed_M2FullSpeed+0 
	CALL        _SetMotorSpeed+0, 0
	CLRF        _M1isSlow+0 
L_LearnManual776:
;FirmV_0_7_0.c,2872 :: 		break;
	GOTO        L_LearnManual731
;FirmV_0_7_0.c,2874 :: 		case 19: //check for Remote press and slow down
L_LearnManual777:
;FirmV_0_7_0.c,2875 :: 		if(Events.Remote!=0){LearnPhase=LearnPhase+1;t3=ms500;SetMotorSpeed(0,Motor2FullSpeed);M1isSlow=1;}
	MOVF        _Events+4, 0 
	XORLW       0
	BTFSC       STATUS+0, 2 
	GOTO        L_LearnManual778
	INCF        _LearnPhase+0, 1 
	MOVF        _ms500+0, 0 
	MOVWF       LearnManual_t3_L0+0 
	MOVF        _ms500+1, 0 
	MOVWF       LearnManual_t3_L0+1 
	MOVF        _ms500+2, 0 
	MOVWF       LearnManual_t3_L0+2 
	MOVF        _ms500+3, 0 
	MOVWF       LearnManual_t3_L0+3 
	CLRF        FARG_SetMotorSpeed_M1FullSpeed+0 
	MOVF        _Motor2FullSpeed+0, 0 
	MOVWF       FARG_SetMotorSpeed_M2FullSpeed+0 
	CALL        _SetMotorSpeed+0, 0
	MOVLW       1
	MOVWF       _M1isSlow+0 
L_LearnManual778:
;FirmV_0_7_0.c,2876 :: 		break;
	GOTO        L_LearnManual731
;FirmV_0_7_0.c,2878 :: 		case 20: //check for Remote press and stop
L_LearnManual779:
;FirmV_0_7_0.c,2879 :: 		if(Events.Remote!=0){LearnPhase=LearnPhase+1;t4=ms500;StopMotor(1);
	MOVF        _Events+4, 0 
	XORLW       0
	BTFSC       STATUS+0, 2 
	GOTO        L_LearnManual780
	INCF        _LearnPhase+0, 1 
	MOVF        _ms500+0, 0 
	MOVWF       LearnManual_t4_L0+0 
	MOVF        _ms500+1, 0 
	MOVWF       LearnManual_t4_L0+1 
	MOVF        _ms500+2, 0 
	MOVWF       LearnManual_t4_L0+2 
	MOVF        _ms500+3, 0 
	MOVWF       LearnManual_t4_L0+3 
	MOVLW       1
	MOVWF       FARG_StopMotor_Mx+0 
	CALL        _StopMotor+0, 0
;FirmV_0_7_0.c,2880 :: 		RawData.D1CloseTime=(char)(t4-t1);
	MOVF        LearnManual_t1_L0+0, 0 
	SUBWF       LearnManual_t4_L0+0, 0 
	MOVWF       R0 
	MOVF        R0, 0 
	MOVWF       LearnManual_RawData_L0+0 
;FirmV_0_7_0.c,2881 :: 		RawData.D1CloseSoftStart=(char)(t2-t1);
	MOVF        LearnManual_t1_L0+0, 0 
	SUBWF       LearnManual_t2_L0+0, 0 
	MOVWF       R0 
	MOVF        R0, 0 
	MOVWF       LearnManual_RawData_L0+6 
;FirmV_0_7_0.c,2882 :: 		RawData.D1CloseSoftStop=(char)(t4-t3);
	MOVF        LearnManual_t3_L0+0, 0 
	SUBWF       LearnManual_t4_L0+0, 0 
	MOVWF       R0 
	MOVF        R0, 0 
	MOVWF       LearnManual_RawData_L0+7 
;FirmV_0_7_0.c,2883 :: 		}
L_LearnManual780:
;FirmV_0_7_0.c,2884 :: 		break;
	GOTO        L_LearnManual731
;FirmV_0_7_0.c,2886 :: 		case 21:
L_LearnManual781:
;FirmV_0_7_0.c,2887 :: 		SaveLearnData(&RawData,DoorNo);
	MOVLW       LearnManual_RawData_L0+0
	MOVWF       FARG_SaveLearnData_d+0 
	MOVLW       hi_addr(LearnManual_RawData_L0+0)
	MOVWF       FARG_SaveLearnData_d+1 
	MOVF        LearnManual_DoorNo_L0+0, 0 
	MOVWF       FARG_SaveLearnData_DCount+0 
	CALL        _SaveLearnData+0, 0
;FirmV_0_7_0.c,2888 :: 		memcpy(LCDLine1," Learn Complete ",16);
	MOVLW       _LCDLine1+0
	MOVWF       FARG_memcpy_d1+0 
	MOVLW       hi_addr(_LCDLine1+0)
	MOVWF       FARG_memcpy_d1+1 
	MOVLW       ?lstr117_FirmV_0_7_0+0
	MOVWF       FARG_memcpy_s1+0 
	MOVLW       hi_addr(?lstr117_FirmV_0_7_0+0)
	MOVWF       FARG_memcpy_s1+1 
	MOVLW       16
	MOVWF       FARG_memcpy_n+0 
	MOVLW       0
	MOVWF       FARG_memcpy_n+1 
	CALL        _memcpy+0, 0
;FirmV_0_7_0.c,2889 :: 		memcpy(LCDLine2,"     Ready      ",16);
	MOVLW       _LCDLine2+0
	MOVWF       FARG_memcpy_d1+0 
	MOVLW       hi_addr(_LCDLine2+0)
	MOVWF       FARG_memcpy_d1+1 
	MOVLW       ?lstr118_FirmV_0_7_0+0
	MOVWF       FARG_memcpy_s1+0 
	MOVLW       hi_addr(?lstr118_FirmV_0_7_0+0)
	MOVWF       FARG_memcpy_s1+1 
	MOVLW       16
	MOVWF       FARG_memcpy_n+0 
	MOVLW       0
	MOVWF       FARG_memcpy_n+1 
	CALL        _memcpy+0, 0
;FirmV_0_7_0.c,2890 :: 		LCDLines=2;
	MOVLW       2
	MOVWF       _LCDLines+0 
;FirmV_0_7_0.c,2891 :: 		LCDUpdateFlag=1;
	MOVLW       1
	MOVWF       _LCDUpdateFlag+0 
;FirmV_0_7_0.c,2892 :: 		Flasher=0;
	BCF         PORTD+0, 7 
;FirmV_0_7_0.c,2894 :: 		State=0;
	CLRF        _State+0 
;FirmV_0_7_0.c,2895 :: 		break;
	GOTO        L_LearnManual731
;FirmV_0_7_0.c,2896 :: 		}
L_LearnManual730:
	MOVF        _LearnPhase+0, 0 
	XORLW       0
	BTFSC       STATUS+0, 2 
	GOTO        L_LearnManual732
	MOVF        _LearnPhase+0, 0 
	XORLW       1
	BTFSC       STATUS+0, 2 
	GOTO        L_LearnManual735
	MOVF        _LearnPhase+0, 0 
	XORLW       2
	BTFSC       STATUS+0, 2 
	GOTO        L_LearnManual736
	MOVF        _LearnPhase+0, 0 
	XORLW       3
	BTFSC       STATUS+0, 2 
	GOTO        L_LearnManual741
	MOVF        _LearnPhase+0, 0 
	XORLW       4
	BTFSC       STATUS+0, 2 
	GOTO        L_LearnManual742
	MOVF        _LearnPhase+0, 0 
	XORLW       5
	BTFSC       STATUS+0, 2 
	GOTO        L_LearnManual747
	MOVF        _LearnPhase+0, 0 
	XORLW       6
	BTFSC       STATUS+0, 2 
	GOTO        L_LearnManual749
	MOVF        _LearnPhase+0, 0 
	XORLW       7
	BTFSC       STATUS+0, 2 
	GOTO        L_LearnManual751
	MOVF        _LearnPhase+0, 0 
	XORLW       8
	BTFSC       STATUS+0, 2 
	GOTO        L_LearnManual753
	MOVF        _LearnPhase+0, 0 
	XORLW       9
	BTFSC       STATUS+0, 2 
	GOTO        L_LearnManual757
	MOVF        _LearnPhase+0, 0 
	XORLW       10
	BTFSC       STATUS+0, 2 
	GOTO        L_LearnManual759
	MOVF        _LearnPhase+0, 0 
	XORLW       11
	BTFSC       STATUS+0, 2 
	GOTO        L_LearnManual761
	MOVF        _LearnPhase+0, 0 
	XORLW       12
	BTFSC       STATUS+0, 2 
	GOTO        L_LearnManual763
	MOVF        _LearnPhase+0, 0 
	XORLW       13
	BTFSC       STATUS+0, 2 
	GOTO        L_LearnManual765
	MOVF        _LearnPhase+0, 0 
	XORLW       14
	BTFSC       STATUS+0, 2 
	GOTO        L_LearnManual767
	MOVF        _LearnPhase+0, 0 
	XORLW       15
	BTFSC       STATUS+0, 2 
	GOTO        L_LearnManual769
	MOVF        _LearnPhase+0, 0 
	XORLW       16
	BTFSC       STATUS+0, 2 
	GOTO        L_LearnManual771
	MOVF        _LearnPhase+0, 0 
	XORLW       17
	BTFSC       STATUS+0, 2 
	GOTO        L_LearnManual773
	MOVF        _LearnPhase+0, 0 
	XORLW       18
	BTFSC       STATUS+0, 2 
	GOTO        L_LearnManual775
	MOVF        _LearnPhase+0, 0 
	XORLW       19
	BTFSC       STATUS+0, 2 
	GOTO        L_LearnManual777
	MOVF        _LearnPhase+0, 0 
	XORLW       20
	BTFSC       STATUS+0, 2 
	GOTO        L_LearnManual779
	MOVF        _LearnPhase+0, 0 
	XORLW       21
	BTFSC       STATUS+0, 2 
	GOTO        L_LearnManual781
L_LearnManual731:
;FirmV_0_7_0.c,2897 :: 		}
L_end_LearnManual:
	RETURN      0
; end of _LearnManual

_charValueToStr:

;FirmV_0_7_0.c,2918 :: 		void charValueToStr(char val, char * string)
;FirmV_0_7_0.c,2920 :: 		bytetostr(val>>1,string);
	MOVF        FARG_charValueToStr_val+0, 0 
	MOVWF       FARG_ByteToStr_input+0 
	RRCF        FARG_ByteToStr_input+0, 1 
	BCF         FARG_ByteToStr_input+0, 7 
	MOVF        FARG_charValueToStr_string+0, 0 
	MOVWF       FARG_ByteToStr_output+0 
	MOVF        FARG_charValueToStr_string+1, 0 
	MOVWF       FARG_ByteToStr_output+1 
	CALL        _ByteToStr+0, 0
;FirmV_0_7_0.c,2921 :: 		if((val%2)==1)
	MOVLW       1
	ANDWF       FARG_charValueToStr_val+0, 0 
	MOVWF       R1 
	MOVF        R1, 0 
	XORLW       1
	BTFSS       STATUS+0, 2 
	GOTO        L_charValueToStr782
;FirmV_0_7_0.c,2922 :: 		memcpy(string+3,".5s",4);
	MOVLW       3
	ADDWF       FARG_charValueToStr_string+0, 0 
	MOVWF       FARG_memcpy_d1+0 
	MOVLW       0
	ADDWFC      FARG_charValueToStr_string+1, 0 
	MOVWF       FARG_memcpy_d1+1 
	MOVLW       ?lstr119_FirmV_0_7_0+0
	MOVWF       FARG_memcpy_s1+0 
	MOVLW       hi_addr(?lstr119_FirmV_0_7_0+0)
	MOVWF       FARG_memcpy_s1+1 
	MOVLW       4
	MOVWF       FARG_memcpy_n+0 
	MOVLW       0
	MOVWF       FARG_memcpy_n+1 
	CALL        _memcpy+0, 0
	GOTO        L_charValueToStr783
L_charValueToStr782:
;FirmV_0_7_0.c,2924 :: 		memcpy(string+3,".0s",4);
	MOVLW       3
	ADDWF       FARG_charValueToStr_string+0, 0 
	MOVWF       FARG_memcpy_d1+0 
	MOVLW       0
	ADDWFC      FARG_charValueToStr_string+1, 0 
	MOVWF       FARG_memcpy_d1+1 
	MOVLW       ?lstr120_FirmV_0_7_0+0
	MOVWF       FARG_memcpy_s1+0 
	MOVLW       hi_addr(?lstr120_FirmV_0_7_0+0)
	MOVWF       FARG_memcpy_s1+1 
	MOVLW       4
	MOVWF       FARG_memcpy_n+0 
	MOVLW       0
	MOVWF       FARG_memcpy_n+1 
	CALL        _memcpy+0, 0
L_charValueToStr783:
;FirmV_0_7_0.c,2925 :: 		}
L_end_charValueToStr:
	RETURN      0
; end of _charValueToStr

_charValueToStr_AC:

;FirmV_0_7_0.c,2934 :: 		void charValueToStr_AC(char val, char * string)
;FirmV_0_7_0.c,2936 :: 		bytetostr(val>>1,string);
	MOVF        FARG_charValueToStr_AC_val+0, 0 
	MOVWF       FARG_ByteToStr_input+0 
	RRCF        FARG_ByteToStr_input+0, 1 
	BCF         FARG_ByteToStr_input+0, 7 
	MOVF        FARG_charValueToStr_AC_string+0, 0 
	MOVWF       FARG_ByteToStr_output+0 
	MOVF        FARG_charValueToStr_AC_string+1, 0 
	MOVWF       FARG_ByteToStr_output+1 
	CALL        _ByteToStr+0, 0
;FirmV_0_7_0.c,2937 :: 		memcpy(string+3,"s  ",4);
	MOVLW       3
	ADDWF       FARG_charValueToStr_AC_string+0, 0 
	MOVWF       FARG_memcpy_d1+0 
	MOVLW       0
	ADDWFC      FARG_charValueToStr_AC_string+1, 0 
	MOVWF       FARG_memcpy_d1+1 
	MOVLW       ?lstr121_FirmV_0_7_0+0
	MOVWF       FARG_memcpy_s1+0 
	MOVLW       hi_addr(?lstr121_FirmV_0_7_0+0)
	MOVWF       FARG_memcpy_s1+1 
	MOVLW       4
	MOVWF       FARG_memcpy_n+0 
	MOVLW       0
	MOVWF       FARG_memcpy_n+1 
	CALL        _memcpy+0, 0
;FirmV_0_7_0.c,2938 :: 		}
L_end_charValueToStr_AC:
	RETURN      0
; end of _charValueToStr_AC

_intValueToStr:

;FirmV_0_7_0.c,2951 :: 		void intValueToStr(unsigned val, char * string)
;FirmV_0_7_0.c,2953 :: 		wordtostr(val>>1,string);
	MOVF        FARG_intValueToStr_val+0, 0 
	MOVWF       FARG_WordToStr_input+0 
	MOVF        FARG_intValueToStr_val+1, 0 
	MOVWF       FARG_WordToStr_input+1 
	RRCF        FARG_WordToStr_input+1, 1 
	RRCF        FARG_WordToStr_input+0, 1 
	BCF         FARG_WordToStr_input+1, 7 
	MOVF        FARG_intValueToStr_string+0, 0 
	MOVWF       FARG_WordToStr_output+0 
	MOVF        FARG_intValueToStr_string+1, 0 
	MOVWF       FARG_WordToStr_output+1 
	CALL        _WordToStr+0, 0
;FirmV_0_7_0.c,2954 :: 		if((val%2)==1)
	MOVLW       1
	ANDWF       FARG_intValueToStr_val+0, 0 
	MOVWF       R1 
	MOVF        FARG_intValueToStr_val+1, 0 
	MOVWF       R2 
	MOVLW       0
	ANDWF       R2, 1 
	MOVLW       0
	XORWF       R2, 0 
	BTFSS       STATUS+0, 2 
	GOTO        L__intValueToStr1116
	MOVLW       1
	XORWF       R1, 0 
L__intValueToStr1116:
	BTFSS       STATUS+0, 2 
	GOTO        L_intValueToStr784
;FirmV_0_7_0.c,2955 :: 		memcpy(string+5,".5s",4);
	MOVLW       5
	ADDWF       FARG_intValueToStr_string+0, 0 
	MOVWF       FARG_memcpy_d1+0 
	MOVLW       0
	ADDWFC      FARG_intValueToStr_string+1, 0 
	MOVWF       FARG_memcpy_d1+1 
	MOVLW       ?lstr122_FirmV_0_7_0+0
	MOVWF       FARG_memcpy_s1+0 
	MOVLW       hi_addr(?lstr122_FirmV_0_7_0+0)
	MOVWF       FARG_memcpy_s1+1 
	MOVLW       4
	MOVWF       FARG_memcpy_n+0 
	MOVLW       0
	MOVWF       FARG_memcpy_n+1 
	CALL        _memcpy+0, 0
	GOTO        L_intValueToStr785
L_intValueToStr784:
;FirmV_0_7_0.c,2957 :: 		memcpy(string+5,".0s",4);
	MOVLW       5
	ADDWF       FARG_intValueToStr_string+0, 0 
	MOVWF       FARG_memcpy_d1+0 
	MOVLW       0
	ADDWFC      FARG_intValueToStr_string+1, 0 
	MOVWF       FARG_memcpy_d1+1 
	MOVLW       ?lstr123_FirmV_0_7_0+0
	MOVWF       FARG_memcpy_s1+0 
	MOVLW       hi_addr(?lstr123_FirmV_0_7_0+0)
	MOVWF       FARG_memcpy_s1+1 
	MOVLW       4
	MOVWF       FARG_memcpy_n+0 
	MOVLW       0
	MOVWF       FARG_memcpy_n+1 
	CALL        _memcpy+0, 0
L_intValueToStr785:
;FirmV_0_7_0.c,2958 :: 		}
L_end_intValueToStr:
	RETURN      0
; end of _intValueToStr

_SetOverloadParams:

;FirmV_0_7_0.c,2970 :: 		void SetOverloadParams(char p1, char d1,char p2, char d2)
;FirmV_0_7_0.c,2973 :: 		switch(p1)
	GOTO        L_SetOverloadParams786
;FirmV_0_7_0.c,2975 :: 		case 0: OverloadTreshold1=0; break;
L_SetOverloadParams788:
	CLRF        _OverloadTreshold1+0 
	CLRF        _OverloadTreshold1+1 
	GOTO        L_SetOverloadParams787
;FirmV_0_7_0.c,2977 :: 		case 1: OverloadTreshold1=480; break;
L_SetOverloadParams789:
	MOVLW       224
	MOVWF       _OverloadTreshold1+0 
	MOVLW       1
	MOVWF       _OverloadTreshold1+1 
	GOTO        L_SetOverloadParams787
;FirmV_0_7_0.c,2979 :: 		case 2: OverloadTreshold1=490; break;
L_SetOverloadParams790:
	MOVLW       234
	MOVWF       _OverloadTreshold1+0 
	MOVLW       1
	MOVWF       _OverloadTreshold1+1 
	GOTO        L_SetOverloadParams787
;FirmV_0_7_0.c,2981 :: 		case 3: OverloadTreshold1=500; break;
L_SetOverloadParams791:
	MOVLW       244
	MOVWF       _OverloadTreshold1+0 
	MOVLW       1
	MOVWF       _OverloadTreshold1+1 
	GOTO        L_SetOverloadParams787
;FirmV_0_7_0.c,2983 :: 		case 4: OverloadTreshold1=530; break;
L_SetOverloadParams792:
	MOVLW       18
	MOVWF       _OverloadTreshold1+0 
	MOVLW       2
	MOVWF       _OverloadTreshold1+1 
	GOTO        L_SetOverloadParams787
;FirmV_0_7_0.c,2985 :: 		case 5: OverloadTreshold1=550; break;
L_SetOverloadParams793:
	MOVLW       38
	MOVWF       _OverloadTreshold1+0 
	MOVLW       2
	MOVWF       _OverloadTreshold1+1 
	GOTO        L_SetOverloadParams787
;FirmV_0_7_0.c,2987 :: 		case 6: OverloadTreshold1=570; break;
L_SetOverloadParams794:
	MOVLW       58
	MOVWF       _OverloadTreshold1+0 
	MOVLW       2
	MOVWF       _OverloadTreshold1+1 
	GOTO        L_SetOverloadParams787
;FirmV_0_7_0.c,2989 :: 		case 7: OverloadTreshold1=600; break;
L_SetOverloadParams795:
	MOVLW       88
	MOVWF       _OverloadTreshold1+0 
	MOVLW       2
	MOVWF       _OverloadTreshold1+1 
	GOTO        L_SetOverloadParams787
;FirmV_0_7_0.c,2991 :: 		case 8: OverloadTreshold1=630; break;
L_SetOverloadParams796:
	MOVLW       118
	MOVWF       _OverloadTreshold1+0 
	MOVLW       2
	MOVWF       _OverloadTreshold1+1 
	GOTO        L_SetOverloadParams787
;FirmV_0_7_0.c,2993 :: 		case 9: OverloadTreshold1=650; break;
L_SetOverloadParams797:
	MOVLW       138
	MOVWF       _OverloadTreshold1+0 
	MOVLW       2
	MOVWF       _OverloadTreshold1+1 
	GOTO        L_SetOverloadParams787
;FirmV_0_7_0.c,2995 :: 		case 10: OverloadTreshold1=670; break;
L_SetOverloadParams798:
	MOVLW       158
	MOVWF       _OverloadTreshold1+0 
	MOVLW       2
	MOVWF       _OverloadTreshold1+1 
	GOTO        L_SetOverloadParams787
;FirmV_0_7_0.c,2997 :: 		case 11: OverloadTreshold1=700; break;
L_SetOverloadParams799:
	MOVLW       188
	MOVWF       _OverloadTreshold1+0 
	MOVLW       2
	MOVWF       _OverloadTreshold1+1 
	GOTO        L_SetOverloadParams787
;FirmV_0_7_0.c,2999 :: 		case 12: OverloadTreshold1=750; break;
L_SetOverloadParams800:
	MOVLW       238
	MOVWF       _OverloadTreshold1+0 
	MOVLW       2
	MOVWF       _OverloadTreshold1+1 
	GOTO        L_SetOverloadParams787
;FirmV_0_7_0.c,3001 :: 		case 13: OverloadTreshold1=800; break;
L_SetOverloadParams801:
	MOVLW       32
	MOVWF       _OverloadTreshold1+0 
	MOVLW       3
	MOVWF       _OverloadTreshold1+1 
	GOTO        L_SetOverloadParams787
;FirmV_0_7_0.c,3003 :: 		case 14: OverloadTreshold1=850; break;
L_SetOverloadParams802:
	MOVLW       82
	MOVWF       _OverloadTreshold1+0 
	MOVLW       3
	MOVWF       _OverloadTreshold1+1 
	GOTO        L_SetOverloadParams787
;FirmV_0_7_0.c,3005 :: 		case 15: OverloadTreshold1=900; break;
L_SetOverloadParams803:
	MOVLW       132
	MOVWF       _OverloadTreshold1+0 
	MOVLW       3
	MOVWF       _OverloadTreshold1+1 
	GOTO        L_SetOverloadParams787
;FirmV_0_7_0.c,3007 :: 		}
L_SetOverloadParams786:
	MOVF        FARG_SetOverloadParams_p1+0, 0 
	XORLW       0
	BTFSC       STATUS+0, 2 
	GOTO        L_SetOverloadParams788
	MOVF        FARG_SetOverloadParams_p1+0, 0 
	XORLW       1
	BTFSC       STATUS+0, 2 
	GOTO        L_SetOverloadParams789
	MOVF        FARG_SetOverloadParams_p1+0, 0 
	XORLW       2
	BTFSC       STATUS+0, 2 
	GOTO        L_SetOverloadParams790
	MOVF        FARG_SetOverloadParams_p1+0, 0 
	XORLW       3
	BTFSC       STATUS+0, 2 
	GOTO        L_SetOverloadParams791
	MOVF        FARG_SetOverloadParams_p1+0, 0 
	XORLW       4
	BTFSC       STATUS+0, 2 
	GOTO        L_SetOverloadParams792
	MOVF        FARG_SetOverloadParams_p1+0, 0 
	XORLW       5
	BTFSC       STATUS+0, 2 
	GOTO        L_SetOverloadParams793
	MOVF        FARG_SetOverloadParams_p1+0, 0 
	XORLW       6
	BTFSC       STATUS+0, 2 
	GOTO        L_SetOverloadParams794
	MOVF        FARG_SetOverloadParams_p1+0, 0 
	XORLW       7
	BTFSC       STATUS+0, 2 
	GOTO        L_SetOverloadParams795
	MOVF        FARG_SetOverloadParams_p1+0, 0 
	XORLW       8
	BTFSC       STATUS+0, 2 
	GOTO        L_SetOverloadParams796
	MOVF        FARG_SetOverloadParams_p1+0, 0 
	XORLW       9
	BTFSC       STATUS+0, 2 
	GOTO        L_SetOverloadParams797
	MOVF        FARG_SetOverloadParams_p1+0, 0 
	XORLW       10
	BTFSC       STATUS+0, 2 
	GOTO        L_SetOverloadParams798
	MOVF        FARG_SetOverloadParams_p1+0, 0 
	XORLW       11
	BTFSC       STATUS+0, 2 
	GOTO        L_SetOverloadParams799
	MOVF        FARG_SetOverloadParams_p1+0, 0 
	XORLW       12
	BTFSC       STATUS+0, 2 
	GOTO        L_SetOverloadParams800
	MOVF        FARG_SetOverloadParams_p1+0, 0 
	XORLW       13
	BTFSC       STATUS+0, 2 
	GOTO        L_SetOverloadParams801
	MOVF        FARG_SetOverloadParams_p1+0, 0 
	XORLW       14
	BTFSC       STATUS+0, 2 
	GOTO        L_SetOverloadParams802
	MOVF        FARG_SetOverloadParams_p1+0, 0 
	XORLW       15
	BTFSC       STATUS+0, 2 
	GOTO        L_SetOverloadParams803
L_SetOverloadParams787:
;FirmV_0_7_0.c,3010 :: 		switch(d1)
	GOTO        L_SetOverloadParams804
;FirmV_0_7_0.c,3012 :: 		case 0: OverloadDuration1=100; break;
L_SetOverloadParams806:
	MOVLW       100
	MOVWF       _OverloadDuration1+0 
	MOVLW       0
	MOVWF       _OverloadDuration1+1 
	GOTO        L_SetOverloadParams805
;FirmV_0_7_0.c,3014 :: 		case 1: OverloadDuration1=500; break;
L_SetOverloadParams807:
	MOVLW       244
	MOVWF       _OverloadDuration1+0 
	MOVLW       1
	MOVWF       _OverloadDuration1+1 
	GOTO        L_SetOverloadParams805
;FirmV_0_7_0.c,3016 :: 		case 2: OverloadDuration1=1000; break;
L_SetOverloadParams808:
	MOVLW       232
	MOVWF       _OverloadDuration1+0 
	MOVLW       3
	MOVWF       _OverloadDuration1+1 
	GOTO        L_SetOverloadParams805
;FirmV_0_7_0.c,3018 :: 		case 3: OverloadDuration1=1500; break;
L_SetOverloadParams809:
	MOVLW       220
	MOVWF       _OverloadDuration1+0 
	MOVLW       5
	MOVWF       _OverloadDuration1+1 
	GOTO        L_SetOverloadParams805
;FirmV_0_7_0.c,3020 :: 		case 4: OverloadDuration1=2000; break;
L_SetOverloadParams810:
	MOVLW       208
	MOVWF       _OverloadDuration1+0 
	MOVLW       7
	MOVWF       _OverloadDuration1+1 
	GOTO        L_SetOverloadParams805
;FirmV_0_7_0.c,3022 :: 		case 5: OverloadDuration1=2500; break;
L_SetOverloadParams811:
	MOVLW       196
	MOVWF       _OverloadDuration1+0 
	MOVLW       9
	MOVWF       _OverloadDuration1+1 
	GOTO        L_SetOverloadParams805
;FirmV_0_7_0.c,3024 :: 		case 6: OverloadDuration1=3000; break;
L_SetOverloadParams812:
	MOVLW       184
	MOVWF       _OverloadDuration1+0 
	MOVLW       11
	MOVWF       _OverloadDuration1+1 
	GOTO        L_SetOverloadParams805
;FirmV_0_7_0.c,3026 :: 		case 7: OverloadDuration1=3500; break;
L_SetOverloadParams813:
	MOVLW       172
	MOVWF       _OverloadDuration1+0 
	MOVLW       13
	MOVWF       _OverloadDuration1+1 
	GOTO        L_SetOverloadParams805
;FirmV_0_7_0.c,3028 :: 		case 8: OverloadDuration1=4000; break;
L_SetOverloadParams814:
	MOVLW       160
	MOVWF       _OverloadDuration1+0 
	MOVLW       15
	MOVWF       _OverloadDuration1+1 
	GOTO        L_SetOverloadParams805
;FirmV_0_7_0.c,3030 :: 		case 9: OverloadDuration1=4500; break;
L_SetOverloadParams815:
	MOVLW       148
	MOVWF       _OverloadDuration1+0 
	MOVLW       17
	MOVWF       _OverloadDuration1+1 
	GOTO        L_SetOverloadParams805
;FirmV_0_7_0.c,3032 :: 		case 10: OverloadDuration1=5000; break;
L_SetOverloadParams816:
	MOVLW       136
	MOVWF       _OverloadDuration1+0 
	MOVLW       19
	MOVWF       _OverloadDuration1+1 
	GOTO        L_SetOverloadParams805
;FirmV_0_7_0.c,3033 :: 		}
L_SetOverloadParams804:
	MOVF        FARG_SetOverloadParams_d1+0, 0 
	XORLW       0
	BTFSC       STATUS+0, 2 
	GOTO        L_SetOverloadParams806
	MOVF        FARG_SetOverloadParams_d1+0, 0 
	XORLW       1
	BTFSC       STATUS+0, 2 
	GOTO        L_SetOverloadParams807
	MOVF        FARG_SetOverloadParams_d1+0, 0 
	XORLW       2
	BTFSC       STATUS+0, 2 
	GOTO        L_SetOverloadParams808
	MOVF        FARG_SetOverloadParams_d1+0, 0 
	XORLW       3
	BTFSC       STATUS+0, 2 
	GOTO        L_SetOverloadParams809
	MOVF        FARG_SetOverloadParams_d1+0, 0 
	XORLW       4
	BTFSC       STATUS+0, 2 
	GOTO        L_SetOverloadParams810
	MOVF        FARG_SetOverloadParams_d1+0, 0 
	XORLW       5
	BTFSC       STATUS+0, 2 
	GOTO        L_SetOverloadParams811
	MOVF        FARG_SetOverloadParams_d1+0, 0 
	XORLW       6
	BTFSC       STATUS+0, 2 
	GOTO        L_SetOverloadParams812
	MOVF        FARG_SetOverloadParams_d1+0, 0 
	XORLW       7
	BTFSC       STATUS+0, 2 
	GOTO        L_SetOverloadParams813
	MOVF        FARG_SetOverloadParams_d1+0, 0 
	XORLW       8
	BTFSC       STATUS+0, 2 
	GOTO        L_SetOverloadParams814
	MOVF        FARG_SetOverloadParams_d1+0, 0 
	XORLW       9
	BTFSC       STATUS+0, 2 
	GOTO        L_SetOverloadParams815
	MOVF        FARG_SetOverloadParams_d1+0, 0 
	XORLW       10
	BTFSC       STATUS+0, 2 
	GOTO        L_SetOverloadParams816
L_SetOverloadParams805:
;FirmV_0_7_0.c,3039 :: 		switch(p2)
	GOTO        L_SetOverloadParams817
;FirmV_0_7_0.c,3041 :: 		case 0: OverloadTreshold2=0; break;
L_SetOverloadParams819:
	CLRF        _OverloadTreshold2+0 
	CLRF        _OverloadTreshold2+1 
	GOTO        L_SetOverloadParams818
;FirmV_0_7_0.c,3043 :: 		case 1: OverloadTreshold2=480; break;
L_SetOverloadParams820:
	MOVLW       224
	MOVWF       _OverloadTreshold2+0 
	MOVLW       1
	MOVWF       _OverloadTreshold2+1 
	GOTO        L_SetOverloadParams818
;FirmV_0_7_0.c,3045 :: 		case 2: OverloadTreshold2=490; break;
L_SetOverloadParams821:
	MOVLW       234
	MOVWF       _OverloadTreshold2+0 
	MOVLW       1
	MOVWF       _OverloadTreshold2+1 
	GOTO        L_SetOverloadParams818
;FirmV_0_7_0.c,3047 :: 		case 3: OverloadTreshold2=500; break;
L_SetOverloadParams822:
	MOVLW       244
	MOVWF       _OverloadTreshold2+0 
	MOVLW       1
	MOVWF       _OverloadTreshold2+1 
	GOTO        L_SetOverloadParams818
;FirmV_0_7_0.c,3049 :: 		case 4: OverloadTreshold2=530; break;
L_SetOverloadParams823:
	MOVLW       18
	MOVWF       _OverloadTreshold2+0 
	MOVLW       2
	MOVWF       _OverloadTreshold2+1 
	GOTO        L_SetOverloadParams818
;FirmV_0_7_0.c,3051 :: 		case 5: OverloadTreshold2=550; break;
L_SetOverloadParams824:
	MOVLW       38
	MOVWF       _OverloadTreshold2+0 
	MOVLW       2
	MOVWF       _OverloadTreshold2+1 
	GOTO        L_SetOverloadParams818
;FirmV_0_7_0.c,3053 :: 		case 6: OverloadTreshold2=570; break;
L_SetOverloadParams825:
	MOVLW       58
	MOVWF       _OverloadTreshold2+0 
	MOVLW       2
	MOVWF       _OverloadTreshold2+1 
	GOTO        L_SetOverloadParams818
;FirmV_0_7_0.c,3055 :: 		case 7: OverloadTreshold2=600; break;
L_SetOverloadParams826:
	MOVLW       88
	MOVWF       _OverloadTreshold2+0 
	MOVLW       2
	MOVWF       _OverloadTreshold2+1 
	GOTO        L_SetOverloadParams818
;FirmV_0_7_0.c,3057 :: 		case 8: OverloadTreshold2=630; break;
L_SetOverloadParams827:
	MOVLW       118
	MOVWF       _OverloadTreshold2+0 
	MOVLW       2
	MOVWF       _OverloadTreshold2+1 
	GOTO        L_SetOverloadParams818
;FirmV_0_7_0.c,3059 :: 		case 9: OverloadTreshold2=650; break;
L_SetOverloadParams828:
	MOVLW       138
	MOVWF       _OverloadTreshold2+0 
	MOVLW       2
	MOVWF       _OverloadTreshold2+1 
	GOTO        L_SetOverloadParams818
;FirmV_0_7_0.c,3061 :: 		case 10: OverloadTreshold2=670; break;
L_SetOverloadParams829:
	MOVLW       158
	MOVWF       _OverloadTreshold2+0 
	MOVLW       2
	MOVWF       _OverloadTreshold2+1 
	GOTO        L_SetOverloadParams818
;FirmV_0_7_0.c,3063 :: 		case 11: OverloadTreshold2=700; break;
L_SetOverloadParams830:
	MOVLW       188
	MOVWF       _OverloadTreshold2+0 
	MOVLW       2
	MOVWF       _OverloadTreshold2+1 
	GOTO        L_SetOverloadParams818
;FirmV_0_7_0.c,3065 :: 		case 12: OverloadTreshold2=750; break;
L_SetOverloadParams831:
	MOVLW       238
	MOVWF       _OverloadTreshold2+0 
	MOVLW       2
	MOVWF       _OverloadTreshold2+1 
	GOTO        L_SetOverloadParams818
;FirmV_0_7_0.c,3067 :: 		case 13: OverloadTreshold2=800; break;
L_SetOverloadParams832:
	MOVLW       32
	MOVWF       _OverloadTreshold2+0 
	MOVLW       3
	MOVWF       _OverloadTreshold2+1 
	GOTO        L_SetOverloadParams818
;FirmV_0_7_0.c,3069 :: 		case 14: OverloadTreshold2=850; break;
L_SetOverloadParams833:
	MOVLW       82
	MOVWF       _OverloadTreshold2+0 
	MOVLW       3
	MOVWF       _OverloadTreshold2+1 
	GOTO        L_SetOverloadParams818
;FirmV_0_7_0.c,3071 :: 		case 15: OverloadTreshold2=900; break;
L_SetOverloadParams834:
	MOVLW       132
	MOVWF       _OverloadTreshold2+0 
	MOVLW       3
	MOVWF       _OverloadTreshold2+1 
	GOTO        L_SetOverloadParams818
;FirmV_0_7_0.c,3073 :: 		}
L_SetOverloadParams817:
	MOVF        FARG_SetOverloadParams_p2+0, 0 
	XORLW       0
	BTFSC       STATUS+0, 2 
	GOTO        L_SetOverloadParams819
	MOVF        FARG_SetOverloadParams_p2+0, 0 
	XORLW       1
	BTFSC       STATUS+0, 2 
	GOTO        L_SetOverloadParams820
	MOVF        FARG_SetOverloadParams_p2+0, 0 
	XORLW       2
	BTFSC       STATUS+0, 2 
	GOTO        L_SetOverloadParams821
	MOVF        FARG_SetOverloadParams_p2+0, 0 
	XORLW       3
	BTFSC       STATUS+0, 2 
	GOTO        L_SetOverloadParams822
	MOVF        FARG_SetOverloadParams_p2+0, 0 
	XORLW       4
	BTFSC       STATUS+0, 2 
	GOTO        L_SetOverloadParams823
	MOVF        FARG_SetOverloadParams_p2+0, 0 
	XORLW       5
	BTFSC       STATUS+0, 2 
	GOTO        L_SetOverloadParams824
	MOVF        FARG_SetOverloadParams_p2+0, 0 
	XORLW       6
	BTFSC       STATUS+0, 2 
	GOTO        L_SetOverloadParams825
	MOVF        FARG_SetOverloadParams_p2+0, 0 
	XORLW       7
	BTFSC       STATUS+0, 2 
	GOTO        L_SetOverloadParams826
	MOVF        FARG_SetOverloadParams_p2+0, 0 
	XORLW       8
	BTFSC       STATUS+0, 2 
	GOTO        L_SetOverloadParams827
	MOVF        FARG_SetOverloadParams_p2+0, 0 
	XORLW       9
	BTFSC       STATUS+0, 2 
	GOTO        L_SetOverloadParams828
	MOVF        FARG_SetOverloadParams_p2+0, 0 
	XORLW       10
	BTFSC       STATUS+0, 2 
	GOTO        L_SetOverloadParams829
	MOVF        FARG_SetOverloadParams_p2+0, 0 
	XORLW       11
	BTFSC       STATUS+0, 2 
	GOTO        L_SetOverloadParams830
	MOVF        FARG_SetOverloadParams_p2+0, 0 
	XORLW       12
	BTFSC       STATUS+0, 2 
	GOTO        L_SetOverloadParams831
	MOVF        FARG_SetOverloadParams_p2+0, 0 
	XORLW       13
	BTFSC       STATUS+0, 2 
	GOTO        L_SetOverloadParams832
	MOVF        FARG_SetOverloadParams_p2+0, 0 
	XORLW       14
	BTFSC       STATUS+0, 2 
	GOTO        L_SetOverloadParams833
	MOVF        FARG_SetOverloadParams_p2+0, 0 
	XORLW       15
	BTFSC       STATUS+0, 2 
	GOTO        L_SetOverloadParams834
L_SetOverloadParams818:
;FirmV_0_7_0.c,3076 :: 		switch(d2)
	GOTO        L_SetOverloadParams835
;FirmV_0_7_0.c,3078 :: 		case 0: OverloadDuration2=100; break;
L_SetOverloadParams837:
	MOVLW       100
	MOVWF       _OverloadDuration2+0 
	MOVLW       0
	MOVWF       _OverloadDuration2+1 
	GOTO        L_SetOverloadParams836
;FirmV_0_7_0.c,3080 :: 		case 1: OverloadDuration2=500; break;
L_SetOverloadParams838:
	MOVLW       244
	MOVWF       _OverloadDuration2+0 
	MOVLW       1
	MOVWF       _OverloadDuration2+1 
	GOTO        L_SetOverloadParams836
;FirmV_0_7_0.c,3082 :: 		case 2: OverloadDuration2=1000; break;
L_SetOverloadParams839:
	MOVLW       232
	MOVWF       _OverloadDuration2+0 
	MOVLW       3
	MOVWF       _OverloadDuration2+1 
	GOTO        L_SetOverloadParams836
;FirmV_0_7_0.c,3084 :: 		case 3: OverloadDuration2=1500; break;
L_SetOverloadParams840:
	MOVLW       220
	MOVWF       _OverloadDuration2+0 
	MOVLW       5
	MOVWF       _OverloadDuration2+1 
	GOTO        L_SetOverloadParams836
;FirmV_0_7_0.c,3086 :: 		case 4: OverloadDuration2=2000; break;
L_SetOverloadParams841:
	MOVLW       208
	MOVWF       _OverloadDuration2+0 
	MOVLW       7
	MOVWF       _OverloadDuration2+1 
	GOTO        L_SetOverloadParams836
;FirmV_0_7_0.c,3088 :: 		case 5: OverloadDuration2=2500; break;
L_SetOverloadParams842:
	MOVLW       196
	MOVWF       _OverloadDuration2+0 
	MOVLW       9
	MOVWF       _OverloadDuration2+1 
	GOTO        L_SetOverloadParams836
;FirmV_0_7_0.c,3090 :: 		case 6: OverloadDuration2=3000; break;
L_SetOverloadParams843:
	MOVLW       184
	MOVWF       _OverloadDuration2+0 
	MOVLW       11
	MOVWF       _OverloadDuration2+1 
	GOTO        L_SetOverloadParams836
;FirmV_0_7_0.c,3092 :: 		case 7: OverloadDuration2=3500; break;
L_SetOverloadParams844:
	MOVLW       172
	MOVWF       _OverloadDuration2+0 
	MOVLW       13
	MOVWF       _OverloadDuration2+1 
	GOTO        L_SetOverloadParams836
;FirmV_0_7_0.c,3094 :: 		case 8: OverloadDuration2=4000; break;
L_SetOverloadParams845:
	MOVLW       160
	MOVWF       _OverloadDuration2+0 
	MOVLW       15
	MOVWF       _OverloadDuration2+1 
	GOTO        L_SetOverloadParams836
;FirmV_0_7_0.c,3096 :: 		case 9: OverloadDuration2=4500; break;
L_SetOverloadParams846:
	MOVLW       148
	MOVWF       _OverloadDuration2+0 
	MOVLW       17
	MOVWF       _OverloadDuration2+1 
	GOTO        L_SetOverloadParams836
;FirmV_0_7_0.c,3098 :: 		case 10: OverloadDuration2=5000; break;
L_SetOverloadParams847:
	MOVLW       136
	MOVWF       _OverloadDuration2+0 
	MOVLW       19
	MOVWF       _OverloadDuration2+1 
	GOTO        L_SetOverloadParams836
;FirmV_0_7_0.c,3099 :: 		}
L_SetOverloadParams835:
	MOVF        FARG_SetOverloadParams_d2+0, 0 
	XORLW       0
	BTFSC       STATUS+0, 2 
	GOTO        L_SetOverloadParams837
	MOVF        FARG_SetOverloadParams_d2+0, 0 
	XORLW       1
	BTFSC       STATUS+0, 2 
	GOTO        L_SetOverloadParams838
	MOVF        FARG_SetOverloadParams_d2+0, 0 
	XORLW       2
	BTFSC       STATUS+0, 2 
	GOTO        L_SetOverloadParams839
	MOVF        FARG_SetOverloadParams_d2+0, 0 
	XORLW       3
	BTFSC       STATUS+0, 2 
	GOTO        L_SetOverloadParams840
	MOVF        FARG_SetOverloadParams_d2+0, 0 
	XORLW       4
	BTFSC       STATUS+0, 2 
	GOTO        L_SetOverloadParams841
	MOVF        FARG_SetOverloadParams_d2+0, 0 
	XORLW       5
	BTFSC       STATUS+0, 2 
	GOTO        L_SetOverloadParams842
	MOVF        FARG_SetOverloadParams_d2+0, 0 
	XORLW       6
	BTFSC       STATUS+0, 2 
	GOTO        L_SetOverloadParams843
	MOVF        FARG_SetOverloadParams_d2+0, 0 
	XORLW       7
	BTFSC       STATUS+0, 2 
	GOTO        L_SetOverloadParams844
	MOVF        FARG_SetOverloadParams_d2+0, 0 
	XORLW       8
	BTFSC       STATUS+0, 2 
	GOTO        L_SetOverloadParams845
	MOVF        FARG_SetOverloadParams_d2+0, 0 
	XORLW       9
	BTFSC       STATUS+0, 2 
	GOTO        L_SetOverloadParams846
	MOVF        FARG_SetOverloadParams_d2+0, 0 
	XORLW       10
	BTFSC       STATUS+0, 2 
	GOTO        L_SetOverloadParams847
L_SetOverloadParams836:
;FirmV_0_7_0.c,3100 :: 		}
L_end_SetOverloadParams:
	RETURN      0
; end of _SetOverloadParams

_TorqueLogger:

;FirmV_0_7_0.c,3121 :: 		void TorqueLogger()
;FirmV_0_7_0.c,3124 :: 		switch(State)
	GOTO        L_TorqueLogger848
;FirmV_0_7_0.c,3126 :: 		case 3:
L_TorqueLogger850:
;FirmV_0_7_0.c,3127 :: 		txt[0]='D';txt[1]='3';txt[2]='1';txt[3]='-';
	MOVLW       68
	MOVWF       TorqueLogger_txt_L0+0 
	MOVLW       51
	MOVWF       TorqueLogger_txt_L0+1 
	MOVLW       49
	MOVWF       TorqueLogger_txt_L0+2 
	MOVLW       45
	MOVWF       TorqueLogger_txt_L0+3 
;FirmV_0_7_0.c,3128 :: 		wordtostrwithzeros(VCapM1,txt+4);
	MOVF        _VCapM1+0, 0 
	MOVWF       FARG_WordToStrWithZeros_input+0 
	MOVF        _VCapM1+1, 0 
	MOVWF       FARG_WordToStrWithZeros_input+1 
	MOVLW       TorqueLogger_txt_L0+4
	MOVWF       FARG_WordToStrWithZeros_output+0 
	MOVLW       hi_addr(TorqueLogger_txt_L0+4)
	MOVWF       FARG_WordToStrWithZeros_output+1 
	CALL        _WordToStrWithZeros+0, 0
;FirmV_0_7_0.c,3129 :: 		txt[9]=0;
	CLRF        TorqueLogger_txt_L0+9 
;FirmV_0_7_0.c,3130 :: 		Logger(txt,0);
	MOVLW       TorqueLogger_txt_L0+0
	MOVWF       FARG_Logger_text+0 
	MOVLW       hi_addr(TorqueLogger_txt_L0+0)
	MOVWF       FARG_Logger_text+1 
	CLRF        FARG_Logger_TimeStampFlag+0 
	CALL        _Logger+0, 0
;FirmV_0_7_0.c,3132 :: 		txt[0]='D';txt[1]='3';txt[2]='2';txt[3]='-';
	MOVLW       68
	MOVWF       TorqueLogger_txt_L0+0 
	MOVLW       51
	MOVWF       TorqueLogger_txt_L0+1 
	MOVLW       50
	MOVWF       TorqueLogger_txt_L0+2 
	MOVLW       45
	MOVWF       TorqueLogger_txt_L0+3 
;FirmV_0_7_0.c,3133 :: 		wordtostrwithzeros(VCapM2,txt+4);
	MOVF        _VCapM2+0, 0 
	MOVWF       FARG_WordToStrWithZeros_input+0 
	MOVF        _VCapM2+1, 0 
	MOVWF       FARG_WordToStrWithZeros_input+1 
	MOVLW       TorqueLogger_txt_L0+4
	MOVWF       FARG_WordToStrWithZeros_output+0 
	MOVLW       hi_addr(TorqueLogger_txt_L0+4)
	MOVWF       FARG_WordToStrWithZeros_output+1 
	CALL        _WordToStrWithZeros+0, 0
;FirmV_0_7_0.c,3134 :: 		txt[9]=0;
	CLRF        TorqueLogger_txt_L0+9 
;FirmV_0_7_0.c,3135 :: 		Logger(txt,0);
	MOVLW       TorqueLogger_txt_L0+0
	MOVWF       FARG_Logger_text+0 
	MOVLW       hi_addr(TorqueLogger_txt_L0+0)
	MOVWF       FARG_Logger_text+1 
	CLRF        FARG_Logger_TimeStampFlag+0 
	CALL        _Logger+0, 0
;FirmV_0_7_0.c,3137 :: 		break;
	GOTO        L_TorqueLogger849
;FirmV_0_7_0.c,3139 :: 		case 4:
L_TorqueLogger851:
;FirmV_0_7_0.c,3140 :: 		txt[0]='D';txt[1]='4';txt[2]='1';txt[3]='-';
	MOVLW       68
	MOVWF       TorqueLogger_txt_L0+0 
	MOVLW       52
	MOVWF       TorqueLogger_txt_L0+1 
	MOVLW       49
	MOVWF       TorqueLogger_txt_L0+2 
	MOVLW       45
	MOVWF       TorqueLogger_txt_L0+3 
;FirmV_0_7_0.c,3141 :: 		wordtostrwithzeros(VCapM1,txt+4);
	MOVF        _VCapM1+0, 0 
	MOVWF       FARG_WordToStrWithZeros_input+0 
	MOVF        _VCapM1+1, 0 
	MOVWF       FARG_WordToStrWithZeros_input+1 
	MOVLW       TorqueLogger_txt_L0+4
	MOVWF       FARG_WordToStrWithZeros_output+0 
	MOVLW       hi_addr(TorqueLogger_txt_L0+4)
	MOVWF       FARG_WordToStrWithZeros_output+1 
	CALL        _WordToStrWithZeros+0, 0
;FirmV_0_7_0.c,3142 :: 		txt[9]=0;
	CLRF        TorqueLogger_txt_L0+9 
;FirmV_0_7_0.c,3143 :: 		Logger(txt,0);
	MOVLW       TorqueLogger_txt_L0+0
	MOVWF       FARG_Logger_text+0 
	MOVLW       hi_addr(TorqueLogger_txt_L0+0)
	MOVWF       FARG_Logger_text+1 
	CLRF        FARG_Logger_TimeStampFlag+0 
	CALL        _Logger+0, 0
;FirmV_0_7_0.c,3145 :: 		txt[0]='D';txt[1]='4';txt[2]='2';txt[3]='-';
	MOVLW       68
	MOVWF       TorqueLogger_txt_L0+0 
	MOVLW       52
	MOVWF       TorqueLogger_txt_L0+1 
	MOVLW       50
	MOVWF       TorqueLogger_txt_L0+2 
	MOVLW       45
	MOVWF       TorqueLogger_txt_L0+3 
;FirmV_0_7_0.c,3146 :: 		wordtostrwithzeros(VCapM2,txt+4);
	MOVF        _VCapM2+0, 0 
	MOVWF       FARG_WordToStrWithZeros_input+0 
	MOVF        _VCapM2+1, 0 
	MOVWF       FARG_WordToStrWithZeros_input+1 
	MOVLW       TorqueLogger_txt_L0+4
	MOVWF       FARG_WordToStrWithZeros_output+0 
	MOVLW       hi_addr(TorqueLogger_txt_L0+4)
	MOVWF       FARG_WordToStrWithZeros_output+1 
	CALL        _WordToStrWithZeros+0, 0
;FirmV_0_7_0.c,3147 :: 		txt[9]=0;
	CLRF        TorqueLogger_txt_L0+9 
;FirmV_0_7_0.c,3148 :: 		Logger(txt,0);
	MOVLW       TorqueLogger_txt_L0+0
	MOVWF       FARG_Logger_text+0 
	MOVLW       hi_addr(TorqueLogger_txt_L0+0)
	MOVWF       FARG_Logger_text+1 
	CLRF        FARG_Logger_TimeStampFlag+0 
	CALL        _Logger+0, 0
;FirmV_0_7_0.c,3150 :: 		break;
	GOTO        L_TorqueLogger849
;FirmV_0_7_0.c,3152 :: 		case 7:
L_TorqueLogger852:
;FirmV_0_7_0.c,3153 :: 		txt[0]='D';txt[1]='7';txt[2]='1';txt[3]='-';
	MOVLW       68
	MOVWF       TorqueLogger_txt_L0+0 
	MOVLW       55
	MOVWF       TorqueLogger_txt_L0+1 
	MOVLW       49
	MOVWF       TorqueLogger_txt_L0+2 
	MOVLW       45
	MOVWF       TorqueLogger_txt_L0+3 
;FirmV_0_7_0.c,3154 :: 		wordtostrwithzeros(VCapM1,txt+4);
	MOVF        _VCapM1+0, 0 
	MOVWF       FARG_WordToStrWithZeros_input+0 
	MOVF        _VCapM1+1, 0 
	MOVWF       FARG_WordToStrWithZeros_input+1 
	MOVLW       TorqueLogger_txt_L0+4
	MOVWF       FARG_WordToStrWithZeros_output+0 
	MOVLW       hi_addr(TorqueLogger_txt_L0+4)
	MOVWF       FARG_WordToStrWithZeros_output+1 
	CALL        _WordToStrWithZeros+0, 0
;FirmV_0_7_0.c,3155 :: 		txt[9]=0;
	CLRF        TorqueLogger_txt_L0+9 
;FirmV_0_7_0.c,3156 :: 		Logger(txt,0);
	MOVLW       TorqueLogger_txt_L0+0
	MOVWF       FARG_Logger_text+0 
	MOVLW       hi_addr(TorqueLogger_txt_L0+0)
	MOVWF       FARG_Logger_text+1 
	CLRF        FARG_Logger_TimeStampFlag+0 
	CALL        _Logger+0, 0
;FirmV_0_7_0.c,3158 :: 		txt[0]='D';txt[1]='7';txt[2]='2';txt[3]='-';
	MOVLW       68
	MOVWF       TorqueLogger_txt_L0+0 
	MOVLW       55
	MOVWF       TorqueLogger_txt_L0+1 
	MOVLW       50
	MOVWF       TorqueLogger_txt_L0+2 
	MOVLW       45
	MOVWF       TorqueLogger_txt_L0+3 
;FirmV_0_7_0.c,3159 :: 		wordtostrwithzeros(VCapM2,txt+4);
	MOVF        _VCapM2+0, 0 
	MOVWF       FARG_WordToStrWithZeros_input+0 
	MOVF        _VCapM2+1, 0 
	MOVWF       FARG_WordToStrWithZeros_input+1 
	MOVLW       TorqueLogger_txt_L0+4
	MOVWF       FARG_WordToStrWithZeros_output+0 
	MOVLW       hi_addr(TorqueLogger_txt_L0+4)
	MOVWF       FARG_WordToStrWithZeros_output+1 
	CALL        _WordToStrWithZeros+0, 0
;FirmV_0_7_0.c,3160 :: 		txt[9]=0;
	CLRF        TorqueLogger_txt_L0+9 
;FirmV_0_7_0.c,3161 :: 		Logger(txt,0);
	MOVLW       TorqueLogger_txt_L0+0
	MOVWF       FARG_Logger_text+0 
	MOVLW       hi_addr(TorqueLogger_txt_L0+0)
	MOVWF       FARG_Logger_text+1 
	CLRF        FARG_Logger_TimeStampFlag+0 
	CALL        _Logger+0, 0
;FirmV_0_7_0.c,3163 :: 		break;
	GOTO        L_TorqueLogger849
;FirmV_0_7_0.c,3165 :: 		case 8:
L_TorqueLogger853:
;FirmV_0_7_0.c,3166 :: 		txt[0]='D';txt[1]='8';txt[2]='1';txt[3]='-';
	MOVLW       68
	MOVWF       TorqueLogger_txt_L0+0 
	MOVLW       56
	MOVWF       TorqueLogger_txt_L0+1 
	MOVLW       49
	MOVWF       TorqueLogger_txt_L0+2 
	MOVLW       45
	MOVWF       TorqueLogger_txt_L0+3 
;FirmV_0_7_0.c,3167 :: 		wordtostrwithzeros(VCapM1,txt+4);
	MOVF        _VCapM1+0, 0 
	MOVWF       FARG_WordToStrWithZeros_input+0 
	MOVF        _VCapM1+1, 0 
	MOVWF       FARG_WordToStrWithZeros_input+1 
	MOVLW       TorqueLogger_txt_L0+4
	MOVWF       FARG_WordToStrWithZeros_output+0 
	MOVLW       hi_addr(TorqueLogger_txt_L0+4)
	MOVWF       FARG_WordToStrWithZeros_output+1 
	CALL        _WordToStrWithZeros+0, 0
;FirmV_0_7_0.c,3168 :: 		txt[9]=0;
	CLRF        TorqueLogger_txt_L0+9 
;FirmV_0_7_0.c,3169 :: 		Logger(txt,0);
	MOVLW       TorqueLogger_txt_L0+0
	MOVWF       FARG_Logger_text+0 
	MOVLW       hi_addr(TorqueLogger_txt_L0+0)
	MOVWF       FARG_Logger_text+1 
	CLRF        FARG_Logger_TimeStampFlag+0 
	CALL        _Logger+0, 0
;FirmV_0_7_0.c,3171 :: 		txt[0]='D';txt[1]='8';txt[2]='2';txt[3]='-';
	MOVLW       68
	MOVWF       TorqueLogger_txt_L0+0 
	MOVLW       56
	MOVWF       TorqueLogger_txt_L0+1 
	MOVLW       50
	MOVWF       TorqueLogger_txt_L0+2 
	MOVLW       45
	MOVWF       TorqueLogger_txt_L0+3 
;FirmV_0_7_0.c,3172 :: 		wordtostrwithzeros(VCapM2,txt+4);
	MOVF        _VCapM2+0, 0 
	MOVWF       FARG_WordToStrWithZeros_input+0 
	MOVF        _VCapM2+1, 0 
	MOVWF       FARG_WordToStrWithZeros_input+1 
	MOVLW       TorqueLogger_txt_L0+4
	MOVWF       FARG_WordToStrWithZeros_output+0 
	MOVLW       hi_addr(TorqueLogger_txt_L0+4)
	MOVWF       FARG_WordToStrWithZeros_output+1 
	CALL        _WordToStrWithZeros+0, 0
;FirmV_0_7_0.c,3173 :: 		txt[9]=0;
	CLRF        TorqueLogger_txt_L0+9 
;FirmV_0_7_0.c,3174 :: 		Logger(txt,0);
	MOVLW       TorqueLogger_txt_L0+0
	MOVWF       FARG_Logger_text+0 
	MOVLW       hi_addr(TorqueLogger_txt_L0+0)
	MOVWF       FARG_Logger_text+1 
	CLRF        FARG_Logger_TimeStampFlag+0 
	CALL        _Logger+0, 0
;FirmV_0_7_0.c,3176 :: 		break;
	GOTO        L_TorqueLogger849
;FirmV_0_7_0.c,3178 :: 		case 200:
L_TorqueLogger854:
;FirmV_0_7_0.c,3179 :: 		txt[0]='D';txt[1]='L';txt[2]='1';txt[3]='-';
	MOVLW       68
	MOVWF       TorqueLogger_txt_L0+0 
	MOVLW       76
	MOVWF       TorqueLogger_txt_L0+1 
	MOVLW       49
	MOVWF       TorqueLogger_txt_L0+2 
	MOVLW       45
	MOVWF       TorqueLogger_txt_L0+3 
;FirmV_0_7_0.c,3180 :: 		wordtostrwithzeros(VCapM1,txt+4);
	MOVF        _VCapM1+0, 0 
	MOVWF       FARG_WordToStrWithZeros_input+0 
	MOVF        _VCapM1+1, 0 
	MOVWF       FARG_WordToStrWithZeros_input+1 
	MOVLW       TorqueLogger_txt_L0+4
	MOVWF       FARG_WordToStrWithZeros_output+0 
	MOVLW       hi_addr(TorqueLogger_txt_L0+4)
	MOVWF       FARG_WordToStrWithZeros_output+1 
	CALL        _WordToStrWithZeros+0, 0
;FirmV_0_7_0.c,3181 :: 		txt[9]=0;
	CLRF        TorqueLogger_txt_L0+9 
;FirmV_0_7_0.c,3182 :: 		Logger(txt,0);
	MOVLW       TorqueLogger_txt_L0+0
	MOVWF       FARG_Logger_text+0 
	MOVLW       hi_addr(TorqueLogger_txt_L0+0)
	MOVWF       FARG_Logger_text+1 
	CLRF        FARG_Logger_TimeStampFlag+0 
	CALL        _Logger+0, 0
;FirmV_0_7_0.c,3184 :: 		txt[0]='D';txt[1]='L';txt[2]='2';txt[3]='-';
	MOVLW       68
	MOVWF       TorqueLogger_txt_L0+0 
	MOVLW       76
	MOVWF       TorqueLogger_txt_L0+1 
	MOVLW       50
	MOVWF       TorqueLogger_txt_L0+2 
	MOVLW       45
	MOVWF       TorqueLogger_txt_L0+3 
;FirmV_0_7_0.c,3185 :: 		wordtostrwithzeros(VCapM2,txt+4);
	MOVF        _VCapM2+0, 0 
	MOVWF       FARG_WordToStrWithZeros_input+0 
	MOVF        _VCapM2+1, 0 
	MOVWF       FARG_WordToStrWithZeros_input+1 
	MOVLW       TorqueLogger_txt_L0+4
	MOVWF       FARG_WordToStrWithZeros_output+0 
	MOVLW       hi_addr(TorqueLogger_txt_L0+4)
	MOVWF       FARG_WordToStrWithZeros_output+1 
	CALL        _WordToStrWithZeros+0, 0
;FirmV_0_7_0.c,3186 :: 		txt[9]=0;
	CLRF        TorqueLogger_txt_L0+9 
;FirmV_0_7_0.c,3187 :: 		Logger(txt,0);
	MOVLW       TorqueLogger_txt_L0+0
	MOVWF       FARG_Logger_text+0 
	MOVLW       hi_addr(TorqueLogger_txt_L0+0)
	MOVWF       FARG_Logger_text+1 
	CLRF        FARG_Logger_TimeStampFlag+0 
	CALL        _Logger+0, 0
;FirmV_0_7_0.c,3189 :: 		break;
	GOTO        L_TorqueLogger849
;FirmV_0_7_0.c,3191 :: 		}
L_TorqueLogger848:
	MOVF        _State+0, 0 
	XORLW       3
	BTFSC       STATUS+0, 2 
	GOTO        L_TorqueLogger850
	MOVF        _State+0, 0 
	XORLW       4
	BTFSC       STATUS+0, 2 
	GOTO        L_TorqueLogger851
	MOVF        _State+0, 0 
	XORLW       7
	BTFSC       STATUS+0, 2 
	GOTO        L_TorqueLogger852
	MOVF        _State+0, 0 
	XORLW       8
	BTFSC       STATUS+0, 2 
	GOTO        L_TorqueLogger853
	MOVF        _State+0, 0 
	XORLW       200
	BTFSC       STATUS+0, 2 
	GOTO        L_TorqueLogger854
L_TorqueLogger849:
;FirmV_0_7_0.c,3192 :: 		}
L_end_TorqueLogger:
	RETURN      0
; end of _TorqueLogger

_AutoClosePause:

;FirmV_0_7_0.c,3212 :: 		void AutoClosePause()
;FirmV_0_7_0.c,3215 :: 		if((AutoClosePauseFlag) && (Events.Photocell.b0==1))
	MOVF        _AutoClosePauseFlag+0, 1 
	BTFSC       STATUS+0, 2 
	GOTO        L_AutoClosePause857
	BTFSS       _Events+6, 0 
	GOTO        L_AutoClosePause857
L__AutoClosePause1018:
;FirmV_0_7_0.c,3216 :: 		for(i=0;i<20;i++)
	CLRF        AutoClosePause_i_L0+0 
L_AutoClosePause858:
	MOVLW       20
	SUBWF       AutoClosePause_i_L0+0, 0 
	BTFSC       STATUS+0, 0 
	GOTO        L_AutoClosePause859
;FirmV_0_7_0.c,3217 :: 		if((Tasks[i].Expired==0)&&(Tasks[i].TaskCode==9))
	MOVLW       7
	MOVWF       R0 
	MOVLW       0
	MOVWF       R1 
	MOVF        AutoClosePause_i_L0+0, 0 
	MOVWF       R4 
	MOVLW       0
	MOVWF       R5 
	CALL        _Mul_16X16_U+0, 0
	MOVLW       _Tasks+0
	ADDWF       R0, 1 
	MOVLW       hi_addr(_Tasks+0)
	ADDWFC      R1, 1 
	MOVLW       5
	ADDWF       R0, 0 
	MOVWF       FSR0 
	MOVLW       0
	ADDWFC      R1, 0 
	MOVWF       FSR0H 
	MOVF        POSTINC0+0, 0 
	XORLW       0
	BTFSS       STATUS+0, 2 
	GOTO        L_AutoClosePause863
	MOVLW       7
	MOVWF       R0 
	MOVLW       0
	MOVWF       R1 
	MOVF        AutoClosePause_i_L0+0, 0 
	MOVWF       R4 
	MOVLW       0
	MOVWF       R5 
	CALL        _Mul_16X16_U+0, 0
	MOVLW       _Tasks+0
	ADDWF       R0, 0 
	MOVWF       FSR0 
	MOVLW       hi_addr(_Tasks+0)
	ADDWFC      R1, 0 
	MOVWF       FSR0H 
	MOVF        POSTINC0+0, 0 
	MOVWF       R1 
	MOVF        R1, 0 
	XORLW       9
	BTFSS       STATUS+0, 2 
	GOTO        L_AutoClosePause863
L__AutoClosePause1017:
;FirmV_0_7_0.c,3218 :: 		{Tasks[i].Time=Tasks[i].Time+1;}
	MOVLW       7
	MOVWF       R0 
	MOVLW       0
	MOVWF       R1 
	MOVF        AutoClosePause_i_L0+0, 0 
	MOVWF       R4 
	MOVLW       0
	MOVWF       R5 
	CALL        _Mul_16X16_U+0, 0
	MOVLW       _Tasks+0
	ADDWF       R0, 1 
	MOVLW       hi_addr(_Tasks+0)
	ADDWFC      R1, 1 
	MOVLW       1
	ADDWF       R0, 0 
	MOVWF       R4 
	MOVLW       0
	ADDWFC      R1, 0 
	MOVWF       R5 
	MOVFF       R4, FSR0
	MOVFF       R5, FSR0H
	MOVLW       1
	ADDWF       POSTINC0+0, 0 
	MOVWF       R0 
	MOVLW       0
	ADDWFC      POSTINC0+0, 0 
	MOVWF       R1 
	MOVLW       0
	ADDWFC      POSTINC0+0, 0 
	MOVWF       R2 
	MOVLW       0
	ADDWFC      POSTINC0+0, 0 
	MOVWF       R3 
	MOVFF       R4, FSR1
	MOVFF       R5, FSR1H
	MOVF        R0, 0 
	MOVWF       POSTINC1+0 
	MOVF        R1, 0 
	MOVWF       POSTINC1+0 
	MOVF        R2, 0 
	MOVWF       POSTINC1+0 
	MOVF        R3, 0 
	MOVWF       POSTINC1+0 
L_AutoClosePause863:
;FirmV_0_7_0.c,3216 :: 		for(i=0;i<20;i++)
	INCF        AutoClosePause_i_L0+0, 1 
;FirmV_0_7_0.c,3218 :: 		{Tasks[i].Time=Tasks[i].Time+1;}
	GOTO        L_AutoClosePause858
L_AutoClosePause859:
L_AutoClosePause857:
;FirmV_0_7_0.c,3219 :: 		}
L_end_AutoClosePause:
	RETURN      0
; end of _AutoClosePause

_SetSoftPower:

;FirmV_0_7_0.c,3233 :: 		void SetSoftPower()
;FirmV_0_7_0.c,3235 :: 		switch(M1SoftPower)
	GOTO        L_SetSoftPower864
;FirmV_0_7_0.c,3237 :: 		case 1: M1SoftTM=0x50;M1SoftTL=0x37;break;
L_SetSoftPower866:
	MOVLW       80
	MOVWF       _M1SoftTM+0 
	MOVLW       55
	MOVWF       _M1SoftTL+0 
	GOTO        L_SetSoftPower865
;FirmV_0_7_0.c,3238 :: 		case 2: M1SoftTM=0x63;M1SoftTL=0xBF;break;
L_SetSoftPower867:
	MOVLW       99
	MOVWF       _M1SoftTM+0 
	MOVLW       191
	MOVWF       _M1SoftTL+0 
	GOTO        L_SetSoftPower865
;FirmV_0_7_0.c,3239 :: 		case 3: M1SoftTM=0x77;M1SoftTL=0x47;break;
L_SetSoftPower868:
	MOVLW       119
	MOVWF       _M1SoftTM+0 
	MOVLW       71
	MOVWF       _M1SoftTL+0 
	GOTO        L_SetSoftPower865
;FirmV_0_7_0.c,3240 :: 		case 4: M1SoftTM=0x8A;M1SoftTL=0xCF;break;
L_SetSoftPower869:
	MOVLW       138
	MOVWF       _M1SoftTM+0 
	MOVLW       207
	MOVWF       _M1SoftTL+0 
	GOTO        L_SetSoftPower865
;FirmV_0_7_0.c,3241 :: 		case 5: M1SoftTM=0x9E;M1SoftTL=0x57;break;
L_SetSoftPower870:
	MOVLW       158
	MOVWF       _M1SoftTM+0 
	MOVLW       87
	MOVWF       _M1SoftTL+0 
	GOTO        L_SetSoftPower865
;FirmV_0_7_0.c,3242 :: 		case 6: M1SoftTM=0xB1;M1SoftTL=0xDF;break;
L_SetSoftPower871:
	MOVLW       177
	MOVWF       _M1SoftTM+0 
	MOVLW       223
	MOVWF       _M1SoftTL+0 
	GOTO        L_SetSoftPower865
;FirmV_0_7_0.c,3243 :: 		case 7: M1SoftTM=0xC5;M1SoftTL=0x67;break;
L_SetSoftPower872:
	MOVLW       197
	MOVWF       _M1SoftTM+0 
	MOVLW       103
	MOVWF       _M1SoftTL+0 
	GOTO        L_SetSoftPower865
;FirmV_0_7_0.c,3244 :: 		case 8: M1SoftTM=0xD8;M1SoftTL=0xEF;break;
L_SetSoftPower873:
	MOVLW       216
	MOVWF       _M1SoftTM+0 
	MOVLW       239
	MOVWF       _M1SoftTL+0 
	GOTO        L_SetSoftPower865
;FirmV_0_7_0.c,3245 :: 		case 9: M1SoftTM=0xEC;M1SoftTL=0x77;break;
L_SetSoftPower874:
	MOVLW       236
	MOVWF       _M1SoftTM+0 
	MOVLW       119
	MOVWF       _M1SoftTL+0 
	GOTO        L_SetSoftPower865
;FirmV_0_7_0.c,3246 :: 		case 10:M1SoftTM=0xFF;M1SoftTL=0x00;break;
L_SetSoftPower875:
	MOVLW       255
	MOVWF       _M1SoftTM+0 
	CLRF        _M1SoftTL+0 
	GOTO        L_SetSoftPower865
;FirmV_0_7_0.c,3247 :: 		}
L_SetSoftPower864:
	MOVLW       0
	XORWF       _M1SoftPower+1, 0 
	BTFSS       STATUS+0, 2 
	GOTO        L__SetSoftPower1121
	MOVLW       1
	XORWF       _M1SoftPower+0, 0 
L__SetSoftPower1121:
	BTFSC       STATUS+0, 2 
	GOTO        L_SetSoftPower866
	MOVLW       0
	XORWF       _M1SoftPower+1, 0 
	BTFSS       STATUS+0, 2 
	GOTO        L__SetSoftPower1122
	MOVLW       2
	XORWF       _M1SoftPower+0, 0 
L__SetSoftPower1122:
	BTFSC       STATUS+0, 2 
	GOTO        L_SetSoftPower867
	MOVLW       0
	XORWF       _M1SoftPower+1, 0 
	BTFSS       STATUS+0, 2 
	GOTO        L__SetSoftPower1123
	MOVLW       3
	XORWF       _M1SoftPower+0, 0 
L__SetSoftPower1123:
	BTFSC       STATUS+0, 2 
	GOTO        L_SetSoftPower868
	MOVLW       0
	XORWF       _M1SoftPower+1, 0 
	BTFSS       STATUS+0, 2 
	GOTO        L__SetSoftPower1124
	MOVLW       4
	XORWF       _M1SoftPower+0, 0 
L__SetSoftPower1124:
	BTFSC       STATUS+0, 2 
	GOTO        L_SetSoftPower869
	MOVLW       0
	XORWF       _M1SoftPower+1, 0 
	BTFSS       STATUS+0, 2 
	GOTO        L__SetSoftPower1125
	MOVLW       5
	XORWF       _M1SoftPower+0, 0 
L__SetSoftPower1125:
	BTFSC       STATUS+0, 2 
	GOTO        L_SetSoftPower870
	MOVLW       0
	XORWF       _M1SoftPower+1, 0 
	BTFSS       STATUS+0, 2 
	GOTO        L__SetSoftPower1126
	MOVLW       6
	XORWF       _M1SoftPower+0, 0 
L__SetSoftPower1126:
	BTFSC       STATUS+0, 2 
	GOTO        L_SetSoftPower871
	MOVLW       0
	XORWF       _M1SoftPower+1, 0 
	BTFSS       STATUS+0, 2 
	GOTO        L__SetSoftPower1127
	MOVLW       7
	XORWF       _M1SoftPower+0, 0 
L__SetSoftPower1127:
	BTFSC       STATUS+0, 2 
	GOTO        L_SetSoftPower872
	MOVLW       0
	XORWF       _M1SoftPower+1, 0 
	BTFSS       STATUS+0, 2 
	GOTO        L__SetSoftPower1128
	MOVLW       8
	XORWF       _M1SoftPower+0, 0 
L__SetSoftPower1128:
	BTFSC       STATUS+0, 2 
	GOTO        L_SetSoftPower873
	MOVLW       0
	XORWF       _M1SoftPower+1, 0 
	BTFSS       STATUS+0, 2 
	GOTO        L__SetSoftPower1129
	MOVLW       9
	XORWF       _M1SoftPower+0, 0 
L__SetSoftPower1129:
	BTFSC       STATUS+0, 2 
	GOTO        L_SetSoftPower874
	MOVLW       0
	XORWF       _M1SoftPower+1, 0 
	BTFSS       STATUS+0, 2 
	GOTO        L__SetSoftPower1130
	MOVLW       10
	XORWF       _M1SoftPower+0, 0 
L__SetSoftPower1130:
	BTFSC       STATUS+0, 2 
	GOTO        L_SetSoftPower875
L_SetSoftPower865:
;FirmV_0_7_0.c,3249 :: 		switch(M2SoftPower)
	GOTO        L_SetSoftPower876
;FirmV_0_7_0.c,3251 :: 		case 1: M2SoftTM=0x50;M2SoftTL=0x37;break;
L_SetSoftPower878:
	MOVLW       80
	MOVWF       _M2SoftTM+0 
	MOVLW       55
	MOVWF       _M2SoftTL+0 
	GOTO        L_SetSoftPower877
;FirmV_0_7_0.c,3252 :: 		case 2: M2SoftTM=0x63;M2SoftTL=0xBF;break;
L_SetSoftPower879:
	MOVLW       99
	MOVWF       _M2SoftTM+0 
	MOVLW       191
	MOVWF       _M2SoftTL+0 
	GOTO        L_SetSoftPower877
;FirmV_0_7_0.c,3253 :: 		case 3: M2SoftTM=0x77;M2SoftTL=0x47;break;
L_SetSoftPower880:
	MOVLW       119
	MOVWF       _M2SoftTM+0 
	MOVLW       71
	MOVWF       _M2SoftTL+0 
	GOTO        L_SetSoftPower877
;FirmV_0_7_0.c,3254 :: 		case 4: M2SoftTM=0x8A;M2SoftTL=0xCF;break;
L_SetSoftPower881:
	MOVLW       138
	MOVWF       _M2SoftTM+0 
	MOVLW       207
	MOVWF       _M2SoftTL+0 
	GOTO        L_SetSoftPower877
;FirmV_0_7_0.c,3255 :: 		case 5: M2SoftTM=0x9E;M2SoftTL=0x57;break;
L_SetSoftPower882:
	MOVLW       158
	MOVWF       _M2SoftTM+0 
	MOVLW       87
	MOVWF       _M2SoftTL+0 
	GOTO        L_SetSoftPower877
;FirmV_0_7_0.c,3256 :: 		case 6: M2SoftTM=0xB1;M2SoftTL=0xDF;break;
L_SetSoftPower883:
	MOVLW       177
	MOVWF       _M2SoftTM+0 
	MOVLW       223
	MOVWF       _M2SoftTL+0 
	GOTO        L_SetSoftPower877
;FirmV_0_7_0.c,3257 :: 		case 7: M2SoftTM=0xC5;M2SoftTL=0x67;break;
L_SetSoftPower884:
	MOVLW       197
	MOVWF       _M2SoftTM+0 
	MOVLW       103
	MOVWF       _M2SoftTL+0 
	GOTO        L_SetSoftPower877
;FirmV_0_7_0.c,3258 :: 		case 8: M2SoftTM=0xD8;M2SoftTL=0xEF;break;
L_SetSoftPower885:
	MOVLW       216
	MOVWF       _M2SoftTM+0 
	MOVLW       239
	MOVWF       _M2SoftTL+0 
	GOTO        L_SetSoftPower877
;FirmV_0_7_0.c,3259 :: 		case 9: M2SoftTM=0xEC;M2SoftTL=0x77;break;
L_SetSoftPower886:
	MOVLW       236
	MOVWF       _M2SoftTM+0 
	MOVLW       119
	MOVWF       _M2SoftTL+0 
	GOTO        L_SetSoftPower877
;FirmV_0_7_0.c,3260 :: 		case 10:M2SoftTM=0xFF;M2SoftTL=0x00;break;
L_SetSoftPower887:
	MOVLW       255
	MOVWF       _M2SoftTM+0 
	CLRF        _M2SoftTL+0 
	GOTO        L_SetSoftPower877
;FirmV_0_7_0.c,3261 :: 		}
L_SetSoftPower876:
	MOVLW       0
	XORWF       _M2SoftPower+1, 0 
	BTFSS       STATUS+0, 2 
	GOTO        L__SetSoftPower1131
	MOVLW       1
	XORWF       _M2SoftPower+0, 0 
L__SetSoftPower1131:
	BTFSC       STATUS+0, 2 
	GOTO        L_SetSoftPower878
	MOVLW       0
	XORWF       _M2SoftPower+1, 0 
	BTFSS       STATUS+0, 2 
	GOTO        L__SetSoftPower1132
	MOVLW       2
	XORWF       _M2SoftPower+0, 0 
L__SetSoftPower1132:
	BTFSC       STATUS+0, 2 
	GOTO        L_SetSoftPower879
	MOVLW       0
	XORWF       _M2SoftPower+1, 0 
	BTFSS       STATUS+0, 2 
	GOTO        L__SetSoftPower1133
	MOVLW       3
	XORWF       _M2SoftPower+0, 0 
L__SetSoftPower1133:
	BTFSC       STATUS+0, 2 
	GOTO        L_SetSoftPower880
	MOVLW       0
	XORWF       _M2SoftPower+1, 0 
	BTFSS       STATUS+0, 2 
	GOTO        L__SetSoftPower1134
	MOVLW       4
	XORWF       _M2SoftPower+0, 0 
L__SetSoftPower1134:
	BTFSC       STATUS+0, 2 
	GOTO        L_SetSoftPower881
	MOVLW       0
	XORWF       _M2SoftPower+1, 0 
	BTFSS       STATUS+0, 2 
	GOTO        L__SetSoftPower1135
	MOVLW       5
	XORWF       _M2SoftPower+0, 0 
L__SetSoftPower1135:
	BTFSC       STATUS+0, 2 
	GOTO        L_SetSoftPower882
	MOVLW       0
	XORWF       _M2SoftPower+1, 0 
	BTFSS       STATUS+0, 2 
	GOTO        L__SetSoftPower1136
	MOVLW       6
	XORWF       _M2SoftPower+0, 0 
L__SetSoftPower1136:
	BTFSC       STATUS+0, 2 
	GOTO        L_SetSoftPower883
	MOVLW       0
	XORWF       _M2SoftPower+1, 0 
	BTFSS       STATUS+0, 2 
	GOTO        L__SetSoftPower1137
	MOVLW       7
	XORWF       _M2SoftPower+0, 0 
L__SetSoftPower1137:
	BTFSC       STATUS+0, 2 
	GOTO        L_SetSoftPower884
	MOVLW       0
	XORWF       _M2SoftPower+1, 0 
	BTFSS       STATUS+0, 2 
	GOTO        L__SetSoftPower1138
	MOVLW       8
	XORWF       _M2SoftPower+0, 0 
L__SetSoftPower1138:
	BTFSC       STATUS+0, 2 
	GOTO        L_SetSoftPower885
	MOVLW       0
	XORWF       _M2SoftPower+1, 0 
	BTFSS       STATUS+0, 2 
	GOTO        L__SetSoftPower1139
	MOVLW       9
	XORWF       _M2SoftPower+0, 0 
L__SetSoftPower1139:
	BTFSC       STATUS+0, 2 
	GOTO        L_SetSoftPower886
	MOVLW       0
	XORWF       _M2SoftPower+1, 0 
	BTFSS       STATUS+0, 2 
	GOTO        L__SetSoftPower1140
	MOVLW       10
	XORWF       _M2SoftPower+0, 0 
L__SetSoftPower1140:
	BTFSC       STATUS+0, 2 
	GOTO        L_SetSoftPower887
L_SetSoftPower877:
;FirmV_0_7_0.c,3262 :: 		}
L_end_SetSoftPower:
	RETURN      0
; end of _SetSoftPower
