
_interrupt:

;FirmV_0_7_0.c,211 :: 		void interrupt()
;FirmV_0_7_0.c,213 :: 		if(TMR0IF_bit)
	BTFSS       TMR0IF_bit+0, BitPos(TMR0IF_bit+0) 
	GOTO        L_interrupt0
;FirmV_0_7_0.c,215 :: 		msCounter=msCounter+1;
	INCF        _msCounter+0, 1 
;FirmV_0_7_0.c,216 :: 		LCDBackLight=1;
	BSF         PORTA+0, 4 
;FirmV_0_7_0.c,217 :: 		Flag20ms=1;
	MOVLW       1
	MOVWF       _Flag20ms+0 
;FirmV_0_7_0.c,218 :: 		if(ms20A>=25)
	MOVLW       25
	SUBWF       _ms20A+0, 0 
	BTFSS       STATUS+0, 0 
	GOTO        L_interrupt1
;FirmV_0_7_0.c,219 :: 		{ms20A=0;RemotePulse1=0;}
	CLRF        _ms20A+0 
	CLRF        _RemotePulse1+0 
	GOTO        L_interrupt2
L_interrupt1:
;FirmV_0_7_0.c,221 :: 		ms20A=ms20A+1;
	INCF        _ms20A+0, 1 
L_interrupt2:
;FirmV_0_7_0.c,223 :: 		if(ms20B>=25)
	MOVLW       25
	SUBWF       _ms20B+0, 0 
	BTFSS       STATUS+0, 0 
	GOTO        L_interrupt3
;FirmV_0_7_0.c,224 :: 		{ms20B=0;RemotePulse2=0;}
	CLRF        _ms20B+0 
	CLRF        _RemotePulse2+0 
	GOTO        L_interrupt4
L_interrupt3:
;FirmV_0_7_0.c,226 :: 		ms20B=ms20B+1;
	INCF        _ms20B+0, 1 
L_interrupt4:
;FirmV_0_7_0.c,228 :: 		if(msCounter>=25)
	MOVLW       25
	SUBWF       _msCounter+0, 0 
	BTFSS       STATUS+0, 0 
	GOTO        L_interrupt5
;FirmV_0_7_0.c,230 :: 		msCounter=0;
	CLRF        _msCounter+0 
;FirmV_0_7_0.c,231 :: 		ms500=ms500+1;
	MOVLW       1
	ADDWF       _ms500+0, 1 
	MOVLW       0
	ADDWFC      _ms500+1, 1 
	ADDWFC      _ms500+2, 1 
	ADDWFC      _ms500+3, 1 
;FirmV_0_7_0.c,232 :: 		LCDFlashFlag=!LCDFlashFlag;
	MOVF        _LCDFlashFlag+0, 1 
	MOVLW       1
	BTFSS       STATUS+0, 2 
	MOVLW       0
	MOVWF       _LCDFlashFlag+0 
;FirmV_0_7_0.c,233 :: 		LCDBackLight=0;
	BCF         PORTA+0, 4 
;FirmV_0_7_0.c,234 :: 		Flag500ms=1;
	MOVLW       1
	MOVWF       _Flag500ms+0 
;FirmV_0_7_0.c,235 :: 		}
L_interrupt5:
;FirmV_0_7_0.c,236 :: 		tmr0h=0xF3;
	MOVLW       243
	MOVWF       TMR0H+0 
;FirmV_0_7_0.c,237 :: 		tmr0l=0xCA;
	MOVLW       202
	MOVWF       TMR0L+0 
;FirmV_0_7_0.c,238 :: 		TMR0IF_bit=0;
	BCF         TMR0IF_bit+0, BitPos(TMR0IF_bit+0) 
;FirmV_0_7_0.c,239 :: 		}
L_interrupt0:
;FirmV_0_7_0.c,242 :: 		if(INT1F_bit)
	BTFSS       INT1F_bit+0, BitPos(INT1F_bit+0) 
	GOTO        L_interrupt6
;FirmV_0_7_0.c,244 :: 		if(RemotePulse1==0)
	MOVF        _RemotePulse1+0, 0 
	XORLW       0
	BTFSS       STATUS+0, 2 
	GOTO        L_interrupt7
;FirmV_0_7_0.c,245 :: 		{ RemotePulse1=RemotePulse1+1;ms20A=0;}
	INCF        _RemotePulse1+0, 1 
	CLRF        _ms20A+0 
	GOTO        L_interrupt8
L_interrupt7:
;FirmV_0_7_0.c,247 :: 		{ RemotePulse1=RemotePulse1+1;}
	INCF        _RemotePulse1+0, 1 
L_interrupt8:
;FirmV_0_7_0.c,248 :: 		if(RemotePulse1>=5)
	MOVLW       5
	SUBWF       _RemotePulse1+0, 0 
	BTFSS       STATUS+0, 0 
	GOTO        L_interrupt9
;FirmV_0_7_0.c,249 :: 		if((ms20A>=19)&&(ms20A<=21))
	MOVLW       19
	SUBWF       _ms20A+0, 0 
	BTFSS       STATUS+0, 0 
	GOTO        L_interrupt12
	MOVF        _ms20A+0, 0 
	SUBLW       21
	BTFSS       STATUS+0, 0 
	GOTO        L_interrupt12
L__interrupt836:
;FirmV_0_7_0.c,250 :: 		{RemoteAFlag=1;RemotePulse1=0;}
	MOVLW       1
	MOVWF       _RemoteAFlag+0 
	CLRF        _RemotePulse1+0 
	GOTO        L_interrupt13
L_interrupt12:
;FirmV_0_7_0.c,252 :: 		RemotePulse1=0;
	CLRF        _RemotePulse1+0 
L_interrupt13:
L_interrupt9:
;FirmV_0_7_0.c,253 :: 		INT1IF_bit=0;
	BCF         INT1IF_bit+0, BitPos(INT1IF_bit+0) 
;FirmV_0_7_0.c,254 :: 		}
L_interrupt6:
;FirmV_0_7_0.c,258 :: 		if(INT2IF_bit)
	BTFSS       INT2IF_bit+0, BitPos(INT2IF_bit+0) 
	GOTO        L_interrupt14
;FirmV_0_7_0.c,260 :: 		if(RemotePulse2==0)
	MOVF        _RemotePulse2+0, 0 
	XORLW       0
	BTFSS       STATUS+0, 2 
	GOTO        L_interrupt15
;FirmV_0_7_0.c,261 :: 		{ RemotePulse2=RemotePulse2+1;ms20B=0;}
	INCF        _RemotePulse2+0, 1 
	CLRF        _ms20B+0 
	GOTO        L_interrupt16
L_interrupt15:
;FirmV_0_7_0.c,263 :: 		{ RemotePulse2=RemotePulse2+1;}
	INCF        _RemotePulse2+0, 1 
L_interrupt16:
;FirmV_0_7_0.c,264 :: 		if(RemotePulse2>=5)
	MOVLW       5
	SUBWF       _RemotePulse2+0, 0 
	BTFSS       STATUS+0, 0 
	GOTO        L_interrupt17
;FirmV_0_7_0.c,265 :: 		if((ms20B>=19)&&(ms20B<=21))
	MOVLW       19
	SUBWF       _ms20B+0, 0 
	BTFSS       STATUS+0, 0 
	GOTO        L_interrupt20
	MOVF        _ms20B+0, 0 
	SUBLW       21
	BTFSS       STATUS+0, 0 
	GOTO        L_interrupt20
L__interrupt835:
;FirmV_0_7_0.c,266 :: 		{RemoteBFlag=1;RemotePulse2=0;}
	MOVLW       1
	MOVWF       _RemoteBFlag+0 
	CLRF        _RemotePulse2+0 
	GOTO        L_interrupt21
L_interrupt20:
;FirmV_0_7_0.c,268 :: 		RemotePulse2=0;
	CLRF        _RemotePulse2+0 
L_interrupt21:
L_interrupt17:
;FirmV_0_7_0.c,269 :: 		INT2IF_bit=0;
	BCF         INT2IF_bit+0, BitPos(INT2IF_bit+0) 
;FirmV_0_7_0.c,270 :: 		}
L_interrupt14:
;FirmV_0_7_0.c,275 :: 		if(INT0F_bit==1)
	BTFSS       INT0F_bit+0, BitPos(INT0F_bit+0) 
	GOTO        L_interrupt22
;FirmV_0_7_0.c,277 :: 		ZCCounter=ZCCounter+1;
	INCF        _ZCCounter+0, 1 
;FirmV_0_7_0.c,278 :: 		if(ZCCounter==255)
	MOVF        _ZCCounter+0, 0 
	XORLW       255
	BTFSS       STATUS+0, 2 
	GOTO        L_interrupt23
;FirmV_0_7_0.c,279 :: 		ZCCounter=2;
	MOVLW       2
	MOVWF       _ZCCounter+0 
L_interrupt23:
;FirmV_0_7_0.c,280 :: 		if(ZCCounter%3==1)
	MOVLW       3
	MOVWF       R4 
	MOVF        _ZCCounter+0, 0 
	MOVWF       R0 
	CALL        _Div_8X8_U+0, 0
	MOVF        R8, 0 
	MOVWF       R0 
	MOVF        R0, 0 
	XORLW       1
	BTFSS       STATUS+0, 2 
	GOTO        L_interrupt24
;FirmV_0_7_0.c,282 :: 		if(Motor1Start)
	MOVF        _Motor1Start+0, 1 
	BTFSC       STATUS+0, 2 
	GOTO        L_interrupt25
;FirmV_0_7_0.c,283 :: 		if(Motor1FullSpeed)
	MOVF        _Motor1FullSpeed+0, 1 
	BTFSC       STATUS+0, 2 
	GOTO        L_interrupt26
;FirmV_0_7_0.c,284 :: 		Motor1=1;
	BSF         PORTB+0, 3 
	GOTO        L_interrupt27
L_interrupt26:
;FirmV_0_7_0.c,286 :: 		Motor1=0;
	BCF         PORTB+0, 3 
L_interrupt27:
L_interrupt25:
;FirmV_0_7_0.c,288 :: 		if(Motor2Start)
	MOVF        _Motor2Start+0, 1 
	BTFSC       STATUS+0, 2 
	GOTO        L_interrupt28
;FirmV_0_7_0.c,289 :: 		if(Motor2FullSpeed)
	MOVF        _Motor2FullSpeed+0, 1 
	BTFSC       STATUS+0, 2 
	GOTO        L_interrupt29
;FirmV_0_7_0.c,290 :: 		Motor2=1;
	BSF         PORTB+0, 4 
	GOTO        L_interrupt30
L_interrupt29:
;FirmV_0_7_0.c,292 :: 		Motor2=0;
	BCF         PORTB+0, 4 
L_interrupt30:
L_interrupt28:
;FirmV_0_7_0.c,293 :: 		}
L_interrupt24:
;FirmV_0_7_0.c,294 :: 		if(ZCCounter%3==0)
	MOVLW       3
	MOVWF       R4 
	MOVF        _ZCCounter+0, 0 
	MOVWF       R0 
	CALL        _Div_8X8_U+0, 0
	MOVF        R8, 0 
	MOVWF       R0 
	MOVF        R0, 0 
	XORLW       0
	BTFSS       STATUS+0, 2 
	GOTO        L_interrupt31
;FirmV_0_7_0.c,296 :: 		if(Motor1Start)
	MOVF        _Motor1Start+0, 1 
	BTFSC       STATUS+0, 2 
	GOTO        L_interrupt32
;FirmV_0_7_0.c,297 :: 		Motor1=1;
	BSF         PORTB+0, 3 
L_interrupt32:
;FirmV_0_7_0.c,299 :: 		if(Motor2Start)
	MOVF        _Motor2Start+0, 1 
	BTFSC       STATUS+0, 2 
	GOTO        L_interrupt33
;FirmV_0_7_0.c,300 :: 		Motor2=1;
	BSF         PORTB+0, 4 
L_interrupt33:
;FirmV_0_7_0.c,301 :: 		}
L_interrupt31:
;FirmV_0_7_0.c,302 :: 		INT0F_bit=0;
	BCF         INT0F_bit+0, BitPos(INT0F_bit+0) 
;FirmV_0_7_0.c,303 :: 		}
L_interrupt22:
;FirmV_0_7_0.c,304 :: 		}
L_end_interrupt:
L__interrupt961:
	RETFIE      1
; end of _interrupt

_ResetTaskEvents:

;FirmV_0_7_0.c,317 :: 		void ResetTaskEvents()
;FirmV_0_7_0.c,319 :: 		Events.Task1=0;
	CLRF        _Events+1 
;FirmV_0_7_0.c,320 :: 		Events.Task2=0;
	CLRF        _Events+2 
;FirmV_0_7_0.c,321 :: 		Events.Task3=0;
	CLRF        _Events+3 
;FirmV_0_7_0.c,322 :: 		}
L_end_ResetTaskEvents:
	RETURN      0
; end of _ResetTaskEvents

_Decrypt:

;FirmV_0_7_0.c,331 :: 		void Decrypt()
;FirmV_0_7_0.c,333 :: 		Sipher[0]=Crypto[1][0]+0x0D;
	MOVLW       13
	ADDWF       _crypto+16, 0 
	MOVWF       _Sipher+0 
;FirmV_0_7_0.c,334 :: 		Sipher[1]=Crypto[1][1]+0x0D;
	MOVLW       13
	ADDWF       _crypto+17, 0 
	MOVWF       _Sipher+1 
;FirmV_0_7_0.c,335 :: 		Sipher[2]=Crypto[1][2]+0x0D;
	MOVLW       13
	ADDWF       _crypto+18, 0 
	MOVWF       _Sipher+2 
;FirmV_0_7_0.c,336 :: 		Sipher[3]=Crypto[1][3]-0x26;
	MOVLW       38
	SUBWF       _crypto+19, 0 
	MOVWF       _Sipher+3 
;FirmV_0_7_0.c,337 :: 		Sipher[4]=Crypto[1][4]-0x3C;
	MOVLW       60
	SUBWF       _crypto+20, 0 
	MOVWF       _Sipher+4 
;FirmV_0_7_0.c,338 :: 		Sipher[5]=Crypto[1][5]-0x41;
	MOVLW       65
	SUBWF       _crypto+21, 0 
	MOVWF       _Sipher+5 
;FirmV_0_7_0.c,339 :: 		Sipher[6]=Crypto[1][6]-0x0C;
	MOVLW       12
	SUBWF       _crypto+22, 0 
	MOVWF       _Sipher+6 
;FirmV_0_7_0.c,340 :: 		Sipher[7]=Crypto[1][7]+0x34;
	MOVLW       52
	ADDWF       _crypto+23, 0 
	MOVWF       _Sipher+7 
;FirmV_0_7_0.c,341 :: 		Sipher[8]=Crypto[1][8]-0x01;
	DECF        _crypto+24, 0 
	MOVWF       _Sipher+8 
;FirmV_0_7_0.c,342 :: 		Sipher[9]=Crypto[1][9]-0x1F;
	MOVLW       31
	SUBWF       _crypto+25, 0 
	MOVWF       _Sipher+9 
;FirmV_0_7_0.c,343 :: 		Sipher[10]=Crypto[1][10]-0x3A;
	MOVLW       58
	SUBWF       _crypto+26, 0 
	MOVWF       _Sipher+10 
;FirmV_0_7_0.c,344 :: 		Sipher[11]=Crypto[1][11]-0x3B;
	MOVLW       59
	SUBWF       _crypto+27, 0 
	MOVWF       _Sipher+11 
;FirmV_0_7_0.c,345 :: 		Sipher[12]=Crypto[1][12]-0x3C;
	MOVLW       60
	SUBWF       _crypto+28, 0 
	MOVWF       _Sipher+12 
;FirmV_0_7_0.c,346 :: 		Sipher[13]=Crypto[1][13]+0x0D;
	MOVLW       13
	ADDWF       _crypto+29, 0 
	MOVWF       _Sipher+13 
;FirmV_0_7_0.c,347 :: 		Sipher[14]=Crypto[1][14]+0x0D;
	MOVLW       13
	ADDWF       _crypto+30, 0 
	MOVWF       _Sipher+14 
;FirmV_0_7_0.c,348 :: 		Sipher[15]=Crypto[1][15]+0x0D;
	MOVLW       13
	ADDWF       _crypto+31, 0 
	MOVWF       _Sipher+15 
;FirmV_0_7_0.c,349 :: 		}
L_end_Decrypt:
	RETURN      0
; end of _Decrypt

_Logger:

;FirmV_0_7_0.c,361 :: 		void Logger(char* text, char TimeStampFlag)
;FirmV_0_7_0.c,364 :: 		if(TimeStampFlag)
	MOVF        FARG_Logger_TimeStampFlag+0, 1 
	BTFSC       STATUS+0, 2 
	GOTO        L_Logger34
;FirmV_0_7_0.c,366 :: 		longwordtostrwithzeros(ms500,time);
	MOVF        _ms500+0, 0 
	MOVWF       FARG_LongWordToStrWithZeros_input+0 
	MOVF        _ms500+1, 0 
	MOVWF       FARG_LongWordToStrWithZeros_input+1 
	MOVF        _ms500+2, 0 
	MOVWF       FARG_LongWordToStrWithZeros_input+2 
	MOVF        _ms500+3, 0 
	MOVWF       FARG_LongWordToStrWithZeros_input+3 
	MOVLW       Logger_time_L0+0
	MOVWF       FARG_LongWordToStrWithZeros_output+0 
	MOVLW       hi_addr(Logger_time_L0+0)
	MOVWF       FARG_LongWordToStrWithZeros_output+1 
	CALL        _LongWordToStrWithZeros+0, 0
;FirmV_0_7_0.c,367 :: 		uart_write_text(time);
	MOVLW       Logger_time_L0+0
	MOVWF       FARG_UART_Write_Text_uart_text+0 
	MOVLW       hi_addr(Logger_time_L0+0)
	MOVWF       FARG_UART_Write_Text_uart_text+1 
	CALL        _UART_Write_Text+0, 0
;FirmV_0_7_0.c,368 :: 		uart1_write_text(": ");
	MOVLW       ?lstr1_FirmV_0_7_0+0
	MOVWF       FARG_UART1_Write_Text_uart_text+0 
	MOVLW       hi_addr(?lstr1_FirmV_0_7_0+0)
	MOVWF       FARG_UART1_Write_Text_uart_text+1 
	CALL        _UART1_Write_Text+0, 0
;FirmV_0_7_0.c,369 :: 		}
L_Logger34:
;FirmV_0_7_0.c,370 :: 		uart1_write_text(text);
	MOVF        FARG_Logger_text+0, 0 
	MOVWF       FARG_UART1_Write_Text_uart_text+0 
	MOVF        FARG_Logger_text+1, 0 
	MOVWF       FARG_UART1_Write_Text_uart_text+1 
	CALL        _UART1_Write_Text+0, 0
;FirmV_0_7_0.c,371 :: 		uart1_write(0x0D);
	MOVLW       13
	MOVWF       FARG_UART1_Write_data_+0 
	CALL        _UART1_Write+0, 0
;FirmV_0_7_0.c,372 :: 		uart1_write(0x0A);
	MOVLW       10
	MOVWF       FARG_UART1_Write_data_+0 
	CALL        _UART1_Write+0, 0
;FirmV_0_7_0.c,373 :: 		}
L_end_Logger:
	RETURN      0
; end of _Logger

_main:

;FirmV_0_7_0.c,390 :: 		void main() {
;FirmV_0_7_0.c,393 :: 		PhotocellRel=1;
	BSF         PORTC+0, 5 
;FirmV_0_7_0.c,395 :: 		Init();
	CALL        _Init+0, 0
;FirmV_0_7_0.c,397 :: 		Decrypt();
	CALL        _Decrypt+0, 0
;FirmV_0_7_0.c,399 :: 		memcpy(LCDLine1,FirmwareVersion,16);
	MOVLW       _LCDLine1+0
	MOVWF       FARG_memcpy_d1+0 
	MOVLW       hi_addr(_LCDLine1+0)
	MOVWF       FARG_memcpy_d1+1 
	MOVLW       ?lstr2_FirmV_0_7_0+0
	MOVWF       FARG_memcpy_s1+0 
	MOVLW       hi_addr(?lstr2_FirmV_0_7_0+0)
	MOVWF       FARG_memcpy_s1+1 
	MOVLW       16
	MOVWF       FARG_memcpy_n+0 
	MOVLW       0
	MOVWF       FARG_memcpy_n+1 
	CALL        _memcpy+0, 0
;FirmV_0_7_0.c,400 :: 		LCDLines=2;
	MOVLW       2
	MOVWF       _LCDLines+0 
;FirmV_0_7_0.c,401 :: 		LCDUpdateFlag=1;
	MOVLW       1
	MOVWF       _LCDUpdateFlag+0 
;FirmV_0_7_0.c,402 :: 		LCDUpdater();
	CALL        _LCDUpdater+0, 0
;FirmV_0_7_0.c,403 :: 		delay_ms(1000);
	MOVLW       51
	MOVWF       R11, 0
	MOVLW       187
	MOVWF       R12, 0
	MOVLW       223
	MOVWF       R13, 0
L_main35:
	DECFSZ      R13, 1, 1
	BRA         L_main35
	DECFSZ      R12, 1, 1
	BRA         L_main35
	DECFSZ      R11, 1, 1
	BRA         L_main35
	NOP
	NOP
;FirmV_0_7_0.c,406 :: 		Buzzer=1;
	BSF         PORTB+0, 7 
;FirmV_0_7_0.c,407 :: 		Logger("Start ...",1);
	MOVLW       ?lstr3_FirmV_0_7_0+0
	MOVWF       FARG_Logger_text+0 
	MOVLW       hi_addr(?lstr3_FirmV_0_7_0+0)
	MOVWF       FARG_Logger_text+1 
	MOVLW       1
	MOVWF       FARG_Logger_TimeStampFlag+0 
	CALL        _Logger+0, 0
;FirmV_0_7_0.c,408 :: 		memcpy(LCDLine1,Sipher,16);
	MOVLW       _LCDLine1+0
	MOVWF       FARG_memcpy_d1+0 
	MOVLW       hi_addr(_LCDLine1+0)
	MOVWF       FARG_memcpy_d1+1 
	MOVLW       _Sipher+0
	MOVWF       FARG_memcpy_s1+0 
	MOVLW       hi_addr(_Sipher+0)
	MOVWF       FARG_memcpy_s1+1 
	MOVLW       16
	MOVWF       FARG_memcpy_n+0 
	MOVLW       0
	MOVWF       FARG_memcpy_n+1 
	CALL        _memcpy+0, 0
;FirmV_0_7_0.c,409 :: 		LCDLines=1;
	MOVLW       1
	MOVWF       _LCDLines+0 
;FirmV_0_7_0.c,410 :: 		LCDUpdateFlag=1;
	MOVLW       1
	MOVWF       _LCDUpdateFlag+0 
;FirmV_0_7_0.c,411 :: 		Buzzer=0;
	BCF         PORTB+0, 7 
;FirmV_0_7_0.c,413 :: 		while(1)
L_main36:
;FirmV_0_7_0.c,415 :: 		asm CLRWDT;
	CLRWDT
;FirmV_0_7_0.c,417 :: 		if(Flag20ms==1)
	MOVF        _Flag20ms+0, 0 
	XORLW       1
	BTFSS       STATUS+0, 2 
	GOTO        L_main38
;FirmV_0_7_0.c,419 :: 		if((Buzzer==1)&&(BuzzCounter<100))
	BTFSS       PORTB+0, 7 
	GOTO        L_main41
	MOVLW       100
	SUBWF       _BuzzCounter+0, 0 
	BTFSC       STATUS+0, 0 
	GOTO        L_main41
L__main842:
;FirmV_0_7_0.c,420 :: 		{BuzzCounter=BuzzCounter+1;}
	INCF        _BuzzCounter+0, 1 
L_main41:
;FirmV_0_7_0.c,422 :: 		if((Buzzer==1)&&(LongBuzzFlag))
	BTFSS       PORTB+0, 7 
	GOTO        L_main44
	MOVF        _LongBuzzFlag+0, 1 
	BTFSC       STATUS+0, 2 
	GOTO        L_main44
L__main841:
;FirmV_0_7_0.c,423 :: 		if(BuzzCounter>=25){BuzzFlag=0;LongBuzzFlag=0;Buzzer=0;}
	MOVLW       25
	SUBWF       _BuzzCounter+0, 0 
	BTFSS       STATUS+0, 0 
	GOTO        L_main45
	CLRF        _BuzzFlag+0 
	CLRF        _LongBuzzFlag+0 
	BCF         PORTB+0, 7 
L_main45:
L_main44:
;FirmV_0_7_0.c,425 :: 		if((Buzzer==1)&&(BuzzFlag)&&(!LongBuzzFlag))
	BTFSS       PORTB+0, 7 
	GOTO        L_main48
	MOVF        _BuzzFlag+0, 1 
	BTFSC       STATUS+0, 2 
	GOTO        L_main48
	MOVF        _LongBuzzFlag+0, 1 
	BTFSS       STATUS+0, 2 
	GOTO        L_main48
L__main840:
;FirmV_0_7_0.c,426 :: 		{BuzzFlag=0;LongBuzzFlag=0;Buzzer=0;}
	CLRF        _BuzzFlag+0 
	CLRF        _LongBuzzFlag+0 
	BCF         PORTB+0, 7 
L_main48:
;FirmV_0_7_0.c,428 :: 		if(((BuzzFlag)||(LongBuzzFlag))&&(!Buzzer))
	MOVF        _BuzzFlag+0, 1 
	BTFSS       STATUS+0, 2 
	GOTO        L__main839
	MOVF        _LongBuzzFlag+0, 1 
	BTFSS       STATUS+0, 2 
	GOTO        L__main839
	GOTO        L_main53
L__main839:
	BTFSC       PORTB+0, 7 
	GOTO        L_main53
L__main838:
;FirmV_0_7_0.c,429 :: 		{Buzzer=1;BuzzCounter=0;}
	BSF         PORTB+0, 7 
	CLRF        _BuzzCounter+0 
L_main53:
;FirmV_0_7_0.c,432 :: 		if(DebouncingDelayPress<DebouncingFix)
	MOVLW       5
	SUBWF       _DebouncingDelayPress+0, 0 
	BTFSC       STATUS+0, 0 
	GOTO        L_main54
;FirmV_0_7_0.c,433 :: 		DebouncingDelayPress=DebouncingDelayPress+1;
	INCF        _DebouncingDelayPress+0, 1 
L_main54:
;FirmV_0_7_0.c,434 :: 		if(DebouncingDelayUnpress<DebouncingFix)
	MOVLW       5
	SUBWF       _DebouncingDelayUnpress+0, 0 
	BTFSC       STATUS+0, 0 
	GOTO        L_main55
;FirmV_0_7_0.c,435 :: 		DebouncingDelayUnpress=DebouncingDelayUnpress+1;
	INCF        _DebouncingDelayUnpress+0, 1 
L_main55:
;FirmV_0_7_0.c,437 :: 		LCDUpdater();
	CALL        _LCDUpdater+0, 0
;FirmV_0_7_0.c,438 :: 		if(KeyFlag<200)
	MOVLW       200
	SUBWF       _KeyFlag+0, 0 
	BTFSC       STATUS+0, 0 
	GOTO        L_main56
;FirmV_0_7_0.c,439 :: 		KeyFlag=KeyFlag+1;
	INCF        _KeyFlag+0, 1 
L_main56:
;FirmV_0_7_0.c,440 :: 		Flag20ms=0;
	CLRF        _Flag20ms+0 
;FirmV_0_7_0.c,441 :: 		}
L_main38:
;FirmV_0_7_0.c,443 :: 		if(Flag500ms==1)
	MOVF        _Flag500ms+0, 0 
	XORLW       1
	BTFSS       STATUS+0, 2 
	GOTO        L_main57
;FirmV_0_7_0.c,445 :: 		AutoClosePause();
	CALL        _AutoClosePause+0, 0
;FirmV_0_7_0.c,447 :: 		if(KeyNoiseEliminator<NoiseEliminatorTreshold)
	MOVLW       3
	SUBWF       _KeyNoiseEliminator+0, 0 
	BTFSC       STATUS+0, 0 
	GOTO        L_main58
;FirmV_0_7_0.c,448 :: 		KeyNoiseEliminator=KeyNoiseEliminator+1;
	INCF        _KeyNoiseEliminator+0, 1 
L_main58:
;FirmV_0_7_0.c,450 :: 		if(FlashFlag)
	MOVF        _FlashFlag+0, 1 
	BTFSC       STATUS+0, 2 
	GOTO        L_main59
;FirmV_0_7_0.c,451 :: 		FlasherLamp=!FlasherLamp;// Buzzer=!Buzzer;
	BTG         PORTB+0, 5 
	GOTO        L_main60
L_main59:
;FirmV_0_7_0.c,453 :: 		if((!BuzzFlag)&&(!LongBuzzFlag))FlasherLamp=0; // Buzzer=0;
	MOVF        _BuzzFlag+0, 1 
	BTFSS       STATUS+0, 2 
	GOTO        L_main63
	MOVF        _LongBuzzFlag+0, 1 
	BTFSS       STATUS+0, 2 
	GOTO        L_main63
L__main837:
	BCF         PORTB+0, 5 
L_main63:
L_main60:
;FirmV_0_7_0.c,454 :: 		ResetTaskEvents();
	CALL        _ResetTaskEvents+0, 0
;FirmV_0_7_0.c,455 :: 		TaskManager();
	CALL        _TaskManager+0, 0
;FirmV_0_7_0.c,456 :: 		TorqueLogger();
	CALL        _TorqueLogger+0, 0
;FirmV_0_7_0.c,457 :: 		Flag500ms=0;
	CLRF        _Flag500ms+0 
;FirmV_0_7_0.c,458 :: 		}
L_main57:
;FirmV_0_7_0.c,459 :: 		EventHandler();
	CALL        _EventHandler+0, 0
;FirmV_0_7_0.c,460 :: 		StateManager();
	CALL        _StateManager+0, 0
;FirmV_0_7_0.c,461 :: 		}
	GOTO        L_main36
;FirmV_0_7_0.c,463 :: 		}
L_end_main:
	GOTO        $+0
; end of _main

_StateManager:

;FirmV_0_7_0.c,488 :: 		void StateManager()
;FirmV_0_7_0.c,491 :: 		switch(State)
	GOTO        L_StateManager64
;FirmV_0_7_0.c,494 :: 		case 0: State1(); break;
L_StateManager66:
	CALL        _State1+0, 0
	GOTO        L_StateManager65
;FirmV_0_7_0.c,496 :: 		case 1: State1(); break;
L_StateManager67:
	CALL        _State1+0, 0
	GOTO        L_StateManager65
;FirmV_0_7_0.c,498 :: 		case 2: State2(); break;
L_StateManager68:
	CALL        _State2+0, 0
	GOTO        L_StateManager65
;FirmV_0_7_0.c,500 :: 		case 3: State3(); break;
L_StateManager69:
	CALL        _State3+0, 0
	GOTO        L_StateManager65
;FirmV_0_7_0.c,502 :: 		case 4: State4(); break;
L_StateManager70:
	CALL        _State4+0, 0
	GOTO        L_StateManager65
;FirmV_0_7_0.c,504 :: 		case 5: State5(); break;
L_StateManager71:
	CALL        _State5+0, 0
	GOTO        L_StateManager65
;FirmV_0_7_0.c,506 :: 		case 6: State6(); break;
L_StateManager72:
	CALL        _State6+0, 0
	GOTO        L_StateManager65
;FirmV_0_7_0.c,508 :: 		case 7: State7(); break;
L_StateManager73:
	CALL        _State7+0, 0
	GOTO        L_StateManager65
;FirmV_0_7_0.c,510 :: 		case 8: State8(); break;
L_StateManager74:
	CALL        _State8+0, 0
	GOTO        L_StateManager65
;FirmV_0_7_0.c,512 :: 		case 10:State00(); break;
L_StateManager75:
	CALL        _State00+0, 0
	GOTO        L_StateManager65
;FirmV_0_7_0.c,514 :: 		case 100:Menu0(); break;
L_StateManager76:
	CALL        _Menu0+0, 0
	GOTO        L_StateManager65
;FirmV_0_7_0.c,516 :: 		case 101:Menu1(); break;
L_StateManager77:
	CALL        _Menu1+0, 0
	GOTO        L_StateManager65
;FirmV_0_7_0.c,518 :: 		case 102:Menu2(); break;
L_StateManager78:
	CALL        _Menu2+0, 0
	GOTO        L_StateManager65
;FirmV_0_7_0.c,520 :: 		case 103:Menu3(); break;
L_StateManager79:
	CALL        _Menu3+0, 0
	GOTO        L_StateManager65
;FirmV_0_7_0.c,522 :: 		case 200:LearnAuto(); break;
L_StateManager80:
	CALL        _LearnAuto+0, 0
	GOTO        L_StateManager65
;FirmV_0_7_0.c,524 :: 		case 201:LearnManual(); break;
L_StateManager81:
	CALL        _LearnManual+0, 0
	GOTO        L_StateManager65
;FirmV_0_7_0.c,526 :: 		case 250:About(); break;
L_StateManager82:
	CALL        _About+0, 0
	GOTO        L_StateManager65
;FirmV_0_7_0.c,528 :: 		}
L_StateManager64:
	MOVF        _State+0, 0 
	XORLW       0
	BTFSC       STATUS+0, 2 
	GOTO        L_StateManager66
	MOVF        _State+0, 0 
	XORLW       1
	BTFSC       STATUS+0, 2 
	GOTO        L_StateManager67
	MOVF        _State+0, 0 
	XORLW       2
	BTFSC       STATUS+0, 2 
	GOTO        L_StateManager68
	MOVF        _State+0, 0 
	XORLW       3
	BTFSC       STATUS+0, 2 
	GOTO        L_StateManager69
	MOVF        _State+0, 0 
	XORLW       4
	BTFSC       STATUS+0, 2 
	GOTO        L_StateManager70
	MOVF        _State+0, 0 
	XORLW       5
	BTFSC       STATUS+0, 2 
	GOTO        L_StateManager71
	MOVF        _State+0, 0 
	XORLW       6
	BTFSC       STATUS+0, 2 
	GOTO        L_StateManager72
	MOVF        _State+0, 0 
	XORLW       7
	BTFSC       STATUS+0, 2 
	GOTO        L_StateManager73
	MOVF        _State+0, 0 
	XORLW       8
	BTFSC       STATUS+0, 2 
	GOTO        L_StateManager74
	MOVF        _State+0, 0 
	XORLW       10
	BTFSC       STATUS+0, 2 
	GOTO        L_StateManager75
	MOVF        _State+0, 0 
	XORLW       100
	BTFSC       STATUS+0, 2 
	GOTO        L_StateManager76
	MOVF        _State+0, 0 
	XORLW       101
	BTFSC       STATUS+0, 2 
	GOTO        L_StateManager77
	MOVF        _State+0, 0 
	XORLW       102
	BTFSC       STATUS+0, 2 
	GOTO        L_StateManager78
	MOVF        _State+0, 0 
	XORLW       103
	BTFSC       STATUS+0, 2 
	GOTO        L_StateManager79
	MOVF        _State+0, 0 
	XORLW       200
	BTFSC       STATUS+0, 2 
	GOTO        L_StateManager80
	MOVF        _State+0, 0 
	XORLW       201
	BTFSC       STATUS+0, 2 
	GOTO        L_StateManager81
	MOVF        _State+0, 0 
	XORLW       250
	BTFSC       STATUS+0, 2 
	GOTO        L_StateManager82
L_StateManager65:
;FirmV_0_7_0.c,529 :: 		}
L_end_StateManager:
	RETURN      0
; end of _StateManager

_StateTest:

;FirmV_0_7_0.c,533 :: 		void StateTest()
;FirmV_0_7_0.c,535 :: 		if (Events.Photocell==1)
	MOVF        _Events+6, 0 
	XORLW       1
	BTFSS       STATUS+0, 2 
	GOTO        L_StateTest83
;FirmV_0_7_0.c,536 :: 		LCDLine1[0]='1';
	MOVLW       49
	MOVWF       _LCDLine1+0 
	GOTO        L_StateTest84
L_StateTest83:
;FirmV_0_7_0.c,538 :: 		LCDLine1[0]='0';
	MOVLW       48
	MOVWF       _LCDLine1+0 
L_StateTest84:
;FirmV_0_7_0.c,540 :: 		LCDUpdateFlag=1;
	MOVLW       1
	MOVWF       _LCDUpdateFlag+0 
;FirmV_0_7_0.c,542 :: 		}
L_end_StateTest:
	RETURN      0
; end of _StateTest

_State00:

;FirmV_0_7_0.c,546 :: 		void State00()
;FirmV_0_7_0.c,551 :: 		Flasher=1;
	BSF         PORTD+0, 7 
;FirmV_0_7_0.c,552 :: 		FlashFlag=1;
	MOVLW       1
	MOVWF       _FlashFlag+0 
;FirmV_0_7_0.c,553 :: 		StartMotor(1,_Close);
	MOVLW       1
	MOVWF       FARG_StartMotor+0 
	CLRF        FARG_StartMotor+0 
	CALL        _StartMotor+0, 0
;FirmV_0_7_0.c,554 :: 		StartMotor(2,_Close);
	MOVLW       2
	MOVWF       FARG_StartMotor+0 
	CLRF        FARG_StartMotor+0 
	CALL        _StartMotor+0, 0
;FirmV_0_7_0.c,556 :: 		if(Events.Remote.b0==1)
	BTFSS       _Events+4, 0 
	GOTO        L_State0085
;FirmV_0_7_0.c,557 :: 		{Flasher=0;FlashFlag=0;StopMotor(1);StopMotor(2);
	BCF         PORTD+0, 7 
	CLRF        _FlashFlag+0 
	MOVLW       1
	MOVWF       FARG_StopMotor+0 
	CALL        _StopMotor+0, 0
	MOVLW       2
	MOVWF       FARG_StopMotor+0 
	CALL        _StopMotor+0, 0
;FirmV_0_7_0.c,558 :: 		State=1;                }
	MOVLW       1
	MOVWF       _State+0 
L_State0085:
;FirmV_0_7_0.c,559 :: 		}
L_end_State00:
	RETURN      0
; end of _State00

_State1:

;FirmV_0_7_0.c,568 :: 		void State1()
;FirmV_0_7_0.c,570 :: 		char delay=3;
	MOVLW       3
	MOVWF       State1_delay_L0+0 
	CLRF        State1_AutoCloseTemp_L0+0 
	CLRF        State1_AutoCloseTemp_L0+1 
	CLRF        State1_AutoCloseTemp_L0+2 
	CLRF        State1_AutoCloseTemp_L0+3 
;FirmV_0_7_0.c,572 :: 		Flasher=0;
	BCF         PORTD+0, 7 
;FirmV_0_7_0.c,573 :: 		FlashFlag=0;
	CLRF        _FlashFlag+0 
;FirmV_0_7_0.c,575 :: 		if(Events.Keys==2)
	MOVF        _Events+0, 0 
	XORLW       2
	BTFSS       STATUS+0, 2 
	GOTO        L_State186
;FirmV_0_7_0.c,576 :: 		{State=100;MenuPointer=0;}
	MOVLW       100
	MOVWF       _State+0 
	CLRF        _MenuPointer+0 
L_State186:
;FirmV_0_7_0.c,578 :: 		ActiveDoors=3-Events.Remote;
	MOVF        _Events+4, 0 
	SUBLW       3
	MOVWF       _ActiveDoors+0 
;FirmV_0_7_0.c,582 :: 		if(Events.Remote!=0)
	MOVF        _Events+4, 0 
	XORLW       0
	BTFSC       STATUS+0, 2 
	GOTO        L_State187
;FirmV_0_7_0.c,585 :: 		ClearTasks(9);
	MOVLW       9
	MOVWF       FARG_ClearTasks+0 
	CALL        _ClearTasks+0, 0
;FirmV_0_7_0.c,586 :: 		Flasher=1;
	BSF         PORTD+0, 7 
;FirmV_0_7_0.c,587 :: 		FlashFlag=1;
	MOVLW       1
	MOVWF       _FlashFlag+0 
;FirmV_0_7_0.c,588 :: 		if(Lockenable)
	MOVF        _LockEnable+0, 1 
	BTFSC       STATUS+0, 2 
	GOTO        L_State188
;FirmV_0_7_0.c,589 :: 		AddTask(ms500+1,12);
	MOVLW       1
	ADDWF       _ms500+0, 0 
	MOVWF       FARG_AddTask+0 
	MOVLW       0
	ADDWFC      _ms500+1, 0 
	MOVWF       FARG_AddTask+1 
	MOVLW       0
	ADDWFC      _ms500+2, 0 
	MOVWF       FARG_AddTask+2 
	MOVLW       0
	ADDWFC      _ms500+3, 0 
	MOVWF       FARG_AddTask+3 
	MOVLW       12
	MOVWF       FARG_AddTask+0 
	CALL        _AddTask+0, 0
L_State188:
;FirmV_0_7_0.c,590 :: 		temp=ms500+delay;
	MOVF        State1_delay_L0+0, 0 
	ADDWF       _ms500+0, 0 
	MOVWF       R0 
	MOVLW       0
	ADDWFC      _ms500+1, 0 
	MOVWF       R1 
	MOVLW       0
	ADDWFC      _ms500+2, 0 
	MOVWF       R2 
	MOVLW       0
	ADDWFC      _ms500+3, 0 
	MOVWF       R3 
	MOVF        R0, 0 
	MOVWF       _temp+0 
	MOVF        R1, 0 
	MOVWF       _temp+1 
	MOVF        R2, 0 
	MOVWF       _temp+2 
	MOVF        R3, 0 
	MOVWF       _temp+3 
;FirmV_0_7_0.c,591 :: 		AddTask(temp,1);
	MOVF        R0, 0 
	MOVWF       FARG_AddTask+0 
	MOVF        R1, 0 
	MOVWF       FARG_AddTask+1 
	MOVF        R2, 0 
	MOVWF       FARG_AddTask+2 
	MOVF        R3, 0 
	MOVWF       FARG_AddTask+3 
	MOVLW       1
	MOVWF       FARG_AddTask+0 
	CALL        _AddTask+0, 0
;FirmV_0_7_0.c,592 :: 		if(OpenSoftStartTime!=0)
	MOVF        _OpenSoftStartTime+0, 0 
	XORLW       0
	BTFSC       STATUS+0, 2 
	GOTO        L_State189
;FirmV_0_7_0.c,593 :: 		{AddTask(temp,7); M1isSlow=1;}//speed down
	MOVF        _temp+0, 0 
	MOVWF       FARG_AddTask+0 
	MOVF        _temp+1, 0 
	MOVWF       FARG_AddTask+1 
	MOVF        _temp+2, 0 
	MOVWF       FARG_AddTask+2 
	MOVF        _temp+3, 0 
	MOVWF       FARG_AddTask+3 
	MOVLW       7
	MOVWF       FARG_AddTask+0 
	CALL        _AddTask+0, 0
	MOVLW       1
	MOVWF       _M1isSlow+0 
	GOTO        L_State190
L_State189:
;FirmV_0_7_0.c,595 :: 		{AddTask(temp,5); M1isSlow=0;}//speed up
	MOVF        _temp+0, 0 
	MOVWF       FARG_AddTask+0 
	MOVF        _temp+1, 0 
	MOVWF       FARG_AddTask+1 
	MOVF        _temp+2, 0 
	MOVWF       FARG_AddTask+2 
	MOVF        _temp+3, 0 
	MOVWF       FARG_AddTask+3 
	MOVLW       5
	MOVWF       FARG_AddTask+0 
	CALL        _AddTask+0, 0
	CLRF        _M1isSlow+0 
L_State190:
;FirmV_0_7_0.c,596 :: 		temp=ms500+OpenSoftStartTime+OverloadDelay+delay;
	MOVF        _OpenSoftStartTime+0, 0 
	ADDWF       _ms500+0, 0 
	MOVWF       R0 
	MOVLW       0
	ADDWFC      _ms500+1, 0 
	MOVWF       R1 
	MOVLW       0
	ADDWFC      _ms500+2, 0 
	MOVWF       R2 
	MOVLW       0
	ADDWFC      _ms500+3, 0 
	MOVWF       R3 
	MOVLW       6
	ADDWF       R0, 1 
	MOVLW       0
	ADDWFC      R1, 1 
	ADDWFC      R2, 1 
	ADDWFC      R3, 1 
	MOVF        State1_delay_L0+0, 0 
	ADDWF       R0, 1 
	MOVLW       0
	ADDWFC      R1, 1 
	ADDWFC      R2, 1 
	ADDWFC      R3, 1 
	MOVF        R0, 0 
	MOVWF       _temp+0 
	MOVF        R1, 0 
	MOVWF       _temp+1 
	MOVF        R2, 0 
	MOVWF       _temp+2 
	MOVF        R3, 0 
	MOVWF       _temp+3 
;FirmV_0_7_0.c,597 :: 		AddTask(temp,10); //overload check
	MOVF        R0, 0 
	MOVWF       FARG_AddTask+0 
	MOVF        R1, 0 
	MOVWF       FARG_AddTask+1 
	MOVF        R2, 0 
	MOVWF       FARG_AddTask+2 
	MOVF        R3, 0 
	MOVWF       FARG_AddTask+3 
	MOVLW       10
	MOVWF       FARG_AddTask+0 
	CALL        _AddTask+0, 0
;FirmV_0_7_0.c,598 :: 		temp=ms500+OpenSoftStartTime+delay;
	MOVF        _OpenSoftStartTime+0, 0 
	ADDWF       _ms500+0, 0 
	MOVWF       R0 
	MOVLW       0
	ADDWFC      _ms500+1, 0 
	MOVWF       R1 
	MOVLW       0
	ADDWFC      _ms500+2, 0 
	MOVWF       R2 
	MOVLW       0
	ADDWFC      _ms500+3, 0 
	MOVWF       R3 
	MOVF        State1_delay_L0+0, 0 
	ADDWF       R0, 1 
	MOVLW       0
	ADDWFC      R1, 1 
	ADDWFC      R2, 1 
	ADDWFC      R3, 1 
	MOVF        R0, 0 
	MOVWF       _temp+0 
	MOVF        R1, 0 
	MOVWF       _temp+1 
	MOVF        R2, 0 
	MOVWF       _temp+2 
	MOVF        R3, 0 
	MOVWF       _temp+3 
;FirmV_0_7_0.c,599 :: 		AddTask(temp,5);//Speed up after soft start
	MOVF        R0, 0 
	MOVWF       FARG_AddTask+0 
	MOVF        R1, 0 
	MOVWF       FARG_AddTask+1 
	MOVF        R2, 0 
	MOVWF       FARG_AddTask+2 
	MOVF        R3, 0 
	MOVWF       FARG_AddTask+3 
	MOVLW       5
	MOVWF       FARG_AddTask+0 
	CALL        _AddTask+0, 0
;FirmV_0_7_0.c,600 :: 		if(OpenSoftStopTime!=0)
	MOVF        _OpenSoftStopTime+0, 0 
	XORLW       0
	BTFSC       STATUS+0, 2 
	GOTO        L_State191
;FirmV_0_7_0.c,601 :: 		{temp=ms500+Door1OpenTime-OpenSoftStopTime+delay;AddTask(temp,7);}//Speed down for soft stop
	MOVF        _Door1OpenTime+0, 0 
	ADDWF       _ms500+0, 0 
	MOVWF       R0 
	MOVLW       0
	ADDWFC      _ms500+1, 0 
	MOVWF       R1 
	MOVLW       0
	ADDWFC      _ms500+2, 0 
	MOVWF       R2 
	MOVLW       0
	ADDWFC      _ms500+3, 0 
	MOVWF       R3 
	MOVF        _OpenSoftStopTime+0, 0 
	SUBWF       R0, 1 
	MOVLW       0
	SUBWFB      R1, 1 
	SUBWFB      R2, 1 
	SUBWFB      R3, 1 
	MOVF        State1_delay_L0+0, 0 
	ADDWF       R0, 1 
	MOVLW       0
	ADDWFC      R1, 1 
	ADDWFC      R2, 1 
	ADDWFC      R3, 1 
	MOVF        R0, 0 
	MOVWF       _temp+0 
	MOVF        R1, 0 
	MOVWF       _temp+1 
	MOVF        R2, 0 
	MOVWF       _temp+2 
	MOVF        R3, 0 
	MOVWF       _temp+3 
	MOVF        R0, 0 
	MOVWF       FARG_AddTask+0 
	MOVF        R1, 0 
	MOVWF       FARG_AddTask+1 
	MOVF        R2, 0 
	MOVWF       FARG_AddTask+2 
	MOVF        R3, 0 
	MOVWF       FARG_AddTask+3 
	MOVLW       7
	MOVWF       FARG_AddTask+0 
	CALL        _AddTask+0, 0
L_State191:
;FirmV_0_7_0.c,602 :: 		temp=ms500+Door1OpenTime+delay;
	MOVF        _Door1OpenTime+0, 0 
	ADDWF       _ms500+0, 0 
	MOVWF       R0 
	MOVLW       0
	ADDWFC      _ms500+1, 0 
	MOVWF       R1 
	MOVLW       0
	ADDWFC      _ms500+2, 0 
	MOVWF       R2 
	MOVLW       0
	ADDWFC      _ms500+3, 0 
	MOVWF       R3 
	MOVF        State1_delay_L0+0, 0 
	ADDWF       R0, 1 
	MOVLW       0
	ADDWFC      R1, 1 
	ADDWFC      R2, 1 
	ADDWFC      R3, 1 
	MOVF        R0, 0 
	MOVWF       _temp+0 
	MOVF        R1, 0 
	MOVWF       _temp+1 
	MOVF        R2, 0 
	MOVWF       _temp+2 
	MOVF        R3, 0 
	MOVWF       _temp+3 
;FirmV_0_7_0.c,603 :: 		AddTask(temp,3);//Stop motor
	MOVF        R0, 0 
	MOVWF       FARG_AddTask+0 
	MOVF        R1, 0 
	MOVWF       FARG_AddTask+1 
	MOVF        R2, 0 
	MOVWF       FARG_AddTask+2 
	MOVF        R3, 0 
	MOVWF       FARG_AddTask+3 
	MOVLW       3
	MOVWF       FARG_AddTask+0 
	CALL        _AddTask+0, 0
;FirmV_0_7_0.c,604 :: 		AutoCloseTemp=ms500+Door1OpenTime+delay;
	MOVF        _Door1OpenTime+0, 0 
	ADDWF       _ms500+0, 0 
	MOVWF       State1_AutoCloseTemp_L0+0 
	MOVLW       0
	ADDWFC      _ms500+1, 0 
	MOVWF       State1_AutoCloseTemp_L0+1 
	MOVLW       0
	ADDWFC      _ms500+2, 0 
	MOVWF       State1_AutoCloseTemp_L0+2 
	MOVLW       0
	ADDWFC      _ms500+3, 0 
	MOVWF       State1_AutoCloseTemp_L0+3 
	MOVF        State1_delay_L0+0, 0 
	ADDWF       State1_AutoCloseTemp_L0+0, 1 
	MOVLW       0
	ADDWFC      State1_AutoCloseTemp_L0+1, 1 
	ADDWFC      State1_AutoCloseTemp_L0+2, 1 
	ADDWFC      State1_AutoCloseTemp_L0+3, 1 
;FirmV_0_7_0.c,606 :: 		if((Door2OpenTime!=0)&&(ActiveDoors==2))
	MOVF        _Door2OpenTime+0, 0 
	XORLW       0
	BTFSC       STATUS+0, 2 
	GOTO        L_State194
	MOVF        _ActiveDoors+0, 0 
	XORLW       2
	BTFSS       STATUS+0, 2 
	GOTO        L_State194
L__State1843:
;FirmV_0_7_0.c,608 :: 		temp=ms500+ActionTimeDiff+delay;
	MOVF        _ActionTimeDiff+0, 0 
	ADDWF       _ms500+0, 0 
	MOVWF       R0 
	MOVLW       0
	ADDWFC      _ms500+1, 0 
	MOVWF       R1 
	MOVLW       0
	ADDWFC      _ms500+2, 0 
	MOVWF       R2 
	MOVLW       0
	ADDWFC      _ms500+3, 0 
	MOVWF       R3 
	MOVF        State1_delay_L0+0, 0 
	ADDWF       R0, 1 
	MOVLW       0
	ADDWFC      R1, 1 
	ADDWFC      R2, 1 
	ADDWFC      R3, 1 
	MOVF        R0, 0 
	MOVWF       _temp+0 
	MOVF        R1, 0 
	MOVWF       _temp+1 
	MOVF        R2, 0 
	MOVWF       _temp+2 
	MOVF        R3, 0 
	MOVWF       _temp+3 
;FirmV_0_7_0.c,609 :: 		AddTask(temp,2);
	MOVF        R0, 0 
	MOVWF       FARG_AddTask+0 
	MOVF        R1, 0 
	MOVWF       FARG_AddTask+1 
	MOVF        R2, 0 
	MOVWF       FARG_AddTask+2 
	MOVF        R3, 0 
	MOVWF       FARG_AddTask+3 
	MOVLW       2
	MOVWF       FARG_AddTask+0 
	CALL        _AddTask+0, 0
;FirmV_0_7_0.c,610 :: 		if(OpenSoftStartTime!=0)
	MOVF        _OpenSoftStartTime+0, 0 
	XORLW       0
	BTFSC       STATUS+0, 2 
	GOTO        L_State195
;FirmV_0_7_0.c,611 :: 		{temp=ms500+ActionTimeDiff+delay;AddTask(temp,8); M2isSlow=1;}//speed down
	MOVF        _ActionTimeDiff+0, 0 
	ADDWF       _ms500+0, 0 
	MOVWF       R0 
	MOVLW       0
	ADDWFC      _ms500+1, 0 
	MOVWF       R1 
	MOVLW       0
	ADDWFC      _ms500+2, 0 
	MOVWF       R2 
	MOVLW       0
	ADDWFC      _ms500+3, 0 
	MOVWF       R3 
	MOVF        State1_delay_L0+0, 0 
	ADDWF       R0, 1 
	MOVLW       0
	ADDWFC      R1, 1 
	ADDWFC      R2, 1 
	ADDWFC      R3, 1 
	MOVF        R0, 0 
	MOVWF       _temp+0 
	MOVF        R1, 0 
	MOVWF       _temp+1 
	MOVF        R2, 0 
	MOVWF       _temp+2 
	MOVF        R3, 0 
	MOVWF       _temp+3 
	MOVF        R0, 0 
	MOVWF       FARG_AddTask+0 
	MOVF        R1, 0 
	MOVWF       FARG_AddTask+1 
	MOVF        R2, 0 
	MOVWF       FARG_AddTask+2 
	MOVF        R3, 0 
	MOVWF       FARG_AddTask+3 
	MOVLW       8
	MOVWF       FARG_AddTask+0 
	CALL        _AddTask+0, 0
	MOVLW       1
	MOVWF       _M2isSlow+0 
	GOTO        L_State196
L_State195:
;FirmV_0_7_0.c,613 :: 		{temp=ms500+ActionTimeDiff+delay;AddTask(temp,6); M2isSlow=0;}//speed up
	MOVF        _ActionTimeDiff+0, 0 
	ADDWF       _ms500+0, 0 
	MOVWF       R0 
	MOVLW       0
	ADDWFC      _ms500+1, 0 
	MOVWF       R1 
	MOVLW       0
	ADDWFC      _ms500+2, 0 
	MOVWF       R2 
	MOVLW       0
	ADDWFC      _ms500+3, 0 
	MOVWF       R3 
	MOVF        State1_delay_L0+0, 0 
	ADDWF       R0, 1 
	MOVLW       0
	ADDWFC      R1, 1 
	ADDWFC      R2, 1 
	ADDWFC      R3, 1 
	MOVF        R0, 0 
	MOVWF       _temp+0 
	MOVF        R1, 0 
	MOVWF       _temp+1 
	MOVF        R2, 0 
	MOVWF       _temp+2 
	MOVF        R3, 0 
	MOVWF       _temp+3 
	MOVF        R0, 0 
	MOVWF       FARG_AddTask+0 
	MOVF        R1, 0 
	MOVWF       FARG_AddTask+1 
	MOVF        R2, 0 
	MOVWF       FARG_AddTask+2 
	MOVF        R3, 0 
	MOVWF       FARG_AddTask+3 
	MOVLW       6
	MOVWF       FARG_AddTask+0 
	CALL        _AddTask+0, 0
	CLRF        _M2isSlow+0 
L_State196:
;FirmV_0_7_0.c,614 :: 		temp=ms500+ActionTimeDiff+OpenSoftStartTime+OverloadDelay+delay;
	MOVF        _ActionTimeDiff+0, 0 
	ADDWF       _ms500+0, 0 
	MOVWF       R0 
	MOVLW       0
	ADDWFC      _ms500+1, 0 
	MOVWF       R1 
	MOVLW       0
	ADDWFC      _ms500+2, 0 
	MOVWF       R2 
	MOVLW       0
	ADDWFC      _ms500+3, 0 
	MOVWF       R3 
	MOVF        _OpenSoftStartTime+0, 0 
	ADDWF       R0, 1 
	MOVLW       0
	ADDWFC      R1, 1 
	ADDWFC      R2, 1 
	ADDWFC      R3, 1 
	MOVLW       6
	ADDWF       R0, 1 
	MOVLW       0
	ADDWFC      R1, 1 
	ADDWFC      R2, 1 
	ADDWFC      R3, 1 
	MOVF        State1_delay_L0+0, 0 
	ADDWF       R0, 1 
	MOVLW       0
	ADDWFC      R1, 1 
	ADDWFC      R2, 1 
	ADDWFC      R3, 1 
	MOVF        R0, 0 
	MOVWF       _temp+0 
	MOVF        R1, 0 
	MOVWF       _temp+1 
	MOVF        R2, 0 
	MOVWF       _temp+2 
	MOVF        R3, 0 
	MOVWF       _temp+3 
;FirmV_0_7_0.c,615 :: 		AddTask(temp,11); //overload check
	MOVF        R0, 0 
	MOVWF       FARG_AddTask+0 
	MOVF        R1, 0 
	MOVWF       FARG_AddTask+1 
	MOVF        R2, 0 
	MOVWF       FARG_AddTask+2 
	MOVF        R3, 0 
	MOVWF       FARG_AddTask+3 
	MOVLW       11
	MOVWF       FARG_AddTask+0 
	CALL        _AddTask+0, 0
;FirmV_0_7_0.c,616 :: 		temp=ms500+ActionTimeDiff+OpenSoftStartTime+delay;
	MOVF        _ActionTimeDiff+0, 0 
	ADDWF       _ms500+0, 0 
	MOVWF       R0 
	MOVLW       0
	ADDWFC      _ms500+1, 0 
	MOVWF       R1 
	MOVLW       0
	ADDWFC      _ms500+2, 0 
	MOVWF       R2 
	MOVLW       0
	ADDWFC      _ms500+3, 0 
	MOVWF       R3 
	MOVF        _OpenSoftStartTime+0, 0 
	ADDWF       R0, 1 
	MOVLW       0
	ADDWFC      R1, 1 
	ADDWFC      R2, 1 
	ADDWFC      R3, 1 
	MOVF        State1_delay_L0+0, 0 
	ADDWF       R0, 1 
	MOVLW       0
	ADDWFC      R1, 1 
	ADDWFC      R2, 1 
	ADDWFC      R3, 1 
	MOVF        R0, 0 
	MOVWF       _temp+0 
	MOVF        R1, 0 
	MOVWF       _temp+1 
	MOVF        R2, 0 
	MOVWF       _temp+2 
	MOVF        R3, 0 
	MOVWF       _temp+3 
;FirmV_0_7_0.c,617 :: 		AddTask(temp,6);//Speed up after soft start
	MOVF        R0, 0 
	MOVWF       FARG_AddTask+0 
	MOVF        R1, 0 
	MOVWF       FARG_AddTask+1 
	MOVF        R2, 0 
	MOVWF       FARG_AddTask+2 
	MOVF        R3, 0 
	MOVWF       FARG_AddTask+3 
	MOVLW       6
	MOVWF       FARG_AddTask+0 
	CALL        _AddTask+0, 0
;FirmV_0_7_0.c,618 :: 		if(OpenSoftStopTime!=0)
	MOVF        _OpenSoftStopTime+0, 0 
	XORLW       0
	BTFSC       STATUS+0, 2 
	GOTO        L_State197
;FirmV_0_7_0.c,619 :: 		{temp=ms500+ActionTimeDiff+Door2OpenTime-OpenSoftStopTime+delay;AddTask(temp,8);}//Speed down for soft stop
	MOVF        _ActionTimeDiff+0, 0 
	ADDWF       _ms500+0, 0 
	MOVWF       R0 
	MOVLW       0
	ADDWFC      _ms500+1, 0 
	MOVWF       R1 
	MOVLW       0
	ADDWFC      _ms500+2, 0 
	MOVWF       R2 
	MOVLW       0
	ADDWFC      _ms500+3, 0 
	MOVWF       R3 
	MOVF        _Door2OpenTime+0, 0 
	ADDWF       R0, 1 
	MOVLW       0
	ADDWFC      R1, 1 
	ADDWFC      R2, 1 
	ADDWFC      R3, 1 
	MOVF        _OpenSoftStopTime+0, 0 
	SUBWF       R0, 1 
	MOVLW       0
	SUBWFB      R1, 1 
	SUBWFB      R2, 1 
	SUBWFB      R3, 1 
	MOVF        State1_delay_L0+0, 0 
	ADDWF       R0, 1 
	MOVLW       0
	ADDWFC      R1, 1 
	ADDWFC      R2, 1 
	ADDWFC      R3, 1 
	MOVF        R0, 0 
	MOVWF       _temp+0 
	MOVF        R1, 0 
	MOVWF       _temp+1 
	MOVF        R2, 0 
	MOVWF       _temp+2 
	MOVF        R3, 0 
	MOVWF       _temp+3 
	MOVF        R0, 0 
	MOVWF       FARG_AddTask+0 
	MOVF        R1, 0 
	MOVWF       FARG_AddTask+1 
	MOVF        R2, 0 
	MOVWF       FARG_AddTask+2 
	MOVF        R3, 0 
	MOVWF       FARG_AddTask+3 
	MOVLW       8
	MOVWF       FARG_AddTask+0 
	CALL        _AddTask+0, 0
L_State197:
;FirmV_0_7_0.c,620 :: 		temp=ms500+Door2OpenTime+ActionTimeDiff+delay;
	MOVF        _Door2OpenTime+0, 0 
	ADDWF       _ms500+0, 0 
	MOVWF       R0 
	MOVLW       0
	ADDWFC      _ms500+1, 0 
	MOVWF       R1 
	MOVLW       0
	ADDWFC      _ms500+2, 0 
	MOVWF       R2 
	MOVLW       0
	ADDWFC      _ms500+3, 0 
	MOVWF       R3 
	MOVF        _ActionTimeDiff+0, 0 
	ADDWF       R0, 1 
	MOVLW       0
	ADDWFC      R1, 1 
	ADDWFC      R2, 1 
	ADDWFC      R3, 1 
	MOVF        State1_delay_L0+0, 0 
	ADDWF       R0, 1 
	MOVLW       0
	ADDWFC      R1, 1 
	ADDWFC      R2, 1 
	ADDWFC      R3, 1 
	MOVF        R0, 0 
	MOVWF       _temp+0 
	MOVF        R1, 0 
	MOVWF       _temp+1 
	MOVF        R2, 0 
	MOVWF       _temp+2 
	MOVF        R3, 0 
	MOVWF       _temp+3 
;FirmV_0_7_0.c,621 :: 		AddTask(temp,4);//Stop motor
	MOVF        R0, 0 
	MOVWF       FARG_AddTask+0 
	MOVF        R1, 0 
	MOVWF       FARG_AddTask+1 
	MOVF        R2, 0 
	MOVWF       FARG_AddTask+2 
	MOVF        R3, 0 
	MOVWF       FARG_AddTask+3 
	MOVLW       4
	MOVWF       FARG_AddTask+0 
	CALL        _AddTask+0, 0
;FirmV_0_7_0.c,622 :: 		AutoCloseTemp=ms500+Door2OpenTime+ActionTimeDiff+delay;
	MOVF        _Door2OpenTime+0, 0 
	ADDWF       _ms500+0, 0 
	MOVWF       State1_AutoCloseTemp_L0+0 
	MOVLW       0
	ADDWFC      _ms500+1, 0 
	MOVWF       State1_AutoCloseTemp_L0+1 
	MOVLW       0
	ADDWFC      _ms500+2, 0 
	MOVWF       State1_AutoCloseTemp_L0+2 
	MOVLW       0
	ADDWFC      _ms500+3, 0 
	MOVWF       State1_AutoCloseTemp_L0+3 
	MOVF        _ActionTimeDiff+0, 0 
	ADDWF       State1_AutoCloseTemp_L0+0, 1 
	MOVLW       0
	ADDWFC      State1_AutoCloseTemp_L0+1, 1 
	ADDWFC      State1_AutoCloseTemp_L0+2, 1 
	ADDWFC      State1_AutoCloseTemp_L0+3, 1 
	MOVF        State1_delay_L0+0, 0 
	ADDWF       State1_AutoCloseTemp_L0+0, 1 
	MOVLW       0
	ADDWFC      State1_AutoCloseTemp_L0+1, 1 
	ADDWFC      State1_AutoCloseTemp_L0+2, 1 
	ADDWFC      State1_AutoCloseTemp_L0+3, 1 
;FirmV_0_7_0.c,623 :: 		}
L_State194:
;FirmV_0_7_0.c,625 :: 		if(AutoCloseTime!=0)
	MOVLW       0
	XORWF       _AutoCloseTime+1, 0 
	BTFSS       STATUS+0, 2 
	GOTO        L__State1970
	MOVLW       0
	XORWF       _AutoCloseTime+0, 0 
L__State1970:
	BTFSC       STATUS+0, 2 
	GOTO        L_State198
;FirmV_0_7_0.c,626 :: 		{AutoClosePauseFlag=0; temp=AutoCloseTemp+AutoCloseTime;AddTask(temp,9);}
	CLRF        _AutoClosePauseFlag+0 
	MOVF        _AutoCloseTime+0, 0 
	ADDWF       State1_AutoCloseTemp_L0+0, 0 
	MOVWF       R0 
	MOVF        _AutoCloseTime+1, 0 
	ADDWFC      State1_AutoCloseTemp_L0+1, 0 
	MOVWF       R1 
	MOVLW       0
	ADDWFC      State1_AutoCloseTemp_L0+2, 0 
	MOVWF       R2 
	MOVLW       0
	ADDWFC      State1_AutoCloseTemp_L0+3, 0 
	MOVWF       R3 
	MOVF        R0, 0 
	MOVWF       _temp+0 
	MOVF        R1, 0 
	MOVWF       _temp+1 
	MOVF        R2, 0 
	MOVWF       _temp+2 
	MOVF        R3, 0 
	MOVWF       _temp+3 
	MOVF        R0, 0 
	MOVWF       FARG_AddTask+0 
	MOVF        R1, 0 
	MOVWF       FARG_AddTask+1 
	MOVF        R2, 0 
	MOVWF       FARG_AddTask+2 
	MOVF        R3, 0 
	MOVWF       FARG_AddTask+3 
	MOVLW       9
	MOVWF       FARG_AddTask+0 
	CALL        _AddTask+0, 0
L_State198:
;FirmV_0_7_0.c,628 :: 		OpenDone=3;
	MOVLW       3
	MOVWF       _OpenDone+0 
;FirmV_0_7_0.c,629 :: 		OverloadCheckFlag1=0;
	CLRF        _OverloadCheckFlag1+0 
;FirmV_0_7_0.c,630 :: 		OverloadCheckFlag2=0;
	CLRF        _OverloadCheckFlag2+0 
;FirmV_0_7_0.c,631 :: 		KeyNoiseEliminator=0;
	CLRF        _KeyNoiseEliminator+0 
;FirmV_0_7_0.c,632 :: 		State=3;
	MOVLW       3
	MOVWF       _State+0 
;FirmV_0_7_0.c,633 :: 		AutoClosePauseFlag=0;
	CLRF        _AutoClosePauseFlag+0 
;FirmV_0_7_0.c,634 :: 		PassFlag=0;
	CLRF        _PassFlag+0 
;FirmV_0_7_0.c,635 :: 		}
L_State187:
;FirmV_0_7_0.c,636 :: 		}
L_end_State1:
	RETURN      0
; end of _State1

_State2:

;FirmV_0_7_0.c,650 :: 		void State2()
;FirmV_0_7_0.c,652 :: 		char delay=2;
	MOVLW       2
	MOVWF       State2_delay_L0+0 
;FirmV_0_7_0.c,654 :: 		Flasher=0;
	BCF         PORTD+0, 7 
;FirmV_0_7_0.c,655 :: 		FlashFlag=0;
	CLRF        _FlashFlag+0 
;FirmV_0_7_0.c,658 :: 		if(ReturnAutoclose()!=PrevAC)
	CALL        _ReturnAutoclose+0, 0
	MOVF        R0, 0 
	XORWF       _PrevAC+0, 0 
	BTFSC       STATUS+0, 2 
	GOTO        L_State299
;FirmV_0_7_0.c,660 :: 		LCDFlashFlag=0;
	CLRF        _LCDFlashFlag+0 
;FirmV_0_7_0.c,661 :: 		PrevAC=ReturnAutoclose();
	CALL        _ReturnAutoclose+0, 0
	MOVF        R0, 0 
	MOVWF       _PrevAC+0 
;FirmV_0_7_0.c,662 :: 		charValueToStr_AC(PrevAC,LCDLine2+11);
	MOVF        R0, 0 
	MOVWF       FARG_charValueToStr_AC+0 
	MOVLW       _LCDLine2+11
	MOVWF       FARG_charValueToStr_AC+0 
	MOVLW       hi_addr(_LCDLine2+11)
	MOVWF       FARG_charValueToStr_AC+1 
	CALL        _charValueToStr_AC+0, 0
;FirmV_0_7_0.c,663 :: 		memcpy(LCDLine2,"Close after",11);
	MOVLW       _LCDLine2+0
	MOVWF       FARG_memcpy_d1+0 
	MOVLW       hi_addr(_LCDLine2+0)
	MOVWF       FARG_memcpy_d1+1 
	MOVLW       ?lstr4_FirmV_0_7_0+0
	MOVWF       FARG_memcpy_s1+0 
	MOVLW       hi_addr(?lstr4_FirmV_0_7_0+0)
	MOVWF       FARG_memcpy_s1+1 
	MOVLW       11
	MOVWF       FARG_memcpy_n+0 
	MOVLW       0
	MOVWF       FARG_memcpy_n+1 
	CALL        _memcpy+0, 0
;FirmV_0_7_0.c,664 :: 		LCDUpdateFlag=1;
	MOVLW       1
	MOVWF       _LCDUpdateFlag+0 
;FirmV_0_7_0.c,665 :: 		}
L_State299:
;FirmV_0_7_0.c,668 :: 		if((Events.Remote!=0)||(CheckTask(9)))
	MOVF        _Events+4, 0 
	XORLW       0
	BTFSS       STATUS+0, 2 
	GOTO        L__State2848
	MOVLW       9
	MOVWF       FARG_CheckTask+0 
	CALL        _CheckTask+0, 0
	MOVF        R0, 1 
	BTFSS       STATUS+0, 2 
	GOTO        L__State2848
	GOTO        L_State2102
L__State2848:
;FirmV_0_7_0.c,671 :: 		ClearTasks(0);
	CLRF        FARG_ClearTasks+0 
	CALL        _ClearTasks+0, 0
;FirmV_0_7_0.c,672 :: 		if((Door2CloseTime==0)||(ActiveDoors==1))
	MOVF        _Door2CloseTime+0, 0 
	XORLW       0
	BTFSC       STATUS+0, 2 
	GOTO        L__State2847
	MOVF        _ActiveDoors+0, 0 
	XORLW       1
	BTFSC       STATUS+0, 2 
	GOTO        L__State2847
	GOTO        L_State2105
L__State2847:
;FirmV_0_7_0.c,674 :: 		temp=ms500+delay;
	MOVF        State2_delay_L0+0, 0 
	ADDWF       _ms500+0, 0 
	MOVWF       R0 
	MOVLW       0
	ADDWFC      _ms500+1, 0 
	MOVWF       R1 
	MOVLW       0
	ADDWFC      _ms500+2, 0 
	MOVWF       R2 
	MOVLW       0
	ADDWFC      _ms500+3, 0 
	MOVWF       R3 
	MOVF        R0, 0 
	MOVWF       _temp+0 
	MOVF        R1, 0 
	MOVWF       _temp+1 
	MOVF        R2, 0 
	MOVWF       _temp+2 
	MOVF        R3, 0 
	MOVWF       _temp+3 
;FirmV_0_7_0.c,675 :: 		AddTask(temp,1);
	MOVF        R0, 0 
	MOVWF       FARG_AddTask+0 
	MOVF        R1, 0 
	MOVWF       FARG_AddTask+1 
	MOVF        R2, 0 
	MOVWF       FARG_AddTask+2 
	MOVF        R3, 0 
	MOVWF       FARG_AddTask+3 
	MOVLW       1
	MOVWF       FARG_AddTask+0 
	CALL        _AddTask+0, 0
;FirmV_0_7_0.c,676 :: 		if(CloseSoftStartTime!=0)
	MOVF        _CloseSoftStartTime+0, 0 
	XORLW       0
	BTFSC       STATUS+0, 2 
	GOTO        L_State2106
;FirmV_0_7_0.c,677 :: 		{AddTask(temp,7); M1isSlow=1;}//speed down
	MOVF        _temp+0, 0 
	MOVWF       FARG_AddTask+0 
	MOVF        _temp+1, 0 
	MOVWF       FARG_AddTask+1 
	MOVF        _temp+2, 0 
	MOVWF       FARG_AddTask+2 
	MOVF        _temp+3, 0 
	MOVWF       FARG_AddTask+3 
	MOVLW       7
	MOVWF       FARG_AddTask+0 
	CALL        _AddTask+0, 0
	MOVLW       1
	MOVWF       _M1isSlow+0 
	GOTO        L_State2107
L_State2106:
;FirmV_0_7_0.c,679 :: 		{AddTask(temp,5); M1isSlow=0;}//speed up
	MOVF        _temp+0, 0 
	MOVWF       FARG_AddTask+0 
	MOVF        _temp+1, 0 
	MOVWF       FARG_AddTask+1 
	MOVF        _temp+2, 0 
	MOVWF       FARG_AddTask+2 
	MOVF        _temp+3, 0 
	MOVWF       FARG_AddTask+3 
	MOVLW       5
	MOVWF       FARG_AddTask+0 
	CALL        _AddTask+0, 0
	CLRF        _M1isSlow+0 
L_State2107:
;FirmV_0_7_0.c,680 :: 		temp=ms500+CloseSoftStartTime+OverloadDelay+delay;
	MOVF        _CloseSoftStartTime+0, 0 
	ADDWF       _ms500+0, 0 
	MOVWF       R0 
	MOVLW       0
	ADDWFC      _ms500+1, 0 
	MOVWF       R1 
	MOVLW       0
	ADDWFC      _ms500+2, 0 
	MOVWF       R2 
	MOVLW       0
	ADDWFC      _ms500+3, 0 
	MOVWF       R3 
	MOVLW       6
	ADDWF       R0, 1 
	MOVLW       0
	ADDWFC      R1, 1 
	ADDWFC      R2, 1 
	ADDWFC      R3, 1 
	MOVF        State2_delay_L0+0, 0 
	ADDWF       R0, 1 
	MOVLW       0
	ADDWFC      R1, 1 
	ADDWFC      R2, 1 
	ADDWFC      R3, 1 
	MOVF        R0, 0 
	MOVWF       _temp+0 
	MOVF        R1, 0 
	MOVWF       _temp+1 
	MOVF        R2, 0 
	MOVWF       _temp+2 
	MOVF        R3, 0 
	MOVWF       _temp+3 
;FirmV_0_7_0.c,681 :: 		AddTask(temp,10); //overload check
	MOVF        R0, 0 
	MOVWF       FARG_AddTask+0 
	MOVF        R1, 0 
	MOVWF       FARG_AddTask+1 
	MOVF        R2, 0 
	MOVWF       FARG_AddTask+2 
	MOVF        R3, 0 
	MOVWF       FARG_AddTask+3 
	MOVLW       10
	MOVWF       FARG_AddTask+0 
	CALL        _AddTask+0, 0
;FirmV_0_7_0.c,682 :: 		temp=ms500+CloseSoftStartTime+delay;
	MOVF        _CloseSoftStartTime+0, 0 
	ADDWF       _ms500+0, 0 
	MOVWF       R0 
	MOVLW       0
	ADDWFC      _ms500+1, 0 
	MOVWF       R1 
	MOVLW       0
	ADDWFC      _ms500+2, 0 
	MOVWF       R2 
	MOVLW       0
	ADDWFC      _ms500+3, 0 
	MOVWF       R3 
	MOVF        State2_delay_L0+0, 0 
	ADDWF       R0, 1 
	MOVLW       0
	ADDWFC      R1, 1 
	ADDWFC      R2, 1 
	ADDWFC      R3, 1 
	MOVF        R0, 0 
	MOVWF       _temp+0 
	MOVF        R1, 0 
	MOVWF       _temp+1 
	MOVF        R2, 0 
	MOVWF       _temp+2 
	MOVF        R3, 0 
	MOVWF       _temp+3 
;FirmV_0_7_0.c,683 :: 		AddTask(temp,5);//Speed up after soft start
	MOVF        R0, 0 
	MOVWF       FARG_AddTask+0 
	MOVF        R1, 0 
	MOVWF       FARG_AddTask+1 
	MOVF        R2, 0 
	MOVWF       FARG_AddTask+2 
	MOVF        R3, 0 
	MOVWF       FARG_AddTask+3 
	MOVLW       5
	MOVWF       FARG_AddTask+0 
	CALL        _AddTask+0, 0
;FirmV_0_7_0.c,684 :: 		if(CloseSoftStopTime!=0)
	MOVF        _CloseSoftStopTime+0, 0 
	XORLW       0
	BTFSC       STATUS+0, 2 
	GOTO        L_State2108
;FirmV_0_7_0.c,685 :: 		{temp=ms500+Door1CloseTime-CloseSoftStopTime+delay;AddTask(temp,7);}//Speed down for soft stop
	MOVF        _Door1CloseTime+0, 0 
	ADDWF       _ms500+0, 0 
	MOVWF       R0 
	MOVLW       0
	ADDWFC      _ms500+1, 0 
	MOVWF       R1 
	MOVLW       0
	ADDWFC      _ms500+2, 0 
	MOVWF       R2 
	MOVLW       0
	ADDWFC      _ms500+3, 0 
	MOVWF       R3 
	MOVF        _CloseSoftStopTime+0, 0 
	SUBWF       R0, 1 
	MOVLW       0
	SUBWFB      R1, 1 
	SUBWFB      R2, 1 
	SUBWFB      R3, 1 
	MOVF        State2_delay_L0+0, 0 
	ADDWF       R0, 1 
	MOVLW       0
	ADDWFC      R1, 1 
	ADDWFC      R2, 1 
	ADDWFC      R3, 1 
	MOVF        R0, 0 
	MOVWF       _temp+0 
	MOVF        R1, 0 
	MOVWF       _temp+1 
	MOVF        R2, 0 
	MOVWF       _temp+2 
	MOVF        R3, 0 
	MOVWF       _temp+3 
	MOVF        R0, 0 
	MOVWF       FARG_AddTask+0 
	MOVF        R1, 0 
	MOVWF       FARG_AddTask+1 
	MOVF        R2, 0 
	MOVWF       FARG_AddTask+2 
	MOVF        R3, 0 
	MOVWF       FARG_AddTask+3 
	MOVLW       7
	MOVWF       FARG_AddTask+0 
	CALL        _AddTask+0, 0
L_State2108:
;FirmV_0_7_0.c,686 :: 		if(LockForce!=0)
	MOVF        _LockForce+0, 0 
	XORLW       0
	BTFSC       STATUS+0, 2 
	GOTO        L_State2109
;FirmV_0_7_0.c,687 :: 		{temp=ms500+Door1CloseTime+delay;AddTask(temp,5);AddTask(temp+LockForceTime,3);}
	MOVF        _Door1CloseTime+0, 0 
	ADDWF       _ms500+0, 0 
	MOVWF       R0 
	MOVLW       0
	ADDWFC      _ms500+1, 0 
	MOVWF       R1 
	MOVLW       0
	ADDWFC      _ms500+2, 0 
	MOVWF       R2 
	MOVLW       0
	ADDWFC      _ms500+3, 0 
	MOVWF       R3 
	MOVF        State2_delay_L0+0, 0 
	ADDWF       R0, 1 
	MOVLW       0
	ADDWFC      R1, 1 
	ADDWFC      R2, 1 
	ADDWFC      R3, 1 
	MOVF        R0, 0 
	MOVWF       _temp+0 
	MOVF        R1, 0 
	MOVWF       _temp+1 
	MOVF        R2, 0 
	MOVWF       _temp+2 
	MOVF        R3, 0 
	MOVWF       _temp+3 
	MOVF        R0, 0 
	MOVWF       FARG_AddTask+0 
	MOVF        R1, 0 
	MOVWF       FARG_AddTask+1 
	MOVF        R2, 0 
	MOVWF       FARG_AddTask+2 
	MOVF        R3, 0 
	MOVWF       FARG_AddTask+3 
	MOVLW       5
	MOVWF       FARG_AddTask+0 
	CALL        _AddTask+0, 0
	MOVLW       2
	ADDWF       _temp+0, 0 
	MOVWF       FARG_AddTask+0 
	MOVLW       0
	ADDWFC      _temp+1, 0 
	MOVWF       FARG_AddTask+1 
	MOVLW       0
	ADDWFC      _temp+2, 0 
	MOVWF       FARG_AddTask+2 
	MOVLW       0
	ADDWFC      _temp+3, 0 
	MOVWF       FARG_AddTask+3 
	MOVLW       3
	MOVWF       FARG_AddTask+0 
	CALL        _AddTask+0, 0
	GOTO        L_State2110
L_State2109:
;FirmV_0_7_0.c,689 :: 		{temp=ms500+Door1CloseTime+delay;AddTask(temp,3);}
	MOVF        _Door1CloseTime+0, 0 
	ADDWF       _ms500+0, 0 
	MOVWF       R0 
	MOVLW       0
	ADDWFC      _ms500+1, 0 
	MOVWF       R1 
	MOVLW       0
	ADDWFC      _ms500+2, 0 
	MOVWF       R2 
	MOVLW       0
	ADDWFC      _ms500+3, 0 
	MOVWF       R3 
	MOVF        State2_delay_L0+0, 0 
	ADDWF       R0, 1 
	MOVLW       0
	ADDWFC      R1, 1 
	ADDWFC      R2, 1 
	ADDWFC      R3, 1 
	MOVF        R0, 0 
	MOVWF       _temp+0 
	MOVF        R1, 0 
	MOVWF       _temp+1 
	MOVF        R2, 0 
	MOVWF       _temp+2 
	MOVF        R3, 0 
	MOVWF       _temp+3 
	MOVF        R0, 0 
	MOVWF       FARG_AddTask+0 
	MOVF        R1, 0 
	MOVWF       FARG_AddTask+1 
	MOVF        R2, 0 
	MOVWF       FARG_AddTask+2 
	MOVF        R3, 0 
	MOVWF       FARG_AddTask+3 
	MOVLW       3
	MOVWF       FARG_AddTask+0 
	CALL        _AddTask+0, 0
L_State2110:
;FirmV_0_7_0.c,691 :: 		}
L_State2105:
;FirmV_0_7_0.c,693 :: 		if((Door2CloseTime!=0)&&(ActiveDoors==2))
	MOVF        _Door2CloseTime+0, 0 
	XORLW       0
	BTFSC       STATUS+0, 2 
	GOTO        L_State2113
	MOVF        _ActiveDoors+0, 0 
	XORLW       2
	BTFSS       STATUS+0, 2 
	GOTO        L_State2113
L__State2846:
;FirmV_0_7_0.c,695 :: 		temp=ms500+delay;
	MOVF        State2_delay_L0+0, 0 
	ADDWF       _ms500+0, 0 
	MOVWF       R0 
	MOVLW       0
	ADDWFC      _ms500+1, 0 
	MOVWF       R1 
	MOVLW       0
	ADDWFC      _ms500+2, 0 
	MOVWF       R2 
	MOVLW       0
	ADDWFC      _ms500+3, 0 
	MOVWF       R3 
	MOVF        R0, 0 
	MOVWF       _temp+0 
	MOVF        R1, 0 
	MOVWF       _temp+1 
	MOVF        R2, 0 
	MOVWF       _temp+2 
	MOVF        R3, 0 
	MOVWF       _temp+3 
;FirmV_0_7_0.c,696 :: 		AddTask(temp,2);
	MOVF        R0, 0 
	MOVWF       FARG_AddTask+0 
	MOVF        R1, 0 
	MOVWF       FARG_AddTask+1 
	MOVF        R2, 0 
	MOVWF       FARG_AddTask+2 
	MOVF        R3, 0 
	MOVWF       FARG_AddTask+3 
	MOVLW       2
	MOVWF       FARG_AddTask+0 
	CALL        _AddTask+0, 0
;FirmV_0_7_0.c,697 :: 		if(CloseSoftStartTime!=0)
	MOVF        _CloseSoftStartTime+0, 0 
	XORLW       0
	BTFSC       STATUS+0, 2 
	GOTO        L_State2114
;FirmV_0_7_0.c,698 :: 		{AddTask(temp,8); M2isSlow=1;}//speed down
	MOVF        _temp+0, 0 
	MOVWF       FARG_AddTask+0 
	MOVF        _temp+1, 0 
	MOVWF       FARG_AddTask+1 
	MOVF        _temp+2, 0 
	MOVWF       FARG_AddTask+2 
	MOVF        _temp+3, 0 
	MOVWF       FARG_AddTask+3 
	MOVLW       8
	MOVWF       FARG_AddTask+0 
	CALL        _AddTask+0, 0
	MOVLW       1
	MOVWF       _M2isSlow+0 
	GOTO        L_State2115
L_State2114:
;FirmV_0_7_0.c,700 :: 		{AddTask(temp,6); M2isSlow=0;}//speed up
	MOVF        _temp+0, 0 
	MOVWF       FARG_AddTask+0 
	MOVF        _temp+1, 0 
	MOVWF       FARG_AddTask+1 
	MOVF        _temp+2, 0 
	MOVWF       FARG_AddTask+2 
	MOVF        _temp+3, 0 
	MOVWF       FARG_AddTask+3 
	MOVLW       6
	MOVWF       FARG_AddTask+0 
	CALL        _AddTask+0, 0
	CLRF        _M2isSlow+0 
L_State2115:
;FirmV_0_7_0.c,701 :: 		temp=ms500+CloseSoftStartTime+OverloadDelay+delay;
	MOVF        _CloseSoftStartTime+0, 0 
	ADDWF       _ms500+0, 0 
	MOVWF       R0 
	MOVLW       0
	ADDWFC      _ms500+1, 0 
	MOVWF       R1 
	MOVLW       0
	ADDWFC      _ms500+2, 0 
	MOVWF       R2 
	MOVLW       0
	ADDWFC      _ms500+3, 0 
	MOVWF       R3 
	MOVLW       6
	ADDWF       R0, 1 
	MOVLW       0
	ADDWFC      R1, 1 
	ADDWFC      R2, 1 
	ADDWFC      R3, 1 
	MOVF        State2_delay_L0+0, 0 
	ADDWF       R0, 1 
	MOVLW       0
	ADDWFC      R1, 1 
	ADDWFC      R2, 1 
	ADDWFC      R3, 1 
	MOVF        R0, 0 
	MOVWF       _temp+0 
	MOVF        R1, 0 
	MOVWF       _temp+1 
	MOVF        R2, 0 
	MOVWF       _temp+2 
	MOVF        R3, 0 
	MOVWF       _temp+3 
;FirmV_0_7_0.c,702 :: 		AddTask(temp,11); //overload check
	MOVF        R0, 0 
	MOVWF       FARG_AddTask+0 
	MOVF        R1, 0 
	MOVWF       FARG_AddTask+1 
	MOVF        R2, 0 
	MOVWF       FARG_AddTask+2 
	MOVF        R3, 0 
	MOVWF       FARG_AddTask+3 
	MOVLW       11
	MOVWF       FARG_AddTask+0 
	CALL        _AddTask+0, 0
;FirmV_0_7_0.c,703 :: 		temp=ms500+CloseSoftStartTime+delay;
	MOVF        _CloseSoftStartTime+0, 0 
	ADDWF       _ms500+0, 0 
	MOVWF       R0 
	MOVLW       0
	ADDWFC      _ms500+1, 0 
	MOVWF       R1 
	MOVLW       0
	ADDWFC      _ms500+2, 0 
	MOVWF       R2 
	MOVLW       0
	ADDWFC      _ms500+3, 0 
	MOVWF       R3 
	MOVF        State2_delay_L0+0, 0 
	ADDWF       R0, 1 
	MOVLW       0
	ADDWFC      R1, 1 
	ADDWFC      R2, 1 
	ADDWFC      R3, 1 
	MOVF        R0, 0 
	MOVWF       _temp+0 
	MOVF        R1, 0 
	MOVWF       _temp+1 
	MOVF        R2, 0 
	MOVWF       _temp+2 
	MOVF        R3, 0 
	MOVWF       _temp+3 
;FirmV_0_7_0.c,704 :: 		AddTask(temp,6);//Speed up after soft start
	MOVF        R0, 0 
	MOVWF       FARG_AddTask+0 
	MOVF        R1, 0 
	MOVWF       FARG_AddTask+1 
	MOVF        R2, 0 
	MOVWF       FARG_AddTask+2 
	MOVF        R3, 0 
	MOVWF       FARG_AddTask+3 
	MOVLW       6
	MOVWF       FARG_AddTask+0 
	CALL        _AddTask+0, 0
;FirmV_0_7_0.c,705 :: 		if(CloseSoftStopTime!=0)
	MOVF        _CloseSoftStopTime+0, 0 
	XORLW       0
	BTFSC       STATUS+0, 2 
	GOTO        L_State2116
;FirmV_0_7_0.c,706 :: 		{temp=ms500+Door2CloseTime-CloseSoftStopTime+delay;AddTask(temp,8);}//Speed down for soft stop
	MOVF        _Door2CloseTime+0, 0 
	ADDWF       _ms500+0, 0 
	MOVWF       R0 
	MOVLW       0
	ADDWFC      _ms500+1, 0 
	MOVWF       R1 
	MOVLW       0
	ADDWFC      _ms500+2, 0 
	MOVWF       R2 
	MOVLW       0
	ADDWFC      _ms500+3, 0 
	MOVWF       R3 
	MOVF        _CloseSoftStopTime+0, 0 
	SUBWF       R0, 1 
	MOVLW       0
	SUBWFB      R1, 1 
	SUBWFB      R2, 1 
	SUBWFB      R3, 1 
	MOVF        State2_delay_L0+0, 0 
	ADDWF       R0, 1 
	MOVLW       0
	ADDWFC      R1, 1 
	ADDWFC      R2, 1 
	ADDWFC      R3, 1 
	MOVF        R0, 0 
	MOVWF       _temp+0 
	MOVF        R1, 0 
	MOVWF       _temp+1 
	MOVF        R2, 0 
	MOVWF       _temp+2 
	MOVF        R3, 0 
	MOVWF       _temp+3 
	MOVF        R0, 0 
	MOVWF       FARG_AddTask+0 
	MOVF        R1, 0 
	MOVWF       FARG_AddTask+1 
	MOVF        R2, 0 
	MOVWF       FARG_AddTask+2 
	MOVF        R3, 0 
	MOVWF       FARG_AddTask+3 
	MOVLW       8
	MOVWF       FARG_AddTask+0 
	CALL        _AddTask+0, 0
L_State2116:
;FirmV_0_7_0.c,708 :: 		temp=ms500+Door2CloseTime+delay;
	MOVF        _Door2CloseTime+0, 0 
	ADDWF       _ms500+0, 0 
	MOVWF       R0 
	MOVLW       0
	ADDWFC      _ms500+1, 0 
	MOVWF       R1 
	MOVLW       0
	ADDWFC      _ms500+2, 0 
	MOVWF       R2 
	MOVLW       0
	ADDWFC      _ms500+3, 0 
	MOVWF       R3 
	MOVF        State2_delay_L0+0, 0 
	ADDWF       R0, 1 
	MOVLW       0
	ADDWFC      R1, 1 
	ADDWFC      R2, 1 
	ADDWFC      R3, 1 
	MOVF        R0, 0 
	MOVWF       _temp+0 
	MOVF        R1, 0 
	MOVWF       _temp+1 
	MOVF        R2, 0 
	MOVWF       _temp+2 
	MOVF        R3, 0 
	MOVWF       _temp+3 
;FirmV_0_7_0.c,709 :: 		AddTask(temp,4);//Stop motor
	MOVF        R0, 0 
	MOVWF       FARG_AddTask+0 
	MOVF        R1, 0 
	MOVWF       FARG_AddTask+1 
	MOVF        R2, 0 
	MOVWF       FARG_AddTask+2 
	MOVF        R3, 0 
	MOVWF       FARG_AddTask+3 
	MOVLW       4
	MOVWF       FARG_AddTask+0 
	CALL        _AddTask+0, 0
;FirmV_0_7_0.c,713 :: 		temp=ms500+ActionTimeDiff+delay;
	MOVF        _ActionTimeDiff+0, 0 
	ADDWF       _ms500+0, 0 
	MOVWF       R0 
	MOVLW       0
	ADDWFC      _ms500+1, 0 
	MOVWF       R1 
	MOVLW       0
	ADDWFC      _ms500+2, 0 
	MOVWF       R2 
	MOVLW       0
	ADDWFC      _ms500+3, 0 
	MOVWF       R3 
	MOVF        State2_delay_L0+0, 0 
	ADDWF       R0, 1 
	MOVLW       0
	ADDWFC      R1, 1 
	ADDWFC      R2, 1 
	ADDWFC      R3, 1 
	MOVF        R0, 0 
	MOVWF       _temp+0 
	MOVF        R1, 0 
	MOVWF       _temp+1 
	MOVF        R2, 0 
	MOVWF       _temp+2 
	MOVF        R3, 0 
	MOVWF       _temp+3 
;FirmV_0_7_0.c,714 :: 		AddTask(temp,1);
	MOVF        R0, 0 
	MOVWF       FARG_AddTask+0 
	MOVF        R1, 0 
	MOVWF       FARG_AddTask+1 
	MOVF        R2, 0 
	MOVWF       FARG_AddTask+2 
	MOVF        R3, 0 
	MOVWF       FARG_AddTask+3 
	MOVLW       1
	MOVWF       FARG_AddTask+0 
	CALL        _AddTask+0, 0
;FirmV_0_7_0.c,715 :: 		if(CloseSoftStartTime!=0)
	MOVF        _CloseSoftStartTime+0, 0 
	XORLW       0
	BTFSC       STATUS+0, 2 
	GOTO        L_State2117
;FirmV_0_7_0.c,716 :: 		{AddTask(temp,7); M1isSlow=1;}//speed down
	MOVF        _temp+0, 0 
	MOVWF       FARG_AddTask+0 
	MOVF        _temp+1, 0 
	MOVWF       FARG_AddTask+1 
	MOVF        _temp+2, 0 
	MOVWF       FARG_AddTask+2 
	MOVF        _temp+3, 0 
	MOVWF       FARG_AddTask+3 
	MOVLW       7
	MOVWF       FARG_AddTask+0 
	CALL        _AddTask+0, 0
	MOVLW       1
	MOVWF       _M1isSlow+0 
	GOTO        L_State2118
L_State2117:
;FirmV_0_7_0.c,718 :: 		{AddTask(temp,5); M1isSlow=0;}//speed up
	MOVF        _temp+0, 0 
	MOVWF       FARG_AddTask+0 
	MOVF        _temp+1, 0 
	MOVWF       FARG_AddTask+1 
	MOVF        _temp+2, 0 
	MOVWF       FARG_AddTask+2 
	MOVF        _temp+3, 0 
	MOVWF       FARG_AddTask+3 
	MOVLW       5
	MOVWF       FARG_AddTask+0 
	CALL        _AddTask+0, 0
	CLRF        _M1isSlow+0 
L_State2118:
;FirmV_0_7_0.c,719 :: 		temp=ms500+ActionTimeDiff+CloseSoftStartTime+OverloadDelay+delay;
	MOVF        _ActionTimeDiff+0, 0 
	ADDWF       _ms500+0, 0 
	MOVWF       R0 
	MOVLW       0
	ADDWFC      _ms500+1, 0 
	MOVWF       R1 
	MOVLW       0
	ADDWFC      _ms500+2, 0 
	MOVWF       R2 
	MOVLW       0
	ADDWFC      _ms500+3, 0 
	MOVWF       R3 
	MOVF        _CloseSoftStartTime+0, 0 
	ADDWF       R0, 1 
	MOVLW       0
	ADDWFC      R1, 1 
	ADDWFC      R2, 1 
	ADDWFC      R3, 1 
	MOVLW       6
	ADDWF       R0, 1 
	MOVLW       0
	ADDWFC      R1, 1 
	ADDWFC      R2, 1 
	ADDWFC      R3, 1 
	MOVF        State2_delay_L0+0, 0 
	ADDWF       R0, 1 
	MOVLW       0
	ADDWFC      R1, 1 
	ADDWFC      R2, 1 
	ADDWFC      R3, 1 
	MOVF        R0, 0 
	MOVWF       _temp+0 
	MOVF        R1, 0 
	MOVWF       _temp+1 
	MOVF        R2, 0 
	MOVWF       _temp+2 
	MOVF        R3, 0 
	MOVWF       _temp+3 
;FirmV_0_7_0.c,720 :: 		AddTask(temp,10); //overload check
	MOVF        R0, 0 
	MOVWF       FARG_AddTask+0 
	MOVF        R1, 0 
	MOVWF       FARG_AddTask+1 
	MOVF        R2, 0 
	MOVWF       FARG_AddTask+2 
	MOVF        R3, 0 
	MOVWF       FARG_AddTask+3 
	MOVLW       10
	MOVWF       FARG_AddTask+0 
	CALL        _AddTask+0, 0
;FirmV_0_7_0.c,721 :: 		temp=ms500+ActionTimeDiff+CloseSoftStartTime+delay;
	MOVF        _ActionTimeDiff+0, 0 
	ADDWF       _ms500+0, 0 
	MOVWF       R0 
	MOVLW       0
	ADDWFC      _ms500+1, 0 
	MOVWF       R1 
	MOVLW       0
	ADDWFC      _ms500+2, 0 
	MOVWF       R2 
	MOVLW       0
	ADDWFC      _ms500+3, 0 
	MOVWF       R3 
	MOVF        _CloseSoftStartTime+0, 0 
	ADDWF       R0, 1 
	MOVLW       0
	ADDWFC      R1, 1 
	ADDWFC      R2, 1 
	ADDWFC      R3, 1 
	MOVF        State2_delay_L0+0, 0 
	ADDWF       R0, 1 
	MOVLW       0
	ADDWFC      R1, 1 
	ADDWFC      R2, 1 
	ADDWFC      R3, 1 
	MOVF        R0, 0 
	MOVWF       _temp+0 
	MOVF        R1, 0 
	MOVWF       _temp+1 
	MOVF        R2, 0 
	MOVWF       _temp+2 
	MOVF        R3, 0 
	MOVWF       _temp+3 
;FirmV_0_7_0.c,722 :: 		AddTask(temp,5);//Speed up after soft start
	MOVF        R0, 0 
	MOVWF       FARG_AddTask+0 
	MOVF        R1, 0 
	MOVWF       FARG_AddTask+1 
	MOVF        R2, 0 
	MOVWF       FARG_AddTask+2 
	MOVF        R3, 0 
	MOVWF       FARG_AddTask+3 
	MOVLW       5
	MOVWF       FARG_AddTask+0 
	CALL        _AddTask+0, 0
;FirmV_0_7_0.c,723 :: 		if(CloseSoftStopTime!=0)
	MOVF        _CloseSoftStopTime+0, 0 
	XORLW       0
	BTFSC       STATUS+0, 2 
	GOTO        L_State2119
;FirmV_0_7_0.c,724 :: 		{temp=ms500+ActionTimeDiff+Door1CloseTime-CloseSoftStopTime+delay;AddTask(temp,7);}//Speed down for soft stop
	MOVF        _ActionTimeDiff+0, 0 
	ADDWF       _ms500+0, 0 
	MOVWF       R0 
	MOVLW       0
	ADDWFC      _ms500+1, 0 
	MOVWF       R1 
	MOVLW       0
	ADDWFC      _ms500+2, 0 
	MOVWF       R2 
	MOVLW       0
	ADDWFC      _ms500+3, 0 
	MOVWF       R3 
	MOVF        _Door1CloseTime+0, 0 
	ADDWF       R0, 1 
	MOVLW       0
	ADDWFC      R1, 1 
	ADDWFC      R2, 1 
	ADDWFC      R3, 1 
	MOVF        _CloseSoftStopTime+0, 0 
	SUBWF       R0, 1 
	MOVLW       0
	SUBWFB      R1, 1 
	SUBWFB      R2, 1 
	SUBWFB      R3, 1 
	MOVF        State2_delay_L0+0, 0 
	ADDWF       R0, 1 
	MOVLW       0
	ADDWFC      R1, 1 
	ADDWFC      R2, 1 
	ADDWFC      R3, 1 
	MOVF        R0, 0 
	MOVWF       _temp+0 
	MOVF        R1, 0 
	MOVWF       _temp+1 
	MOVF        R2, 0 
	MOVWF       _temp+2 
	MOVF        R3, 0 
	MOVWF       _temp+3 
	MOVF        R0, 0 
	MOVWF       FARG_AddTask+0 
	MOVF        R1, 0 
	MOVWF       FARG_AddTask+1 
	MOVF        R2, 0 
	MOVWF       FARG_AddTask+2 
	MOVF        R3, 0 
	MOVWF       FARG_AddTask+3 
	MOVLW       7
	MOVWF       FARG_AddTask+0 
	CALL        _AddTask+0, 0
L_State2119:
;FirmV_0_7_0.c,725 :: 		if(LockForce!=0)
	MOVF        _LockForce+0, 0 
	XORLW       0
	BTFSC       STATUS+0, 2 
	GOTO        L_State2120
;FirmV_0_7_0.c,726 :: 		{temp=ms500+Door1CloseTime+ActionTimeDiff+delay;AddTask(temp,5);AddTask(temp+LockForceTime,3);}
	MOVF        _Door1CloseTime+0, 0 
	ADDWF       _ms500+0, 0 
	MOVWF       R0 
	MOVLW       0
	ADDWFC      _ms500+1, 0 
	MOVWF       R1 
	MOVLW       0
	ADDWFC      _ms500+2, 0 
	MOVWF       R2 
	MOVLW       0
	ADDWFC      _ms500+3, 0 
	MOVWF       R3 
	MOVF        _ActionTimeDiff+0, 0 
	ADDWF       R0, 1 
	MOVLW       0
	ADDWFC      R1, 1 
	ADDWFC      R2, 1 
	ADDWFC      R3, 1 
	MOVF        State2_delay_L0+0, 0 
	ADDWF       R0, 1 
	MOVLW       0
	ADDWFC      R1, 1 
	ADDWFC      R2, 1 
	ADDWFC      R3, 1 
	MOVF        R0, 0 
	MOVWF       _temp+0 
	MOVF        R1, 0 
	MOVWF       _temp+1 
	MOVF        R2, 0 
	MOVWF       _temp+2 
	MOVF        R3, 0 
	MOVWF       _temp+3 
	MOVF        R0, 0 
	MOVWF       FARG_AddTask+0 
	MOVF        R1, 0 
	MOVWF       FARG_AddTask+1 
	MOVF        R2, 0 
	MOVWF       FARG_AddTask+2 
	MOVF        R3, 0 
	MOVWF       FARG_AddTask+3 
	MOVLW       5
	MOVWF       FARG_AddTask+0 
	CALL        _AddTask+0, 0
	MOVLW       2
	ADDWF       _temp+0, 0 
	MOVWF       FARG_AddTask+0 
	MOVLW       0
	ADDWFC      _temp+1, 0 
	MOVWF       FARG_AddTask+1 
	MOVLW       0
	ADDWFC      _temp+2, 0 
	MOVWF       FARG_AddTask+2 
	MOVLW       0
	ADDWFC      _temp+3, 0 
	MOVWF       FARG_AddTask+3 
	MOVLW       3
	MOVWF       FARG_AddTask+0 
	CALL        _AddTask+0, 0
	GOTO        L_State2121
L_State2120:
;FirmV_0_7_0.c,728 :: 		{temp=ms500+Door1CloseTime+ActionTimeDiff+delay;AddTask(temp,3);}
	MOVF        _Door1CloseTime+0, 0 
	ADDWF       _ms500+0, 0 
	MOVWF       R0 
	MOVLW       0
	ADDWFC      _ms500+1, 0 
	MOVWF       R1 
	MOVLW       0
	ADDWFC      _ms500+2, 0 
	MOVWF       R2 
	MOVLW       0
	ADDWFC      _ms500+3, 0 
	MOVWF       R3 
	MOVF        _ActionTimeDiff+0, 0 
	ADDWF       R0, 1 
	MOVLW       0
	ADDWFC      R1, 1 
	ADDWFC      R2, 1 
	ADDWFC      R3, 1 
	MOVF        State2_delay_L0+0, 0 
	ADDWF       R0, 1 
	MOVLW       0
	ADDWFC      R1, 1 
	ADDWFC      R2, 1 
	ADDWFC      R3, 1 
	MOVF        R0, 0 
	MOVWF       _temp+0 
	MOVF        R1, 0 
	MOVWF       _temp+1 
	MOVF        R2, 0 
	MOVWF       _temp+2 
	MOVF        R3, 0 
	MOVWF       _temp+3 
	MOVF        R0, 0 
	MOVWF       FARG_AddTask+0 
	MOVF        R1, 0 
	MOVWF       FARG_AddTask+1 
	MOVF        R2, 0 
	MOVWF       FARG_AddTask+2 
	MOVF        R3, 0 
	MOVWF       FARG_AddTask+3 
	MOVLW       3
	MOVWF       FARG_AddTask+0 
	CALL        _AddTask+0, 0
L_State2121:
;FirmV_0_7_0.c,730 :: 		}
L_State2113:
;FirmV_0_7_0.c,733 :: 		CloseDone=3;
	MOVLW       3
	MOVWF       _CloseDone+0 
;FirmV_0_7_0.c,734 :: 		OverloadCheckFlag1=0;
	CLRF        _OverloadCheckFlag1+0 
;FirmV_0_7_0.c,735 :: 		OverloadCheckFlag2=0;
	CLRF        _OverloadCheckFlag2+0 
;FirmV_0_7_0.c,736 :: 		KeyNoiseEliminator=0;
	CLRF        _KeyNoiseEliminator+0 
;FirmV_0_7_0.c,737 :: 		AutoClosePauseFlag=0;
	CLRF        _AutoClosePauseFlag+0 
;FirmV_0_7_0.c,738 :: 		State=4;
	MOVLW       4
	MOVWF       _State+0 
;FirmV_0_7_0.c,739 :: 		}
L_State2102:
;FirmV_0_7_0.c,741 :: 		if((Events.Photocell.b0==1)&&(AutoCloseTime!=0)&&(PassFlag==0))
	BTFSS       _Events+6, 0 
	GOTO        L_State2124
	MOVLW       0
	XORWF       _AutoCloseTime+1, 0 
	BTFSS       STATUS+0, 2 
	GOTO        L__State2972
	MOVLW       0
	XORWF       _AutoCloseTime+0, 0 
L__State2972:
	BTFSC       STATUS+0, 2 
	GOTO        L_State2124
	MOVF        _PassFlag+0, 0 
	XORLW       0
	BTFSS       STATUS+0, 2 
	GOTO        L_State2124
L__State2845:
;FirmV_0_7_0.c,742 :: 		{PassFlag=1;AutoClosePauseFlag=1;Logger("S2 Auto Close Paused",1);}
	MOVLW       1
	MOVWF       _PassFlag+0 
	MOVLW       1
	MOVWF       _AutoClosePauseFlag+0 
	MOVLW       ?lstr5_FirmV_0_7_0+0
	MOVWF       FARG_Logger_text+0 
	MOVLW       hi_addr(?lstr5_FirmV_0_7_0+0)
	MOVWF       FARG_Logger_text+1 
	MOVLW       1
	MOVWF       FARG_Logger_TimeStampFlag+0 
	CALL        _Logger+0, 0
L_State2124:
;FirmV_0_7_0.c,745 :: 		if((PassFlag==1)&&(Events.Photocell.b0==0)&&(AutoCloseTime!=0))
	MOVF        _PassFlag+0, 0 
	XORLW       1
	BTFSS       STATUS+0, 2 
	GOTO        L_State2127
	BTFSC       _Events+6, 0 
	GOTO        L_State2127
	MOVLW       0
	XORWF       _AutoCloseTime+1, 0 
	BTFSS       STATUS+0, 2 
	GOTO        L__State2973
	MOVLW       0
	XORWF       _AutoCloseTime+0, 0 
L__State2973:
	BTFSC       STATUS+0, 2 
	GOTO        L_State2127
L__State2844:
;FirmV_0_7_0.c,746 :: 		if(CloseAfterPass==0)
	MOVF        _CloseAfterPass+0, 0 
	XORLW       0
	BTFSS       STATUS+0, 2 
	GOTO        L_State2128
;FirmV_0_7_0.c,747 :: 		{PassFlag=0;AutoClosePauseFlag=0;Logger("S2 Auto Close Resumed",1);}
	CLRF        _PassFlag+0 
	CLRF        _AutoClosePauseFlag+0 
	MOVLW       ?lstr6_FirmV_0_7_0+0
	MOVWF       FARG_Logger_text+0 
	MOVLW       hi_addr(?lstr6_FirmV_0_7_0+0)
	MOVWF       FARG_Logger_text+1 
	MOVLW       1
	MOVWF       FARG_Logger_TimeStampFlag+0 
	CALL        _Logger+0, 0
	GOTO        L_State2129
L_State2128:
;FirmV_0_7_0.c,749 :: 		{_AC=GetAutocloseTime();AutoClosePauseFlag=0;temp=ms500+CloseAfterPass;AddTask(temp,9);PassFlag=0;longwordtostrwithzeros(temp,t);Logger("S2 Insert 9 at:",1);Logger(t,1);}
	CALL        _GetAutocloseTime+0, 0
	MOVF        R0, 0 
	MOVWF       __AC+0 
	CLRF        _AutoClosePauseFlag+0 
	MOVF        _CloseAfterPass+0, 0 
	ADDWF       _ms500+0, 0 
	MOVWF       R0 
	MOVLW       0
	ADDWFC      _ms500+1, 0 
	MOVWF       R1 
	MOVLW       0
	ADDWFC      _ms500+2, 0 
	MOVWF       R2 
	MOVLW       0
	ADDWFC      _ms500+3, 0 
	MOVWF       R3 
	MOVF        R0, 0 
	MOVWF       _temp+0 
	MOVF        R1, 0 
	MOVWF       _temp+1 
	MOVF        R2, 0 
	MOVWF       _temp+2 
	MOVF        R3, 0 
	MOVWF       _temp+3 
	MOVF        R0, 0 
	MOVWF       FARG_AddTask+0 
	MOVF        R1, 0 
	MOVWF       FARG_AddTask+1 
	MOVF        R2, 0 
	MOVWF       FARG_AddTask+2 
	MOVF        R3, 0 
	MOVWF       FARG_AddTask+3 
	MOVLW       9
	MOVWF       FARG_AddTask+0 
	CALL        _AddTask+0, 0
	CLRF        _PassFlag+0 
	MOVF        _temp+0, 0 
	MOVWF       FARG_LongWordToStrWithZeros_input+0 
	MOVF        _temp+1, 0 
	MOVWF       FARG_LongWordToStrWithZeros_input+1 
	MOVF        _temp+2, 0 
	MOVWF       FARG_LongWordToStrWithZeros_input+2 
	MOVF        _temp+3, 0 
	MOVWF       FARG_LongWordToStrWithZeros_input+3 
	MOVLW       _t+0
	MOVWF       FARG_LongWordToStrWithZeros_output+0 
	MOVLW       hi_addr(_t+0)
	MOVWF       FARG_LongWordToStrWithZeros_output+1 
	CALL        _LongWordToStrWithZeros+0, 0
	MOVLW       ?lstr7_FirmV_0_7_0+0
	MOVWF       FARG_Logger_text+0 
	MOVLW       hi_addr(?lstr7_FirmV_0_7_0+0)
	MOVWF       FARG_Logger_text+1 
	MOVLW       1
	MOVWF       FARG_Logger_TimeStampFlag+0 
	CALL        _Logger+0, 0
	MOVLW       _t+0
	MOVWF       FARG_Logger_text+0 
	MOVLW       hi_addr(_t+0)
	MOVWF       FARG_Logger_text+1 
	MOVLW       1
	MOVWF       FARG_Logger_TimeStampFlag+0 
	CALL        _Logger+0, 0
L_State2129:
L_State2127:
;FirmV_0_7_0.c,751 :: 		}
L_end_State2:
	RETURN      0
; end of _State2

_State3:

;FirmV_0_7_0.c,766 :: 		void State3()
;FirmV_0_7_0.c,768 :: 		Flasher=1;
	BSF         PORTD+0, 7 
;FirmV_0_7_0.c,769 :: 		FlashFlag=1;
	MOVLW       1
	MOVWF       _FlashFlag+0 
;FirmV_0_7_0.c,771 :: 		if(CheckTask(1))
	MOVLW       1
	MOVWF       FARG_CheckTask+0 
	CALL        _CheckTask+0, 0
	MOVF        R0, 1 
	BTFSC       STATUS+0, 2 
	GOTO        L_State3130
;FirmV_0_7_0.c,772 :: 		{StartMotor(1,_Open);Logger("S3 Motor1Start",1); Lock=0;memcpy(LCDLine1,_opening,16);memcpy(LCDLine2,_Blank,16);LCDUpdateFlag=1;LCDLines=1;}
	MOVLW       1
	MOVWF       FARG_StartMotor+0 
	MOVLW       1
	MOVWF       FARG_StartMotor+0 
	CALL        _StartMotor+0, 0
	MOVLW       ?lstr8_FirmV_0_7_0+0
	MOVWF       FARG_Logger_text+0 
	MOVLW       hi_addr(?lstr8_FirmV_0_7_0+0)
	MOVWF       FARG_Logger_text+1 
	MOVLW       1
	MOVWF       FARG_Logger_TimeStampFlag+0 
	CALL        _Logger+0, 0
	BCF         PORTD+0, 6 
	MOVLW       _LCDLine1+0
	MOVWF       FARG_memcpy_d1+0 
	MOVLW       hi_addr(_LCDLine1+0)
	MOVWF       FARG_memcpy_d1+1 
	MOVLW       __opening+0
	MOVWF       FARG_memcpy_s1+0 
	MOVLW       hi_addr(__opening+0)
	MOVWF       FARG_memcpy_s1+1 
	MOVLW       16
	MOVWF       FARG_memcpy_n+0 
	MOVLW       0
	MOVWF       FARG_memcpy_n+1 
	CALL        _memcpy+0, 0
	MOVLW       _LCDLine2+0
	MOVWF       FARG_memcpy_d1+0 
	MOVLW       hi_addr(_LCDLine2+0)
	MOVWF       FARG_memcpy_d1+1 
	MOVLW       __Blank+0
	MOVWF       FARG_memcpy_s1+0 
	MOVLW       hi_addr(__Blank+0)
	MOVWF       FARG_memcpy_s1+1 
	MOVLW       16
	MOVWF       FARG_memcpy_n+0 
	MOVLW       0
	MOVWF       FARG_memcpy_n+1 
	CALL        _memcpy+0, 0
	MOVLW       1
	MOVWF       _LCDUpdateFlag+0 
	MOVLW       1
	MOVWF       _LCDLines+0 
L_State3130:
;FirmV_0_7_0.c,774 :: 		if(CheckTask(2))
	MOVLW       2
	MOVWF       FARG_CheckTask+0 
	CALL        _CheckTask+0, 0
	MOVF        R0, 1 
	BTFSC       STATUS+0, 2 
	GOTO        L_State3131
;FirmV_0_7_0.c,775 :: 		{StartMotor(2,_Open);Logger("S3 Motor2Start",1); Lock=0;}
	MOVLW       2
	MOVWF       FARG_StartMotor+0 
	MOVLW       1
	MOVWF       FARG_StartMotor+0 
	CALL        _StartMotor+0, 0
	MOVLW       ?lstr9_FirmV_0_7_0+0
	MOVWF       FARG_Logger_text+0 
	MOVLW       hi_addr(?lstr9_FirmV_0_7_0+0)
	MOVWF       FARG_Logger_text+1 
	MOVLW       1
	MOVWF       FARG_Logger_TimeStampFlag+0 
	CALL        _Logger+0, 0
	BCF         PORTD+0, 6 
L_State3131:
;FirmV_0_7_0.c,777 :: 		if(CheckTask(5))
	MOVLW       5
	MOVWF       FARG_CheckTask+0 
	CALL        _CheckTask+0, 0
	MOVF        R0, 1 
	BTFSC       STATUS+0, 2 
	GOTO        L_State3132
;FirmV_0_7_0.c,778 :: 		{SetMotorSpeed(1,Motor2FullSpeed);OverloadCheckFlag1=0; M1isSlow=0;Logger("S3 Motor1 Fast",1);}
	MOVLW       1
	MOVWF       FARG_SetMotorSpeed+0 
	MOVF        _Motor2FullSpeed+0, 0 
	MOVWF       FARG_SetMotorSpeed+0 
	CALL        _SetMotorSpeed+0, 0
	CLRF        _OverloadCheckFlag1+0 
	CLRF        _M1isSlow+0 
	MOVLW       ?lstr10_FirmV_0_7_0+0
	MOVWF       FARG_Logger_text+0 
	MOVLW       hi_addr(?lstr10_FirmV_0_7_0+0)
	MOVWF       FARG_Logger_text+1 
	MOVLW       1
	MOVWF       FARG_Logger_TimeStampFlag+0 
	CALL        _Logger+0, 0
L_State3132:
;FirmV_0_7_0.c,780 :: 		if(CheckTask(7))
	MOVLW       7
	MOVWF       FARG_CheckTask+0 
	CALL        _CheckTask+0, 0
	MOVF        R0, 1 
	BTFSC       STATUS+0, 2 
	GOTO        L_State3133
;FirmV_0_7_0.c,781 :: 		{SetMotorSpeed(0,Motor2FullSpeed); M1isSlow=1;Logger("S3 Motor1 Slow",1);}
	CLRF        FARG_SetMotorSpeed+0 
	MOVF        _Motor2FullSpeed+0, 0 
	MOVWF       FARG_SetMotorSpeed+0 
	CALL        _SetMotorSpeed+0, 0
	MOVLW       1
	MOVWF       _M1isSlow+0 
	MOVLW       ?lstr11_FirmV_0_7_0+0
	MOVWF       FARG_Logger_text+0 
	MOVLW       hi_addr(?lstr11_FirmV_0_7_0+0)
	MOVWF       FARG_Logger_text+1 
	MOVLW       1
	MOVWF       FARG_Logger_TimeStampFlag+0 
	CALL        _Logger+0, 0
L_State3133:
;FirmV_0_7_0.c,783 :: 		if(CheckTask(6))
	MOVLW       6
	MOVWF       FARG_CheckTask+0 
	CALL        _CheckTask+0, 0
	MOVF        R0, 1 
	BTFSC       STATUS+0, 2 
	GOTO        L_State3134
;FirmV_0_7_0.c,784 :: 		{SetMotorSpeed(Motor1FullSpeed,1);OverloadCheckFlag2=0; M2isSlow=0;Logger("S3 Motor2 Fast",1);}
	MOVF        _Motor1FullSpeed+0, 0 
	MOVWF       FARG_SetMotorSpeed+0 
	MOVLW       1
	MOVWF       FARG_SetMotorSpeed+0 
	CALL        _SetMotorSpeed+0, 0
	CLRF        _OverloadCheckFlag2+0 
	CLRF        _M2isSlow+0 
	MOVLW       ?lstr12_FirmV_0_7_0+0
	MOVWF       FARG_Logger_text+0 
	MOVLW       hi_addr(?lstr12_FirmV_0_7_0+0)
	MOVWF       FARG_Logger_text+1 
	MOVLW       1
	MOVWF       FARG_Logger_TimeStampFlag+0 
	CALL        _Logger+0, 0
L_State3134:
;FirmV_0_7_0.c,786 :: 		if(CheckTask(8))
	MOVLW       8
	MOVWF       FARG_CheckTask+0 
	CALL        _CheckTask+0, 0
	MOVF        R0, 1 
	BTFSC       STATUS+0, 2 
	GOTO        L_State3135
;FirmV_0_7_0.c,787 :: 		{SetMotorSpeed(Motor1FullSpeed,0); M2isSlow=1;Logger("S3 Motor2 Slow",1);}
	MOVF        _Motor1FullSpeed+0, 0 
	MOVWF       FARG_SetMotorSpeed+0 
	CLRF        FARG_SetMotorSpeed+0 
	CALL        _SetMotorSpeed+0, 0
	MOVLW       1
	MOVWF       _M2isSlow+0 
	MOVLW       ?lstr13_FirmV_0_7_0+0
	MOVWF       FARG_Logger_text+0 
	MOVLW       hi_addr(?lstr13_FirmV_0_7_0+0)
	MOVWF       FARG_Logger_text+1 
	MOVLW       1
	MOVWF       FARG_Logger_TimeStampFlag+0 
	CALL        _Logger+0, 0
L_State3135:
;FirmV_0_7_0.c,789 :: 		if(CheckTask(10))
	MOVLW       10
	MOVWF       FARG_CheckTask+0 
	CALL        _CheckTask+0, 0
	MOVF        R0, 1 
	BTFSC       STATUS+0, 2 
	GOTO        L_State3136
;FirmV_0_7_0.c,790 :: 		{OverloadCheckFlag1=1; OverloadInit(1);Logger("S3 Overflow Flag1 Set",1);}
	MOVLW       1
	MOVWF       _OverloadCheckFlag1+0 
	MOVLW       1
	MOVWF       FARG_OverloadInit+0 
	CALL        _OverloadInit+0, 0
	MOVLW       ?lstr14_FirmV_0_7_0+0
	MOVWF       FARG_Logger_text+0 
	MOVLW       hi_addr(?lstr14_FirmV_0_7_0+0)
	MOVWF       FARG_Logger_text+1 
	MOVLW       1
	MOVWF       FARG_Logger_TimeStampFlag+0 
	CALL        _Logger+0, 0
L_State3136:
;FirmV_0_7_0.c,792 :: 		if(CheckTask(11))
	MOVLW       11
	MOVWF       FARG_CheckTask+0 
	CALL        _CheckTask+0, 0
	MOVF        R0, 1 
	BTFSC       STATUS+0, 2 
	GOTO        L_State3137
;FirmV_0_7_0.c,793 :: 		{OverloadCheckFlag2=1; OverloadInit(2);Logger("S3 Overflow Flag2 Set",1);}
	MOVLW       1
	MOVWF       _OverloadCheckFlag2+0 
	MOVLW       2
	MOVWF       FARG_OverloadInit+0 
	CALL        _OverloadInit+0, 0
	MOVLW       ?lstr15_FirmV_0_7_0+0
	MOVWF       FARG_Logger_text+0 
	MOVLW       hi_addr(?lstr15_FirmV_0_7_0+0)
	MOVWF       FARG_Logger_text+1 
	MOVLW       1
	MOVWF       FARG_Logger_TimeStampFlag+0 
	CALL        _Logger+0, 0
L_State3137:
;FirmV_0_7_0.c,795 :: 		if(CheckTask(3))
	MOVLW       3
	MOVWF       FARG_CheckTask+0 
	CALL        _CheckTask+0, 0
	MOVF        R0, 1 
	BTFSC       STATUS+0, 2 
	GOTO        L_State3138
;FirmV_0_7_0.c,796 :: 		{OpenDone.b0=0; StopMotor(1);Logger("S3 Motor1 Stop",1);}
	BCF         _OpenDone+0, 0 
	MOVLW       1
	MOVWF       FARG_StopMotor+0 
	CALL        _StopMotor+0, 0
	MOVLW       ?lstr16_FirmV_0_7_0+0
	MOVWF       FARG_Logger_text+0 
	MOVLW       hi_addr(?lstr16_FirmV_0_7_0+0)
	MOVWF       FARG_Logger_text+1 
	MOVLW       1
	MOVWF       FARG_Logger_TimeStampFlag+0 
	CALL        _Logger+0, 0
L_State3138:
;FirmV_0_7_0.c,798 :: 		if(CheckTask(4))
	MOVLW       4
	MOVWF       FARG_CheckTask+0 
	CALL        _CheckTask+0, 0
	MOVF        R0, 1 
	BTFSC       STATUS+0, 2 
	GOTO        L_State3139
;FirmV_0_7_0.c,799 :: 		{OpenDone.b1=0; StopMotor(2);Logger("S3 Motor2 Stop",1);}
	BCF         _OpenDone+0, 1 
	MOVLW       2
	MOVWF       FARG_StopMotor+0 
	CALL        _StopMotor+0, 0
	MOVLW       ?lstr17_FirmV_0_7_0+0
	MOVWF       FARG_Logger_text+0 
	MOVLW       hi_addr(?lstr17_FirmV_0_7_0+0)
	MOVWF       FARG_Logger_text+1 
	MOVLW       1
	MOVWF       FARG_Logger_TimeStampFlag+0 
	CALL        _Logger+0, 0
L_State3139:
;FirmV_0_7_0.c,801 :: 		if(CheckTask(12))
	MOVLW       12
	MOVWF       FARG_CheckTask+0 
	CALL        _CheckTask+0, 0
	MOVF        R0, 1 
	BTFSC       STATUS+0, 2 
	GOTO        L_State3140
;FirmV_0_7_0.c,802 :: 		{Lock=1;}
	BSF         PORTD+0, 6 
L_State3140:
;FirmV_0_7_0.c,804 :: 		if((OverloadCheckFlag1==1)&&(Events.Overload.b0==1)&&(M1isSlow==0))
	MOVF        _OverloadCheckFlag1+0, 0 
	XORLW       1
	BTFSS       STATUS+0, 2 
	GOTO        L_State3143
	BTFSS       _Events+5, 0 
	GOTO        L_State3143
	MOVF        _M1isSlow+0, 0 
	XORLW       0
	BTFSS       STATUS+0, 2 
	GOTO        L_State3143
L__State3854:
;FirmV_0_7_0.c,805 :: 		{StopMotor(1); StopMotor(2); State=5;OverloadCheckFlag1=0;OverloadCheckFlag2=0;Logger("S3 Motor1 Collision",1);ClearTasks(9);
	MOVLW       1
	MOVWF       FARG_StopMotor+0 
	CALL        _StopMotor+0, 0
	MOVLW       2
	MOVWF       FARG_StopMotor+0 
	CALL        _StopMotor+0, 0
	MOVLW       5
	MOVWF       _State+0 
	CLRF        _OverloadCheckFlag1+0 
	CLRF        _OverloadCheckFlag2+0 
	MOVLW       ?lstr18_FirmV_0_7_0+0
	MOVWF       FARG_Logger_text+0 
	MOVLW       hi_addr(?lstr18_FirmV_0_7_0+0)
	MOVWF       FARG_Logger_text+1 
	MOVLW       1
	MOVWF       FARG_Logger_TimeStampFlag+0 
	CALL        _Logger+0, 0
	MOVLW       9
	MOVWF       FARG_ClearTasks+0 
	CALL        _ClearTasks+0, 0
;FirmV_0_7_0.c,806 :: 		memcpy(LCDLine1,_stop,16);memcpy(LCDLine2,_ErrOverload,16);LCDUpdateFlag=1;LCDLines=2;}
	MOVLW       _LCDLine1+0
	MOVWF       FARG_memcpy_d1+0 
	MOVLW       hi_addr(_LCDLine1+0)
	MOVWF       FARG_memcpy_d1+1 
	MOVLW       __stop+0
	MOVWF       FARG_memcpy_s1+0 
	MOVLW       hi_addr(__stop+0)
	MOVWF       FARG_memcpy_s1+1 
	MOVLW       16
	MOVWF       FARG_memcpy_n+0 
	MOVLW       0
	MOVWF       FARG_memcpy_n+1 
	CALL        _memcpy+0, 0
	MOVLW       _LCDLine2+0
	MOVWF       FARG_memcpy_d1+0 
	MOVLW       hi_addr(_LCDLine2+0)
	MOVWF       FARG_memcpy_d1+1 
	MOVLW       __errOverload+0
	MOVWF       FARG_memcpy_s1+0 
	MOVLW       hi_addr(__errOverload+0)
	MOVWF       FARG_memcpy_s1+1 
	MOVLW       16
	MOVWF       FARG_memcpy_n+0 
	MOVLW       0
	MOVWF       FARG_memcpy_n+1 
	CALL        _memcpy+0, 0
	MOVLW       1
	MOVWF       _LCDUpdateFlag+0 
	MOVLW       2
	MOVWF       _LCDLines+0 
L_State3143:
;FirmV_0_7_0.c,808 :: 		if((OverloadCheckFlag2==1)&&(Events.Overload.b1==1)&&(M2isSlow==0))
	MOVF        _OverloadCheckFlag2+0, 0 
	XORLW       1
	BTFSS       STATUS+0, 2 
	GOTO        L_State3146
	BTFSS       _Events+5, 1 
	GOTO        L_State3146
	MOVF        _M2isSlow+0, 0 
	XORLW       0
	BTFSS       STATUS+0, 2 
	GOTO        L_State3146
L__State3853:
;FirmV_0_7_0.c,809 :: 		{StopMotor(1); StopMotor(2); State=5;OverloadCheckFlag1=0;OverloadCheckFlag2=0;Logger("S3 Motor2 Collision",1);ClearTasks(9);
	MOVLW       1
	MOVWF       FARG_StopMotor+0 
	CALL        _StopMotor+0, 0
	MOVLW       2
	MOVWF       FARG_StopMotor+0 
	CALL        _StopMotor+0, 0
	MOVLW       5
	MOVWF       _State+0 
	CLRF        _OverloadCheckFlag1+0 
	CLRF        _OverloadCheckFlag2+0 
	MOVLW       ?lstr19_FirmV_0_7_0+0
	MOVWF       FARG_Logger_text+0 
	MOVLW       hi_addr(?lstr19_FirmV_0_7_0+0)
	MOVWF       FARG_Logger_text+1 
	MOVLW       1
	MOVWF       FARG_Logger_TimeStampFlag+0 
	CALL        _Logger+0, 0
	MOVLW       9
	MOVWF       FARG_ClearTasks+0 
	CALL        _ClearTasks+0, 0
;FirmV_0_7_0.c,810 :: 		memcpy(LCDLine1,_stop,16);memcpy(LCDLine2,_ErrOverload,16);LCDUpdateFlag=1;LCDLines=2;}
	MOVLW       _LCDLine1+0
	MOVWF       FARG_memcpy_d1+0 
	MOVLW       hi_addr(_LCDLine1+0)
	MOVWF       FARG_memcpy_d1+1 
	MOVLW       __stop+0
	MOVWF       FARG_memcpy_s1+0 
	MOVLW       hi_addr(__stop+0)
	MOVWF       FARG_memcpy_s1+1 
	MOVLW       16
	MOVWF       FARG_memcpy_n+0 
	MOVLW       0
	MOVWF       FARG_memcpy_n+1 
	CALL        _memcpy+0, 0
	MOVLW       _LCDLine2+0
	MOVWF       FARG_memcpy_d1+0 
	MOVLW       hi_addr(_LCDLine2+0)
	MOVWF       FARG_memcpy_d1+1 
	MOVLW       __errOverload+0
	MOVWF       FARG_memcpy_s1+0 
	MOVLW       hi_addr(__errOverload+0)
	MOVWF       FARG_memcpy_s1+1 
	MOVLW       16
	MOVWF       FARG_memcpy_n+0 
	MOVLW       0
	MOVWF       FARG_memcpy_n+1 
	CALL        _memcpy+0, 0
	MOVLW       1
	MOVWF       _LCDUpdateFlag+0 
	MOVLW       2
	MOVWF       _LCDLines+0 
L_State3146:
;FirmV_0_7_0.c,812 :: 		if((Door2OpenTime==0)||(ActiveDoors==1))
	MOVF        _Door2OpenTime+0, 0 
	XORLW       0
	BTFSC       STATUS+0, 2 
	GOTO        L__State3852
	MOVF        _ActiveDoors+0, 0 
	XORLW       1
	BTFSC       STATUS+0, 2 
	GOTO        L__State3852
	GOTO        L_State3149
L__State3852:
;FirmV_0_7_0.c,813 :: 		OpenDone.b1=0;
	BCF         _OpenDone+0, 1 
L_State3149:
;FirmV_0_7_0.c,815 :: 		if(KeyNoiseEliminator>=NoiseEliminatorTreshold)
	MOVLW       3
	SUBWF       _KeyNoiseEliminator+0, 0 
	BTFSS       STATUS+0, 0 
	GOTO        L_State3150
;FirmV_0_7_0.c,818 :: 		if((Events.Photocell.b0==1)&&(OpenPhEnable))
	BTFSS       _Events+6, 0 
	GOTO        L_State3153
	MOVF        _OpenPhEnable+0, 1 
	BTFSC       STATUS+0, 2 
	GOTO        L_State3153
L__State3851:
;FirmV_0_7_0.c,819 :: 		{StopMotor(1); StopMotor(2);OverloadCheckFlag1=0;OverloadCheckFlag2=0; State=5;Logger("S3 Photocell Int",1);ClearTasks(9);
	MOVLW       1
	MOVWF       FARG_StopMotor+0 
	CALL        _StopMotor+0, 0
	MOVLW       2
	MOVWF       FARG_StopMotor+0 
	CALL        _StopMotor+0, 0
	CLRF        _OverloadCheckFlag1+0 
	CLRF        _OverloadCheckFlag2+0 
	MOVLW       5
	MOVWF       _State+0 
	MOVLW       ?lstr20_FirmV_0_7_0+0
	MOVWF       FARG_Logger_text+0 
	MOVLW       hi_addr(?lstr20_FirmV_0_7_0+0)
	MOVWF       FARG_Logger_text+1 
	MOVLW       1
	MOVWF       FARG_Logger_TimeStampFlag+0 
	CALL        _Logger+0, 0
	MOVLW       9
	MOVWF       FARG_ClearTasks+0 
	CALL        _ClearTasks+0, 0
;FirmV_0_7_0.c,820 :: 		memcpy(LCDLine1,_stop,16);memcpy(LCDLine2,_ErrPhoto,16);LCDUpdateFlag=1;LCDLines=2;}
	MOVLW       _LCDLine1+0
	MOVWF       FARG_memcpy_d1+0 
	MOVLW       hi_addr(_LCDLine1+0)
	MOVWF       FARG_memcpy_d1+1 
	MOVLW       __stop+0
	MOVWF       FARG_memcpy_s1+0 
	MOVLW       hi_addr(__stop+0)
	MOVWF       FARG_memcpy_s1+1 
	MOVLW       16
	MOVWF       FARG_memcpy_n+0 
	MOVLW       0
	MOVWF       FARG_memcpy_n+1 
	CALL        _memcpy+0, 0
	MOVLW       _LCDLine2+0
	MOVWF       FARG_memcpy_d1+0 
	MOVLW       hi_addr(_LCDLine2+0)
	MOVWF       FARG_memcpy_d1+1 
	MOVLW       __errPhoto+0
	MOVWF       FARG_memcpy_s1+0 
	MOVLW       hi_addr(__errPhoto+0)
	MOVWF       FARG_memcpy_s1+1 
	MOVLW       16
	MOVWF       FARG_memcpy_n+0 
	MOVLW       0
	MOVWF       FARG_memcpy_n+1 
	CALL        _memcpy+0, 0
	MOVLW       1
	MOVWF       _LCDUpdateFlag+0 
	MOVLW       2
	MOVWF       _LCDLines+0 
L_State3153:
;FirmV_0_7_0.c,822 :: 		if(Events.Remote!=0)
	MOVF        _Events+4, 0 
	XORLW       0
	BTFSC       STATUS+0, 2 
	GOTO        L_State3154
;FirmV_0_7_0.c,823 :: 		{StopMotor(1); StopMotor(2);OverloadCheckFlag1=0;OverloadCheckFlag2=0; State=5;Logger("S3 Remote Stoped",1);ClearTasks(9);
	MOVLW       1
	MOVWF       FARG_StopMotor+0 
	CALL        _StopMotor+0, 0
	MOVLW       2
	MOVWF       FARG_StopMotor+0 
	CALL        _StopMotor+0, 0
	CLRF        _OverloadCheckFlag1+0 
	CLRF        _OverloadCheckFlag2+0 
	MOVLW       5
	MOVWF       _State+0 
	MOVLW       ?lstr21_FirmV_0_7_0+0
	MOVWF       FARG_Logger_text+0 
	MOVLW       hi_addr(?lstr21_FirmV_0_7_0+0)
	MOVWF       FARG_Logger_text+1 
	MOVLW       1
	MOVWF       FARG_Logger_TimeStampFlag+0 
	CALL        _Logger+0, 0
	MOVLW       9
	MOVWF       FARG_ClearTasks+0 
	CALL        _ClearTasks+0, 0
;FirmV_0_7_0.c,824 :: 		memcpy(LCDLine1,_stop,16);memcpy(LCDLine2,_ErrRemote,16);LCDUpdateFlag=1;LCDLines=2;}
	MOVLW       _LCDLine1+0
	MOVWF       FARG_memcpy_d1+0 
	MOVLW       hi_addr(_LCDLine1+0)
	MOVWF       FARG_memcpy_d1+1 
	MOVLW       __stop+0
	MOVWF       FARG_memcpy_s1+0 
	MOVLW       hi_addr(__stop+0)
	MOVWF       FARG_memcpy_s1+1 
	MOVLW       16
	MOVWF       FARG_memcpy_n+0 
	MOVLW       0
	MOVWF       FARG_memcpy_n+1 
	CALL        _memcpy+0, 0
	MOVLW       _LCDLine2+0
	MOVWF       FARG_memcpy_d1+0 
	MOVLW       hi_addr(_LCDLine2+0)
	MOVWF       FARG_memcpy_d1+1 
	MOVLW       __errRemote+0
	MOVWF       FARG_memcpy_s1+0 
	MOVLW       hi_addr(__errRemote+0)
	MOVWF       FARG_memcpy_s1+1 
	MOVLW       16
	MOVWF       FARG_memcpy_n+0 
	MOVLW       0
	MOVWF       FARG_memcpy_n+1 
	CALL        _memcpy+0, 0
	MOVLW       1
	MOVWF       _LCDUpdateFlag+0 
	MOVLW       2
	MOVWF       _LCDLines+0 
L_State3154:
;FirmV_0_7_0.c,826 :: 		if((Events.Limiter==1)&&(LimiterEnable))
	MOVF        _Events+7, 0 
	XORLW       1
	BTFSS       STATUS+0, 2 
	GOTO        L_State3157
	MOVF        _LimiterEnable+0, 1 
	BTFSC       STATUS+0, 2 
	GOTO        L_State3157
L__State3850:
;FirmV_0_7_0.c,827 :: 		{StopMotor(1); StopMotor(2);OverloadCheckFlag1=0;OverloadCheckFlag2=0; State=5;Logger("S3 Limit Switch Stoped",1);ClearTasks(9);
	MOVLW       1
	MOVWF       FARG_StopMotor+0 
	CALL        _StopMotor+0, 0
	MOVLW       2
	MOVWF       FARG_StopMotor+0 
	CALL        _StopMotor+0, 0
	CLRF        _OverloadCheckFlag1+0 
	CLRF        _OverloadCheckFlag2+0 
	MOVLW       5
	MOVWF       _State+0 
	MOVLW       ?lstr22_FirmV_0_7_0+0
	MOVWF       FARG_Logger_text+0 
	MOVLW       hi_addr(?lstr22_FirmV_0_7_0+0)
	MOVWF       FARG_Logger_text+1 
	MOVLW       1
	MOVWF       FARG_Logger_TimeStampFlag+0 
	CALL        _Logger+0, 0
	MOVLW       9
	MOVWF       FARG_ClearTasks+0 
	CALL        _ClearTasks+0, 0
;FirmV_0_7_0.c,828 :: 		memcpy(LCDLine1,_stop,16);memcpy(LCDLine2,_ErrLimit,16);LCDUpdateFlag=1;LCDLines=2;}
	MOVLW       _LCDLine1+0
	MOVWF       FARG_memcpy_d1+0 
	MOVLW       hi_addr(_LCDLine1+0)
	MOVWF       FARG_memcpy_d1+1 
	MOVLW       __stop+0
	MOVWF       FARG_memcpy_s1+0 
	MOVLW       hi_addr(__stop+0)
	MOVWF       FARG_memcpy_s1+1 
	MOVLW       16
	MOVWF       FARG_memcpy_n+0 
	MOVLW       0
	MOVWF       FARG_memcpy_n+1 
	CALL        _memcpy+0, 0
	MOVLW       _LCDLine2+0
	MOVWF       FARG_memcpy_d1+0 
	MOVLW       hi_addr(_LCDLine2+0)
	MOVWF       FARG_memcpy_d1+1 
	MOVLW       __errLimit+0
	MOVWF       FARG_memcpy_s1+0 
	MOVLW       hi_addr(__errLimit+0)
	MOVWF       FARG_memcpy_s1+1 
	MOVLW       16
	MOVWF       FARG_memcpy_n+0 
	MOVLW       0
	MOVWF       FARG_memcpy_n+1 
	CALL        _memcpy+0, 0
	MOVLW       1
	MOVWF       _LCDUpdateFlag+0 
	MOVLW       2
	MOVWF       _LCDLines+0 
L_State3157:
;FirmV_0_7_0.c,829 :: 		}
L_State3150:
;FirmV_0_7_0.c,831 :: 		if(OpenDone==0)
	MOVF        _OpenDone+0, 0 
	XORLW       0
	BTFSS       STATUS+0, 2 
	GOTO        L_State3158
;FirmV_0_7_0.c,832 :: 		if(LockEnable)
	MOVF        _LockEnable+0, 1 
	BTFSC       STATUS+0, 2 
	GOTO        L_State3159
;FirmV_0_7_0.c,833 :: 		{StartMotor(1,_Close);StartMotor(2,_Close);SetMotorSpeed(1,Motor2FullSpeed);OverloadCheckFlag1=0; M1isSlow=0;SetMotorSpeed(Motor1FullSpeed,1);OverloadCheckFlag2=0; M2isSlow=0;
	MOVLW       1
	MOVWF       FARG_StartMotor+0 
	CLRF        FARG_StartMotor+0 
	CALL        _StartMotor+0, 0
	MOVLW       2
	MOVWF       FARG_StartMotor+0 
	CLRF        FARG_StartMotor+0 
	CALL        _StartMotor+0, 0
	MOVLW       1
	MOVWF       FARG_SetMotorSpeed+0 
	MOVF        _Motor2FullSpeed+0, 0 
	MOVWF       FARG_SetMotorSpeed+0 
	CALL        _SetMotorSpeed+0, 0
	CLRF        _OverloadCheckFlag1+0 
	CLRF        _M1isSlow+0 
	MOVF        _Motor1FullSpeed+0, 0 
	MOVWF       FARG_SetMotorSpeed+0 
	MOVLW       1
	MOVWF       FARG_SetMotorSpeed+0 
	CALL        _SetMotorSpeed+0, 0
	CLRF        _OverloadCheckFlag2+0 
	CLRF        _M2isSlow+0 
;FirmV_0_7_0.c,834 :: 		AddTask(ms500+RelaseTime,3);AddTask(ms500+RelaseTime,4);AddTask(ms500+1+RelaseTime,13);OpenDone.b2=1;}
	MOVLW       1
	ADDWF       _ms500+0, 0 
	MOVWF       FARG_AddTask+0 
	MOVLW       0
	ADDWFC      _ms500+1, 0 
	MOVWF       FARG_AddTask+1 
	MOVLW       0
	ADDWFC      _ms500+2, 0 
	MOVWF       FARG_AddTask+2 
	MOVLW       0
	ADDWFC      _ms500+3, 0 
	MOVWF       FARG_AddTask+3 
	MOVLW       3
	MOVWF       FARG_AddTask+0 
	CALL        _AddTask+0, 0
	MOVLW       1
	ADDWF       _ms500+0, 0 
	MOVWF       FARG_AddTask+0 
	MOVLW       0
	ADDWFC      _ms500+1, 0 
	MOVWF       FARG_AddTask+1 
	MOVLW       0
	ADDWFC      _ms500+2, 0 
	MOVWF       FARG_AddTask+2 
	MOVLW       0
	ADDWFC      _ms500+3, 0 
	MOVWF       FARG_AddTask+3 
	MOVLW       4
	MOVWF       FARG_AddTask+0 
	CALL        _AddTask+0, 0
	MOVLW       1
	ADDWF       _ms500+0, 0 
	MOVWF       FARG_AddTask+0 
	MOVLW       0
	ADDWFC      _ms500+1, 0 
	MOVWF       FARG_AddTask+1 
	MOVLW       0
	ADDWFC      _ms500+2, 0 
	MOVWF       FARG_AddTask+2 
	MOVLW       0
	ADDWFC      _ms500+3, 0 
	MOVWF       FARG_AddTask+3 
	MOVLW       1
	ADDWF       FARG_AddTask+0, 1 
	MOVLW       0
	ADDWFC      FARG_AddTask+1, 1 
	ADDWFC      FARG_AddTask+2, 1 
	ADDWFC      FARG_AddTask+3, 1 
	MOVLW       13
	MOVWF       FARG_AddTask+0 
	CALL        _AddTask+0, 0
	BSF         _OpenDone+0, 2 
	GOTO        L_State3160
L_State3159:
;FirmV_0_7_0.c,836 :: 		{AddTask(ms500+1,13);OpenDone.b2=1;}
	MOVLW       1
	ADDWF       _ms500+0, 0 
	MOVWF       FARG_AddTask+0 
	MOVLW       0
	ADDWFC      _ms500+1, 0 
	MOVWF       FARG_AddTask+1 
	MOVLW       0
	ADDWFC      _ms500+2, 0 
	MOVWF       FARG_AddTask+2 
	MOVLW       0
	ADDWFC      _ms500+3, 0 
	MOVWF       FARG_AddTask+3 
	MOVLW       13
	MOVWF       FARG_AddTask+0 
	CALL        _AddTask+0, 0
	BSF         _OpenDone+0, 2 
L_State3160:
L_State3158:
;FirmV_0_7_0.c,838 :: 		if(CheckTask(13))
	MOVLW       13
	MOVWF       FARG_CheckTask+0 
	CALL        _CheckTask+0, 0
	MOVF        R0, 1 
	BTFSC       STATUS+0, 2 
	GOTO        L_State3161
;FirmV_0_7_0.c,839 :: 		{State=2; PrevAC=0;PassFlag=0;ClearTasks(9);memcpy(LCDLine1,_open,16);memcpy(LCDLine2,_blank,16);LCDUpdateFlag=1;LCDLines=2;}
	MOVLW       2
	MOVWF       _State+0 
	CLRF        _PrevAC+0 
	CLRF        _PassFlag+0 
	MOVLW       9
	MOVWF       FARG_ClearTasks+0 
	CALL        _ClearTasks+0, 0
	MOVLW       _LCDLine1+0
	MOVWF       FARG_memcpy_d1+0 
	MOVLW       hi_addr(_LCDLine1+0)
	MOVWF       FARG_memcpy_d1+1 
	MOVLW       __open+0
	MOVWF       FARG_memcpy_s1+0 
	MOVLW       hi_addr(__open+0)
	MOVWF       FARG_memcpy_s1+1 
	MOVLW       16
	MOVWF       FARG_memcpy_n+0 
	MOVLW       0
	MOVWF       FARG_memcpy_n+1 
	CALL        _memcpy+0, 0
	MOVLW       _LCDLine2+0
	MOVWF       FARG_memcpy_d1+0 
	MOVLW       hi_addr(_LCDLine2+0)
	MOVWF       FARG_memcpy_d1+1 
	MOVLW       __Blank+0
	MOVWF       FARG_memcpy_s1+0 
	MOVLW       hi_addr(__Blank+0)
	MOVWF       FARG_memcpy_s1+1 
	MOVLW       16
	MOVWF       FARG_memcpy_n+0 
	MOVLW       0
	MOVWF       FARG_memcpy_n+1 
	CALL        _memcpy+0, 0
	MOVLW       1
	MOVWF       _LCDUpdateFlag+0 
	MOVLW       2
	MOVWF       _LCDLines+0 
L_State3161:
;FirmV_0_7_0.c,841 :: 		if((State==5)||(State==6))
	MOVF        _State+0, 0 
	XORLW       5
	BTFSC       STATUS+0, 2 
	GOTO        L__State3849
	MOVF        _State+0, 0 
	XORLW       6
	BTFSC       STATUS+0, 2 
	GOTO        L__State3849
	GOTO        L_State3164
L__State3849:
;FirmV_0_7_0.c,842 :: 		{ClearTasks(0);if(AutoCloseTime!=0){AddTask(ms500+AutoCloseTime,9);AutoClosePauseFlag=0;PrevAC=0;Logger("S3 Autoclose Renewed",1);memcpy(LCDLine2,_autoclose,16);LCDUpdateFlag=1;LCDLines=2;}}
	CLRF        FARG_ClearTasks+0 
	CALL        _ClearTasks+0, 0
	MOVLW       0
	XORWF       _AutoCloseTime+1, 0 
	BTFSS       STATUS+0, 2 
	GOTO        L__State3975
	MOVLW       0
	XORWF       _AutoCloseTime+0, 0 
L__State3975:
	BTFSC       STATUS+0, 2 
	GOTO        L_State3165
	MOVF        _AutoCloseTime+0, 0 
	ADDWF       _ms500+0, 0 
	MOVWF       FARG_AddTask+0 
	MOVF        _AutoCloseTime+1, 0 
	ADDWFC      _ms500+1, 0 
	MOVWF       FARG_AddTask+1 
	MOVLW       0
	ADDWFC      _ms500+2, 0 
	MOVWF       FARG_AddTask+2 
	MOVLW       0
	ADDWFC      _ms500+3, 0 
	MOVWF       FARG_AddTask+3 
	MOVLW       9
	MOVWF       FARG_AddTask+0 
	CALL        _AddTask+0, 0
	CLRF        _AutoClosePauseFlag+0 
	CLRF        _PrevAC+0 
	MOVLW       ?lstr23_FirmV_0_7_0+0
	MOVWF       FARG_Logger_text+0 
	MOVLW       hi_addr(?lstr23_FirmV_0_7_0+0)
	MOVWF       FARG_Logger_text+1 
	MOVLW       1
	MOVWF       FARG_Logger_TimeStampFlag+0 
	CALL        _Logger+0, 0
	MOVLW       _LCDLine2+0
	MOVWF       FARG_memcpy_d1+0 
	MOVLW       hi_addr(_LCDLine2+0)
	MOVWF       FARG_memcpy_d1+1 
	MOVLW       __autoclose+0
	MOVWF       FARG_memcpy_s1+0 
	MOVLW       hi_addr(__autoclose+0)
	MOVWF       FARG_memcpy_s1+1 
	MOVLW       16
	MOVWF       FARG_memcpy_n+0 
	MOVLW       0
	MOVWF       FARG_memcpy_n+1 
	CALL        _memcpy+0, 0
	MOVLW       1
	MOVWF       _LCDUpdateFlag+0 
	MOVLW       2
	MOVWF       _LCDLines+0 
L_State3165:
L_State3164:
;FirmV_0_7_0.c,844 :: 		}
L_end_State3:
	RETURN      0
; end of _State3

_State4:

;FirmV_0_7_0.c,858 :: 		void State4()
;FirmV_0_7_0.c,860 :: 		Flasher=1;
	BSF         PORTD+0, 7 
;FirmV_0_7_0.c,861 :: 		FlashFlag=1;
	MOVLW       1
	MOVWF       _FlashFlag+0 
;FirmV_0_7_0.c,864 :: 		if(CheckTask(1))
	MOVLW       1
	MOVWF       FARG_CheckTask+0 
	CALL        _CheckTask+0, 0
	MOVF        R0, 1 
	BTFSC       STATUS+0, 2 
	GOTO        L_State4166
;FirmV_0_7_0.c,865 :: 		{StartMotor(1,_Close);Logger("S4 Motor1Start",1);}
	MOVLW       1
	MOVWF       FARG_StartMotor+0 
	CLRF        FARG_StartMotor+0 
	CALL        _StartMotor+0, 0
	MOVLW       ?lstr24_FirmV_0_7_0+0
	MOVWF       FARG_Logger_text+0 
	MOVLW       hi_addr(?lstr24_FirmV_0_7_0+0)
	MOVWF       FARG_Logger_text+1 
	MOVLW       1
	MOVWF       FARG_Logger_TimeStampFlag+0 
	CALL        _Logger+0, 0
L_State4166:
;FirmV_0_7_0.c,867 :: 		if(CheckTask(2))
	MOVLW       2
	MOVWF       FARG_CheckTask+0 
	CALL        _CheckTask+0, 0
	MOVF        R0, 1 
	BTFSC       STATUS+0, 2 
	GOTO        L_State4167
;FirmV_0_7_0.c,868 :: 		{StartMotor(2,_Close);Logger("S4 Motor2Start",1);memcpy(LCDLine1,_closing,16);memcpy(LCDLine2,_Blank,16);LCDUpdateFlag=1;LCDLines=1;}
	MOVLW       2
	MOVWF       FARG_StartMotor+0 
	CLRF        FARG_StartMotor+0 
	CALL        _StartMotor+0, 0
	MOVLW       ?lstr25_FirmV_0_7_0+0
	MOVWF       FARG_Logger_text+0 
	MOVLW       hi_addr(?lstr25_FirmV_0_7_0+0)
	MOVWF       FARG_Logger_text+1 
	MOVLW       1
	MOVWF       FARG_Logger_TimeStampFlag+0 
	CALL        _Logger+0, 0
	MOVLW       _LCDLine1+0
	MOVWF       FARG_memcpy_d1+0 
	MOVLW       hi_addr(_LCDLine1+0)
	MOVWF       FARG_memcpy_d1+1 
	MOVLW       __closing+0
	MOVWF       FARG_memcpy_s1+0 
	MOVLW       hi_addr(__closing+0)
	MOVWF       FARG_memcpy_s1+1 
	MOVLW       16
	MOVWF       FARG_memcpy_n+0 
	MOVLW       0
	MOVWF       FARG_memcpy_n+1 
	CALL        _memcpy+0, 0
	MOVLW       _LCDLine2+0
	MOVWF       FARG_memcpy_d1+0 
	MOVLW       hi_addr(_LCDLine2+0)
	MOVWF       FARG_memcpy_d1+1 
	MOVLW       __Blank+0
	MOVWF       FARG_memcpy_s1+0 
	MOVLW       hi_addr(__Blank+0)
	MOVWF       FARG_memcpy_s1+1 
	MOVLW       16
	MOVWF       FARG_memcpy_n+0 
	MOVLW       0
	MOVWF       FARG_memcpy_n+1 
	CALL        _memcpy+0, 0
	MOVLW       1
	MOVWF       _LCDUpdateFlag+0 
	MOVLW       1
	MOVWF       _LCDLines+0 
L_State4167:
;FirmV_0_7_0.c,870 :: 		if(CheckTask(10))
	MOVLW       10
	MOVWF       FARG_CheckTask+0 
	CALL        _CheckTask+0, 0
	MOVF        R0, 1 
	BTFSC       STATUS+0, 2 
	GOTO        L_State4168
;FirmV_0_7_0.c,871 :: 		{OverloadCheckFlag1=1; OverloadInit(1);Logger("S4 M1 Overload Check",1);}
	MOVLW       1
	MOVWF       _OverloadCheckFlag1+0 
	MOVLW       1
	MOVWF       FARG_OverloadInit+0 
	CALL        _OverloadInit+0, 0
	MOVLW       ?lstr26_FirmV_0_7_0+0
	MOVWF       FARG_Logger_text+0 
	MOVLW       hi_addr(?lstr26_FirmV_0_7_0+0)
	MOVWF       FARG_Logger_text+1 
	MOVLW       1
	MOVWF       FARG_Logger_TimeStampFlag+0 
	CALL        _Logger+0, 0
L_State4168:
;FirmV_0_7_0.c,873 :: 		if(CheckTask(11))
	MOVLW       11
	MOVWF       FARG_CheckTask+0 
	CALL        _CheckTask+0, 0
	MOVF        R0, 1 
	BTFSC       STATUS+0, 2 
	GOTO        L_State4169
;FirmV_0_7_0.c,874 :: 		{OverloadCheckFlag2=1; OverloadInit(2);Logger("S4 M2 Overload Check",1);}
	MOVLW       1
	MOVWF       _OverloadCheckFlag2+0 
	MOVLW       2
	MOVWF       FARG_OverloadInit+0 
	CALL        _OverloadInit+0, 0
	MOVLW       ?lstr27_FirmV_0_7_0+0
	MOVWF       FARG_Logger_text+0 
	MOVLW       hi_addr(?lstr27_FirmV_0_7_0+0)
	MOVWF       FARG_Logger_text+1 
	MOVLW       1
	MOVWF       FARG_Logger_TimeStampFlag+0 
	CALL        _Logger+0, 0
L_State4169:
;FirmV_0_7_0.c,876 :: 		if(CheckTask(5))
	MOVLW       5
	MOVWF       FARG_CheckTask+0 
	CALL        _CheckTask+0, 0
	MOVF        R0, 1 
	BTFSC       STATUS+0, 2 
	GOTO        L_State4170
;FirmV_0_7_0.c,877 :: 		{SetMotorSpeed(1,Motor2FullSpeed); OverloadCheckFlag1=0; M1isSlow=0;Logger("S4 M1 Speed UP",1);}
	MOVLW       1
	MOVWF       FARG_SetMotorSpeed+0 
	MOVF        _Motor2FullSpeed+0, 0 
	MOVWF       FARG_SetMotorSpeed+0 
	CALL        _SetMotorSpeed+0, 0
	CLRF        _OverloadCheckFlag1+0 
	CLRF        _M1isSlow+0 
	MOVLW       ?lstr28_FirmV_0_7_0+0
	MOVWF       FARG_Logger_text+0 
	MOVLW       hi_addr(?lstr28_FirmV_0_7_0+0)
	MOVWF       FARG_Logger_text+1 
	MOVLW       1
	MOVWF       FARG_Logger_TimeStampFlag+0 
	CALL        _Logger+0, 0
L_State4170:
;FirmV_0_7_0.c,879 :: 		if(CheckTask(7))
	MOVLW       7
	MOVWF       FARG_CheckTask+0 
	CALL        _CheckTask+0, 0
	MOVF        R0, 1 
	BTFSC       STATUS+0, 2 
	GOTO        L_State4171
;FirmV_0_7_0.c,880 :: 		{SetMotorSpeed(0,Motor2FullSpeed); OverloadCheckFlag1=0; M1isSlow=1;Logger("S4 M1 Speed Down",1);}
	CLRF        FARG_SetMotorSpeed+0 
	MOVF        _Motor2FullSpeed+0, 0 
	MOVWF       FARG_SetMotorSpeed+0 
	CALL        _SetMotorSpeed+0, 0
	CLRF        _OverloadCheckFlag1+0 
	MOVLW       1
	MOVWF       _M1isSlow+0 
	MOVLW       ?lstr29_FirmV_0_7_0+0
	MOVWF       FARG_Logger_text+0 
	MOVLW       hi_addr(?lstr29_FirmV_0_7_0+0)
	MOVWF       FARG_Logger_text+1 
	MOVLW       1
	MOVWF       FARG_Logger_TimeStampFlag+0 
	CALL        _Logger+0, 0
L_State4171:
;FirmV_0_7_0.c,882 :: 		if(CheckTask(6))
	MOVLW       6
	MOVWF       FARG_CheckTask+0 
	CALL        _CheckTask+0, 0
	MOVF        R0, 1 
	BTFSC       STATUS+0, 2 
	GOTO        L_State4172
;FirmV_0_7_0.c,883 :: 		{SetMotorSpeed(Motor1FullSpeed,1); M2isSlow=0;Logger("S4 M2 Speed UP",1);}
	MOVF        _Motor1FullSpeed+0, 0 
	MOVWF       FARG_SetMotorSpeed+0 
	MOVLW       1
	MOVWF       FARG_SetMotorSpeed+0 
	CALL        _SetMotorSpeed+0, 0
	CLRF        _M2isSlow+0 
	MOVLW       ?lstr30_FirmV_0_7_0+0
	MOVWF       FARG_Logger_text+0 
	MOVLW       hi_addr(?lstr30_FirmV_0_7_0+0)
	MOVWF       FARG_Logger_text+1 
	MOVLW       1
	MOVWF       FARG_Logger_TimeStampFlag+0 
	CALL        _Logger+0, 0
L_State4172:
;FirmV_0_7_0.c,885 :: 		if(CheckTask(8))
	MOVLW       8
	MOVWF       FARG_CheckTask+0 
	CALL        _CheckTask+0, 0
	MOVF        R0, 1 
	BTFSC       STATUS+0, 2 
	GOTO        L_State4173
;FirmV_0_7_0.c,886 :: 		{SetMotorSpeed(Motor1FullSpeed,0); M2isSlow=1;Logger("S4 M2 Speed Down",1);}
	MOVF        _Motor1FullSpeed+0, 0 
	MOVWF       FARG_SetMotorSpeed+0 
	CLRF        FARG_SetMotorSpeed+0 
	CALL        _SetMotorSpeed+0, 0
	MOVLW       1
	MOVWF       _M2isSlow+0 
	MOVLW       ?lstr31_FirmV_0_7_0+0
	MOVWF       FARG_Logger_text+0 
	MOVLW       hi_addr(?lstr31_FirmV_0_7_0+0)
	MOVWF       FARG_Logger_text+1 
	MOVLW       1
	MOVWF       FARG_Logger_TimeStampFlag+0 
	CALL        _Logger+0, 0
L_State4173:
;FirmV_0_7_0.c,888 :: 		if(CheckTask(3))
	MOVLW       3
	MOVWF       FARG_CheckTask+0 
	CALL        _CheckTask+0, 0
	MOVF        R0, 1 
	BTFSC       STATUS+0, 2 
	GOTO        L_State4174
;FirmV_0_7_0.c,889 :: 		{CloseDone.b0=0; StopMotor(1);Logger("S4 M1 Stoped",1);}
	BCF         _CloseDone+0, 0 
	MOVLW       1
	MOVWF       FARG_StopMotor+0 
	CALL        _StopMotor+0, 0
	MOVLW       ?lstr32_FirmV_0_7_0+0
	MOVWF       FARG_Logger_text+0 
	MOVLW       hi_addr(?lstr32_FirmV_0_7_0+0)
	MOVWF       FARG_Logger_text+1 
	MOVLW       1
	MOVWF       FARG_Logger_TimeStampFlag+0 
	CALL        _Logger+0, 0
L_State4174:
;FirmV_0_7_0.c,891 :: 		if(CheckTask(4))
	MOVLW       4
	MOVWF       FARG_CheckTask+0 
	CALL        _CheckTask+0, 0
	MOVF        R0, 1 
	BTFSC       STATUS+0, 2 
	GOTO        L_State4175
;FirmV_0_7_0.c,892 :: 		{CloseDone.b1=0; StopMotor(2);Logger("S4 M2 Stoped",1);}
	BCF         _CloseDone+0, 1 
	MOVLW       2
	MOVWF       FARG_StopMotor+0 
	CALL        _StopMotor+0, 0
	MOVLW       ?lstr33_FirmV_0_7_0+0
	MOVWF       FARG_Logger_text+0 
	MOVLW       hi_addr(?lstr33_FirmV_0_7_0+0)
	MOVWF       FARG_Logger_text+1 
	MOVLW       1
	MOVWF       FARG_Logger_TimeStampFlag+0 
	CALL        _Logger+0, 0
L_State4175:
;FirmV_0_7_0.c,894 :: 		if((OverloadCheckFlag1==1)&&(Events.Overload.b0==1)&&(M1isSlow==0))
	MOVF        _OverloadCheckFlag1+0, 0 
	XORLW       1
	BTFSS       STATUS+0, 2 
	GOTO        L_State4178
	BTFSS       _Events+5, 0 
	GOTO        L_State4178
	MOVF        _M1isSlow+0, 0 
	XORLW       0
	BTFSS       STATUS+0, 2 
	GOTO        L_State4178
L__State4859:
;FirmV_0_7_0.c,895 :: 		{StopMotor(1); StopMotor(2); State=6;OverloadCheckFlag1=0;OverloadCheckFlag2=0;Logger("S4 M1 Overloaded",1);ClearTasks(9);
	MOVLW       1
	MOVWF       FARG_StopMotor+0 
	CALL        _StopMotor+0, 0
	MOVLW       2
	MOVWF       FARG_StopMotor+0 
	CALL        _StopMotor+0, 0
	MOVLW       6
	MOVWF       _State+0 
	CLRF        _OverloadCheckFlag1+0 
	CLRF        _OverloadCheckFlag2+0 
	MOVLW       ?lstr34_FirmV_0_7_0+0
	MOVWF       FARG_Logger_text+0 
	MOVLW       hi_addr(?lstr34_FirmV_0_7_0+0)
	MOVWF       FARG_Logger_text+1 
	MOVLW       1
	MOVWF       FARG_Logger_TimeStampFlag+0 
	CALL        _Logger+0, 0
	MOVLW       9
	MOVWF       FARG_ClearTasks+0 
	CALL        _ClearTasks+0, 0
;FirmV_0_7_0.c,896 :: 		memcpy(LCDLine1,_stop,16);memcpy(LCDLine2,_ErrOverload,16);LCDUpdateFlag=1;LCDLines=2;}
	MOVLW       _LCDLine1+0
	MOVWF       FARG_memcpy_d1+0 
	MOVLW       hi_addr(_LCDLine1+0)
	MOVWF       FARG_memcpy_d1+1 
	MOVLW       __stop+0
	MOVWF       FARG_memcpy_s1+0 
	MOVLW       hi_addr(__stop+0)
	MOVWF       FARG_memcpy_s1+1 
	MOVLW       16
	MOVWF       FARG_memcpy_n+0 
	MOVLW       0
	MOVWF       FARG_memcpy_n+1 
	CALL        _memcpy+0, 0
	MOVLW       _LCDLine2+0
	MOVWF       FARG_memcpy_d1+0 
	MOVLW       hi_addr(_LCDLine2+0)
	MOVWF       FARG_memcpy_d1+1 
	MOVLW       __errOverload+0
	MOVWF       FARG_memcpy_s1+0 
	MOVLW       hi_addr(__errOverload+0)
	MOVWF       FARG_memcpy_s1+1 
	MOVLW       16
	MOVWF       FARG_memcpy_n+0 
	MOVLW       0
	MOVWF       FARG_memcpy_n+1 
	CALL        _memcpy+0, 0
	MOVLW       1
	MOVWF       _LCDUpdateFlag+0 
	MOVLW       2
	MOVWF       _LCDLines+0 
L_State4178:
;FirmV_0_7_0.c,898 :: 		if((OverloadCheckFlag2==1)&&(Events.Overload.b1==1)&&(M2isSlow==0))
	MOVF        _OverloadCheckFlag2+0, 0 
	XORLW       1
	BTFSS       STATUS+0, 2 
	GOTO        L_State4181
	BTFSS       _Events+5, 1 
	GOTO        L_State4181
	MOVF        _M2isSlow+0, 0 
	XORLW       0
	BTFSS       STATUS+0, 2 
	GOTO        L_State4181
L__State4858:
;FirmV_0_7_0.c,899 :: 		{StopMotor(1); StopMotor(2); State=6;OverloadCheckFlag1=0;OverloadCheckFlag2=0;Logger("S4 M2 Overloaded",1);ClearTasks(9);
	MOVLW       1
	MOVWF       FARG_StopMotor+0 
	CALL        _StopMotor+0, 0
	MOVLW       2
	MOVWF       FARG_StopMotor+0 
	CALL        _StopMotor+0, 0
	MOVLW       6
	MOVWF       _State+0 
	CLRF        _OverloadCheckFlag1+0 
	CLRF        _OverloadCheckFlag2+0 
	MOVLW       ?lstr35_FirmV_0_7_0+0
	MOVWF       FARG_Logger_text+0 
	MOVLW       hi_addr(?lstr35_FirmV_0_7_0+0)
	MOVWF       FARG_Logger_text+1 
	MOVLW       1
	MOVWF       FARG_Logger_TimeStampFlag+0 
	CALL        _Logger+0, 0
	MOVLW       9
	MOVWF       FARG_ClearTasks+0 
	CALL        _ClearTasks+0, 0
;FirmV_0_7_0.c,900 :: 		memcpy(LCDLine1,_stop,16);memcpy(LCDLine2,_ErrOverload,16);LCDUpdateFlag=1;LCDLines=2;}
	MOVLW       _LCDLine1+0
	MOVWF       FARG_memcpy_d1+0 
	MOVLW       hi_addr(_LCDLine1+0)
	MOVWF       FARG_memcpy_d1+1 
	MOVLW       __stop+0
	MOVWF       FARG_memcpy_s1+0 
	MOVLW       hi_addr(__stop+0)
	MOVWF       FARG_memcpy_s1+1 
	MOVLW       16
	MOVWF       FARG_memcpy_n+0 
	MOVLW       0
	MOVWF       FARG_memcpy_n+1 
	CALL        _memcpy+0, 0
	MOVLW       _LCDLine2+0
	MOVWF       FARG_memcpy_d1+0 
	MOVLW       hi_addr(_LCDLine2+0)
	MOVWF       FARG_memcpy_d1+1 
	MOVLW       __errOverload+0
	MOVWF       FARG_memcpy_s1+0 
	MOVLW       hi_addr(__errOverload+0)
	MOVWF       FARG_memcpy_s1+1 
	MOVLW       16
	MOVWF       FARG_memcpy_n+0 
	MOVLW       0
	MOVWF       FARG_memcpy_n+1 
	CALL        _memcpy+0, 0
	MOVLW       1
	MOVWF       _LCDUpdateFlag+0 
	MOVLW       2
	MOVWF       _LCDLines+0 
L_State4181:
;FirmV_0_7_0.c,902 :: 		if((Door2OpenTime==0)||(ActiveDoors==1))
	MOVF        _Door2OpenTime+0, 0 
	XORLW       0
	BTFSC       STATUS+0, 2 
	GOTO        L__State4857
	MOVF        _ActiveDoors+0, 0 
	XORLW       1
	BTFSC       STATUS+0, 2 
	GOTO        L__State4857
	GOTO        L_State4184
L__State4857:
;FirmV_0_7_0.c,903 :: 		CloseDone.b1=0;
	BCF         _CloseDone+0, 1 
L_State4184:
;FirmV_0_7_0.c,905 :: 		if(KeyNoiseEliminator>=NoiseEliminatorTreshold)
	MOVLW       3
	SUBWF       _KeyNoiseEliminator+0, 0 
	BTFSS       STATUS+0, 0 
	GOTO        L_State4185
;FirmV_0_7_0.c,908 :: 		if((Events.Photocell.b0==1))
	BTFSS       _Events+6, 0 
	GOTO        L_State4186
;FirmV_0_7_0.c,909 :: 		{StopMotor(1); StopMotor(2); OverloadCheckFlag1=0;OverloadCheckFlag2=0;State=6;PhotocellOpenFlag=1;Logger("S4 Photocell Int",1);ClearTasks(0);
	MOVLW       1
	MOVWF       FARG_StopMotor+0 
	CALL        _StopMotor+0, 0
	MOVLW       2
	MOVWF       FARG_StopMotor+0 
	CALL        _StopMotor+0, 0
	CLRF        _OverloadCheckFlag1+0 
	CLRF        _OverloadCheckFlag2+0 
	MOVLW       6
	MOVWF       _State+0 
	MOVLW       1
	MOVWF       _PhotocellOpenFlag+0 
	MOVLW       ?lstr36_FirmV_0_7_0+0
	MOVWF       FARG_Logger_text+0 
	MOVLW       hi_addr(?lstr36_FirmV_0_7_0+0)
	MOVWF       FARG_Logger_text+1 
	MOVLW       1
	MOVWF       FARG_Logger_TimeStampFlag+0 
	CALL        _Logger+0, 0
	CLRF        FARG_ClearTasks+0 
	CALL        _ClearTasks+0, 0
;FirmV_0_7_0.c,910 :: 		memcpy(LCDLine1,_stop,16);memcpy(LCDLine2,_ErrPhoto,16);LCDUpdateFlag=1;LCDLines=2;}
	MOVLW       _LCDLine1+0
	MOVWF       FARG_memcpy_d1+0 
	MOVLW       hi_addr(_LCDLine1+0)
	MOVWF       FARG_memcpy_d1+1 
	MOVLW       __stop+0
	MOVWF       FARG_memcpy_s1+0 
	MOVLW       hi_addr(__stop+0)
	MOVWF       FARG_memcpy_s1+1 
	MOVLW       16
	MOVWF       FARG_memcpy_n+0 
	MOVLW       0
	MOVWF       FARG_memcpy_n+1 
	CALL        _memcpy+0, 0
	MOVLW       _LCDLine2+0
	MOVWF       FARG_memcpy_d1+0 
	MOVLW       hi_addr(_LCDLine2+0)
	MOVWF       FARG_memcpy_d1+1 
	MOVLW       __errPhoto+0
	MOVWF       FARG_memcpy_s1+0 
	MOVLW       hi_addr(__errPhoto+0)
	MOVWF       FARG_memcpy_s1+1 
	MOVLW       16
	MOVWF       FARG_memcpy_n+0 
	MOVLW       0
	MOVWF       FARG_memcpy_n+1 
	CALL        _memcpy+0, 0
	MOVLW       1
	MOVWF       _LCDUpdateFlag+0 
	MOVLW       2
	MOVWF       _LCDLines+0 
L_State4186:
;FirmV_0_7_0.c,912 :: 		if((Events.Limiter==2)&&(LimiterEnable))
	MOVF        _Events+7, 0 
	XORLW       2
	BTFSS       STATUS+0, 2 
	GOTO        L_State4189
	MOVF        _LimiterEnable+0, 1 
	BTFSC       STATUS+0, 2 
	GOTO        L_State4189
L__State4856:
;FirmV_0_7_0.c,913 :: 		{StopMotor(1); StopMotor(2); State=6;OverloadCheckFlag1=0;OverloadCheckFlag2=0;Logger("S4 Limit Switch Stop",1);ClearTasks(9);
	MOVLW       1
	MOVWF       FARG_StopMotor+0 
	CALL        _StopMotor+0, 0
	MOVLW       2
	MOVWF       FARG_StopMotor+0 
	CALL        _StopMotor+0, 0
	MOVLW       6
	MOVWF       _State+0 
	CLRF        _OverloadCheckFlag1+0 
	CLRF        _OverloadCheckFlag2+0 
	MOVLW       ?lstr37_FirmV_0_7_0+0
	MOVWF       FARG_Logger_text+0 
	MOVLW       hi_addr(?lstr37_FirmV_0_7_0+0)
	MOVWF       FARG_Logger_text+1 
	MOVLW       1
	MOVWF       FARG_Logger_TimeStampFlag+0 
	CALL        _Logger+0, 0
	MOVLW       9
	MOVWF       FARG_ClearTasks+0 
	CALL        _ClearTasks+0, 0
;FirmV_0_7_0.c,914 :: 		memcpy(LCDLine1,_stop,16);memcpy(LCDLine2,_ErrLimit,16);LCDUpdateFlag=1;LCDLines=2;}
	MOVLW       _LCDLine1+0
	MOVWF       FARG_memcpy_d1+0 
	MOVLW       hi_addr(_LCDLine1+0)
	MOVWF       FARG_memcpy_d1+1 
	MOVLW       __stop+0
	MOVWF       FARG_memcpy_s1+0 
	MOVLW       hi_addr(__stop+0)
	MOVWF       FARG_memcpy_s1+1 
	MOVLW       16
	MOVWF       FARG_memcpy_n+0 
	MOVLW       0
	MOVWF       FARG_memcpy_n+1 
	CALL        _memcpy+0, 0
	MOVLW       _LCDLine2+0
	MOVWF       FARG_memcpy_d1+0 
	MOVLW       hi_addr(_LCDLine2+0)
	MOVWF       FARG_memcpy_d1+1 
	MOVLW       __errLimit+0
	MOVWF       FARG_memcpy_s1+0 
	MOVLW       hi_addr(__errLimit+0)
	MOVWF       FARG_memcpy_s1+1 
	MOVLW       16
	MOVWF       FARG_memcpy_n+0 
	MOVLW       0
	MOVWF       FARG_memcpy_n+1 
	CALL        _memcpy+0, 0
	MOVLW       1
	MOVWF       _LCDUpdateFlag+0 
	MOVLW       2
	MOVWF       _LCDLines+0 
L_State4189:
;FirmV_0_7_0.c,916 :: 		if((Events.Remote!=0))
	MOVF        _Events+4, 0 
	XORLW       0
	BTFSC       STATUS+0, 2 
	GOTO        L_State4190
;FirmV_0_7_0.c,917 :: 		{StopMotor(1); StopMotor(2); State=6;OverloadCheckFlag1=0;OverloadCheckFlag2=0;Logger("S4 Remote Pressed",1);ClearTasks(9);
	MOVLW       1
	MOVWF       FARG_StopMotor+0 
	CALL        _StopMotor+0, 0
	MOVLW       2
	MOVWF       FARG_StopMotor+0 
	CALL        _StopMotor+0, 0
	MOVLW       6
	MOVWF       _State+0 
	CLRF        _OverloadCheckFlag1+0 
	CLRF        _OverloadCheckFlag2+0 
	MOVLW       ?lstr38_FirmV_0_7_0+0
	MOVWF       FARG_Logger_text+0 
	MOVLW       hi_addr(?lstr38_FirmV_0_7_0+0)
	MOVWF       FARG_Logger_text+1 
	MOVLW       1
	MOVWF       FARG_Logger_TimeStampFlag+0 
	CALL        _Logger+0, 0
	MOVLW       9
	MOVWF       FARG_ClearTasks+0 
	CALL        _ClearTasks+0, 0
;FirmV_0_7_0.c,918 :: 		memcpy(LCDLine1,_stop,16);memcpy(LCDLine2,_ErrRemote,16);LCDUpdateFlag=1;LCDLines=2;}
	MOVLW       _LCDLine1+0
	MOVWF       FARG_memcpy_d1+0 
	MOVLW       hi_addr(_LCDLine1+0)
	MOVWF       FARG_memcpy_d1+1 
	MOVLW       __stop+0
	MOVWF       FARG_memcpy_s1+0 
	MOVLW       hi_addr(__stop+0)
	MOVWF       FARG_memcpy_s1+1 
	MOVLW       16
	MOVWF       FARG_memcpy_n+0 
	MOVLW       0
	MOVWF       FARG_memcpy_n+1 
	CALL        _memcpy+0, 0
	MOVLW       _LCDLine2+0
	MOVWF       FARG_memcpy_d1+0 
	MOVLW       hi_addr(_LCDLine2+0)
	MOVWF       FARG_memcpy_d1+1 
	MOVLW       __errRemote+0
	MOVWF       FARG_memcpy_s1+0 
	MOVLW       hi_addr(__errRemote+0)
	MOVWF       FARG_memcpy_s1+1 
	MOVLW       16
	MOVWF       FARG_memcpy_n+0 
	MOVLW       0
	MOVWF       FARG_memcpy_n+1 
	CALL        _memcpy+0, 0
	MOVLW       1
	MOVWF       _LCDUpdateFlag+0 
	MOVLW       2
	MOVWF       _LCDLines+0 
L_State4190:
;FirmV_0_7_0.c,919 :: 		}
L_State4185:
;FirmV_0_7_0.c,922 :: 		if(CloseDone==0)
	MOVF        _CloseDone+0, 0 
	XORLW       0
	BTFSS       STATUS+0, 2 
	GOTO        L_State4191
;FirmV_0_7_0.c,923 :: 		if(LockEnable)
	MOVF        _LockEnable+0, 1 
	BTFSC       STATUS+0, 2 
	GOTO        L_State4192
;FirmV_0_7_0.c,924 :: 		{StartMotor(1,_Open);AddTask(ms500+1,14);SetMotorSpeed(1,Motor2FullSpeed);OverloadCheckFlag1=0;M1isSlow=0;SetMotorSpeed(Motor1FullSpeed,1);OverloadCheckFlag2=0;M2isSlow=0;
	MOVLW       1
	MOVWF       FARG_StartMotor+0 
	MOVLW       1
	MOVWF       FARG_StartMotor+0 
	CALL        _StartMotor+0, 0
	MOVLW       1
	ADDWF       _ms500+0, 0 
	MOVWF       FARG_AddTask+0 
	MOVLW       0
	ADDWFC      _ms500+1, 0 
	MOVWF       FARG_AddTask+1 
	MOVLW       0
	ADDWFC      _ms500+2, 0 
	MOVWF       FARG_AddTask+2 
	MOVLW       0
	ADDWFC      _ms500+3, 0 
	MOVWF       FARG_AddTask+3 
	MOVLW       14
	MOVWF       FARG_AddTask+0 
	CALL        _AddTask+0, 0
	MOVLW       1
	MOVWF       FARG_SetMotorSpeed+0 
	MOVF        _Motor2FullSpeed+0, 0 
	MOVWF       FARG_SetMotorSpeed+0 
	CALL        _SetMotorSpeed+0, 0
	CLRF        _OverloadCheckFlag1+0 
	CLRF        _M1isSlow+0 
	MOVF        _Motor1FullSpeed+0, 0 
	MOVWF       FARG_SetMotorSpeed+0 
	MOVLW       1
	MOVWF       FARG_SetMotorSpeed+0 
	CALL        _SetMotorSpeed+0, 0
	CLRF        _OverloadCheckFlag2+0 
	CLRF        _M2isSlow+0 
;FirmV_0_7_0.c,925 :: 		AddTask(ms500+RelaseTime,3);AddTask(ms500+1+RelaseTime,4);AddTask(ms500+1+RelaseTime,13);CloseDone.b2=1;}
	MOVLW       1
	ADDWF       _ms500+0, 0 
	MOVWF       FARG_AddTask+0 
	MOVLW       0
	ADDWFC      _ms500+1, 0 
	MOVWF       FARG_AddTask+1 
	MOVLW       0
	ADDWFC      _ms500+2, 0 
	MOVWF       FARG_AddTask+2 
	MOVLW       0
	ADDWFC      _ms500+3, 0 
	MOVWF       FARG_AddTask+3 
	MOVLW       3
	MOVWF       FARG_AddTask+0 
	CALL        _AddTask+0, 0
	MOVLW       1
	ADDWF       _ms500+0, 0 
	MOVWF       FARG_AddTask+0 
	MOVLW       0
	ADDWFC      _ms500+1, 0 
	MOVWF       FARG_AddTask+1 
	MOVLW       0
	ADDWFC      _ms500+2, 0 
	MOVWF       FARG_AddTask+2 
	MOVLW       0
	ADDWFC      _ms500+3, 0 
	MOVWF       FARG_AddTask+3 
	MOVLW       1
	ADDWF       FARG_AddTask+0, 1 
	MOVLW       0
	ADDWFC      FARG_AddTask+1, 1 
	ADDWFC      FARG_AddTask+2, 1 
	ADDWFC      FARG_AddTask+3, 1 
	MOVLW       4
	MOVWF       FARG_AddTask+0 
	CALL        _AddTask+0, 0
	MOVLW       1
	ADDWF       _ms500+0, 0 
	MOVWF       FARG_AddTask+0 
	MOVLW       0
	ADDWFC      _ms500+1, 0 
	MOVWF       FARG_AddTask+1 
	MOVLW       0
	ADDWFC      _ms500+2, 0 
	MOVWF       FARG_AddTask+2 
	MOVLW       0
	ADDWFC      _ms500+3, 0 
	MOVWF       FARG_AddTask+3 
	MOVLW       1
	ADDWF       FARG_AddTask+0, 1 
	MOVLW       0
	ADDWFC      FARG_AddTask+1, 1 
	ADDWFC      FARG_AddTask+2, 1 
	ADDWFC      FARG_AddTask+3, 1 
	MOVLW       13
	MOVWF       FARG_AddTask+0 
	CALL        _AddTask+0, 0
	BSF         _CloseDone+0, 2 
	GOTO        L_State4193
L_State4192:
;FirmV_0_7_0.c,927 :: 		{AddTask(ms500+1,13);CloseDone.b2=1;}
	MOVLW       1
	ADDWF       _ms500+0, 0 
	MOVWF       FARG_AddTask+0 
	MOVLW       0
	ADDWFC      _ms500+1, 0 
	MOVWF       FARG_AddTask+1 
	MOVLW       0
	ADDWFC      _ms500+2, 0 
	MOVWF       FARG_AddTask+2 
	MOVLW       0
	ADDWFC      _ms500+3, 0 
	MOVWF       FARG_AddTask+3 
	MOVLW       13
	MOVWF       FARG_AddTask+0 
	CALL        _AddTask+0, 0
	BSF         _CloseDone+0, 2 
L_State4193:
L_State4191:
;FirmV_0_7_0.c,929 :: 		if(CheckTask(14))
	MOVLW       14
	MOVWF       FARG_CheckTask+0 
	CALL        _CheckTask+0, 0
	MOVF        R0, 1 
	BTFSC       STATUS+0, 2 
	GOTO        L_State4194
;FirmV_0_7_0.c,930 :: 		StartMotor(2,_Open);
	MOVLW       2
	MOVWF       FARG_StartMotor+0 
	MOVLW       1
	MOVWF       FARG_StartMotor+0 
	CALL        _StartMotor+0, 0
L_State4194:
;FirmV_0_7_0.c,932 :: 		if(CheckTask(13))
	MOVLW       13
	MOVWF       FARG_CheckTask+0 
	CALL        _CheckTask+0, 0
	MOVF        R0, 1 
	BTFSC       STATUS+0, 2 
	GOTO        L_State4195
;FirmV_0_7_0.c,933 :: 		{State=1; PassFlag=0;PrevAC=0;ClearTasks(9);memcpy(LCDLine1,_close,16);memcpy(LCDLine2,_Blank,16);LCDUpdateFlag=1;LCDLines=1;}
	MOVLW       1
	MOVWF       _State+0 
	CLRF        _PassFlag+0 
	CLRF        _PrevAC+0 
	MOVLW       9
	MOVWF       FARG_ClearTasks+0 
	CALL        _ClearTasks+0, 0
	MOVLW       _LCDLine1+0
	MOVWF       FARG_memcpy_d1+0 
	MOVLW       hi_addr(_LCDLine1+0)
	MOVWF       FARG_memcpy_d1+1 
	MOVLW       __close+0
	MOVWF       FARG_memcpy_s1+0 
	MOVLW       hi_addr(__close+0)
	MOVWF       FARG_memcpy_s1+1 
	MOVLW       16
	MOVWF       FARG_memcpy_n+0 
	MOVLW       0
	MOVWF       FARG_memcpy_n+1 
	CALL        _memcpy+0, 0
	MOVLW       _LCDLine2+0
	MOVWF       FARG_memcpy_d1+0 
	MOVLW       hi_addr(_LCDLine2+0)
	MOVWF       FARG_memcpy_d1+1 
	MOVLW       __Blank+0
	MOVWF       FARG_memcpy_s1+0 
	MOVLW       hi_addr(__Blank+0)
	MOVWF       FARG_memcpy_s1+1 
	MOVLW       16
	MOVWF       FARG_memcpy_n+0 
	MOVLW       0
	MOVWF       FARG_memcpy_n+1 
	CALL        _memcpy+0, 0
	MOVLW       1
	MOVWF       _LCDUpdateFlag+0 
	MOVLW       1
	MOVWF       _LCDLines+0 
L_State4195:
;FirmV_0_7_0.c,935 :: 		if((State==5)||(State==6))
	MOVF        _State+0, 0 
	XORLW       5
	BTFSC       STATUS+0, 2 
	GOTO        L__State4855
	MOVF        _State+0, 0 
	XORLW       6
	BTFSC       STATUS+0, 2 
	GOTO        L__State4855
	GOTO        L_State4198
L__State4855:
;FirmV_0_7_0.c,936 :: 		{ClearTasks(0);if(AutoCloseTime!=0){PrevAC=0;AddTask(ms500+AutoCloseTime,9);AutoClosePauseFlag=0;Logger("S4 Autoclose Renewed",1);memcpy(LCDLine2,_autoclose,16);LCDUpdateFlag=1;LCDLines=2;}}
	CLRF        FARG_ClearTasks+0 
	CALL        _ClearTasks+0, 0
	MOVLW       0
	XORWF       _AutoCloseTime+1, 0 
	BTFSS       STATUS+0, 2 
	GOTO        L__State4977
	MOVLW       0
	XORWF       _AutoCloseTime+0, 0 
L__State4977:
	BTFSC       STATUS+0, 2 
	GOTO        L_State4199
	CLRF        _PrevAC+0 
	MOVF        _AutoCloseTime+0, 0 
	ADDWF       _ms500+0, 0 
	MOVWF       FARG_AddTask+0 
	MOVF        _AutoCloseTime+1, 0 
	ADDWFC      _ms500+1, 0 
	MOVWF       FARG_AddTask+1 
	MOVLW       0
	ADDWFC      _ms500+2, 0 
	MOVWF       FARG_AddTask+2 
	MOVLW       0
	ADDWFC      _ms500+3, 0 
	MOVWF       FARG_AddTask+3 
	MOVLW       9
	MOVWF       FARG_AddTask+0 
	CALL        _AddTask+0, 0
	CLRF        _AutoClosePauseFlag+0 
	MOVLW       ?lstr39_FirmV_0_7_0+0
	MOVWF       FARG_Logger_text+0 
	MOVLW       hi_addr(?lstr39_FirmV_0_7_0+0)
	MOVWF       FARG_Logger_text+1 
	MOVLW       1
	MOVWF       FARG_Logger_TimeStampFlag+0 
	CALL        _Logger+0, 0
	MOVLW       _LCDLine2+0
	MOVWF       FARG_memcpy_d1+0 
	MOVLW       hi_addr(_LCDLine2+0)
	MOVWF       FARG_memcpy_d1+1 
	MOVLW       __autoclose+0
	MOVWF       FARG_memcpy_s1+0 
	MOVLW       hi_addr(__autoclose+0)
	MOVWF       FARG_memcpy_s1+1 
	MOVLW       16
	MOVWF       FARG_memcpy_n+0 
	MOVLW       0
	MOVWF       FARG_memcpy_n+1 
	CALL        _memcpy+0, 0
	MOVLW       1
	MOVWF       _LCDUpdateFlag+0 
	MOVLW       2
	MOVWF       _LCDLines+0 
L_State4199:
L_State4198:
;FirmV_0_7_0.c,938 :: 		}
L_end_State4:
	RETURN      0
; end of _State4

_State5:

;FirmV_0_7_0.c,953 :: 		void State5()
;FirmV_0_7_0.c,955 :: 		char delay=2;
	MOVLW       2
	MOVWF       State5_delay_L0+0 
;FirmV_0_7_0.c,956 :: 		Flasher=0;
	BCF         PORTD+0, 7 
;FirmV_0_7_0.c,957 :: 		FlashFlag=0;
	CLRF        _FlashFlag+0 
;FirmV_0_7_0.c,959 :: 		if(ReturnAutoclose()!=PrevAC)
	CALL        _ReturnAutoclose+0, 0
	MOVF        R0, 0 
	XORWF       _PrevAC+0, 0 
	BTFSC       STATUS+0, 2 
	GOTO        L_State5200
;FirmV_0_7_0.c,961 :: 		LCDFlashFlag=0;
	CLRF        _LCDFlashFlag+0 
;FirmV_0_7_0.c,962 :: 		PrevAC=ReturnAutoclose();
	CALL        _ReturnAutoclose+0, 0
	MOVF        R0, 0 
	MOVWF       _PrevAC+0 
;FirmV_0_7_0.c,963 :: 		charValueToStr_AC(PrevAC,LCDLine2+11);
	MOVF        R0, 0 
	MOVWF       FARG_charValueToStr_AC+0 
	MOVLW       _LCDLine2+11
	MOVWF       FARG_charValueToStr_AC+0 
	MOVLW       hi_addr(_LCDLine2+11)
	MOVWF       FARG_charValueToStr_AC+1 
	CALL        _charValueToStr_AC+0, 0
;FirmV_0_7_0.c,964 :: 		memcpy(LCDLine2,"Close after",11);
	MOVLW       _LCDLine2+0
	MOVWF       FARG_memcpy_d1+0 
	MOVLW       hi_addr(_LCDLine2+0)
	MOVWF       FARG_memcpy_d1+1 
	MOVLW       ?lstr40_FirmV_0_7_0+0
	MOVWF       FARG_memcpy_s1+0 
	MOVLW       hi_addr(?lstr40_FirmV_0_7_0+0)
	MOVWF       FARG_memcpy_s1+1 
	MOVLW       11
	MOVWF       FARG_memcpy_n+0 
	MOVLW       0
	MOVWF       FARG_memcpy_n+1 
	CALL        _memcpy+0, 0
;FirmV_0_7_0.c,965 :: 		LCDUpdateFlag=1;
	MOVLW       1
	MOVWF       _LCDUpdateFlag+0 
;FirmV_0_7_0.c,966 :: 		}
L_State5200:
;FirmV_0_7_0.c,968 :: 		if((Events.Remote!=0)||(CheckTask(9)==1))
	MOVF        _Events+4, 0 
	XORLW       0
	BTFSS       STATUS+0, 2 
	GOTO        L__State5864
	MOVLW       9
	MOVWF       FARG_CheckTask+0 
	CALL        _CheckTask+0, 0
	MOVF        R0, 0 
	XORLW       1
	BTFSC       STATUS+0, 2 
	GOTO        L__State5864
	GOTO        L_State5203
L__State5864:
;FirmV_0_7_0.c,970 :: 		if((Door2CloseTime==0)||(ActiveDoors==1))
	MOVF        _Door2CloseTime+0, 0 
	XORLW       0
	BTFSC       STATUS+0, 2 
	GOTO        L__State5863
	MOVF        _ActiveDoors+0, 0 
	XORLW       1
	BTFSC       STATUS+0, 2 
	GOTO        L__State5863
	GOTO        L_State5206
L__State5863:
;FirmV_0_7_0.c,972 :: 		ClearTasks(0);
	CLRF        FARG_ClearTasks+0 
	CALL        _ClearTasks+0, 0
;FirmV_0_7_0.c,973 :: 		temp=ms500+delay;
	MOVF        State5_delay_L0+0, 0 
	ADDWF       _ms500+0, 0 
	MOVWF       R0 
	MOVLW       0
	ADDWFC      _ms500+1, 0 
	MOVWF       R1 
	MOVLW       0
	ADDWFC      _ms500+2, 0 
	MOVWF       R2 
	MOVLW       0
	ADDWFC      _ms500+3, 0 
	MOVWF       R3 
	MOVF        R0, 0 
	MOVWF       _temp+0 
	MOVF        R1, 0 
	MOVWF       _temp+1 
	MOVF        R2, 0 
	MOVWF       _temp+2 
	MOVF        R3, 0 
	MOVWF       _temp+3 
;FirmV_0_7_0.c,974 :: 		AddTask(temp,1);
	MOVF        R0, 0 
	MOVWF       FARG_AddTask+0 
	MOVF        R1, 0 
	MOVWF       FARG_AddTask+1 
	MOVF        R2, 0 
	MOVWF       FARG_AddTask+2 
	MOVF        R3, 0 
	MOVWF       FARG_AddTask+3 
	MOVLW       1
	MOVWF       FARG_AddTask+0 
	CALL        _AddTask+0, 0
;FirmV_0_7_0.c,975 :: 		AddTask(temp,5);
	MOVF        _temp+0, 0 
	MOVWF       FARG_AddTask+0 
	MOVF        _temp+1, 0 
	MOVWF       FARG_AddTask+1 
	MOVF        _temp+2, 0 
	MOVWF       FARG_AddTask+2 
	MOVF        _temp+3, 0 
	MOVWF       FARG_AddTask+3 
	MOVLW       5
	MOVWF       FARG_AddTask+0 
	CALL        _AddTask+0, 0
;FirmV_0_7_0.c,976 :: 		M1isSlow=0;//speed up
	CLRF        _M1isSlow+0 
;FirmV_0_7_0.c,977 :: 		temp=ms500+OverloadDelay+delay;
	MOVLW       6
	ADDWF       _ms500+0, 0 
	MOVWF       R0 
	MOVLW       0
	ADDWFC      _ms500+1, 0 
	MOVWF       R1 
	MOVLW       0
	ADDWFC      _ms500+2, 0 
	MOVWF       R2 
	MOVLW       0
	ADDWFC      _ms500+3, 0 
	MOVWF       R3 
	MOVF        State5_delay_L0+0, 0 
	ADDWF       R0, 1 
	MOVLW       0
	ADDWFC      R1, 1 
	ADDWFC      R2, 1 
	ADDWFC      R3, 1 
	MOVF        R0, 0 
	MOVWF       _temp+0 
	MOVF        R1, 0 
	MOVWF       _temp+1 
	MOVF        R2, 0 
	MOVWF       _temp+2 
	MOVF        R3, 0 
	MOVWF       _temp+3 
;FirmV_0_7_0.c,978 :: 		AddTask(temp,10); //overload check
	MOVF        R0, 0 
	MOVWF       FARG_AddTask+0 
	MOVF        R1, 0 
	MOVWF       FARG_AddTask+1 
	MOVF        R2, 0 
	MOVWF       FARG_AddTask+2 
	MOVF        R3, 0 
	MOVWF       FARG_AddTask+3 
	MOVLW       10
	MOVWF       FARG_AddTask+0 
	CALL        _AddTask+0, 0
;FirmV_0_7_0.c,979 :: 		temp=ms500+Door1CloseTime+delay;
	MOVF        _Door1CloseTime+0, 0 
	ADDWF       _ms500+0, 0 
	MOVWF       R0 
	MOVLW       0
	ADDWFC      _ms500+1, 0 
	MOVWF       R1 
	MOVLW       0
	ADDWFC      _ms500+2, 0 
	MOVWF       R2 
	MOVLW       0
	ADDWFC      _ms500+3, 0 
	MOVWF       R3 
	MOVF        State5_delay_L0+0, 0 
	ADDWF       R0, 1 
	MOVLW       0
	ADDWFC      R1, 1 
	ADDWFC      R2, 1 
	ADDWFC      R3, 1 
	MOVF        R0, 0 
	MOVWF       _temp+0 
	MOVF        R1, 0 
	MOVWF       _temp+1 
	MOVF        R2, 0 
	MOVWF       _temp+2 
	MOVF        R3, 0 
	MOVWF       _temp+3 
;FirmV_0_7_0.c,980 :: 		AddTask(temp,3);//Stop motor
	MOVF        R0, 0 
	MOVWF       FARG_AddTask+0 
	MOVF        R1, 0 
	MOVWF       FARG_AddTask+1 
	MOVF        R2, 0 
	MOVWF       FARG_AddTask+2 
	MOVF        R3, 0 
	MOVWF       FARG_AddTask+3 
	MOVLW       3
	MOVWF       FARG_AddTask+0 
	CALL        _AddTask+0, 0
;FirmV_0_7_0.c,981 :: 		}
L_State5206:
;FirmV_0_7_0.c,982 :: 		if((Door2CloseTime!=0)&&(ActiveDoors==2))
	MOVF        _Door2CloseTime+0, 0 
	XORLW       0
	BTFSC       STATUS+0, 2 
	GOTO        L_State5209
	MOVF        _ActiveDoors+0, 0 
	XORLW       2
	BTFSS       STATUS+0, 2 
	GOTO        L_State5209
L__State5862:
;FirmV_0_7_0.c,984 :: 		ClearTasks(9);
	MOVLW       9
	MOVWF       FARG_ClearTasks+0 
	CALL        _ClearTasks+0, 0
;FirmV_0_7_0.c,985 :: 		temp=ms500+delay;
	MOVF        State5_delay_L0+0, 0 
	ADDWF       _ms500+0, 0 
	MOVWF       R0 
	MOVLW       0
	ADDWFC      _ms500+1, 0 
	MOVWF       R1 
	MOVLW       0
	ADDWFC      _ms500+2, 0 
	MOVWF       R2 
	MOVLW       0
	ADDWFC      _ms500+3, 0 
	MOVWF       R3 
	MOVF        R0, 0 
	MOVWF       _temp+0 
	MOVF        R1, 0 
	MOVWF       _temp+1 
	MOVF        R2, 0 
	MOVWF       _temp+2 
	MOVF        R3, 0 
	MOVWF       _temp+3 
;FirmV_0_7_0.c,986 :: 		AddTask(temp,2);
	MOVF        R0, 0 
	MOVWF       FARG_AddTask+0 
	MOVF        R1, 0 
	MOVWF       FARG_AddTask+1 
	MOVF        R2, 0 
	MOVWF       FARG_AddTask+2 
	MOVF        R3, 0 
	MOVWF       FARG_AddTask+3 
	MOVLW       2
	MOVWF       FARG_AddTask+0 
	CALL        _AddTask+0, 0
;FirmV_0_7_0.c,987 :: 		AddTask(temp,6);
	MOVF        _temp+0, 0 
	MOVWF       FARG_AddTask+0 
	MOVF        _temp+1, 0 
	MOVWF       FARG_AddTask+1 
	MOVF        _temp+2, 0 
	MOVWF       FARG_AddTask+2 
	MOVF        _temp+3, 0 
	MOVWF       FARG_AddTask+3 
	MOVLW       6
	MOVWF       FARG_AddTask+0 
	CALL        _AddTask+0, 0
;FirmV_0_7_0.c,988 :: 		M1isSlow=0;//speed up
	CLRF        _M1isSlow+0 
;FirmV_0_7_0.c,989 :: 		temp=ms500+OverloadDelay+delay;
	MOVLW       6
	ADDWF       _ms500+0, 0 
	MOVWF       R0 
	MOVLW       0
	ADDWFC      _ms500+1, 0 
	MOVWF       R1 
	MOVLW       0
	ADDWFC      _ms500+2, 0 
	MOVWF       R2 
	MOVLW       0
	ADDWFC      _ms500+3, 0 
	MOVWF       R3 
	MOVF        State5_delay_L0+0, 0 
	ADDWF       R0, 1 
	MOVLW       0
	ADDWFC      R1, 1 
	ADDWFC      R2, 1 
	ADDWFC      R3, 1 
	MOVF        R0, 0 
	MOVWF       _temp+0 
	MOVF        R1, 0 
	MOVWF       _temp+1 
	MOVF        R2, 0 
	MOVWF       _temp+2 
	MOVF        R3, 0 
	MOVWF       _temp+3 
;FirmV_0_7_0.c,990 :: 		AddTask(temp,11); //overload check
	MOVF        R0, 0 
	MOVWF       FARG_AddTask+0 
	MOVF        R1, 0 
	MOVWF       FARG_AddTask+1 
	MOVF        R2, 0 
	MOVWF       FARG_AddTask+2 
	MOVF        R3, 0 
	MOVWF       FARG_AddTask+3 
	MOVLW       11
	MOVWF       FARG_AddTask+0 
	CALL        _AddTask+0, 0
;FirmV_0_7_0.c,991 :: 		temp=ms500+Door1CloseTime+delay;
	MOVF        _Door1CloseTime+0, 0 
	ADDWF       _ms500+0, 0 
	MOVWF       R0 
	MOVLW       0
	ADDWFC      _ms500+1, 0 
	MOVWF       R1 
	MOVLW       0
	ADDWFC      _ms500+2, 0 
	MOVWF       R2 
	MOVLW       0
	ADDWFC      _ms500+3, 0 
	MOVWF       R3 
	MOVF        State5_delay_L0+0, 0 
	ADDWF       R0, 1 
	MOVLW       0
	ADDWFC      R1, 1 
	ADDWFC      R2, 1 
	ADDWFC      R3, 1 
	MOVF        R0, 0 
	MOVWF       _temp+0 
	MOVF        R1, 0 
	MOVWF       _temp+1 
	MOVF        R2, 0 
	MOVWF       _temp+2 
	MOVF        R3, 0 
	MOVWF       _temp+3 
;FirmV_0_7_0.c,992 :: 		AddTask(temp,4);//Stop motor
	MOVF        R0, 0 
	MOVWF       FARG_AddTask+0 
	MOVF        R1, 0 
	MOVWF       FARG_AddTask+1 
	MOVF        R2, 0 
	MOVWF       FARG_AddTask+2 
	MOVF        R3, 0 
	MOVWF       FARG_AddTask+3 
	MOVLW       4
	MOVWF       FARG_AddTask+0 
	CALL        _AddTask+0, 0
;FirmV_0_7_0.c,997 :: 		temp=ms500+ActionTimeDiff+delay;
	MOVF        _ActionTimeDiff+0, 0 
	ADDWF       _ms500+0, 0 
	MOVWF       R0 
	MOVLW       0
	ADDWFC      _ms500+1, 0 
	MOVWF       R1 
	MOVLW       0
	ADDWFC      _ms500+2, 0 
	MOVWF       R2 
	MOVLW       0
	ADDWFC      _ms500+3, 0 
	MOVWF       R3 
	MOVF        State5_delay_L0+0, 0 
	ADDWF       R0, 1 
	MOVLW       0
	ADDWFC      R1, 1 
	ADDWFC      R2, 1 
	ADDWFC      R3, 1 
	MOVF        R0, 0 
	MOVWF       _temp+0 
	MOVF        R1, 0 
	MOVWF       _temp+1 
	MOVF        R2, 0 
	MOVWF       _temp+2 
	MOVF        R3, 0 
	MOVWF       _temp+3 
;FirmV_0_7_0.c,998 :: 		AddTask(temp,1);
	MOVF        R0, 0 
	MOVWF       FARG_AddTask+0 
	MOVF        R1, 0 
	MOVWF       FARG_AddTask+1 
	MOVF        R2, 0 
	MOVWF       FARG_AddTask+2 
	MOVF        R3, 0 
	MOVWF       FARG_AddTask+3 
	MOVLW       1
	MOVWF       FARG_AddTask+0 
	CALL        _AddTask+0, 0
;FirmV_0_7_0.c,999 :: 		temp=ms500+ActionTimeDiff+delay;
	MOVF        _ActionTimeDiff+0, 0 
	ADDWF       _ms500+0, 0 
	MOVWF       R0 
	MOVLW       0
	ADDWFC      _ms500+1, 0 
	MOVWF       R1 
	MOVLW       0
	ADDWFC      _ms500+2, 0 
	MOVWF       R2 
	MOVLW       0
	ADDWFC      _ms500+3, 0 
	MOVWF       R3 
	MOVF        State5_delay_L0+0, 0 
	ADDWF       R0, 1 
	MOVLW       0
	ADDWFC      R1, 1 
	ADDWFC      R2, 1 
	ADDWFC      R3, 1 
	MOVF        R0, 0 
	MOVWF       _temp+0 
	MOVF        R1, 0 
	MOVWF       _temp+1 
	MOVF        R2, 0 
	MOVWF       _temp+2 
	MOVF        R3, 0 
	MOVWF       _temp+3 
;FirmV_0_7_0.c,1000 :: 		AddTask(temp,5);
	MOVF        R0, 0 
	MOVWF       FARG_AddTask+0 
	MOVF        R1, 0 
	MOVWF       FARG_AddTask+1 
	MOVF        R2, 0 
	MOVWF       FARG_AddTask+2 
	MOVF        R3, 0 
	MOVWF       FARG_AddTask+3 
	MOVLW       5
	MOVWF       FARG_AddTask+0 
	CALL        _AddTask+0, 0
;FirmV_0_7_0.c,1001 :: 		M2isSlow=0;//speed up
	CLRF        _M2isSlow+0 
;FirmV_0_7_0.c,1002 :: 		temp=ms500+ActionTimeDiff+OverloadDelay+delay;
	MOVF        _ActionTimeDiff+0, 0 
	ADDWF       _ms500+0, 0 
	MOVWF       R0 
	MOVLW       0
	ADDWFC      _ms500+1, 0 
	MOVWF       R1 
	MOVLW       0
	ADDWFC      _ms500+2, 0 
	MOVWF       R2 
	MOVLW       0
	ADDWFC      _ms500+3, 0 
	MOVWF       R3 
	MOVLW       6
	ADDWF       R0, 1 
	MOVLW       0
	ADDWFC      R1, 1 
	ADDWFC      R2, 1 
	ADDWFC      R3, 1 
	MOVF        State5_delay_L0+0, 0 
	ADDWF       R0, 1 
	MOVLW       0
	ADDWFC      R1, 1 
	ADDWFC      R2, 1 
	ADDWFC      R3, 1 
	MOVF        R0, 0 
	MOVWF       _temp+0 
	MOVF        R1, 0 
	MOVWF       _temp+1 
	MOVF        R2, 0 
	MOVWF       _temp+2 
	MOVF        R3, 0 
	MOVWF       _temp+3 
;FirmV_0_7_0.c,1003 :: 		AddTask(temp,10); //overload check
	MOVF        R0, 0 
	MOVWF       FARG_AddTask+0 
	MOVF        R1, 0 
	MOVWF       FARG_AddTask+1 
	MOVF        R2, 0 
	MOVWF       FARG_AddTask+2 
	MOVF        R3, 0 
	MOVWF       FARG_AddTask+3 
	MOVLW       10
	MOVWF       FARG_AddTask+0 
	CALL        _AddTask+0, 0
;FirmV_0_7_0.c,1004 :: 		temp=ms500+Door2CloseTime+delay+ActionTimeDiff;
	MOVF        _Door2CloseTime+0, 0 
	ADDWF       _ms500+0, 0 
	MOVWF       R0 
	MOVLW       0
	ADDWFC      _ms500+1, 0 
	MOVWF       R1 
	MOVLW       0
	ADDWFC      _ms500+2, 0 
	MOVWF       R2 
	MOVLW       0
	ADDWFC      _ms500+3, 0 
	MOVWF       R3 
	MOVF        State5_delay_L0+0, 0 
	ADDWF       R0, 1 
	MOVLW       0
	ADDWFC      R1, 1 
	ADDWFC      R2, 1 
	ADDWFC      R3, 1 
	MOVF        _ActionTimeDiff+0, 0 
	ADDWF       R0, 1 
	MOVLW       0
	ADDWFC      R1, 1 
	ADDWFC      R2, 1 
	ADDWFC      R3, 1 
	MOVF        R0, 0 
	MOVWF       _temp+0 
	MOVF        R1, 0 
	MOVWF       _temp+1 
	MOVF        R2, 0 
	MOVWF       _temp+2 
	MOVF        R3, 0 
	MOVWF       _temp+3 
;FirmV_0_7_0.c,1005 :: 		AddTask(temp,3);//Stop motor
	MOVF        R0, 0 
	MOVWF       FARG_AddTask+0 
	MOVF        R1, 0 
	MOVWF       FARG_AddTask+1 
	MOVF        R2, 0 
	MOVWF       FARG_AddTask+2 
	MOVF        R3, 0 
	MOVWF       FARG_AddTask+3 
	MOVLW       3
	MOVWF       FARG_AddTask+0 
	CALL        _AddTask+0, 0
;FirmV_0_7_0.c,1006 :: 		}
L_State5209:
;FirmV_0_7_0.c,1007 :: 		CloseDone=3;
	MOVLW       3
	MOVWF       _CloseDone+0 
;FirmV_0_7_0.c,1008 :: 		OverloadCheckFlag1=0;
	CLRF        _OverloadCheckFlag1+0 
;FirmV_0_7_0.c,1009 :: 		OverloadCheckFlag2=0;
	CLRF        _OverloadCheckFlag2+0 
;FirmV_0_7_0.c,1010 :: 		KeyNoiseEliminator=0;
	CLRF        _KeyNoiseEliminator+0 
;FirmV_0_7_0.c,1011 :: 		AutoClosePauseFlag=0;
	CLRF        _AutoClosePauseFlag+0 
;FirmV_0_7_0.c,1012 :: 		State=7;
	MOVLW       7
	MOVWF       _State+0 
;FirmV_0_7_0.c,1013 :: 		}
L_State5203:
;FirmV_0_7_0.c,1015 :: 		if((Events.Photocell.b0==1)&&(AutoCloseTime!=0)&&(PassFlag==0))
	BTFSS       _Events+6, 0 
	GOTO        L_State5212
	MOVLW       0
	XORWF       _AutoCloseTime+1, 0 
	BTFSS       STATUS+0, 2 
	GOTO        L__State5979
	MOVLW       0
	XORWF       _AutoCloseTime+0, 0 
L__State5979:
	BTFSC       STATUS+0, 2 
	GOTO        L_State5212
	MOVF        _PassFlag+0, 0 
	XORLW       0
	BTFSS       STATUS+0, 2 
	GOTO        L_State5212
L__State5861:
;FirmV_0_7_0.c,1016 :: 		{PassFlag=1; AutoClosePauseFlag=1;Logger("S5 Auto Close Paused",1);}
	MOVLW       1
	MOVWF       _PassFlag+0 
	MOVLW       1
	MOVWF       _AutoClosePauseFlag+0 
	MOVLW       ?lstr41_FirmV_0_7_0+0
	MOVWF       FARG_Logger_text+0 
	MOVLW       hi_addr(?lstr41_FirmV_0_7_0+0)
	MOVWF       FARG_Logger_text+1 
	MOVLW       1
	MOVWF       FARG_Logger_TimeStampFlag+0 
	CALL        _Logger+0, 0
L_State5212:
;FirmV_0_7_0.c,1018 :: 		if((PassFlag==1)&&(Events.Photocell.b0==0)&&(AutoCloseTime!=0))
	MOVF        _PassFlag+0, 0 
	XORLW       1
	BTFSS       STATUS+0, 2 
	GOTO        L_State5215
	BTFSC       _Events+6, 0 
	GOTO        L_State5215
	MOVLW       0
	XORWF       _AutoCloseTime+1, 0 
	BTFSS       STATUS+0, 2 
	GOTO        L__State5980
	MOVLW       0
	XORWF       _AutoCloseTime+0, 0 
L__State5980:
	BTFSC       STATUS+0, 2 
	GOTO        L_State5215
L__State5860:
;FirmV_0_7_0.c,1021 :: 		{AutoClosePauseFlag=0;PassFlag=0;Logger("S5 Auto Close Resumed",1);}
	CLRF        _AutoClosePauseFlag+0 
	CLRF        _PassFlag+0 
	MOVLW       ?lstr42_FirmV_0_7_0+0
	MOVWF       FARG_Logger_text+0 
	MOVLW       hi_addr(?lstr42_FirmV_0_7_0+0)
	MOVWF       FARG_Logger_text+1 
	MOVLW       1
	MOVWF       FARG_Logger_TimeStampFlag+0 
	CALL        _Logger+0, 0
;FirmV_0_7_0.c,1022 :: 		}
L_State5215:
;FirmV_0_7_0.c,1024 :: 		}
L_end_State5:
	RETURN      0
; end of _State5

_State6:

;FirmV_0_7_0.c,1044 :: 		void State6()
;FirmV_0_7_0.c,1048 :: 		char delay=3;
	MOVLW       3
	MOVWF       State6_delay_L0+0 
;FirmV_0_7_0.c,1049 :: 		Flasher=0;
	BCF         PORTD+0, 7 
;FirmV_0_7_0.c,1050 :: 		FlashFlag=0;
	CLRF        _FlashFlag+0 
;FirmV_0_7_0.c,1052 :: 		if(ReturnAutoclose()!=PrevAC)
	CALL        _ReturnAutoclose+0, 0
	MOVF        R0, 0 
	XORWF       _PrevAC+0, 0 
	BTFSC       STATUS+0, 2 
	GOTO        L_State6217
;FirmV_0_7_0.c,1054 :: 		LCDFlashFlag=0;
	CLRF        _LCDFlashFlag+0 
;FirmV_0_7_0.c,1055 :: 		PrevAC=ReturnAutoclose();
	CALL        _ReturnAutoclose+0, 0
	MOVF        R0, 0 
	MOVWF       _PrevAC+0 
;FirmV_0_7_0.c,1056 :: 		charValueToStr_AC(PrevAC,LCDLine2+11);
	MOVF        R0, 0 
	MOVWF       FARG_charValueToStr_AC+0 
	MOVLW       _LCDLine2+11
	MOVWF       FARG_charValueToStr_AC+0 
	MOVLW       hi_addr(_LCDLine2+11)
	MOVWF       FARG_charValueToStr_AC+1 
	CALL        _charValueToStr_AC+0, 0
;FirmV_0_7_0.c,1057 :: 		memcpy(LCDLine2,"Close after",11);
	MOVLW       _LCDLine2+0
	MOVWF       FARG_memcpy_d1+0 
	MOVLW       hi_addr(_LCDLine2+0)
	MOVWF       FARG_memcpy_d1+1 
	MOVLW       ?lstr43_FirmV_0_7_0+0
	MOVWF       FARG_memcpy_s1+0 
	MOVLW       hi_addr(?lstr43_FirmV_0_7_0+0)
	MOVWF       FARG_memcpy_s1+1 
	MOVLW       11
	MOVWF       FARG_memcpy_n+0 
	MOVLW       0
	MOVWF       FARG_memcpy_n+1 
	CALL        _memcpy+0, 0
;FirmV_0_7_0.c,1058 :: 		LCDUpdateFlag=1;
	MOVLW       1
	MOVWF       _LCDUpdateFlag+0 
;FirmV_0_7_0.c,1059 :: 		}
L_State6217:
;FirmV_0_7_0.c,1062 :: 		if((Events.Remote!=0)||(PhotocellOpenFlag))
	MOVF        _Events+4, 0 
	XORLW       0
	BTFSS       STATUS+0, 2 
	GOTO        L__State6870
	MOVF        _PhotocellOpenFlag+0, 1 
	BTFSS       STATUS+0, 2 
	GOTO        L__State6870
	GOTO        L_State6220
L__State6870:
;FirmV_0_7_0.c,1064 :: 		PhotocellOpenFlag=0;
	CLRF        _PhotocellOpenFlag+0 
;FirmV_0_7_0.c,1065 :: 		Flasher=1;
	BSF         PORTD+0, 7 
;FirmV_0_7_0.c,1066 :: 		FlashFlag=1;
	MOVLW       1
	MOVWF       _FlashFlag+0 
;FirmV_0_7_0.c,1067 :: 		ClearTasks(0);
	CLRF        FARG_ClearTasks+0 
	CALL        _ClearTasks+0, 0
;FirmV_0_7_0.c,1068 :: 		if(Lockenable)
	MOVF        _LockEnable+0, 1 
	BTFSC       STATUS+0, 2 
	GOTO        L_State6221
;FirmV_0_7_0.c,1069 :: 		AddTask(ms500+1,12);
	MOVLW       1
	ADDWF       _ms500+0, 0 
	MOVWF       FARG_AddTask+0 
	MOVLW       0
	ADDWFC      _ms500+1, 0 
	MOVWF       FARG_AddTask+1 
	MOVLW       0
	ADDWFC      _ms500+2, 0 
	MOVWF       FARG_AddTask+2 
	MOVLW       0
	ADDWFC      _ms500+3, 0 
	MOVWF       FARG_AddTask+3 
	MOVLW       12
	MOVWF       FARG_AddTask+0 
	CALL        _AddTask+0, 0
L_State6221:
;FirmV_0_7_0.c,1070 :: 		temp=ms500+delay;
	MOVF        State6_delay_L0+0, 0 
	ADDWF       _ms500+0, 0 
	MOVWF       R0 
	MOVLW       0
	ADDWFC      _ms500+1, 0 
	MOVWF       R1 
	MOVLW       0
	ADDWFC      _ms500+2, 0 
	MOVWF       R2 
	MOVLW       0
	ADDWFC      _ms500+3, 0 
	MOVWF       R3 
	MOVF        R0, 0 
	MOVWF       _temp+0 
	MOVF        R1, 0 
	MOVWF       _temp+1 
	MOVF        R2, 0 
	MOVWF       _temp+2 
	MOVF        R3, 0 
	MOVWF       _temp+3 
;FirmV_0_7_0.c,1071 :: 		AddTask(temp,1);
	MOVF        R0, 0 
	MOVWF       FARG_AddTask+0 
	MOVF        R1, 0 
	MOVWF       FARG_AddTask+1 
	MOVF        R2, 0 
	MOVWF       FARG_AddTask+2 
	MOVF        R3, 0 
	MOVWF       FARG_AddTask+3 
	MOVLW       1
	MOVWF       FARG_AddTask+0 
	CALL        _AddTask+0, 0
;FirmV_0_7_0.c,1072 :: 		AddTask(temp,5);
	MOVF        _temp+0, 0 
	MOVWF       FARG_AddTask+0 
	MOVF        _temp+1, 0 
	MOVWF       FARG_AddTask+1 
	MOVF        _temp+2, 0 
	MOVWF       FARG_AddTask+2 
	MOVF        _temp+3, 0 
	MOVWF       FARG_AddTask+3 
	MOVLW       5
	MOVWF       FARG_AddTask+0 
	CALL        _AddTask+0, 0
;FirmV_0_7_0.c,1073 :: 		M1isSlow=0;//speed up
	CLRF        _M1isSlow+0 
;FirmV_0_7_0.c,1074 :: 		temp=ms500+OverloadDelay+delay;
	MOVLW       6
	ADDWF       _ms500+0, 0 
	MOVWF       R0 
	MOVLW       0
	ADDWFC      _ms500+1, 0 
	MOVWF       R1 
	MOVLW       0
	ADDWFC      _ms500+2, 0 
	MOVWF       R2 
	MOVLW       0
	ADDWFC      _ms500+3, 0 
	MOVWF       R3 
	MOVF        State6_delay_L0+0, 0 
	ADDWF       R0, 1 
	MOVLW       0
	ADDWFC      R1, 1 
	ADDWFC      R2, 1 
	ADDWFC      R3, 1 
	MOVF        R0, 0 
	MOVWF       _temp+0 
	MOVF        R1, 0 
	MOVWF       _temp+1 
	MOVF        R2, 0 
	MOVWF       _temp+2 
	MOVF        R3, 0 
	MOVWF       _temp+3 
;FirmV_0_7_0.c,1075 :: 		AddTask(temp,10); //overload check
	MOVF        R0, 0 
	MOVWF       FARG_AddTask+0 
	MOVF        R1, 0 
	MOVWF       FARG_AddTask+1 
	MOVF        R2, 0 
	MOVWF       FARG_AddTask+2 
	MOVF        R3, 0 
	MOVWF       FARG_AddTask+3 
	MOVLW       10
	MOVWF       FARG_AddTask+0 
	CALL        _AddTask+0, 0
;FirmV_0_7_0.c,1076 :: 		temp=ms500+Door1OpenTime+delay;
	MOVF        _Door1OpenTime+0, 0 
	ADDWF       _ms500+0, 0 
	MOVWF       R0 
	MOVLW       0
	ADDWFC      _ms500+1, 0 
	MOVWF       R1 
	MOVLW       0
	ADDWFC      _ms500+2, 0 
	MOVWF       R2 
	MOVLW       0
	ADDWFC      _ms500+3, 0 
	MOVWF       R3 
	MOVF        State6_delay_L0+0, 0 
	ADDWF       R0, 1 
	MOVLW       0
	ADDWFC      R1, 1 
	ADDWFC      R2, 1 
	ADDWFC      R3, 1 
	MOVF        R0, 0 
	MOVWF       _temp+0 
	MOVF        R1, 0 
	MOVWF       _temp+1 
	MOVF        R2, 0 
	MOVWF       _temp+2 
	MOVF        R3, 0 
	MOVWF       _temp+3 
;FirmV_0_7_0.c,1077 :: 		AddTask(temp,3);//Stop motor
	MOVF        R0, 0 
	MOVWF       FARG_AddTask+0 
	MOVF        R1, 0 
	MOVWF       FARG_AddTask+1 
	MOVF        R2, 0 
	MOVWF       FARG_AddTask+2 
	MOVF        R3, 0 
	MOVWF       FARG_AddTask+3 
	MOVLW       3
	MOVWF       FARG_AddTask+0 
	CALL        _AddTask+0, 0
;FirmV_0_7_0.c,1078 :: 		if((Door2OpenTime!=0)&&(ActiveDoors==2))
	MOVF        _Door2OpenTime+0, 0 
	XORLW       0
	BTFSC       STATUS+0, 2 
	GOTO        L_State6224
	MOVF        _ActiveDoors+0, 0 
	XORLW       2
	BTFSS       STATUS+0, 2 
	GOTO        L_State6224
L__State6869:
;FirmV_0_7_0.c,1080 :: 		AddTask(ms500+ActionTimeDiff+delay,2);
	MOVF        _ActionTimeDiff+0, 0 
	ADDWF       _ms500+0, 0 
	MOVWF       FARG_AddTask+0 
	MOVLW       0
	ADDWFC      _ms500+1, 0 
	MOVWF       FARG_AddTask+1 
	MOVLW       0
	ADDWFC      _ms500+2, 0 
	MOVWF       FARG_AddTask+2 
	MOVLW       0
	ADDWFC      _ms500+3, 0 
	MOVWF       FARG_AddTask+3 
	MOVF        State6_delay_L0+0, 0 
	ADDWF       FARG_AddTask+0, 1 
	MOVLW       0
	ADDWFC      FARG_AddTask+1, 1 
	ADDWFC      FARG_AddTask+2, 1 
	ADDWFC      FARG_AddTask+3, 1 
	MOVLW       2
	MOVWF       FARG_AddTask+0 
	CALL        _AddTask+0, 0
;FirmV_0_7_0.c,1081 :: 		AddTask(ms500+ActionTimeDiff+delay,6);
	MOVF        _ActionTimeDiff+0, 0 
	ADDWF       _ms500+0, 0 
	MOVWF       FARG_AddTask+0 
	MOVLW       0
	ADDWFC      _ms500+1, 0 
	MOVWF       FARG_AddTask+1 
	MOVLW       0
	ADDWFC      _ms500+2, 0 
	MOVWF       FARG_AddTask+2 
	MOVLW       0
	ADDWFC      _ms500+3, 0 
	MOVWF       FARG_AddTask+3 
	MOVF        State6_delay_L0+0, 0 
	ADDWF       FARG_AddTask+0, 1 
	MOVLW       0
	ADDWFC      FARG_AddTask+1, 1 
	ADDWFC      FARG_AddTask+2, 1 
	ADDWFC      FARG_AddTask+3, 1 
	MOVLW       6
	MOVWF       FARG_AddTask+0 
	CALL        _AddTask+0, 0
;FirmV_0_7_0.c,1082 :: 		M2isSlow=0;//speed up
	CLRF        _M2isSlow+0 
;FirmV_0_7_0.c,1083 :: 		AddTask(ms500+ActionTimeDiff+OverloadDelay+delay,11); //overload check
	MOVF        _ActionTimeDiff+0, 0 
	ADDWF       _ms500+0, 0 
	MOVWF       FARG_AddTask+0 
	MOVLW       0
	ADDWFC      _ms500+1, 0 
	MOVWF       FARG_AddTask+1 
	MOVLW       0
	ADDWFC      _ms500+2, 0 
	MOVWF       FARG_AddTask+2 
	MOVLW       0
	ADDWFC      _ms500+3, 0 
	MOVWF       FARG_AddTask+3 
	MOVLW       6
	ADDWF       FARG_AddTask+0, 1 
	MOVLW       0
	ADDWFC      FARG_AddTask+1, 1 
	ADDWFC      FARG_AddTask+2, 1 
	ADDWFC      FARG_AddTask+3, 1 
	MOVF        State6_delay_L0+0, 0 
	ADDWF       FARG_AddTask+0, 1 
	MOVLW       0
	ADDWFC      FARG_AddTask+1, 1 
	ADDWFC      FARG_AddTask+2, 1 
	ADDWFC      FARG_AddTask+3, 1 
	MOVLW       11
	MOVWF       FARG_AddTask+0 
	CALL        _AddTask+0, 0
;FirmV_0_7_0.c,1084 :: 		AddTask(ms500+Door2OpenTime+ActionTimeDiff+delay,4);//Stop motor
	MOVF        _Door2OpenTime+0, 0 
	ADDWF       _ms500+0, 0 
	MOVWF       FARG_AddTask+0 
	MOVLW       0
	ADDWFC      _ms500+1, 0 
	MOVWF       FARG_AddTask+1 
	MOVLW       0
	ADDWFC      _ms500+2, 0 
	MOVWF       FARG_AddTask+2 
	MOVLW       0
	ADDWFC      _ms500+3, 0 
	MOVWF       FARG_AddTask+3 
	MOVF        _ActionTimeDiff+0, 0 
	ADDWF       FARG_AddTask+0, 1 
	MOVLW       0
	ADDWFC      FARG_AddTask+1, 1 
	ADDWFC      FARG_AddTask+2, 1 
	ADDWFC      FARG_AddTask+3, 1 
	MOVF        State6_delay_L0+0, 0 
	ADDWF       FARG_AddTask+0, 1 
	MOVLW       0
	ADDWFC      FARG_AddTask+1, 1 
	ADDWFC      FARG_AddTask+2, 1 
	ADDWFC      FARG_AddTask+3, 1 
	MOVLW       4
	MOVWF       FARG_AddTask+0 
	CALL        _AddTask+0, 0
;FirmV_0_7_0.c,1085 :: 		}
L_State6224:
;FirmV_0_7_0.c,1088 :: 		OpenDone=3;
	MOVLW       3
	MOVWF       _OpenDone+0 
;FirmV_0_7_0.c,1089 :: 		OverloadCheckFlag1=0;
	CLRF        _OverloadCheckFlag1+0 
;FirmV_0_7_0.c,1090 :: 		OverloadCheckFlag2=0;
	CLRF        _OverloadCheckFlag2+0 
;FirmV_0_7_0.c,1091 :: 		PassFlag=0;
	CLRF        _PassFlag+0 
;FirmV_0_7_0.c,1092 :: 		KeyNoiseEliminator=0;
	CLRF        _KeyNoiseEliminator+0 
;FirmV_0_7_0.c,1093 :: 		AutoClosePauseFlag=0;
	CLRF        _AutoClosePauseFlag+0 
;FirmV_0_7_0.c,1094 :: 		State=8;
	MOVLW       8
	MOVWF       _State+0 
;FirmV_0_7_0.c,1095 :: 		}
L_State6220:
;FirmV_0_7_0.c,1098 :: 		if(CheckTask(9)==1)
	MOVLW       9
	MOVWF       FARG_CheckTask+0 
	CALL        _CheckTask+0, 0
	MOVF        R0, 0 
	XORLW       1
	BTFSS       STATUS+0, 2 
	GOTO        L_State6225
;FirmV_0_7_0.c,1100 :: 		if((Door2CloseTime==0)||(ActiveDoors==1))
	MOVF        _Door2CloseTime+0, 0 
	XORLW       0
	BTFSC       STATUS+0, 2 
	GOTO        L__State6868
	MOVF        _ActiveDoors+0, 0 
	XORLW       1
	BTFSC       STATUS+0, 2 
	GOTO        L__State6868
	GOTO        L_State6228
L__State6868:
;FirmV_0_7_0.c,1102 :: 		ClearTasks(0);
	CLRF        FARG_ClearTasks+0 
	CALL        _ClearTasks+0, 0
;FirmV_0_7_0.c,1103 :: 		temp=ms500+delay;
	MOVF        State6_delay_L0+0, 0 
	ADDWF       _ms500+0, 0 
	MOVWF       R0 
	MOVLW       0
	ADDWFC      _ms500+1, 0 
	MOVWF       R1 
	MOVLW       0
	ADDWFC      _ms500+2, 0 
	MOVWF       R2 
	MOVLW       0
	ADDWFC      _ms500+3, 0 
	MOVWF       R3 
	MOVF        R0, 0 
	MOVWF       _temp+0 
	MOVF        R1, 0 
	MOVWF       _temp+1 
	MOVF        R2, 0 
	MOVWF       _temp+2 
	MOVF        R3, 0 
	MOVWF       _temp+3 
;FirmV_0_7_0.c,1104 :: 		AddTask(temp,1);
	MOVF        R0, 0 
	MOVWF       FARG_AddTask+0 
	MOVF        R1, 0 
	MOVWF       FARG_AddTask+1 
	MOVF        R2, 0 
	MOVWF       FARG_AddTask+2 
	MOVF        R3, 0 
	MOVWF       FARG_AddTask+3 
	MOVLW       1
	MOVWF       FARG_AddTask+0 
	CALL        _AddTask+0, 0
;FirmV_0_7_0.c,1105 :: 		AddTask(temp,5);
	MOVF        _temp+0, 0 
	MOVWF       FARG_AddTask+0 
	MOVF        _temp+1, 0 
	MOVWF       FARG_AddTask+1 
	MOVF        _temp+2, 0 
	MOVWF       FARG_AddTask+2 
	MOVF        _temp+3, 0 
	MOVWF       FARG_AddTask+3 
	MOVLW       5
	MOVWF       FARG_AddTask+0 
	CALL        _AddTask+0, 0
;FirmV_0_7_0.c,1106 :: 		M1isSlow=0;//speed up
	CLRF        _M1isSlow+0 
;FirmV_0_7_0.c,1107 :: 		temp=ms500+OverloadDelay+delay;
	MOVLW       6
	ADDWF       _ms500+0, 0 
	MOVWF       R0 
	MOVLW       0
	ADDWFC      _ms500+1, 0 
	MOVWF       R1 
	MOVLW       0
	ADDWFC      _ms500+2, 0 
	MOVWF       R2 
	MOVLW       0
	ADDWFC      _ms500+3, 0 
	MOVWF       R3 
	MOVF        State6_delay_L0+0, 0 
	ADDWF       R0, 1 
	MOVLW       0
	ADDWFC      R1, 1 
	ADDWFC      R2, 1 
	ADDWFC      R3, 1 
	MOVF        R0, 0 
	MOVWF       _temp+0 
	MOVF        R1, 0 
	MOVWF       _temp+1 
	MOVF        R2, 0 
	MOVWF       _temp+2 
	MOVF        R3, 0 
	MOVWF       _temp+3 
;FirmV_0_7_0.c,1108 :: 		AddTask(temp,10); //overload check
	MOVF        R0, 0 
	MOVWF       FARG_AddTask+0 
	MOVF        R1, 0 
	MOVWF       FARG_AddTask+1 
	MOVF        R2, 0 
	MOVWF       FARG_AddTask+2 
	MOVF        R3, 0 
	MOVWF       FARG_AddTask+3 
	MOVLW       10
	MOVWF       FARG_AddTask+0 
	CALL        _AddTask+0, 0
;FirmV_0_7_0.c,1109 :: 		temp=ms500+Door1CloseTime+delay;
	MOVF        _Door1CloseTime+0, 0 
	ADDWF       _ms500+0, 0 
	MOVWF       R0 
	MOVLW       0
	ADDWFC      _ms500+1, 0 
	MOVWF       R1 
	MOVLW       0
	ADDWFC      _ms500+2, 0 
	MOVWF       R2 
	MOVLW       0
	ADDWFC      _ms500+3, 0 
	MOVWF       R3 
	MOVF        State6_delay_L0+0, 0 
	ADDWF       R0, 1 
	MOVLW       0
	ADDWFC      R1, 1 
	ADDWFC      R2, 1 
	ADDWFC      R3, 1 
	MOVF        R0, 0 
	MOVWF       _temp+0 
	MOVF        R1, 0 
	MOVWF       _temp+1 
	MOVF        R2, 0 
	MOVWF       _temp+2 
	MOVF        R3, 0 
	MOVWF       _temp+3 
;FirmV_0_7_0.c,1110 :: 		AddTask(temp,3);//Stop motor
	MOVF        R0, 0 
	MOVWF       FARG_AddTask+0 
	MOVF        R1, 0 
	MOVWF       FARG_AddTask+1 
	MOVF        R2, 0 
	MOVWF       FARG_AddTask+2 
	MOVF        R3, 0 
	MOVWF       FARG_AddTask+3 
	MOVLW       3
	MOVWF       FARG_AddTask+0 
	CALL        _AddTask+0, 0
;FirmV_0_7_0.c,1111 :: 		}
L_State6228:
;FirmV_0_7_0.c,1112 :: 		if((Door2CloseTime!=0)&&(ActiveDoors==2))
	MOVF        _Door2CloseTime+0, 0 
	XORLW       0
	BTFSC       STATUS+0, 2 
	GOTO        L_State6231
	MOVF        _ActiveDoors+0, 0 
	XORLW       2
	BTFSS       STATUS+0, 2 
	GOTO        L_State6231
L__State6867:
;FirmV_0_7_0.c,1114 :: 		ClearTasks(0);
	CLRF        FARG_ClearTasks+0 
	CALL        _ClearTasks+0, 0
;FirmV_0_7_0.c,1115 :: 		temp=ms500+delay;
	MOVF        State6_delay_L0+0, 0 
	ADDWF       _ms500+0, 0 
	MOVWF       R0 
	MOVLW       0
	ADDWFC      _ms500+1, 0 
	MOVWF       R1 
	MOVLW       0
	ADDWFC      _ms500+2, 0 
	MOVWF       R2 
	MOVLW       0
	ADDWFC      _ms500+3, 0 
	MOVWF       R3 
	MOVF        R0, 0 
	MOVWF       _temp+0 
	MOVF        R1, 0 
	MOVWF       _temp+1 
	MOVF        R2, 0 
	MOVWF       _temp+2 
	MOVF        R3, 0 
	MOVWF       _temp+3 
;FirmV_0_7_0.c,1116 :: 		AddTask(temp,2);
	MOVF        R0, 0 
	MOVWF       FARG_AddTask+0 
	MOVF        R1, 0 
	MOVWF       FARG_AddTask+1 
	MOVF        R2, 0 
	MOVWF       FARG_AddTask+2 
	MOVF        R3, 0 
	MOVWF       FARG_AddTask+3 
	MOVLW       2
	MOVWF       FARG_AddTask+0 
	CALL        _AddTask+0, 0
;FirmV_0_7_0.c,1117 :: 		AddTask(temp,6);
	MOVF        _temp+0, 0 
	MOVWF       FARG_AddTask+0 
	MOVF        _temp+1, 0 
	MOVWF       FARG_AddTask+1 
	MOVF        _temp+2, 0 
	MOVWF       FARG_AddTask+2 
	MOVF        _temp+3, 0 
	MOVWF       FARG_AddTask+3 
	MOVLW       6
	MOVWF       FARG_AddTask+0 
	CALL        _AddTask+0, 0
;FirmV_0_7_0.c,1118 :: 		M1isSlow=0;//speed up
	CLRF        _M1isSlow+0 
;FirmV_0_7_0.c,1119 :: 		temp=ms500+OverloadDelay+delay;
	MOVLW       6
	ADDWF       _ms500+0, 0 
	MOVWF       R0 
	MOVLW       0
	ADDWFC      _ms500+1, 0 
	MOVWF       R1 
	MOVLW       0
	ADDWFC      _ms500+2, 0 
	MOVWF       R2 
	MOVLW       0
	ADDWFC      _ms500+3, 0 
	MOVWF       R3 
	MOVF        State6_delay_L0+0, 0 
	ADDWF       R0, 1 
	MOVLW       0
	ADDWFC      R1, 1 
	ADDWFC      R2, 1 
	ADDWFC      R3, 1 
	MOVF        R0, 0 
	MOVWF       _temp+0 
	MOVF        R1, 0 
	MOVWF       _temp+1 
	MOVF        R2, 0 
	MOVWF       _temp+2 
	MOVF        R3, 0 
	MOVWF       _temp+3 
;FirmV_0_7_0.c,1120 :: 		AddTask(temp,11); //overload check
	MOVF        R0, 0 
	MOVWF       FARG_AddTask+0 
	MOVF        R1, 0 
	MOVWF       FARG_AddTask+1 
	MOVF        R2, 0 
	MOVWF       FARG_AddTask+2 
	MOVF        R3, 0 
	MOVWF       FARG_AddTask+3 
	MOVLW       11
	MOVWF       FARG_AddTask+0 
	CALL        _AddTask+0, 0
;FirmV_0_7_0.c,1121 :: 		temp=ms500+Door1CloseTime+delay;
	MOVF        _Door1CloseTime+0, 0 
	ADDWF       _ms500+0, 0 
	MOVWF       R0 
	MOVLW       0
	ADDWFC      _ms500+1, 0 
	MOVWF       R1 
	MOVLW       0
	ADDWFC      _ms500+2, 0 
	MOVWF       R2 
	MOVLW       0
	ADDWFC      _ms500+3, 0 
	MOVWF       R3 
	MOVF        State6_delay_L0+0, 0 
	ADDWF       R0, 1 
	MOVLW       0
	ADDWFC      R1, 1 
	ADDWFC      R2, 1 
	ADDWFC      R3, 1 
	MOVF        R0, 0 
	MOVWF       _temp+0 
	MOVF        R1, 0 
	MOVWF       _temp+1 
	MOVF        R2, 0 
	MOVWF       _temp+2 
	MOVF        R3, 0 
	MOVWF       _temp+3 
;FirmV_0_7_0.c,1122 :: 		AddTask(temp,4);//Stop motor
	MOVF        R0, 0 
	MOVWF       FARG_AddTask+0 
	MOVF        R1, 0 
	MOVWF       FARG_AddTask+1 
	MOVF        R2, 0 
	MOVWF       FARG_AddTask+2 
	MOVF        R3, 0 
	MOVWF       FARG_AddTask+3 
	MOVLW       4
	MOVWF       FARG_AddTask+0 
	CALL        _AddTask+0, 0
;FirmV_0_7_0.c,1127 :: 		temp=ms500+ActionTimeDiff+delay;
	MOVF        _ActionTimeDiff+0, 0 
	ADDWF       _ms500+0, 0 
	MOVWF       R0 
	MOVLW       0
	ADDWFC      _ms500+1, 0 
	MOVWF       R1 
	MOVLW       0
	ADDWFC      _ms500+2, 0 
	MOVWF       R2 
	MOVLW       0
	ADDWFC      _ms500+3, 0 
	MOVWF       R3 
	MOVF        State6_delay_L0+0, 0 
	ADDWF       R0, 1 
	MOVLW       0
	ADDWFC      R1, 1 
	ADDWFC      R2, 1 
	ADDWFC      R3, 1 
	MOVF        R0, 0 
	MOVWF       _temp+0 
	MOVF        R1, 0 
	MOVWF       _temp+1 
	MOVF        R2, 0 
	MOVWF       _temp+2 
	MOVF        R3, 0 
	MOVWF       _temp+3 
;FirmV_0_7_0.c,1128 :: 		AddTask(temp,1);
	MOVF        R0, 0 
	MOVWF       FARG_AddTask+0 
	MOVF        R1, 0 
	MOVWF       FARG_AddTask+1 
	MOVF        R2, 0 
	MOVWF       FARG_AddTask+2 
	MOVF        R3, 0 
	MOVWF       FARG_AddTask+3 
	MOVLW       1
	MOVWF       FARG_AddTask+0 
	CALL        _AddTask+0, 0
;FirmV_0_7_0.c,1129 :: 		temp=ms500+ActionTimeDiff+delay;
	MOVF        _ActionTimeDiff+0, 0 
	ADDWF       _ms500+0, 0 
	MOVWF       R0 
	MOVLW       0
	ADDWFC      _ms500+1, 0 
	MOVWF       R1 
	MOVLW       0
	ADDWFC      _ms500+2, 0 
	MOVWF       R2 
	MOVLW       0
	ADDWFC      _ms500+3, 0 
	MOVWF       R3 
	MOVF        State6_delay_L0+0, 0 
	ADDWF       R0, 1 
	MOVLW       0
	ADDWFC      R1, 1 
	ADDWFC      R2, 1 
	ADDWFC      R3, 1 
	MOVF        R0, 0 
	MOVWF       _temp+0 
	MOVF        R1, 0 
	MOVWF       _temp+1 
	MOVF        R2, 0 
	MOVWF       _temp+2 
	MOVF        R3, 0 
	MOVWF       _temp+3 
;FirmV_0_7_0.c,1130 :: 		AddTask(temp,5);
	MOVF        R0, 0 
	MOVWF       FARG_AddTask+0 
	MOVF        R1, 0 
	MOVWF       FARG_AddTask+1 
	MOVF        R2, 0 
	MOVWF       FARG_AddTask+2 
	MOVF        R3, 0 
	MOVWF       FARG_AddTask+3 
	MOVLW       5
	MOVWF       FARG_AddTask+0 
	CALL        _AddTask+0, 0
;FirmV_0_7_0.c,1131 :: 		M2isSlow=0;//speed up
	CLRF        _M2isSlow+0 
;FirmV_0_7_0.c,1132 :: 		temp=ms500+ActionTimeDiff+OverloadDelay+delay;
	MOVF        _ActionTimeDiff+0, 0 
	ADDWF       _ms500+0, 0 
	MOVWF       R0 
	MOVLW       0
	ADDWFC      _ms500+1, 0 
	MOVWF       R1 
	MOVLW       0
	ADDWFC      _ms500+2, 0 
	MOVWF       R2 
	MOVLW       0
	ADDWFC      _ms500+3, 0 
	MOVWF       R3 
	MOVLW       6
	ADDWF       R0, 1 
	MOVLW       0
	ADDWFC      R1, 1 
	ADDWFC      R2, 1 
	ADDWFC      R3, 1 
	MOVF        State6_delay_L0+0, 0 
	ADDWF       R0, 1 
	MOVLW       0
	ADDWFC      R1, 1 
	ADDWFC      R2, 1 
	ADDWFC      R3, 1 
	MOVF        R0, 0 
	MOVWF       _temp+0 
	MOVF        R1, 0 
	MOVWF       _temp+1 
	MOVF        R2, 0 
	MOVWF       _temp+2 
	MOVF        R3, 0 
	MOVWF       _temp+3 
;FirmV_0_7_0.c,1133 :: 		AddTask(temp,10); //overload check
	MOVF        R0, 0 
	MOVWF       FARG_AddTask+0 
	MOVF        R1, 0 
	MOVWF       FARG_AddTask+1 
	MOVF        R2, 0 
	MOVWF       FARG_AddTask+2 
	MOVF        R3, 0 
	MOVWF       FARG_AddTask+3 
	MOVLW       10
	MOVWF       FARG_AddTask+0 
	CALL        _AddTask+0, 0
;FirmV_0_7_0.c,1134 :: 		temp=ms500+Door2CloseTime+delay+ActionTimeDiff;
	MOVF        _Door2CloseTime+0, 0 
	ADDWF       _ms500+0, 0 
	MOVWF       R0 
	MOVLW       0
	ADDWFC      _ms500+1, 0 
	MOVWF       R1 
	MOVLW       0
	ADDWFC      _ms500+2, 0 
	MOVWF       R2 
	MOVLW       0
	ADDWFC      _ms500+3, 0 
	MOVWF       R3 
	MOVF        State6_delay_L0+0, 0 
	ADDWF       R0, 1 
	MOVLW       0
	ADDWFC      R1, 1 
	ADDWFC      R2, 1 
	ADDWFC      R3, 1 
	MOVF        _ActionTimeDiff+0, 0 
	ADDWF       R0, 1 
	MOVLW       0
	ADDWFC      R1, 1 
	ADDWFC      R2, 1 
	ADDWFC      R3, 1 
	MOVF        R0, 0 
	MOVWF       _temp+0 
	MOVF        R1, 0 
	MOVWF       _temp+1 
	MOVF        R2, 0 
	MOVWF       _temp+2 
	MOVF        R3, 0 
	MOVWF       _temp+3 
;FirmV_0_7_0.c,1135 :: 		AddTask(temp,3);//Stop motor
	MOVF        R0, 0 
	MOVWF       FARG_AddTask+0 
	MOVF        R1, 0 
	MOVWF       FARG_AddTask+1 
	MOVF        R2, 0 
	MOVWF       FARG_AddTask+2 
	MOVF        R3, 0 
	MOVWF       FARG_AddTask+3 
	MOVLW       3
	MOVWF       FARG_AddTask+0 
	CALL        _AddTask+0, 0
;FirmV_0_7_0.c,1136 :: 		}
L_State6231:
;FirmV_0_7_0.c,1137 :: 		CloseDone=3;
	MOVLW       3
	MOVWF       _CloseDone+0 
;FirmV_0_7_0.c,1138 :: 		OverloadCheckFlag1=0;
	CLRF        _OverloadCheckFlag1+0 
;FirmV_0_7_0.c,1139 :: 		OverloadCheckFlag2=0;
	CLRF        _OverloadCheckFlag2+0 
;FirmV_0_7_0.c,1140 :: 		PassFlag=0;
	CLRF        _PassFlag+0 
;FirmV_0_7_0.c,1141 :: 		KeyNoiseEliminator=0;
	CLRF        _KeyNoiseEliminator+0 
;FirmV_0_7_0.c,1142 :: 		AutoClosePauseFlag=0;
	CLRF        _AutoClosePauseFlag+0 
;FirmV_0_7_0.c,1143 :: 		State=7;
	MOVLW       7
	MOVWF       _State+0 
;FirmV_0_7_0.c,1144 :: 		}
L_State6225:
;FirmV_0_7_0.c,1146 :: 		if((Events.Photocell.b0==1)&&(AutoCloseTime!=0)&&(PassFlag==0))
	BTFSS       _Events+6, 0 
	GOTO        L_State6234
	MOVLW       0
	XORWF       _AutoCloseTime+1, 0 
	BTFSS       STATUS+0, 2 
	GOTO        L__State6982
	MOVLW       0
	XORWF       _AutoCloseTime+0, 0 
L__State6982:
	BTFSC       STATUS+0, 2 
	GOTO        L_State6234
	MOVF        _PassFlag+0, 0 
	XORLW       0
	BTFSS       STATUS+0, 2 
	GOTO        L_State6234
L__State6866:
;FirmV_0_7_0.c,1147 :: 		{PassFlag=1; AutoClosePauseFlag=1;Logger("S6 Auto Close Paused",1);}
	MOVLW       1
	MOVWF       _PassFlag+0 
	MOVLW       1
	MOVWF       _AutoClosePauseFlag+0 
	MOVLW       ?lstr44_FirmV_0_7_0+0
	MOVWF       FARG_Logger_text+0 
	MOVLW       hi_addr(?lstr44_FirmV_0_7_0+0)
	MOVWF       FARG_Logger_text+1 
	MOVLW       1
	MOVWF       FARG_Logger_TimeStampFlag+0 
	CALL        _Logger+0, 0
L_State6234:
;FirmV_0_7_0.c,1149 :: 		if((PassFlag==1)&&(Events.Photocell.b0==0)&&(AutoCloseTime!=0))
	MOVF        _PassFlag+0, 0 
	XORLW       1
	BTFSS       STATUS+0, 2 
	GOTO        L_State6237
	BTFSC       _Events+6, 0 
	GOTO        L_State6237
	MOVLW       0
	XORWF       _AutoCloseTime+1, 0 
	BTFSS       STATUS+0, 2 
	GOTO        L__State6983
	MOVLW       0
	XORWF       _AutoCloseTime+0, 0 
L__State6983:
	BTFSC       STATUS+0, 2 
	GOTO        L_State6237
L__State6865:
;FirmV_0_7_0.c,1151 :: 		{AutoClosePauseFlag=0;PassFlag=0;Logger("S6 Auto Close Resumed",1);}
	CLRF        _AutoClosePauseFlag+0 
	CLRF        _PassFlag+0 
	MOVLW       ?lstr45_FirmV_0_7_0+0
	MOVWF       FARG_Logger_text+0 
	MOVLW       hi_addr(?lstr45_FirmV_0_7_0+0)
	MOVWF       FARG_Logger_text+1 
	MOVLW       1
	MOVWF       FARG_Logger_TimeStampFlag+0 
	CALL        _Logger+0, 0
;FirmV_0_7_0.c,1152 :: 		}
L_State6237:
;FirmV_0_7_0.c,1154 :: 		}
L_end_State6:
	RETURN      0
; end of _State6

_State7:

;FirmV_0_7_0.c,1176 :: 		void State7()
;FirmV_0_7_0.c,1178 :: 		Flasher=1;
	BSF         PORTD+0, 7 
;FirmV_0_7_0.c,1179 :: 		FlashFlag=1;
	MOVLW       1
	MOVWF       _FlashFlag+0 
;FirmV_0_7_0.c,1181 :: 		if(CheckTask(1))
	MOVLW       1
	MOVWF       FARG_CheckTask+0 
	CALL        _CheckTask+0, 0
	MOVF        R0, 1 
	BTFSC       STATUS+0, 2 
	GOTO        L_State7239
;FirmV_0_7_0.c,1182 :: 		{StartMotor(1,_Close);Logger("S7 Motor1Start",1);}
	MOVLW       1
	MOVWF       FARG_StartMotor+0 
	CLRF        FARG_StartMotor+0 
	CALL        _StartMotor+0, 0
	MOVLW       ?lstr46_FirmV_0_7_0+0
	MOVWF       FARG_Logger_text+0 
	MOVLW       hi_addr(?lstr46_FirmV_0_7_0+0)
	MOVWF       FARG_Logger_text+1 
	MOVLW       1
	MOVWF       FARG_Logger_TimeStampFlag+0 
	CALL        _Logger+0, 0
L_State7239:
;FirmV_0_7_0.c,1184 :: 		if(CheckTask(2))
	MOVLW       2
	MOVWF       FARG_CheckTask+0 
	CALL        _CheckTask+0, 0
	MOVF        R0, 1 
	BTFSC       STATUS+0, 2 
	GOTO        L_State7240
;FirmV_0_7_0.c,1185 :: 		{StartMotor(2,_Close);Logger("S7 Motor2Start",1);memcpy(LCDLine1,_closing,16);memcpy(LCDLine2,_Blank,16);LCDUpdateFlag=1;LCDLines=1;}
	MOVLW       2
	MOVWF       FARG_StartMotor+0 
	CLRF        FARG_StartMotor+0 
	CALL        _StartMotor+0, 0
	MOVLW       ?lstr47_FirmV_0_7_0+0
	MOVWF       FARG_Logger_text+0 
	MOVLW       hi_addr(?lstr47_FirmV_0_7_0+0)
	MOVWF       FARG_Logger_text+1 
	MOVLW       1
	MOVWF       FARG_Logger_TimeStampFlag+0 
	CALL        _Logger+0, 0
	MOVLW       _LCDLine1+0
	MOVWF       FARG_memcpy_d1+0 
	MOVLW       hi_addr(_LCDLine1+0)
	MOVWF       FARG_memcpy_d1+1 
	MOVLW       __closing+0
	MOVWF       FARG_memcpy_s1+0 
	MOVLW       hi_addr(__closing+0)
	MOVWF       FARG_memcpy_s1+1 
	MOVLW       16
	MOVWF       FARG_memcpy_n+0 
	MOVLW       0
	MOVWF       FARG_memcpy_n+1 
	CALL        _memcpy+0, 0
	MOVLW       _LCDLine2+0
	MOVWF       FARG_memcpy_d1+0 
	MOVLW       hi_addr(_LCDLine2+0)
	MOVWF       FARG_memcpy_d1+1 
	MOVLW       __Blank+0
	MOVWF       FARG_memcpy_s1+0 
	MOVLW       hi_addr(__Blank+0)
	MOVWF       FARG_memcpy_s1+1 
	MOVLW       16
	MOVWF       FARG_memcpy_n+0 
	MOVLW       0
	MOVWF       FARG_memcpy_n+1 
	CALL        _memcpy+0, 0
	MOVLW       1
	MOVWF       _LCDUpdateFlag+0 
	MOVLW       1
	MOVWF       _LCDLines+0 
L_State7240:
;FirmV_0_7_0.c,1187 :: 		if(CheckTask(10))
	MOVLW       10
	MOVWF       FARG_CheckTask+0 
	CALL        _CheckTask+0, 0
	MOVF        R0, 1 
	BTFSC       STATUS+0, 2 
	GOTO        L_State7241
;FirmV_0_7_0.c,1188 :: 		{OverloadCheckFlag1=1; OverloadInit(1);Logger("S7 M1 Overload Check",1);}
	MOVLW       1
	MOVWF       _OverloadCheckFlag1+0 
	MOVLW       1
	MOVWF       FARG_OverloadInit+0 
	CALL        _OverloadInit+0, 0
	MOVLW       ?lstr48_FirmV_0_7_0+0
	MOVWF       FARG_Logger_text+0 
	MOVLW       hi_addr(?lstr48_FirmV_0_7_0+0)
	MOVWF       FARG_Logger_text+1 
	MOVLW       1
	MOVWF       FARG_Logger_TimeStampFlag+0 
	CALL        _Logger+0, 0
L_State7241:
;FirmV_0_7_0.c,1190 :: 		if(CheckTask(11))
	MOVLW       11
	MOVWF       FARG_CheckTask+0 
	CALL        _CheckTask+0, 0
	MOVF        R0, 1 
	BTFSC       STATUS+0, 2 
	GOTO        L_State7242
;FirmV_0_7_0.c,1191 :: 		{OverloadCheckFlag2=1; OverloadInit(2);Logger("S7 M2 Overload Check",1);}
	MOVLW       1
	MOVWF       _OverloadCheckFlag2+0 
	MOVLW       2
	MOVWF       FARG_OverloadInit+0 
	CALL        _OverloadInit+0, 0
	MOVLW       ?lstr49_FirmV_0_7_0+0
	MOVWF       FARG_Logger_text+0 
	MOVLW       hi_addr(?lstr49_FirmV_0_7_0+0)
	MOVWF       FARG_Logger_text+1 
	MOVLW       1
	MOVWF       FARG_Logger_TimeStampFlag+0 
	CALL        _Logger+0, 0
L_State7242:
;FirmV_0_7_0.c,1193 :: 		if(CheckTask(5))
	MOVLW       5
	MOVWF       FARG_CheckTask+0 
	CALL        _CheckTask+0, 0
	MOVF        R0, 1 
	BTFSC       STATUS+0, 2 
	GOTO        L_State7243
;FirmV_0_7_0.c,1194 :: 		{SetMotorSpeed(1,Motor2FullSpeed); M1isSlow=0;Logger("S7 M1 Speed UP",1);}
	MOVLW       1
	MOVWF       FARG_SetMotorSpeed+0 
	MOVF        _Motor2FullSpeed+0, 0 
	MOVWF       FARG_SetMotorSpeed+0 
	CALL        _SetMotorSpeed+0, 0
	CLRF        _M1isSlow+0 
	MOVLW       ?lstr50_FirmV_0_7_0+0
	MOVWF       FARG_Logger_text+0 
	MOVLW       hi_addr(?lstr50_FirmV_0_7_0+0)
	MOVWF       FARG_Logger_text+1 
	MOVLW       1
	MOVWF       FARG_Logger_TimeStampFlag+0 
	CALL        _Logger+0, 0
L_State7243:
;FirmV_0_7_0.c,1196 :: 		if(CheckTask(6))
	MOVLW       6
	MOVWF       FARG_CheckTask+0 
	CALL        _CheckTask+0, 0
	MOVF        R0, 1 
	BTFSC       STATUS+0, 2 
	GOTO        L_State7244
;FirmV_0_7_0.c,1197 :: 		{SetMotorSpeed(Motor1FullSpeed,1); M2isSlow=0;Logger("S7 M2 Speed UP",1);}
	MOVF        _Motor1FullSpeed+0, 0 
	MOVWF       FARG_SetMotorSpeed+0 
	MOVLW       1
	MOVWF       FARG_SetMotorSpeed+0 
	CALL        _SetMotorSpeed+0, 0
	CLRF        _M2isSlow+0 
	MOVLW       ?lstr51_FirmV_0_7_0+0
	MOVWF       FARG_Logger_text+0 
	MOVLW       hi_addr(?lstr51_FirmV_0_7_0+0)
	MOVWF       FARG_Logger_text+1 
	MOVLW       1
	MOVWF       FARG_Logger_TimeStampFlag+0 
	CALL        _Logger+0, 0
L_State7244:
;FirmV_0_7_0.c,1199 :: 		if((CheckTask(3)||((OverloadCheckFlag1==1)&&(Events.Overload.b0==1)))&&(CloseDone.b0))
	MOVLW       3
	MOVWF       FARG_CheckTask+0 
	CALL        _CheckTask+0, 0
	MOVF        R0, 1 
	BTFSS       STATUS+0, 2 
	GOTO        L__State7878
	MOVF        _OverloadCheckFlag1+0, 0 
	XORLW       1
	BTFSS       STATUS+0, 2 
	GOTO        L__State7879
	BTFSS       _Events+5, 0 
	GOTO        L__State7879
	GOTO        L__State7878
L__State7879:
	GOTO        L_State7251
L__State7878:
	BTFSS       _CloseDone+0, 0 
	GOTO        L_State7251
L__State7877:
;FirmV_0_7_0.c,1200 :: 		{CloseDone.b0=0; StopMotor(1);Logger("S7 M1 Stoped",1);}
	BCF         _CloseDone+0, 0 
	MOVLW       1
	MOVWF       FARG_StopMotor+0 
	CALL        _StopMotor+0, 0
	MOVLW       ?lstr52_FirmV_0_7_0+0
	MOVWF       FARG_Logger_text+0 
	MOVLW       hi_addr(?lstr52_FirmV_0_7_0+0)
	MOVWF       FARG_Logger_text+1 
	MOVLW       1
	MOVWF       FARG_Logger_TimeStampFlag+0 
	CALL        _Logger+0, 0
L_State7251:
;FirmV_0_7_0.c,1202 :: 		if((CheckTask(4)||((OverloadCheckFlag2==1)&&(Events.Overload.b1==1)))&&(CloseDone.b1))
	MOVLW       4
	MOVWF       FARG_CheckTask+0 
	CALL        _CheckTask+0, 0
	MOVF        R0, 1 
	BTFSS       STATUS+0, 2 
	GOTO        L__State7875
	MOVF        _OverloadCheckFlag2+0, 0 
	XORLW       1
	BTFSS       STATUS+0, 2 
	GOTO        L__State7876
	BTFSS       _Events+5, 1 
	GOTO        L__State7876
	GOTO        L__State7875
L__State7876:
	GOTO        L_State7258
L__State7875:
	BTFSS       _CloseDone+0, 1 
	GOTO        L_State7258
L__State7874:
;FirmV_0_7_0.c,1203 :: 		{CloseDone.b1=0; StopMotor(2);Logger("S7 M2 Stoped",1);}
	BCF         _CloseDone+0, 1 
	MOVLW       2
	MOVWF       FARG_StopMotor+0 
	CALL        _StopMotor+0, 0
	MOVLW       ?lstr53_FirmV_0_7_0+0
	MOVWF       FARG_Logger_text+0 
	MOVLW       hi_addr(?lstr53_FirmV_0_7_0+0)
	MOVWF       FARG_Logger_text+1 
	MOVLW       1
	MOVWF       FARG_Logger_TimeStampFlag+0 
	CALL        _Logger+0, 0
L_State7258:
;FirmV_0_7_0.c,1205 :: 		if((Door2OpenTime==0)||(ActiveDoors==1))
	MOVF        _Door2OpenTime+0, 0 
	XORLW       0
	BTFSC       STATUS+0, 2 
	GOTO        L__State7873
	MOVF        _ActiveDoors+0, 0 
	XORLW       1
	BTFSC       STATUS+0, 2 
	GOTO        L__State7873
	GOTO        L_State7261
L__State7873:
;FirmV_0_7_0.c,1206 :: 		CloseDone.b1=0;
	BCF         _CloseDone+0, 1 
L_State7261:
;FirmV_0_7_0.c,1209 :: 		if(KeyNoiseEliminator>=NoiseEliminatorTreshold)
	MOVLW       3
	SUBWF       _KeyNoiseEliminator+0, 0 
	BTFSS       STATUS+0, 0 
	GOTO        L_State7262
;FirmV_0_7_0.c,1211 :: 		if((Events.Photocell.b0==1))
	BTFSS       _Events+6, 0 
	GOTO        L_State7263
;FirmV_0_7_0.c,1212 :: 		{StopMotor(1); StopMotor(2); OverloadCheckFlag1=0;OverloadCheckFlag2=0;State=6;PhotocellOpenFlag=1;Logger("S7 Photocell Int",1);ClearTasks(9);
	MOVLW       1
	MOVWF       FARG_StopMotor+0 
	CALL        _StopMotor+0, 0
	MOVLW       2
	MOVWF       FARG_StopMotor+0 
	CALL        _StopMotor+0, 0
	CLRF        _OverloadCheckFlag1+0 
	CLRF        _OverloadCheckFlag2+0 
	MOVLW       6
	MOVWF       _State+0 
	MOVLW       1
	MOVWF       _PhotocellOpenFlag+0 
	MOVLW       ?lstr54_FirmV_0_7_0+0
	MOVWF       FARG_Logger_text+0 
	MOVLW       hi_addr(?lstr54_FirmV_0_7_0+0)
	MOVWF       FARG_Logger_text+1 
	MOVLW       1
	MOVWF       FARG_Logger_TimeStampFlag+0 
	CALL        _Logger+0, 0
	MOVLW       9
	MOVWF       FARG_ClearTasks+0 
	CALL        _ClearTasks+0, 0
;FirmV_0_7_0.c,1213 :: 		memcpy(LCDLine1,_stop,16);memcpy(LCDLine2,_ErrPhoto,16);LCDUpdateFlag=1;LCDLines=2;}
	MOVLW       _LCDLine1+0
	MOVWF       FARG_memcpy_d1+0 
	MOVLW       hi_addr(_LCDLine1+0)
	MOVWF       FARG_memcpy_d1+1 
	MOVLW       __stop+0
	MOVWF       FARG_memcpy_s1+0 
	MOVLW       hi_addr(__stop+0)
	MOVWF       FARG_memcpy_s1+1 
	MOVLW       16
	MOVWF       FARG_memcpy_n+0 
	MOVLW       0
	MOVWF       FARG_memcpy_n+1 
	CALL        _memcpy+0, 0
	MOVLW       _LCDLine2+0
	MOVWF       FARG_memcpy_d1+0 
	MOVLW       hi_addr(_LCDLine2+0)
	MOVWF       FARG_memcpy_d1+1 
	MOVLW       __errPhoto+0
	MOVWF       FARG_memcpy_s1+0 
	MOVLW       hi_addr(__errPhoto+0)
	MOVWF       FARG_memcpy_s1+1 
	MOVLW       16
	MOVWF       FARG_memcpy_n+0 
	MOVLW       0
	MOVWF       FARG_memcpy_n+1 
	CALL        _memcpy+0, 0
	MOVLW       1
	MOVWF       _LCDUpdateFlag+0 
	MOVLW       2
	MOVWF       _LCDLines+0 
L_State7263:
;FirmV_0_7_0.c,1215 :: 		if((Events.Remote!=0))
	MOVF        _Events+4, 0 
	XORLW       0
	BTFSC       STATUS+0, 2 
	GOTO        L_State7264
;FirmV_0_7_0.c,1216 :: 		{StopMotor(1); StopMotor(2); State=6;OverloadCheckFlag1=0;OverloadCheckFlag2=0;Logger("S7 Remote Pressed",1);ClearTasks(9);
	MOVLW       1
	MOVWF       FARG_StopMotor+0 
	CALL        _StopMotor+0, 0
	MOVLW       2
	MOVWF       FARG_StopMotor+0 
	CALL        _StopMotor+0, 0
	MOVLW       6
	MOVWF       _State+0 
	CLRF        _OverloadCheckFlag1+0 
	CLRF        _OverloadCheckFlag2+0 
	MOVLW       ?lstr55_FirmV_0_7_0+0
	MOVWF       FARG_Logger_text+0 
	MOVLW       hi_addr(?lstr55_FirmV_0_7_0+0)
	MOVWF       FARG_Logger_text+1 
	MOVLW       1
	MOVWF       FARG_Logger_TimeStampFlag+0 
	CALL        _Logger+0, 0
	MOVLW       9
	MOVWF       FARG_ClearTasks+0 
	CALL        _ClearTasks+0, 0
;FirmV_0_7_0.c,1217 :: 		memcpy(LCDLine1,_stop,16);memcpy(LCDLine2,_ErrRemote,16);LCDUpdateFlag=1;LCDLines=2;}
	MOVLW       _LCDLine1+0
	MOVWF       FARG_memcpy_d1+0 
	MOVLW       hi_addr(_LCDLine1+0)
	MOVWF       FARG_memcpy_d1+1 
	MOVLW       __stop+0
	MOVWF       FARG_memcpy_s1+0 
	MOVLW       hi_addr(__stop+0)
	MOVWF       FARG_memcpy_s1+1 
	MOVLW       16
	MOVWF       FARG_memcpy_n+0 
	MOVLW       0
	MOVWF       FARG_memcpy_n+1 
	CALL        _memcpy+0, 0
	MOVLW       _LCDLine2+0
	MOVWF       FARG_memcpy_d1+0 
	MOVLW       hi_addr(_LCDLine2+0)
	MOVWF       FARG_memcpy_d1+1 
	MOVLW       __errRemote+0
	MOVWF       FARG_memcpy_s1+0 
	MOVLW       hi_addr(__errRemote+0)
	MOVWF       FARG_memcpy_s1+1 
	MOVLW       16
	MOVWF       FARG_memcpy_n+0 
	MOVLW       0
	MOVWF       FARG_memcpy_n+1 
	CALL        _memcpy+0, 0
	MOVLW       1
	MOVWF       _LCDUpdateFlag+0 
	MOVLW       2
	MOVWF       _LCDLines+0 
L_State7264:
;FirmV_0_7_0.c,1219 :: 		if((Events.Limiter==2)&&(LimiterEnable))
	MOVF        _Events+7, 0 
	XORLW       2
	BTFSS       STATUS+0, 2 
	GOTO        L_State7267
	MOVF        _LimiterEnable+0, 1 
	BTFSC       STATUS+0, 2 
	GOTO        L_State7267
L__State7872:
;FirmV_0_7_0.c,1220 :: 		{StopMotor(1); StopMotor(2); State=6;OverloadCheckFlag1=0;OverloadCheckFlag2=0;Logger("S7 Limit Switch Stop",1);ClearTasks(9);
	MOVLW       1
	MOVWF       FARG_StopMotor+0 
	CALL        _StopMotor+0, 0
	MOVLW       2
	MOVWF       FARG_StopMotor+0 
	CALL        _StopMotor+0, 0
	MOVLW       6
	MOVWF       _State+0 
	CLRF        _OverloadCheckFlag1+0 
	CLRF        _OverloadCheckFlag2+0 
	MOVLW       ?lstr56_FirmV_0_7_0+0
	MOVWF       FARG_Logger_text+0 
	MOVLW       hi_addr(?lstr56_FirmV_0_7_0+0)
	MOVWF       FARG_Logger_text+1 
	MOVLW       1
	MOVWF       FARG_Logger_TimeStampFlag+0 
	CALL        _Logger+0, 0
	MOVLW       9
	MOVWF       FARG_ClearTasks+0 
	CALL        _ClearTasks+0, 0
;FirmV_0_7_0.c,1221 :: 		memcpy(LCDLine1,_stop,16);memcpy(LCDLine2,_ErrLimit,16);LCDUpdateFlag=1;LCDLines=2;}
	MOVLW       _LCDLine1+0
	MOVWF       FARG_memcpy_d1+0 
	MOVLW       hi_addr(_LCDLine1+0)
	MOVWF       FARG_memcpy_d1+1 
	MOVLW       __stop+0
	MOVWF       FARG_memcpy_s1+0 
	MOVLW       hi_addr(__stop+0)
	MOVWF       FARG_memcpy_s1+1 
	MOVLW       16
	MOVWF       FARG_memcpy_n+0 
	MOVLW       0
	MOVWF       FARG_memcpy_n+1 
	CALL        _memcpy+0, 0
	MOVLW       _LCDLine2+0
	MOVWF       FARG_memcpy_d1+0 
	MOVLW       hi_addr(_LCDLine2+0)
	MOVWF       FARG_memcpy_d1+1 
	MOVLW       __errLimit+0
	MOVWF       FARG_memcpy_s1+0 
	MOVLW       hi_addr(__errLimit+0)
	MOVWF       FARG_memcpy_s1+1 
	MOVLW       16
	MOVWF       FARG_memcpy_n+0 
	MOVLW       0
	MOVWF       FARG_memcpy_n+1 
	CALL        _memcpy+0, 0
	MOVLW       1
	MOVWF       _LCDUpdateFlag+0 
	MOVLW       2
	MOVWF       _LCDLines+0 
L_State7267:
;FirmV_0_7_0.c,1222 :: 		}
L_State7262:
;FirmV_0_7_0.c,1225 :: 		if(CloseDone==0)
	MOVF        _CloseDone+0, 0 
	XORLW       0
	BTFSS       STATUS+0, 2 
	GOTO        L_State7268
;FirmV_0_7_0.c,1226 :: 		if(LockEnable)
	MOVF        _LockEnable+0, 1 
	BTFSC       STATUS+0, 2 
	GOTO        L_State7269
;FirmV_0_7_0.c,1227 :: 		{StartMotor(1,_Open);AddTask(ms500+1,14);SetMotorSpeed(1,Motor2FullSpeed);OverloadCheckFlag1=0; M1isSlow=0;SetMotorSpeed(Motor1FullSpeed,1);OverloadCheckFlag2=0; M2isSlow=0;
	MOVLW       1
	MOVWF       FARG_StartMotor+0 
	MOVLW       1
	MOVWF       FARG_StartMotor+0 
	CALL        _StartMotor+0, 0
	MOVLW       1
	ADDWF       _ms500+0, 0 
	MOVWF       FARG_AddTask+0 
	MOVLW       0
	ADDWFC      _ms500+1, 0 
	MOVWF       FARG_AddTask+1 
	MOVLW       0
	ADDWFC      _ms500+2, 0 
	MOVWF       FARG_AddTask+2 
	MOVLW       0
	ADDWFC      _ms500+3, 0 
	MOVWF       FARG_AddTask+3 
	MOVLW       14
	MOVWF       FARG_AddTask+0 
	CALL        _AddTask+0, 0
	MOVLW       1
	MOVWF       FARG_SetMotorSpeed+0 
	MOVF        _Motor2FullSpeed+0, 0 
	MOVWF       FARG_SetMotorSpeed+0 
	CALL        _SetMotorSpeed+0, 0
	CLRF        _OverloadCheckFlag1+0 
	CLRF        _M1isSlow+0 
	MOVF        _Motor1FullSpeed+0, 0 
	MOVWF       FARG_SetMotorSpeed+0 
	MOVLW       1
	MOVWF       FARG_SetMotorSpeed+0 
	CALL        _SetMotorSpeed+0, 0
	CLRF        _OverloadCheckFlag2+0 
	CLRF        _M2isSlow+0 
;FirmV_0_7_0.c,1228 :: 		AddTask(ms500+RelaseTime,3);AddTask(ms500+1+RelaseTime,4);AddTask(ms500+1+RelaseTime,13);CloseDone.b2=1;}
	MOVLW       1
	ADDWF       _ms500+0, 0 
	MOVWF       FARG_AddTask+0 
	MOVLW       0
	ADDWFC      _ms500+1, 0 
	MOVWF       FARG_AddTask+1 
	MOVLW       0
	ADDWFC      _ms500+2, 0 
	MOVWF       FARG_AddTask+2 
	MOVLW       0
	ADDWFC      _ms500+3, 0 
	MOVWF       FARG_AddTask+3 
	MOVLW       3
	MOVWF       FARG_AddTask+0 
	CALL        _AddTask+0, 0
	MOVLW       1
	ADDWF       _ms500+0, 0 
	MOVWF       FARG_AddTask+0 
	MOVLW       0
	ADDWFC      _ms500+1, 0 
	MOVWF       FARG_AddTask+1 
	MOVLW       0
	ADDWFC      _ms500+2, 0 
	MOVWF       FARG_AddTask+2 
	MOVLW       0
	ADDWFC      _ms500+3, 0 
	MOVWF       FARG_AddTask+3 
	MOVLW       1
	ADDWF       FARG_AddTask+0, 1 
	MOVLW       0
	ADDWFC      FARG_AddTask+1, 1 
	ADDWFC      FARG_AddTask+2, 1 
	ADDWFC      FARG_AddTask+3, 1 
	MOVLW       4
	MOVWF       FARG_AddTask+0 
	CALL        _AddTask+0, 0
	MOVLW       1
	ADDWF       _ms500+0, 0 
	MOVWF       FARG_AddTask+0 
	MOVLW       0
	ADDWFC      _ms500+1, 0 
	MOVWF       FARG_AddTask+1 
	MOVLW       0
	ADDWFC      _ms500+2, 0 
	MOVWF       FARG_AddTask+2 
	MOVLW       0
	ADDWFC      _ms500+3, 0 
	MOVWF       FARG_AddTask+3 
	MOVLW       1
	ADDWF       FARG_AddTask+0, 1 
	MOVLW       0
	ADDWFC      FARG_AddTask+1, 1 
	ADDWFC      FARG_AddTask+2, 1 
	ADDWFC      FARG_AddTask+3, 1 
	MOVLW       13
	MOVWF       FARG_AddTask+0 
	CALL        _AddTask+0, 0
	BSF         _CloseDone+0, 2 
	GOTO        L_State7270
L_State7269:
;FirmV_0_7_0.c,1230 :: 		{AddTask(ms500+1,13);CloseDone.b2=1;}
	MOVLW       1
	ADDWF       _ms500+0, 0 
	MOVWF       FARG_AddTask+0 
	MOVLW       0
	ADDWFC      _ms500+1, 0 
	MOVWF       FARG_AddTask+1 
	MOVLW       0
	ADDWFC      _ms500+2, 0 
	MOVWF       FARG_AddTask+2 
	MOVLW       0
	ADDWFC      _ms500+3, 0 
	MOVWF       FARG_AddTask+3 
	MOVLW       13
	MOVWF       FARG_AddTask+0 
	CALL        _AddTask+0, 0
	BSF         _CloseDone+0, 2 
L_State7270:
L_State7268:
;FirmV_0_7_0.c,1232 :: 		if(CheckTask(14))
	MOVLW       14
	MOVWF       FARG_CheckTask+0 
	CALL        _CheckTask+0, 0
	MOVF        R0, 1 
	BTFSC       STATUS+0, 2 
	GOTO        L_State7271
;FirmV_0_7_0.c,1233 :: 		StartMotor(2,_Open);
	MOVLW       2
	MOVWF       FARG_StartMotor+0 
	MOVLW       1
	MOVWF       FARG_StartMotor+0 
	CALL        _StartMotor+0, 0
L_State7271:
;FirmV_0_7_0.c,1235 :: 		if(CheckTask(13))
	MOVLW       13
	MOVWF       FARG_CheckTask+0 
	CALL        _CheckTask+0, 0
	MOVF        R0, 1 
	BTFSC       STATUS+0, 2 
	GOTO        L_State7272
;FirmV_0_7_0.c,1236 :: 		{State=1; PassFlag=0;PrevAC=0;ClearTasks(9);memcpy(LCDLine1,_close,16);memcpy(LCDLine2,_Blank,16);LCDUpdateFlag=1;LCDLines=1;}
	MOVLW       1
	MOVWF       _State+0 
	CLRF        _PassFlag+0 
	CLRF        _PrevAC+0 
	MOVLW       9
	MOVWF       FARG_ClearTasks+0 
	CALL        _ClearTasks+0, 0
	MOVLW       _LCDLine1+0
	MOVWF       FARG_memcpy_d1+0 
	MOVLW       hi_addr(_LCDLine1+0)
	MOVWF       FARG_memcpy_d1+1 
	MOVLW       __close+0
	MOVWF       FARG_memcpy_s1+0 
	MOVLW       hi_addr(__close+0)
	MOVWF       FARG_memcpy_s1+1 
	MOVLW       16
	MOVWF       FARG_memcpy_n+0 
	MOVLW       0
	MOVWF       FARG_memcpy_n+1 
	CALL        _memcpy+0, 0
	MOVLW       _LCDLine2+0
	MOVWF       FARG_memcpy_d1+0 
	MOVLW       hi_addr(_LCDLine2+0)
	MOVWF       FARG_memcpy_d1+1 
	MOVLW       __Blank+0
	MOVWF       FARG_memcpy_s1+0 
	MOVLW       hi_addr(__Blank+0)
	MOVWF       FARG_memcpy_s1+1 
	MOVLW       16
	MOVWF       FARG_memcpy_n+0 
	MOVLW       0
	MOVWF       FARG_memcpy_n+1 
	CALL        _memcpy+0, 0
	MOVLW       1
	MOVWF       _LCDUpdateFlag+0 
	MOVLW       1
	MOVWF       _LCDLines+0 
L_State7272:
;FirmV_0_7_0.c,1238 :: 		if((State==5)||(State==6))
	MOVF        _State+0, 0 
	XORLW       5
	BTFSC       STATUS+0, 2 
	GOTO        L__State7871
	MOVF        _State+0, 0 
	XORLW       6
	BTFSC       STATUS+0, 2 
	GOTO        L__State7871
	GOTO        L_State7275
L__State7871:
;FirmV_0_7_0.c,1239 :: 		{ClearTasks(0);if(AutoCloseTime!=0){AddTask(ms500+AutoCloseTime,9);AutoClosePauseFlag=0;PrevAC=0;Logger("S7 Autoclose Renewed",1);memcpy(LCDLine2,_autoclose,16);LCDUpdateFlag=1;LCDLines=2;}}
	CLRF        FARG_ClearTasks+0 
	CALL        _ClearTasks+0, 0
	MOVLW       0
	XORWF       _AutoCloseTime+1, 0 
	BTFSS       STATUS+0, 2 
	GOTO        L__State7985
	MOVLW       0
	XORWF       _AutoCloseTime+0, 0 
L__State7985:
	BTFSC       STATUS+0, 2 
	GOTO        L_State7276
	MOVF        _AutoCloseTime+0, 0 
	ADDWF       _ms500+0, 0 
	MOVWF       FARG_AddTask+0 
	MOVF        _AutoCloseTime+1, 0 
	ADDWFC      _ms500+1, 0 
	MOVWF       FARG_AddTask+1 
	MOVLW       0
	ADDWFC      _ms500+2, 0 
	MOVWF       FARG_AddTask+2 
	MOVLW       0
	ADDWFC      _ms500+3, 0 
	MOVWF       FARG_AddTask+3 
	MOVLW       9
	MOVWF       FARG_AddTask+0 
	CALL        _AddTask+0, 0
	CLRF        _AutoClosePauseFlag+0 
	CLRF        _PrevAC+0 
	MOVLW       ?lstr57_FirmV_0_7_0+0
	MOVWF       FARG_Logger_text+0 
	MOVLW       hi_addr(?lstr57_FirmV_0_7_0+0)
	MOVWF       FARG_Logger_text+1 
	MOVLW       1
	MOVWF       FARG_Logger_TimeStampFlag+0 
	CALL        _Logger+0, 0
	MOVLW       _LCDLine2+0
	MOVWF       FARG_memcpy_d1+0 
	MOVLW       hi_addr(_LCDLine2+0)
	MOVWF       FARG_memcpy_d1+1 
	MOVLW       __autoclose+0
	MOVWF       FARG_memcpy_s1+0 
	MOVLW       hi_addr(__autoclose+0)
	MOVWF       FARG_memcpy_s1+1 
	MOVLW       16
	MOVWF       FARG_memcpy_n+0 
	MOVLW       0
	MOVWF       FARG_memcpy_n+1 
	CALL        _memcpy+0, 0
	MOVLW       1
	MOVWF       _LCDUpdateFlag+0 
	MOVLW       2
	MOVWF       _LCDLines+0 
L_State7276:
L_State7275:
;FirmV_0_7_0.c,1242 :: 		}
L_end_State7:
	RETURN      0
; end of _State7

_State8:

;FirmV_0_7_0.c,1259 :: 		void State8()
;FirmV_0_7_0.c,1261 :: 		Flasher=1;
	BSF         PORTD+0, 7 
;FirmV_0_7_0.c,1262 :: 		FlashFlag=1;
	MOVLW       1
	MOVWF       _FlashFlag+0 
;FirmV_0_7_0.c,1264 :: 		if(CheckTask(1))
	MOVLW       1
	MOVWF       FARG_CheckTask+0 
	CALL        _CheckTask+0, 0
	MOVF        R0, 1 
	BTFSC       STATUS+0, 2 
	GOTO        L_State8277
;FirmV_0_7_0.c,1265 :: 		{StartMotor(1,_Open);Logger("S8 Motor1Start",1); Lock=0;memcpy(LCDLine1,_opening,16);memcpy(LCDLine2,_Blank,16);LCDUpdateFlag=1;LCDLines=1;}
	MOVLW       1
	MOVWF       FARG_StartMotor+0 
	MOVLW       1
	MOVWF       FARG_StartMotor+0 
	CALL        _StartMotor+0, 0
	MOVLW       ?lstr58_FirmV_0_7_0+0
	MOVWF       FARG_Logger_text+0 
	MOVLW       hi_addr(?lstr58_FirmV_0_7_0+0)
	MOVWF       FARG_Logger_text+1 
	MOVLW       1
	MOVWF       FARG_Logger_TimeStampFlag+0 
	CALL        _Logger+0, 0
	BCF         PORTD+0, 6 
	MOVLW       _LCDLine1+0
	MOVWF       FARG_memcpy_d1+0 
	MOVLW       hi_addr(_LCDLine1+0)
	MOVWF       FARG_memcpy_d1+1 
	MOVLW       __opening+0
	MOVWF       FARG_memcpy_s1+0 
	MOVLW       hi_addr(__opening+0)
	MOVWF       FARG_memcpy_s1+1 
	MOVLW       16
	MOVWF       FARG_memcpy_n+0 
	MOVLW       0
	MOVWF       FARG_memcpy_n+1 
	CALL        _memcpy+0, 0
	MOVLW       _LCDLine2+0
	MOVWF       FARG_memcpy_d1+0 
	MOVLW       hi_addr(_LCDLine2+0)
	MOVWF       FARG_memcpy_d1+1 
	MOVLW       __Blank+0
	MOVWF       FARG_memcpy_s1+0 
	MOVLW       hi_addr(__Blank+0)
	MOVWF       FARG_memcpy_s1+1 
	MOVLW       16
	MOVWF       FARG_memcpy_n+0 
	MOVLW       0
	MOVWF       FARG_memcpy_n+1 
	CALL        _memcpy+0, 0
	MOVLW       1
	MOVWF       _LCDUpdateFlag+0 
	MOVLW       1
	MOVWF       _LCDLines+0 
L_State8277:
;FirmV_0_7_0.c,1267 :: 		if(CheckTask(2))
	MOVLW       2
	MOVWF       FARG_CheckTask+0 
	CALL        _CheckTask+0, 0
	MOVF        R0, 1 
	BTFSC       STATUS+0, 2 
	GOTO        L_State8278
;FirmV_0_7_0.c,1268 :: 		{StartMotor(2,_Open);Logger("S8 Motor2Start",1); Lock=0;}
	MOVLW       2
	MOVWF       FARG_StartMotor+0 
	MOVLW       1
	MOVWF       FARG_StartMotor+0 
	CALL        _StartMotor+0, 0
	MOVLW       ?lstr59_FirmV_0_7_0+0
	MOVWF       FARG_Logger_text+0 
	MOVLW       hi_addr(?lstr59_FirmV_0_7_0+0)
	MOVWF       FARG_Logger_text+1 
	MOVLW       1
	MOVWF       FARG_Logger_TimeStampFlag+0 
	CALL        _Logger+0, 0
	BCF         PORTD+0, 6 
L_State8278:
;FirmV_0_7_0.c,1270 :: 		if(CheckTask(10))
	MOVLW       10
	MOVWF       FARG_CheckTask+0 
	CALL        _CheckTask+0, 0
	MOVF        R0, 1 
	BTFSC       STATUS+0, 2 
	GOTO        L_State8279
;FirmV_0_7_0.c,1271 :: 		{OverloadCheckFlag1=1; OverloadInit(1);Logger("S8 Overflow Flag1 Set",1);}
	MOVLW       1
	MOVWF       _OverloadCheckFlag1+0 
	MOVLW       1
	MOVWF       FARG_OverloadInit+0 
	CALL        _OverloadInit+0, 0
	MOVLW       ?lstr60_FirmV_0_7_0+0
	MOVWF       FARG_Logger_text+0 
	MOVLW       hi_addr(?lstr60_FirmV_0_7_0+0)
	MOVWF       FARG_Logger_text+1 
	MOVLW       1
	MOVWF       FARG_Logger_TimeStampFlag+0 
	CALL        _Logger+0, 0
L_State8279:
;FirmV_0_7_0.c,1273 :: 		if(CheckTask(11))
	MOVLW       11
	MOVWF       FARG_CheckTask+0 
	CALL        _CheckTask+0, 0
	MOVF        R0, 1 
	BTFSC       STATUS+0, 2 
	GOTO        L_State8280
;FirmV_0_7_0.c,1274 :: 		{OverloadCheckFlag2=1; OverloadInit(2);Logger("S8 Overflow Flag2 Set",1);}
	MOVLW       1
	MOVWF       _OverloadCheckFlag2+0 
	MOVLW       2
	MOVWF       FARG_OverloadInit+0 
	CALL        _OverloadInit+0, 0
	MOVLW       ?lstr61_FirmV_0_7_0+0
	MOVWF       FARG_Logger_text+0 
	MOVLW       hi_addr(?lstr61_FirmV_0_7_0+0)
	MOVWF       FARG_Logger_text+1 
	MOVLW       1
	MOVWF       FARG_Logger_TimeStampFlag+0 
	CALL        _Logger+0, 0
L_State8280:
;FirmV_0_7_0.c,1276 :: 		if(CheckTask(5))
	MOVLW       5
	MOVWF       FARG_CheckTask+0 
	CALL        _CheckTask+0, 0
	MOVF        R0, 1 
	BTFSC       STATUS+0, 2 
	GOTO        L_State8281
;FirmV_0_7_0.c,1277 :: 		{SetMotorSpeed(1,Motor2FullSpeed); M1isSlow=0;Logger("S8 Motor1 Fast",1);}
	MOVLW       1
	MOVWF       FARG_SetMotorSpeed+0 
	MOVF        _Motor2FullSpeed+0, 0 
	MOVWF       FARG_SetMotorSpeed+0 
	CALL        _SetMotorSpeed+0, 0
	CLRF        _M1isSlow+0 
	MOVLW       ?lstr62_FirmV_0_7_0+0
	MOVWF       FARG_Logger_text+0 
	MOVLW       hi_addr(?lstr62_FirmV_0_7_0+0)
	MOVWF       FARG_Logger_text+1 
	MOVLW       1
	MOVWF       FARG_Logger_TimeStampFlag+0 
	CALL        _Logger+0, 0
L_State8281:
;FirmV_0_7_0.c,1279 :: 		if(CheckTask(6))
	MOVLW       6
	MOVWF       FARG_CheckTask+0 
	CALL        _CheckTask+0, 0
	MOVF        R0, 1 
	BTFSC       STATUS+0, 2 
	GOTO        L_State8282
;FirmV_0_7_0.c,1280 :: 		{SetMotorSpeed(Motor1FullSpeed,1); M2isSlow=0;Logger("S8 Motor2 Fast",1);}
	MOVF        _Motor1FullSpeed+0, 0 
	MOVWF       FARG_SetMotorSpeed+0 
	MOVLW       1
	MOVWF       FARG_SetMotorSpeed+0 
	CALL        _SetMotorSpeed+0, 0
	CLRF        _M2isSlow+0 
	MOVLW       ?lstr63_FirmV_0_7_0+0
	MOVWF       FARG_Logger_text+0 
	MOVLW       hi_addr(?lstr63_FirmV_0_7_0+0)
	MOVWF       FARG_Logger_text+1 
	MOVLW       1
	MOVWF       FARG_Logger_TimeStampFlag+0 
	CALL        _Logger+0, 0
L_State8282:
;FirmV_0_7_0.c,1282 :: 		if((CheckTask(3)||((OverloadCheckFlag1==1)&&(Events.Overload.b0==1)))&&(OpenDone.b0))
	MOVLW       3
	MOVWF       FARG_CheckTask+0 
	CALL        _CheckTask+0, 0
	MOVF        R0, 1 
	BTFSS       STATUS+0, 2 
	GOTO        L__State8888
	MOVF        _OverloadCheckFlag1+0, 0 
	XORLW       1
	BTFSS       STATUS+0, 2 
	GOTO        L__State8889
	BTFSS       _Events+5, 0 
	GOTO        L__State8889
	GOTO        L__State8888
L__State8889:
	GOTO        L_State8289
L__State8888:
	BTFSS       _OpenDone+0, 0 
	GOTO        L_State8289
L__State8887:
;FirmV_0_7_0.c,1283 :: 		{OpenDone.b0=0; StopMotor(1);Logger("S8 Motor1 Stop",1);}
	BCF         _OpenDone+0, 0 
	MOVLW       1
	MOVWF       FARG_StopMotor+0 
	CALL        _StopMotor+0, 0
	MOVLW       ?lstr64_FirmV_0_7_0+0
	MOVWF       FARG_Logger_text+0 
	MOVLW       hi_addr(?lstr64_FirmV_0_7_0+0)
	MOVWF       FARG_Logger_text+1 
	MOVLW       1
	MOVWF       FARG_Logger_TimeStampFlag+0 
	CALL        _Logger+0, 0
L_State8289:
;FirmV_0_7_0.c,1285 :: 		if((CheckTask(4)||((OverloadCheckFlag2==1)&&(Events.Overload.b1==1)))&&(OpenDone.b1))
	MOVLW       4
	MOVWF       FARG_CheckTask+0 
	CALL        _CheckTask+0, 0
	MOVF        R0, 1 
	BTFSS       STATUS+0, 2 
	GOTO        L__State8885
	MOVF        _OverloadCheckFlag2+0, 0 
	XORLW       1
	BTFSS       STATUS+0, 2 
	GOTO        L__State8886
	BTFSS       _Events+5, 1 
	GOTO        L__State8886
	GOTO        L__State8885
L__State8886:
	GOTO        L_State8296
L__State8885:
	BTFSS       _OpenDone+0, 1 
	GOTO        L_State8296
L__State8884:
;FirmV_0_7_0.c,1286 :: 		{OpenDone.b1=0; StopMotor(2);Logger("S8 Motor2 Stop",1);}
	BCF         _OpenDone+0, 1 
	MOVLW       2
	MOVWF       FARG_StopMotor+0 
	CALL        _StopMotor+0, 0
	MOVLW       ?lstr65_FirmV_0_7_0+0
	MOVWF       FARG_Logger_text+0 
	MOVLW       hi_addr(?lstr65_FirmV_0_7_0+0)
	MOVWF       FARG_Logger_text+1 
	MOVLW       1
	MOVWF       FARG_Logger_TimeStampFlag+0 
	CALL        _Logger+0, 0
L_State8296:
;FirmV_0_7_0.c,1288 :: 		if(CheckTask(12))
	MOVLW       12
	MOVWF       FARG_CheckTask+0 
	CALL        _CheckTask+0, 0
	MOVF        R0, 1 
	BTFSC       STATUS+0, 2 
	GOTO        L_State8297
;FirmV_0_7_0.c,1289 :: 		{Lock=1;}
	BSF         PORTD+0, 6 
L_State8297:
;FirmV_0_7_0.c,1291 :: 		if((Door2OpenTime==0)||(ActiveDoors==1))
	MOVF        _Door2OpenTime+0, 0 
	XORLW       0
	BTFSC       STATUS+0, 2 
	GOTO        L__State8883
	MOVF        _ActiveDoors+0, 0 
	XORLW       1
	BTFSC       STATUS+0, 2 
	GOTO        L__State8883
	GOTO        L_State8300
L__State8883:
;FirmV_0_7_0.c,1292 :: 		OpenDone.b1=0;
	BCF         _OpenDone+0, 1 
L_State8300:
;FirmV_0_7_0.c,1295 :: 		if(KeyNoiseEliminator>=NoiseEliminatorTreshold)
	MOVLW       3
	SUBWF       _KeyNoiseEliminator+0, 0 
	BTFSS       STATUS+0, 0 
	GOTO        L_State8301
;FirmV_0_7_0.c,1297 :: 		if((Events.Photocell.b0==1)&&(OpenPhEnable))
	BTFSS       _Events+6, 0 
	GOTO        L_State8304
	MOVF        _OpenPhEnable+0, 1 
	BTFSC       STATUS+0, 2 
	GOTO        L_State8304
L__State8882:
;FirmV_0_7_0.c,1298 :: 		{StopMotor(1); StopMotor(2);OverloadCheckFlag1=0;OverloadCheckFlag2=0; State=5;Logger("S8 Photocell Int",1);ClearTasks(9);
	MOVLW       1
	MOVWF       FARG_StopMotor+0 
	CALL        _StopMotor+0, 0
	MOVLW       2
	MOVWF       FARG_StopMotor+0 
	CALL        _StopMotor+0, 0
	CLRF        _OverloadCheckFlag1+0 
	CLRF        _OverloadCheckFlag2+0 
	MOVLW       5
	MOVWF       _State+0 
	MOVLW       ?lstr66_FirmV_0_7_0+0
	MOVWF       FARG_Logger_text+0 
	MOVLW       hi_addr(?lstr66_FirmV_0_7_0+0)
	MOVWF       FARG_Logger_text+1 
	MOVLW       1
	MOVWF       FARG_Logger_TimeStampFlag+0 
	CALL        _Logger+0, 0
	MOVLW       9
	MOVWF       FARG_ClearTasks+0 
	CALL        _ClearTasks+0, 0
;FirmV_0_7_0.c,1299 :: 		memcpy(LCDLine1,_stop,16);memcpy(LCDLine2,_ErrPhoto,16);LCDUpdateFlag=1;LCDLines=2;}
	MOVLW       _LCDLine1+0
	MOVWF       FARG_memcpy_d1+0 
	MOVLW       hi_addr(_LCDLine1+0)
	MOVWF       FARG_memcpy_d1+1 
	MOVLW       __stop+0
	MOVWF       FARG_memcpy_s1+0 
	MOVLW       hi_addr(__stop+0)
	MOVWF       FARG_memcpy_s1+1 
	MOVLW       16
	MOVWF       FARG_memcpy_n+0 
	MOVLW       0
	MOVWF       FARG_memcpy_n+1 
	CALL        _memcpy+0, 0
	MOVLW       _LCDLine2+0
	MOVWF       FARG_memcpy_d1+0 
	MOVLW       hi_addr(_LCDLine2+0)
	MOVWF       FARG_memcpy_d1+1 
	MOVLW       __errPhoto+0
	MOVWF       FARG_memcpy_s1+0 
	MOVLW       hi_addr(__errPhoto+0)
	MOVWF       FARG_memcpy_s1+1 
	MOVLW       16
	MOVWF       FARG_memcpy_n+0 
	MOVLW       0
	MOVWF       FARG_memcpy_n+1 
	CALL        _memcpy+0, 0
	MOVLW       1
	MOVWF       _LCDUpdateFlag+0 
	MOVLW       2
	MOVWF       _LCDLines+0 
L_State8304:
;FirmV_0_7_0.c,1301 :: 		if((Events.Remote!=0))
	MOVF        _Events+4, 0 
	XORLW       0
	BTFSC       STATUS+0, 2 
	GOTO        L_State8305
;FirmV_0_7_0.c,1302 :: 		{StopMotor(1); StopMotor(2); State=5;OverloadCheckFlag1=0;OverloadCheckFlag2=0; Logger("S8 Motors Stoped (Remote)",1);ClearTasks(9);
	MOVLW       1
	MOVWF       FARG_StopMotor+0 
	CALL        _StopMotor+0, 0
	MOVLW       2
	MOVWF       FARG_StopMotor+0 
	CALL        _StopMotor+0, 0
	MOVLW       5
	MOVWF       _State+0 
	CLRF        _OverloadCheckFlag1+0 
	CLRF        _OverloadCheckFlag2+0 
	MOVLW       ?lstr67_FirmV_0_7_0+0
	MOVWF       FARG_Logger_text+0 
	MOVLW       hi_addr(?lstr67_FirmV_0_7_0+0)
	MOVWF       FARG_Logger_text+1 
	MOVLW       1
	MOVWF       FARG_Logger_TimeStampFlag+0 
	CALL        _Logger+0, 0
	MOVLW       9
	MOVWF       FARG_ClearTasks+0 
	CALL        _ClearTasks+0, 0
;FirmV_0_7_0.c,1303 :: 		memcpy(LCDLine1,_stop,16);memcpy(LCDLine2,_ErrRemote,16);LCDUpdateFlag=1;LCDLines=2;}
	MOVLW       _LCDLine1+0
	MOVWF       FARG_memcpy_d1+0 
	MOVLW       hi_addr(_LCDLine1+0)
	MOVWF       FARG_memcpy_d1+1 
	MOVLW       __stop+0
	MOVWF       FARG_memcpy_s1+0 
	MOVLW       hi_addr(__stop+0)
	MOVWF       FARG_memcpy_s1+1 
	MOVLW       16
	MOVWF       FARG_memcpy_n+0 
	MOVLW       0
	MOVWF       FARG_memcpy_n+1 
	CALL        _memcpy+0, 0
	MOVLW       _LCDLine2+0
	MOVWF       FARG_memcpy_d1+0 
	MOVLW       hi_addr(_LCDLine2+0)
	MOVWF       FARG_memcpy_d1+1 
	MOVLW       __errRemote+0
	MOVWF       FARG_memcpy_s1+0 
	MOVLW       hi_addr(__errRemote+0)
	MOVWF       FARG_memcpy_s1+1 
	MOVLW       16
	MOVWF       FARG_memcpy_n+0 
	MOVLW       0
	MOVWF       FARG_memcpy_n+1 
	CALL        _memcpy+0, 0
	MOVLW       1
	MOVWF       _LCDUpdateFlag+0 
	MOVLW       2
	MOVWF       _LCDLines+0 
L_State8305:
;FirmV_0_7_0.c,1305 :: 		if((Events.Limiter==1)&&(LimiterEnable))
	MOVF        _Events+7, 0 
	XORLW       1
	BTFSS       STATUS+0, 2 
	GOTO        L_State8308
	MOVF        _LimiterEnable+0, 1 
	BTFSC       STATUS+0, 2 
	GOTO        L_State8308
L__State8881:
;FirmV_0_7_0.c,1306 :: 		{StopMotor(1); StopMotor(2); State=5;OverloadCheckFlag1=0;OverloadCheckFlag2=0; Logger("S8 Limit Switch Stop",1);ClearTasks(9);
	MOVLW       1
	MOVWF       FARG_StopMotor+0 
	CALL        _StopMotor+0, 0
	MOVLW       2
	MOVWF       FARG_StopMotor+0 
	CALL        _StopMotor+0, 0
	MOVLW       5
	MOVWF       _State+0 
	CLRF        _OverloadCheckFlag1+0 
	CLRF        _OverloadCheckFlag2+0 
	MOVLW       ?lstr68_FirmV_0_7_0+0
	MOVWF       FARG_Logger_text+0 
	MOVLW       hi_addr(?lstr68_FirmV_0_7_0+0)
	MOVWF       FARG_Logger_text+1 
	MOVLW       1
	MOVWF       FARG_Logger_TimeStampFlag+0 
	CALL        _Logger+0, 0
	MOVLW       9
	MOVWF       FARG_ClearTasks+0 
	CALL        _ClearTasks+0, 0
;FirmV_0_7_0.c,1307 :: 		memcpy(LCDLine1,_stop,16);memcpy(LCDLine2,_ErrLimit,16);LCDUpdateFlag=1;LCDLines=2;}
	MOVLW       _LCDLine1+0
	MOVWF       FARG_memcpy_d1+0 
	MOVLW       hi_addr(_LCDLine1+0)
	MOVWF       FARG_memcpy_d1+1 
	MOVLW       __stop+0
	MOVWF       FARG_memcpy_s1+0 
	MOVLW       hi_addr(__stop+0)
	MOVWF       FARG_memcpy_s1+1 
	MOVLW       16
	MOVWF       FARG_memcpy_n+0 
	MOVLW       0
	MOVWF       FARG_memcpy_n+1 
	CALL        _memcpy+0, 0
	MOVLW       _LCDLine2+0
	MOVWF       FARG_memcpy_d1+0 
	MOVLW       hi_addr(_LCDLine2+0)
	MOVWF       FARG_memcpy_d1+1 
	MOVLW       __errLimit+0
	MOVWF       FARG_memcpy_s1+0 
	MOVLW       hi_addr(__errLimit+0)
	MOVWF       FARG_memcpy_s1+1 
	MOVLW       16
	MOVWF       FARG_memcpy_n+0 
	MOVLW       0
	MOVWF       FARG_memcpy_n+1 
	CALL        _memcpy+0, 0
	MOVLW       1
	MOVWF       _LCDUpdateFlag+0 
	MOVLW       2
	MOVWF       _LCDLines+0 
L_State8308:
;FirmV_0_7_0.c,1308 :: 		}
L_State8301:
;FirmV_0_7_0.c,1310 :: 		if(OpenDone==0)
	MOVF        _OpenDone+0, 0 
	XORLW       0
	BTFSS       STATUS+0, 2 
	GOTO        L_State8309
;FirmV_0_7_0.c,1312 :: 		if(AutoCloseTime!=0)
	MOVLW       0
	XORWF       _AutoCloseTime+1, 0 
	BTFSS       STATUS+0, 2 
	GOTO        L__State8987
	MOVLW       0
	XORWF       _AutoCloseTime+0, 0 
L__State8987:
	BTFSC       STATUS+0, 2 
	GOTO        L_State8310
;FirmV_0_7_0.c,1313 :: 		{AddTask(ms500+AutoCloseTime,9);}
	MOVF        _AutoCloseTime+0, 0 
	ADDWF       _ms500+0, 0 
	MOVWF       FARG_AddTask+0 
	MOVF        _AutoCloseTime+1, 0 
	ADDWFC      _ms500+1, 0 
	MOVWF       FARG_AddTask+1 
	MOVLW       0
	ADDWFC      _ms500+2, 0 
	MOVWF       FARG_AddTask+2 
	MOVLW       0
	ADDWFC      _ms500+3, 0 
	MOVWF       FARG_AddTask+3 
	MOVLW       9
	MOVWF       FARG_AddTask+0 
	CALL        _AddTask+0, 0
L_State8310:
;FirmV_0_7_0.c,1314 :: 		if(LockEnable)
	MOVF        _LockEnable+0, 1 
	BTFSC       STATUS+0, 2 
	GOTO        L_State8311
;FirmV_0_7_0.c,1315 :: 		{StartMotor(1,_Close);StartMotor(2,_Close);SetMotorSpeed(1,Motor2FullSpeed);OverloadCheckFlag1=0; M1isSlow=0;SetMotorSpeed(Motor1FullSpeed,1);OverloadCheckFlag2=0; M2isSlow=0;
	MOVLW       1
	MOVWF       FARG_StartMotor+0 
	CLRF        FARG_StartMotor+0 
	CALL        _StartMotor+0, 0
	MOVLW       2
	MOVWF       FARG_StartMotor+0 
	CLRF        FARG_StartMotor+0 
	CALL        _StartMotor+0, 0
	MOVLW       1
	MOVWF       FARG_SetMotorSpeed+0 
	MOVF        _Motor2FullSpeed+0, 0 
	MOVWF       FARG_SetMotorSpeed+0 
	CALL        _SetMotorSpeed+0, 0
	CLRF        _OverloadCheckFlag1+0 
	CLRF        _M1isSlow+0 
	MOVF        _Motor1FullSpeed+0, 0 
	MOVWF       FARG_SetMotorSpeed+0 
	MOVLW       1
	MOVWF       FARG_SetMotorSpeed+0 
	CALL        _SetMotorSpeed+0, 0
	CLRF        _OverloadCheckFlag2+0 
	CLRF        _M2isSlow+0 
;FirmV_0_7_0.c,1316 :: 		AddTask(ms500+RelaseTime,3);AddTask(ms500+RelaseTime,4);AddTask(ms500+1+RelaseTime,13);OpenDone.b2=1;}
	MOVLW       1
	ADDWF       _ms500+0, 0 
	MOVWF       FARG_AddTask+0 
	MOVLW       0
	ADDWFC      _ms500+1, 0 
	MOVWF       FARG_AddTask+1 
	MOVLW       0
	ADDWFC      _ms500+2, 0 
	MOVWF       FARG_AddTask+2 
	MOVLW       0
	ADDWFC      _ms500+3, 0 
	MOVWF       FARG_AddTask+3 
	MOVLW       3
	MOVWF       FARG_AddTask+0 
	CALL        _AddTask+0, 0
	MOVLW       1
	ADDWF       _ms500+0, 0 
	MOVWF       FARG_AddTask+0 
	MOVLW       0
	ADDWFC      _ms500+1, 0 
	MOVWF       FARG_AddTask+1 
	MOVLW       0
	ADDWFC      _ms500+2, 0 
	MOVWF       FARG_AddTask+2 
	MOVLW       0
	ADDWFC      _ms500+3, 0 
	MOVWF       FARG_AddTask+3 
	MOVLW       4
	MOVWF       FARG_AddTask+0 
	CALL        _AddTask+0, 0
	MOVLW       1
	ADDWF       _ms500+0, 0 
	MOVWF       FARG_AddTask+0 
	MOVLW       0
	ADDWFC      _ms500+1, 0 
	MOVWF       FARG_AddTask+1 
	MOVLW       0
	ADDWFC      _ms500+2, 0 
	MOVWF       FARG_AddTask+2 
	MOVLW       0
	ADDWFC      _ms500+3, 0 
	MOVWF       FARG_AddTask+3 
	MOVLW       1
	ADDWF       FARG_AddTask+0, 1 
	MOVLW       0
	ADDWFC      FARG_AddTask+1, 1 
	ADDWFC      FARG_AddTask+2, 1 
	ADDWFC      FARG_AddTask+3, 1 
	MOVLW       13
	MOVWF       FARG_AddTask+0 
	CALL        _AddTask+0, 0
	BSF         _OpenDone+0, 2 
	GOTO        L_State8312
L_State8311:
;FirmV_0_7_0.c,1318 :: 		{AddTask(ms500+1,13);OpenDone.b2=1;}
	MOVLW       1
	ADDWF       _ms500+0, 0 
	MOVWF       FARG_AddTask+0 
	MOVLW       0
	ADDWFC      _ms500+1, 0 
	MOVWF       FARG_AddTask+1 
	MOVLW       0
	ADDWFC      _ms500+2, 0 
	MOVWF       FARG_AddTask+2 
	MOVLW       0
	ADDWFC      _ms500+3, 0 
	MOVWF       FARG_AddTask+3 
	MOVLW       13
	MOVWF       FARG_AddTask+0 
	CALL        _AddTask+0, 0
	BSF         _OpenDone+0, 2 
L_State8312:
;FirmV_0_7_0.c,1319 :: 		}
L_State8309:
;FirmV_0_7_0.c,1322 :: 		if(CheckTask(13))
	MOVLW       13
	MOVWF       FARG_CheckTask+0 
	CALL        _CheckTask+0, 0
	MOVF        R0, 1 
	BTFSC       STATUS+0, 2 
	GOTO        L_State8313
;FirmV_0_7_0.c,1323 :: 		{State=2; PassFlag=0;PrevAC=0;ClearTasks(9);memcpy(LCDLine1,_open,16);memcpy(LCDLine2,_Blank,16);LCDUpdateFlag=1;LCDLines=2;}
	MOVLW       2
	MOVWF       _State+0 
	CLRF        _PassFlag+0 
	CLRF        _PrevAC+0 
	MOVLW       9
	MOVWF       FARG_ClearTasks+0 
	CALL        _ClearTasks+0, 0
	MOVLW       _LCDLine1+0
	MOVWF       FARG_memcpy_d1+0 
	MOVLW       hi_addr(_LCDLine1+0)
	MOVWF       FARG_memcpy_d1+1 
	MOVLW       __open+0
	MOVWF       FARG_memcpy_s1+0 
	MOVLW       hi_addr(__open+0)
	MOVWF       FARG_memcpy_s1+1 
	MOVLW       16
	MOVWF       FARG_memcpy_n+0 
	MOVLW       0
	MOVWF       FARG_memcpy_n+1 
	CALL        _memcpy+0, 0
	MOVLW       _LCDLine2+0
	MOVWF       FARG_memcpy_d1+0 
	MOVLW       hi_addr(_LCDLine2+0)
	MOVWF       FARG_memcpy_d1+1 
	MOVLW       __Blank+0
	MOVWF       FARG_memcpy_s1+0 
	MOVLW       hi_addr(__Blank+0)
	MOVWF       FARG_memcpy_s1+1 
	MOVLW       16
	MOVWF       FARG_memcpy_n+0 
	MOVLW       0
	MOVWF       FARG_memcpy_n+1 
	CALL        _memcpy+0, 0
	MOVLW       1
	MOVWF       _LCDUpdateFlag+0 
	MOVLW       2
	MOVWF       _LCDLines+0 
L_State8313:
;FirmV_0_7_0.c,1325 :: 		if((State==5)||(State==6))
	MOVF        _State+0, 0 
	XORLW       5
	BTFSC       STATUS+0, 2 
	GOTO        L__State8880
	MOVF        _State+0, 0 
	XORLW       6
	BTFSC       STATUS+0, 2 
	GOTO        L__State8880
	GOTO        L_State8316
L__State8880:
;FirmV_0_7_0.c,1326 :: 		{ClearTasks(0);if(AutoCloseTime!=0){AddTask(ms500+AutoCloseTime,9);AutoClosePauseFlag=0;PrevAC=0;Logger("S8 Autoclose Renewed",1);memcpy(LCDLine2,_autoclose,16);LCDUpdateFlag=1;LCDLines=2;}}
	CLRF        FARG_ClearTasks+0 
	CALL        _ClearTasks+0, 0
	MOVLW       0
	XORWF       _AutoCloseTime+1, 0 
	BTFSS       STATUS+0, 2 
	GOTO        L__State8988
	MOVLW       0
	XORWF       _AutoCloseTime+0, 0 
L__State8988:
	BTFSC       STATUS+0, 2 
	GOTO        L_State8317
	MOVF        _AutoCloseTime+0, 0 
	ADDWF       _ms500+0, 0 
	MOVWF       FARG_AddTask+0 
	MOVF        _AutoCloseTime+1, 0 
	ADDWFC      _ms500+1, 0 
	MOVWF       FARG_AddTask+1 
	MOVLW       0
	ADDWFC      _ms500+2, 0 
	MOVWF       FARG_AddTask+2 
	MOVLW       0
	ADDWFC      _ms500+3, 0 
	MOVWF       FARG_AddTask+3 
	MOVLW       9
	MOVWF       FARG_AddTask+0 
	CALL        _AddTask+0, 0
	CLRF        _AutoClosePauseFlag+0 
	CLRF        _PrevAC+0 
	MOVLW       ?lstr69_FirmV_0_7_0+0
	MOVWF       FARG_Logger_text+0 
	MOVLW       hi_addr(?lstr69_FirmV_0_7_0+0)
	MOVWF       FARG_Logger_text+1 
	MOVLW       1
	MOVWF       FARG_Logger_TimeStampFlag+0 
	CALL        _Logger+0, 0
	MOVLW       _LCDLine2+0
	MOVWF       FARG_memcpy_d1+0 
	MOVLW       hi_addr(_LCDLine2+0)
	MOVWF       FARG_memcpy_d1+1 
	MOVLW       __autoclose+0
	MOVWF       FARG_memcpy_s1+0 
	MOVLW       hi_addr(__autoclose+0)
	MOVWF       FARG_memcpy_s1+1 
	MOVLW       16
	MOVWF       FARG_memcpy_n+0 
	MOVLW       0
	MOVWF       FARG_memcpy_n+1 
	CALL        _memcpy+0, 0
	MOVLW       1
	MOVWF       _LCDUpdateFlag+0 
	MOVLW       2
	MOVWF       _LCDLines+0 
L_State8317:
L_State8316:
;FirmV_0_7_0.c,1329 :: 		}
L_end_State8:
	RETURN      0
; end of _State8

_LCDUpdater:

;FirmV_0_7_0.c,1338 :: 		void LCDUpdater()
;FirmV_0_7_0.c,1343 :: 		if(LCDUpdateFlag==1)
	MOVF        _LCDUpdateFlag+0, 0 
	XORLW       1
	BTFSS       STATUS+0, 2 
	GOTO        L_LCDUpdater318
;FirmV_0_7_0.c,1345 :: 		if(LCDLines!=line)
	MOVF        _LCDLines+0, 0 
	XORWF       LCDUpdater_line_L0+0, 0 
	BTFSC       STATUS+0, 2 
	GOTO        L_LCDUpdater319
;FirmV_0_7_0.c,1347 :: 		line=LCDLines;
	MOVF        _LCDLines+0, 0 
	MOVWF       LCDUpdater_line_L0+0 
;FirmV_0_7_0.c,1348 :: 		LCD_init(LCDLines);
	MOVF        _LCDLines+0, 0 
	MOVWF       FARG_LCD_Init+0 
	CALL        _LCD_Init+0, 0
;FirmV_0_7_0.c,1349 :: 		delay_ms(50);
	MOVLW       3
	MOVWF       R11, 0
	MOVLW       138
	MOVWF       R12, 0
	MOVLW       85
	MOVWF       R13, 0
L_LCDUpdater320:
	DECFSZ      R13, 1, 1
	BRA         L_LCDUpdater320
	DECFSZ      R12, 1, 1
	BRA         L_LCDUpdater320
	DECFSZ      R11, 1, 1
	BRA         L_LCDUpdater320
	NOP
	NOP
;FirmV_0_7_0.c,1350 :: 		}
L_LCDUpdater319:
;FirmV_0_7_0.c,1351 :: 		lcd_out(1,0,LCDLine1);
	MOVLW       1
	MOVWF       FARG_LCD_out+0 
	CLRF        FARG_LCD_out+0 
	MOVLW       _LCDLine1+0
	MOVWF       FARG_LCD_out+0 
	MOVLW       hi_addr(_LCDLine1+0)
	MOVWF       FARG_LCD_out+1 
	CALL        _LCD_out+0, 0
;FirmV_0_7_0.c,1352 :: 		if(!LCDFlash)
	MOVF        _LCDFlash+0, 1 
	BTFSS       STATUS+0, 2 
	GOTO        L_LCDUpdater321
;FirmV_0_7_0.c,1353 :: 		lcd_out(2,0,LCDLine2);
	MOVLW       2
	MOVWF       FARG_LCD_out+0 
	CLRF        FARG_LCD_out+0 
	MOVLW       _LCDLine2+0
	MOVWF       FARG_LCD_out+0 
	MOVLW       hi_addr(_LCDLine2+0)
	MOVWF       FARG_LCD_out+1 
	CALL        _LCD_out+0, 0
	GOTO        L_LCDUpdater322
L_LCDUpdater321:
;FirmV_0_7_0.c,1355 :: 		UpdateWhenFlashing=1;
	MOVLW       1
	MOVWF       LCDUpdater_UpdateWhenFlashing_L0+0 
L_LCDUpdater322:
;FirmV_0_7_0.c,1356 :: 		LCDUpdateFlag=0;
	CLRF        _LCDUpdateFlag+0 
;FirmV_0_7_0.c,1357 :: 		}
L_LCDUpdater318:
;FirmV_0_7_0.c,1359 :: 		if(LCDFlash)
	MOVF        _LCDFlash+0, 1 
	BTFSC       STATUS+0, 2 
	GOTO        L_LCDUpdater323
;FirmV_0_7_0.c,1361 :: 		if(((LCDFlashFlag)&&(LastLCDFlashState==0))||((LastLCDFlashState)&&(UpdatewhenFlashing)))
	MOVF        _LCDFlashFlag+0, 1 
	BTFSC       STATUS+0, 2 
	GOTO        L__LCDUpdater895
	MOVF        LCDUpdater_LastLCDFlashState_L0+0, 0 
	XORLW       0
	BTFSS       STATUS+0, 2 
	GOTO        L__LCDUpdater895
	GOTO        L__LCDUpdater893
L__LCDUpdater895:
	MOVF        LCDUpdater_LastLCDFlashState_L0+0, 1 
	BTFSC       STATUS+0, 2 
	GOTO        L__LCDUpdater894
	MOVF        LCDUpdater_UpdateWhenFlashing_L0+0, 1 
	BTFSC       STATUS+0, 2 
	GOTO        L__LCDUpdater894
	GOTO        L__LCDUpdater893
L__LCDUpdater894:
	GOTO        L_LCDUpdater330
L__LCDUpdater893:
;FirmV_0_7_0.c,1362 :: 		{memcpy(LCDLineTemp,LCDLine2,16);LCDLineTemp[0]='>';LCDLineTemp[1]='>';LCDLineTemp[2]='>';LCDLineTemp[13]='<';LCDLineTemp[14]='<';LCDLineTemp[15]='<';lcd_out(2,0,LCDLineTemp);LastLCDFlashState=1;UpdatewhenFlashing=0;}
	MOVLW       LCDUpdater_LCDLineTemp_L0+0
	MOVWF       FARG_memcpy_d1+0 
	MOVLW       hi_addr(LCDUpdater_LCDLineTemp_L0+0)
	MOVWF       FARG_memcpy_d1+1 
	MOVLW       _LCDLine2+0
	MOVWF       FARG_memcpy_s1+0 
	MOVLW       hi_addr(_LCDLine2+0)
	MOVWF       FARG_memcpy_s1+1 
	MOVLW       16
	MOVWF       FARG_memcpy_n+0 
	MOVLW       0
	MOVWF       FARG_memcpy_n+1 
	CALL        _memcpy+0, 0
	MOVLW       62
	MOVWF       LCDUpdater_LCDLineTemp_L0+0 
	MOVLW       62
	MOVWF       LCDUpdater_LCDLineTemp_L0+1 
	MOVLW       62
	MOVWF       LCDUpdater_LCDLineTemp_L0+2 
	MOVLW       60
	MOVWF       LCDUpdater_LCDLineTemp_L0+13 
	MOVLW       60
	MOVWF       LCDUpdater_LCDLineTemp_L0+14 
	MOVLW       60
	MOVWF       LCDUpdater_LCDLineTemp_L0+15 
	MOVLW       2
	MOVWF       FARG_LCD_out+0 
	CLRF        FARG_LCD_out+0 
	MOVLW       LCDUpdater_LCDLineTemp_L0+0
	MOVWF       FARG_LCD_out+0 
	MOVLW       hi_addr(LCDUpdater_LCDLineTemp_L0+0)
	MOVWF       FARG_LCD_out+1 
	CALL        _LCD_out+0, 0
	MOVLW       1
	MOVWF       LCDUpdater_LastLCDFlashState_L0+0 
	CLRF        LCDUpdater_UpdateWhenFlashing_L0+0 
L_LCDUpdater330:
;FirmV_0_7_0.c,1363 :: 		if(((!LCDFlashFlag)&&(LastLCDFlashState!=0))||((!LastLCDFlashState)&&(UpdatewhenFlashing)))
	MOVF        _LCDFlashFlag+0, 1 
	BTFSS       STATUS+0, 2 
	GOTO        L__LCDUpdater892
	MOVF        LCDUpdater_LastLCDFlashState_L0+0, 0 
	XORLW       0
	BTFSC       STATUS+0, 2 
	GOTO        L__LCDUpdater892
	GOTO        L__LCDUpdater890
L__LCDUpdater892:
	MOVF        LCDUpdater_LastLCDFlashState_L0+0, 1 
	BTFSS       STATUS+0, 2 
	GOTO        L__LCDUpdater891
	MOVF        LCDUpdater_UpdateWhenFlashing_L0+0, 1 
	BTFSC       STATUS+0, 2 
	GOTO        L__LCDUpdater891
	GOTO        L__LCDUpdater890
L__LCDUpdater891:
	GOTO        L_LCDUpdater337
L__LCDUpdater890:
;FirmV_0_7_0.c,1364 :: 		{lcd_out(2,0,LCDLine2);LastLCDFlashState=0;UpdatewhenFlashing=0;}
	MOVLW       2
	MOVWF       FARG_LCD_out+0 
	CLRF        FARG_LCD_out+0 
	MOVLW       _LCDLine2+0
	MOVWF       FARG_LCD_out+0 
	MOVLW       hi_addr(_LCDLine2+0)
	MOVWF       FARG_LCD_out+1 
	CALL        _LCD_out+0, 0
	CLRF        LCDUpdater_LastLCDFlashState_L0+0 
	CLRF        LCDUpdater_UpdateWhenFlashing_L0+0 
L_LCDUpdater337:
;FirmV_0_7_0.c,1365 :: 		}
L_LCDUpdater323:
;FirmV_0_7_0.c,1368 :: 		}
L_end_LCDUpdater:
	RETURN      0
; end of _LCDUpdater

_Init:

;FirmV_0_7_0.c,1388 :: 		void Init()
;FirmV_0_7_0.c,1390 :: 		char i=0;
	CLRF        Init_i_L0+0 
;FirmV_0_7_0.c,1392 :: 		porta=0;
	CLRF        PORTA+0 
;FirmV_0_7_0.c,1393 :: 		portb=0;
	CLRF        PORTB+0 
;FirmV_0_7_0.c,1394 :: 		portc=0;
	CLRF        PORTC+0 
;FirmV_0_7_0.c,1395 :: 		portd=0;
	CLRF        PORTD+0 
;FirmV_0_7_0.c,1396 :: 		porte=0;
	CLRF        PORTE+0 
;FirmV_0_7_0.c,1397 :: 		trisa=0b101111;
	MOVLW       47
	MOVWF       TRISA+0 
;FirmV_0_7_0.c,1398 :: 		trisb=0b00000111;
	MOVLW       7
	MOVWF       TRISB+0 
;FirmV_0_7_0.c,1399 :: 		trisc=0b10000100;
	MOVLW       132
	MOVWF       TRISC+0 
;FirmV_0_7_0.c,1400 :: 		trisd=0b00111111;
	MOVLW       63
	MOVWF       TRISD+0 
;FirmV_0_7_0.c,1401 :: 		trise=0b001;
	MOVLW       1
	MOVWF       TRISE+0 
;FirmV_0_7_0.c,1402 :: 		adcon1=0b1100;  // an6, an5 and an7 is digital
	MOVLW       12
	MOVWF       ADCON1+0 
;FirmV_0_7_0.c,1408 :: 		LCDBackLight=1;
	BSF         PORTA+0, 4 
;FirmV_0_7_0.c,1409 :: 		I2C1_init(100000);
	MOVLW       100
	MOVWF       SSPADD+0 
	CALL        _I2C1_Init+0, 0
;FirmV_0_7_0.c,1411 :: 		delay_ms(100);
	MOVLW       6
	MOVWF       R11, 0
	MOVLW       19
	MOVWF       R12, 0
	MOVLW       173
	MOVWF       R13, 0
L_Init338:
	DECFSZ      R13, 1, 1
	BRA         L_Init338
	DECFSZ      R12, 1, 1
	BRA         L_Init338
	DECFSZ      R11, 1, 1
	BRA         L_Init338
	NOP
	NOP
;FirmV_0_7_0.c,1413 :: 		LCD_init(1);
	MOVLW       1
	MOVWF       FARG_LCD_Init+0 
	CALL        _LCD_Init+0, 0
;FirmV_0_7_0.c,1414 :: 		LCDLines=1;
	MOVLW       1
	MOVWF       _LCDLines+0 
;FirmV_0_7_0.c,1415 :: 		delay_ms(300);
	MOVLW       16
	MOVWF       R11, 0
	MOVLW       57
	MOVWF       R12, 0
	MOVLW       13
	MOVWF       R13, 0
L_Init339:
	DECFSZ      R13, 1, 1
	BRA         L_Init339
	DECFSZ      R12, 1, 1
	BRA         L_Init339
	DECFSZ      R11, 1, 1
	BRA         L_Init339
	NOP
	NOP
;FirmV_0_7_0.c,1416 :: 		SetContrast(20);
	MOVLW       20
	MOVWF       FARG_SetContrast+0 
	CALL        _SetContrast+0, 0
;FirmV_0_7_0.c,1419 :: 		ms500=0;
	CLRF        _ms500+0 
	CLRF        _ms500+1 
	CLRF        _ms500+2 
	CLRF        _ms500+3 
;FirmV_0_7_0.c,1420 :: 		t0con=0b10000101; //enable tmr0 and prescalar
	MOVLW       133
	MOVWF       T0CON+0 
;FirmV_0_7_0.c,1421 :: 		intcon.b7=1;   //global int enable
	BSF         INTCON+0, 7 
;FirmV_0_7_0.c,1422 :: 		intcon.b5=1;  //tmr0 int enable
	BSF         INTCON+0, 5 
;FirmV_0_7_0.c,1423 :: 		intcon.b2=0; //tmr0 flag
	BCF         INTCON+0, 2 
;FirmV_0_7_0.c,1424 :: 		tmr0h=0xF3;
	MOVLW       243
	MOVWF       TMR0H+0 
;FirmV_0_7_0.c,1425 :: 		tmr0l=0xCA;
	MOVLW       202
	MOVWF       TMR0L+0 
;FirmV_0_7_0.c,1428 :: 		INT1IP_bit=1;
	BSF         INT1IP_bit+0, BitPos(INT1IP_bit+0) 
;FirmV_0_7_0.c,1429 :: 		INT1E_bit=1;
	BSF         INT1E_bit+0, BitPos(INT1E_bit+0) 
;FirmV_0_7_0.c,1430 :: 		INT1F_bit=0;
	BCF         INT1F_bit+0, BitPos(INT1F_bit+0) 
;FirmV_0_7_0.c,1431 :: 		INT2IP_bit=1;
	BSF         INT2IP_bit+0, BitPos(INT2IP_bit+0) 
;FirmV_0_7_0.c,1432 :: 		INT2E_bit=1;
	BSF         INT2E_bit+0, BitPos(INT2E_bit+0) 
;FirmV_0_7_0.c,1433 :: 		INT2F_bit=0;
	BCF         INT2F_bit+0, BitPos(INT2F_bit+0) 
;FirmV_0_7_0.c,1434 :: 		INTEDG1_bit=1;
	BSF         INTEDG1_bit+0, BitPos(INTEDG1_bit+0) 
;FirmV_0_7_0.c,1435 :: 		INTEDG2_bit=1;
	BSF         INTEDG2_bit+0, BitPos(INTEDG2_bit+0) 
;FirmV_0_7_0.c,1438 :: 		INT0F_bit=0;
	BCF         INT0F_bit+0, BitPos(INT0F_bit+0) 
;FirmV_0_7_0.c,1439 :: 		INT0E_bit=0;
	BCF         INT0E_bit+0, BitPos(INT0E_bit+0) 
;FirmV_0_7_0.c,1442 :: 		for(i=0;i<20;i++)
	CLRF        Init_i_L0+0 
L_Init340:
	MOVLW       20
	SUBWF       Init_i_L0+0, 0 
	BTFSC       STATUS+0, 0 
	GOTO        L_Init341
;FirmV_0_7_0.c,1443 :: 		Tasks[i].Expired=1;
	MOVLW       7
	MOVWF       R0 
	MOVLW       0
	MOVWF       R1 
	MOVF        Init_i_L0+0, 0 
	MOVWF       R4 
	MOVLW       0
	MOVWF       R5 
	CALL        _Mul_16X16_U+0, 0
	MOVLW       _Tasks+0
	ADDWF       R0, 1 
	MOVLW       hi_addr(_Tasks+0)
	ADDWFC      R1, 1 
	MOVLW       5
	ADDWF       R0, 0 
	MOVWF       FSR1 
	MOVLW       0
	ADDWFC      R1, 0 
	MOVWF       FSR1H 
	MOVLW       1
	MOVWF       POSTINC1+0 
;FirmV_0_7_0.c,1442 :: 		for(i=0;i<20;i++)
	INCF        Init_i_L0+0, 1 
;FirmV_0_7_0.c,1443 :: 		Tasks[i].Expired=1;
	GOTO        L_Init340
L_Init341:
;FirmV_0_7_0.c,1446 :: 		Events.Keys=0;
	CLRF        _Events+0 
;FirmV_0_7_0.c,1447 :: 		Events.Task1=0;
	CLRF        _Events+1 
;FirmV_0_7_0.c,1448 :: 		Events.Task2=0;
	CLRF        _Events+2 
;FirmV_0_7_0.c,1449 :: 		Events.Task3=0;
	CLRF        _Events+3 
;FirmV_0_7_0.c,1450 :: 		Events.Remote=0;
	CLRF        _Events+4 
;FirmV_0_7_0.c,1451 :: 		Events.Overload=0;
	CLRF        _Events+5 
;FirmV_0_7_0.c,1452 :: 		Events.Photocell=0;
	CLRF        _Events+6 
;FirmV_0_7_0.c,1455 :: 		State=0;
	CLRF        _State+0 
;FirmV_0_7_0.c,1458 :: 		UART1_init(115200);
	BSF         BAUDCON+0, 3, 0
	CLRF        SPBRGH+0 
	MOVLW       86
	MOVWF       SPBRG+0 
	BSF         TXSTA+0, 2, 0
	CALL        _UART1_Init+0, 0
;FirmV_0_7_0.c,1461 :: 		LoadConfigs();
	CALL        _LoadConfigs+0, 0
;FirmV_0_7_0.c,1465 :: 		}
L_end_Init:
	RETURN      0
; end of _Init

_TaskManager:

;FirmV_0_7_0.c,1479 :: 		void TaskManager()
;FirmV_0_7_0.c,1481 :: 		char i=0;
	CLRF        TaskManager_i_L0+0 
;FirmV_0_7_0.c,1482 :: 		for(i=0;i<20;i++)
	CLRF        TaskManager_i_L0+0 
L_TaskManager343:
	MOVLW       20
	SUBWF       TaskManager_i_L0+0, 0 
	BTFSC       STATUS+0, 0 
	GOTO        L_TaskManager344
;FirmV_0_7_0.c,1483 :: 		if((Tasks[i].Expired==0)&&(Tasks[i].Time==ms500)&&(Tasks[i].Fired==0))
	MOVLW       7
	MOVWF       R0 
	MOVLW       0
	MOVWF       R1 
	MOVF        TaskManager_i_L0+0, 0 
	MOVWF       R4 
	MOVLW       0
	MOVWF       R5 
	CALL        _Mul_16X16_U+0, 0
	MOVLW       _Tasks+0
	ADDWF       R0, 1 
	MOVLW       hi_addr(_Tasks+0)
	ADDWFC      R1, 1 
	MOVLW       5
	ADDWF       R0, 0 
	MOVWF       FSR0 
	MOVLW       0
	ADDWFC      R1, 0 
	MOVWF       FSR0H 
	MOVF        POSTINC0+0, 0 
	XORLW       0
	BTFSS       STATUS+0, 2 
	GOTO        L_TaskManager348
	MOVLW       7
	MOVWF       R0 
	MOVLW       0
	MOVWF       R1 
	MOVF        TaskManager_i_L0+0, 0 
	MOVWF       R4 
	MOVLW       0
	MOVWF       R5 
	CALL        _Mul_16X16_U+0, 0
	MOVLW       _Tasks+0
	ADDWF       R0, 1 
	MOVLW       hi_addr(_Tasks+0)
	ADDWFC      R1, 1 
	MOVLW       1
	ADDWF       R0, 0 
	MOVWF       FSR0 
	MOVLW       0
	ADDWFC      R1, 0 
	MOVWF       FSR0H 
	MOVF        POSTINC0+0, 0 
	MOVWF       R1 
	MOVF        POSTINC0+0, 0 
	MOVWF       R2 
	MOVF        POSTINC0+0, 0 
	MOVWF       R3 
	MOVF        POSTINC0+0, 0 
	MOVWF       R4 
	MOVF        R4, 0 
	XORWF       _ms500+3, 0 
	BTFSS       STATUS+0, 2 
	GOTO        L__TaskManager992
	MOVF        R3, 0 
	XORWF       _ms500+2, 0 
	BTFSS       STATUS+0, 2 
	GOTO        L__TaskManager992
	MOVF        R2, 0 
	XORWF       _ms500+1, 0 
	BTFSS       STATUS+0, 2 
	GOTO        L__TaskManager992
	MOVF        R1, 0 
	XORWF       _ms500+0, 0 
L__TaskManager992:
	BTFSS       STATUS+0, 2 
	GOTO        L_TaskManager348
	MOVLW       7
	MOVWF       R0 
	MOVLW       0
	MOVWF       R1 
	MOVF        TaskManager_i_L0+0, 0 
	MOVWF       R4 
	MOVLW       0
	MOVWF       R5 
	CALL        _Mul_16X16_U+0, 0
	MOVLW       _Tasks+0
	ADDWF       R0, 1 
	MOVLW       hi_addr(_Tasks+0)
	ADDWFC      R1, 1 
	MOVLW       6
	ADDWF       R0, 0 
	MOVWF       FSR0 
	MOVLW       0
	ADDWFC      R1, 0 
	MOVWF       FSR0H 
	MOVF        POSTINC0+0, 0 
	XORLW       0
	BTFSS       STATUS+0, 2 
	GOTO        L_TaskManager348
L__TaskManager896:
;FirmV_0_7_0.c,1484 :: 		Tasks[i].Fired=1;
	MOVLW       7
	MOVWF       R0 
	MOVLW       0
	MOVWF       R1 
	MOVF        TaskManager_i_L0+0, 0 
	MOVWF       R4 
	MOVLW       0
	MOVWF       R5 
	CALL        _Mul_16X16_U+0, 0
	MOVLW       _Tasks+0
	ADDWF       R0, 1 
	MOVLW       hi_addr(_Tasks+0)
	ADDWFC      R1, 1 
	MOVLW       6
	ADDWF       R0, 0 
	MOVWF       FSR1 
	MOVLW       0
	ADDWFC      R1, 0 
	MOVWF       FSR1H 
	MOVLW       1
	MOVWF       POSTINC1+0 
L_TaskManager348:
;FirmV_0_7_0.c,1482 :: 		for(i=0;i<20;i++)
	INCF        TaskManager_i_L0+0, 1 
;FirmV_0_7_0.c,1484 :: 		Tasks[i].Fired=1;
	GOTO        L_TaskManager343
L_TaskManager344:
;FirmV_0_7_0.c,1485 :: 		}
L_end_TaskManager:
	RETURN      0
; end of _TaskManager

_AddTask:

;FirmV_0_7_0.c,1497 :: 		void AddTask(unsigned long OccTime,char tcode)
;FirmV_0_7_0.c,1500 :: 		for(i=0;i<20;i++)
	CLRF        AddTask_i_L0+0 
L_AddTask349:
	MOVLW       20
	SUBWF       AddTask_i_L0+0, 0 
	BTFSC       STATUS+0, 0 
	GOTO        L_AddTask350
;FirmV_0_7_0.c,1501 :: 		if(Tasks[i].Expired==1)
	MOVLW       7
	MOVWF       R0 
	MOVLW       0
	MOVWF       R1 
	MOVF        AddTask_i_L0+0, 0 
	MOVWF       R4 
	MOVLW       0
	MOVWF       R5 
	CALL        _Mul_16X16_U+0, 0
	MOVLW       _Tasks+0
	ADDWF       R0, 1 
	MOVLW       hi_addr(_Tasks+0)
	ADDWFC      R1, 1 
	MOVLW       5
	ADDWF       R0, 0 
	MOVWF       FSR0 
	MOVLW       0
	ADDWFC      R1, 0 
	MOVWF       FSR0H 
	MOVF        POSTINC0+0, 0 
	XORLW       1
	BTFSS       STATUS+0, 2 
	GOTO        L_AddTask352
;FirmV_0_7_0.c,1503 :: 		Tasks[i].TaskCode=tcode;
	MOVLW       7
	MOVWF       R0 
	MOVLW       0
	MOVWF       R1 
	MOVF        AddTask_i_L0+0, 0 
	MOVWF       R4 
	MOVLW       0
	MOVWF       R5 
	CALL        _Mul_16X16_U+0, 0
	MOVLW       _Tasks+0
	ADDWF       R0, 0 
	MOVWF       FSR1 
	MOVLW       hi_addr(_Tasks+0)
	ADDWFC      R1, 0 
	MOVWF       FSR1H 
	MOVF        FARG_AddTask_tcode+0, 0 
	MOVWF       POSTINC1+0 
;FirmV_0_7_0.c,1504 :: 		Tasks[i].Time=OccTime;
	MOVLW       7
	MOVWF       R0 
	MOVLW       0
	MOVWF       R1 
	MOVF        AddTask_i_L0+0, 0 
	MOVWF       R4 
	MOVLW       0
	MOVWF       R5 
	CALL        _Mul_16X16_U+0, 0
	MOVLW       _Tasks+0
	ADDWF       R0, 1 
	MOVLW       hi_addr(_Tasks+0)
	ADDWFC      R1, 1 
	MOVLW       1
	ADDWF       R0, 0 
	MOVWF       FSR1 
	MOVLW       0
	ADDWFC      R1, 0 
	MOVWF       FSR1H 
	MOVF        FARG_AddTask_OccTime+0, 0 
	MOVWF       POSTINC1+0 
	MOVF        FARG_AddTask_OccTime+1, 0 
	MOVWF       POSTINC1+0 
	MOVF        FARG_AddTask_OccTime+2, 0 
	MOVWF       POSTINC1+0 
	MOVF        FARG_AddTask_OccTime+3, 0 
	MOVWF       POSTINC1+0 
;FirmV_0_7_0.c,1505 :: 		Tasks[i].Expired=0;
	MOVLW       7
	MOVWF       R0 
	MOVLW       0
	MOVWF       R1 
	MOVF        AddTask_i_L0+0, 0 
	MOVWF       R4 
	MOVLW       0
	MOVWF       R5 
	CALL        _Mul_16X16_U+0, 0
	MOVLW       _Tasks+0
	ADDWF       R0, 1 
	MOVLW       hi_addr(_Tasks+0)
	ADDWFC      R1, 1 
	MOVLW       5
	ADDWF       R0, 0 
	MOVWF       FSR1 
	MOVLW       0
	ADDWFC      R1, 0 
	MOVWF       FSR1H 
	CLRF        POSTINC1+0 
;FirmV_0_7_0.c,1506 :: 		Tasks[i].Fired=0;
	MOVLW       7
	MOVWF       R0 
	MOVLW       0
	MOVWF       R1 
	MOVF        AddTask_i_L0+0, 0 
	MOVWF       R4 
	MOVLW       0
	MOVWF       R5 
	CALL        _Mul_16X16_U+0, 0
	MOVLW       _Tasks+0
	ADDWF       R0, 1 
	MOVLW       hi_addr(_Tasks+0)
	ADDWFC      R1, 1 
	MOVLW       6
	ADDWF       R0, 0 
	MOVWF       FSR1 
	MOVLW       0
	ADDWFC      R1, 0 
	MOVWF       FSR1H 
	CLRF        POSTINC1+0 
;FirmV_0_7_0.c,1507 :: 		break;
	GOTO        L_AddTask350
;FirmV_0_7_0.c,1508 :: 		}
L_AddTask352:
;FirmV_0_7_0.c,1500 :: 		for(i=0;i<20;i++)
	INCF        AddTask_i_L0+0, 1 
;FirmV_0_7_0.c,1508 :: 		}
	GOTO        L_AddTask349
L_AddTask350:
;FirmV_0_7_0.c,1509 :: 		}
L_end_AddTask:
	RETURN      0
; end of _AddTask

_EventHandler:

;FirmV_0_7_0.c,1519 :: 		void EventHandler()
;FirmV_0_7_0.c,1522 :: 		Events.ExternalKeys=GetExternalKeysState();
	CALL        _GetExternalKeysState+0, 0
	MOVF        R0, 0 
	MOVWF       _Events+8 
;FirmV_0_7_0.c,1523 :: 		Events.Limiter=GetLimitSwitchState();
	CALL        _GetLimitSwitchState+0, 0
	MOVF        R0, 0 
	MOVWF       _Events+7 
;FirmV_0_7_0.c,1524 :: 		Events.Keys=GetKeysState();
	CALL        _GetKeysState+0, 0
	MOVF        R0, 0 
	MOVWF       _Events+0 
;FirmV_0_7_0.c,1525 :: 		Events.Remote=GetRemoteState();
	CALL        _GetRemoteState+0, 0
	MOVF        R0, 0 
	MOVWF       _Events+4 
;FirmV_0_7_0.c,1526 :: 		Events.Overload=GetOverloadState();
	CALL        _GetOverloadState+0, 0
	MOVF        R0, 0 
	MOVWF       _Events+5 
;FirmV_0_7_0.c,1527 :: 		Events.Photocell=GetPhotocellState();
	CALL        _GetPhotocellState+0, 0
	MOVF        R0, 0 
	MOVWF       _Events+6 
;FirmV_0_7_0.c,1529 :: 		for(i=0;i<20;i++)
	CLRF        EventHandler_i_L0+0 
L_EventHandler353:
	MOVLW       20
	SUBWF       EventHandler_i_L0+0, 0 
	BTFSC       STATUS+0, 0 
	GOTO        L_EventHandler354
;FirmV_0_7_0.c,1530 :: 		if((Tasks[i].Expired==0)&&(Tasks[i].Fired==1))
	MOVLW       7
	MOVWF       R0 
	MOVLW       0
	MOVWF       R1 
	MOVF        EventHandler_i_L0+0, 0 
	MOVWF       R4 
	MOVLW       0
	MOVWF       R5 
	CALL        _Mul_16X16_U+0, 0
	MOVLW       _Tasks+0
	ADDWF       R0, 1 
	MOVLW       hi_addr(_Tasks+0)
	ADDWFC      R1, 1 
	MOVLW       5
	ADDWF       R0, 0 
	MOVWF       FSR0 
	MOVLW       0
	ADDWFC      R1, 0 
	MOVWF       FSR0H 
	MOVF        POSTINC0+0, 0 
	XORLW       0
	BTFSS       STATUS+0, 2 
	GOTO        L_EventHandler358
	MOVLW       7
	MOVWF       R0 
	MOVLW       0
	MOVWF       R1 
	MOVF        EventHandler_i_L0+0, 0 
	MOVWF       R4 
	MOVLW       0
	MOVWF       R5 
	CALL        _Mul_16X16_U+0, 0
	MOVLW       _Tasks+0
	ADDWF       R0, 1 
	MOVLW       hi_addr(_Tasks+0)
	ADDWFC      R1, 1 
	MOVLW       6
	ADDWF       R0, 0 
	MOVWF       FSR0 
	MOVLW       0
	ADDWFC      R1, 0 
	MOVWF       FSR0H 
	MOVF        POSTINC0+0, 0 
	XORLW       1
	BTFSS       STATUS+0, 2 
	GOTO        L_EventHandler358
L__EventHandler897:
;FirmV_0_7_0.c,1532 :: 		if(Events.Task1==0)
	MOVF        _Events+1, 0 
	XORLW       0
	BTFSS       STATUS+0, 2 
	GOTO        L_EventHandler359
;FirmV_0_7_0.c,1533 :: 		{Events.Task1=Tasks[i].TaskCode; Tasks[i].Expired=1;Tasks[i].Fired=0;}
	MOVLW       7
	MOVWF       R0 
	MOVLW       0
	MOVWF       R1 
	MOVF        EventHandler_i_L0+0, 0 
	MOVWF       R4 
	MOVLW       0
	MOVWF       R5 
	CALL        _Mul_16X16_U+0, 0
	MOVLW       _Tasks+0
	ADDWF       R0, 0 
	MOVWF       R2 
	MOVLW       hi_addr(_Tasks+0)
	ADDWFC      R1, 0 
	MOVWF       R3 
	MOVFF       R2, FSR0
	MOVFF       R3, FSR0H
	MOVF        POSTINC0+0, 0 
	MOVWF       R0 
	MOVF        R0, 0 
	MOVWF       _Events+1 
	MOVLW       5
	ADDWF       R2, 0 
	MOVWF       FSR1 
	MOVLW       0
	ADDWFC      R3, 0 
	MOVWF       FSR1H 
	MOVLW       1
	MOVWF       POSTINC1+0 
	MOVLW       7
	MOVWF       R0 
	MOVLW       0
	MOVWF       R1 
	MOVF        EventHandler_i_L0+0, 0 
	MOVWF       R4 
	MOVLW       0
	MOVWF       R5 
	CALL        _Mul_16X16_U+0, 0
	MOVLW       _Tasks+0
	ADDWF       R0, 1 
	MOVLW       hi_addr(_Tasks+0)
	ADDWFC      R1, 1 
	MOVLW       6
	ADDWF       R0, 0 
	MOVWF       FSR1 
	MOVLW       0
	ADDWFC      R1, 0 
	MOVWF       FSR1H 
	CLRF        POSTINC1+0 
	GOTO        L_EventHandler360
L_EventHandler359:
;FirmV_0_7_0.c,1534 :: 		else if(Events.Task2==0)
	MOVF        _Events+2, 0 
	XORLW       0
	BTFSS       STATUS+0, 2 
	GOTO        L_EventHandler361
;FirmV_0_7_0.c,1535 :: 		{Events.Task2=Tasks[i].TaskCode;Tasks[i].Expired=1;Tasks[i].Fired=0;}
	MOVLW       7
	MOVWF       R0 
	MOVLW       0
	MOVWF       R1 
	MOVF        EventHandler_i_L0+0, 0 
	MOVWF       R4 
	MOVLW       0
	MOVWF       R5 
	CALL        _Mul_16X16_U+0, 0
	MOVLW       _Tasks+0
	ADDWF       R0, 0 
	MOVWF       R2 
	MOVLW       hi_addr(_Tasks+0)
	ADDWFC      R1, 0 
	MOVWF       R3 
	MOVFF       R2, FSR0
	MOVFF       R3, FSR0H
	MOVF        POSTINC0+0, 0 
	MOVWF       R0 
	MOVF        R0, 0 
	MOVWF       _Events+2 
	MOVLW       5
	ADDWF       R2, 0 
	MOVWF       FSR1 
	MOVLW       0
	ADDWFC      R3, 0 
	MOVWF       FSR1H 
	MOVLW       1
	MOVWF       POSTINC1+0 
	MOVLW       7
	MOVWF       R0 
	MOVLW       0
	MOVWF       R1 
	MOVF        EventHandler_i_L0+0, 0 
	MOVWF       R4 
	MOVLW       0
	MOVWF       R5 
	CALL        _Mul_16X16_U+0, 0
	MOVLW       _Tasks+0
	ADDWF       R0, 1 
	MOVLW       hi_addr(_Tasks+0)
	ADDWFC      R1, 1 
	MOVLW       6
	ADDWF       R0, 0 
	MOVWF       FSR1 
	MOVLW       0
	ADDWFC      R1, 0 
	MOVWF       FSR1H 
	CLRF        POSTINC1+0 
	GOTO        L_EventHandler362
L_EventHandler361:
;FirmV_0_7_0.c,1536 :: 		else if(Events.Task3==0)
	MOVF        _Events+3, 0 
	XORLW       0
	BTFSS       STATUS+0, 2 
	GOTO        L_EventHandler363
;FirmV_0_7_0.c,1537 :: 		{Events.Task3=Tasks[i].TaskCode;Tasks[i].Expired=1;Tasks[i].Fired=0;}
	MOVLW       7
	MOVWF       R0 
	MOVLW       0
	MOVWF       R1 
	MOVF        EventHandler_i_L0+0, 0 
	MOVWF       R4 
	MOVLW       0
	MOVWF       R5 
	CALL        _Mul_16X16_U+0, 0
	MOVLW       _Tasks+0
	ADDWF       R0, 0 
	MOVWF       R2 
	MOVLW       hi_addr(_Tasks+0)
	ADDWFC      R1, 0 
	MOVWF       R3 
	MOVFF       R2, FSR0
	MOVFF       R3, FSR0H
	MOVF        POSTINC0+0, 0 
	MOVWF       R0 
	MOVF        R0, 0 
	MOVWF       _Events+3 
	MOVLW       5
	ADDWF       R2, 0 
	MOVWF       FSR1 
	MOVLW       0
	ADDWFC      R3, 0 
	MOVWF       FSR1H 
	MOVLW       1
	MOVWF       POSTINC1+0 
	MOVLW       7
	MOVWF       R0 
	MOVLW       0
	MOVWF       R1 
	MOVF        EventHandler_i_L0+0, 0 
	MOVWF       R4 
	MOVLW       0
	MOVWF       R5 
	CALL        _Mul_16X16_U+0, 0
	MOVLW       _Tasks+0
	ADDWF       R0, 1 
	MOVLW       hi_addr(_Tasks+0)
	ADDWFC      R1, 1 
	MOVLW       6
	ADDWF       R0, 0 
	MOVWF       FSR1 
	MOVLW       0
	ADDWFC      R1, 0 
	MOVWF       FSR1H 
	CLRF        POSTINC1+0 
L_EventHandler363:
L_EventHandler362:
L_EventHandler360:
;FirmV_0_7_0.c,1538 :: 		}
L_EventHandler358:
;FirmV_0_7_0.c,1529 :: 		for(i=0;i<20;i++)
	INCF        EventHandler_i_L0+0, 1 
;FirmV_0_7_0.c,1538 :: 		}
	GOTO        L_EventHandler353
L_EventHandler354:
;FirmV_0_7_0.c,1539 :: 		}
L_end_EventHandler:
	RETURN      0
; end of _EventHandler

_GetKeysState:

;FirmV_0_7_0.c,1549 :: 		char GetKeysState()
;FirmV_0_7_0.c,1551 :: 		unsigned res=0;
;FirmV_0_7_0.c,1555 :: 		char resch=0,fin;
	CLRF        GetKeysState_resch_L0+0 
;FirmV_0_7_0.c,1556 :: 		resch.b0=~KeyDown;
	BTFSC       PORTD+0, 5 
	GOTO        L__GetKeysState996
	BSF         GetKeysState_resch_L0+0, 0 
	GOTO        L__GetKeysState997
L__GetKeysState996:
	BCF         GetKeysState_resch_L0+0, 0 
L__GetKeysState997:
;FirmV_0_7_0.c,1557 :: 		resch.b1=~KeyMenu;
	BTFSC       PORTE+0, 0 
	GOTO        L__GetKeysState998
	BSF         GetKeysState_resch_L0+0, 1 
	GOTO        L__GetKeysState999
L__GetKeysState998:
	BCF         GetKeysState_resch_L0+0, 1 
L__GetKeysState999:
;FirmV_0_7_0.c,1558 :: 		resch.b2=~KeyUp;
	BTFSC       PORTD+0, 4 
	GOTO        L__GetKeysState1000
	BSF         GetKeysState_resch_L0+0, 2 
	GOTO        L__GetKeysState1001
L__GetKeysState1000:
	BCF         GetKeysState_resch_L0+0, 2 
L__GetKeysState1001:
;FirmV_0_7_0.c,1560 :: 		if(DebouncingDelayUnpress<DebouncingFix)
	MOVLW       5
	SUBWF       _DebouncingDelayUnpress+0, 0 
	BTFSC       STATUS+0, 0 
	GOTO        L_GetKeysState364
;FirmV_0_7_0.c,1561 :: 		resch=0;
	CLRF        GetKeysState_resch_L0+0 
L_GetKeysState364:
;FirmV_0_7_0.c,1563 :: 		if((resch==0))
	MOVF        GetKeysState_resch_L0+0, 0 
	XORLW       0
	BTFSS       STATUS+0, 2 
	GOTO        L_GetKeysState365
;FirmV_0_7_0.c,1565 :: 		if(Pressed==0)
	MOVF        _Pressed+0, 0 
	XORLW       0
	BTFSS       STATUS+0, 2 
	GOTO        L_GetKeysState366
;FirmV_0_7_0.c,1566 :: 		{Repeat=0;RepeatCount=0;Pressed=0;fin=0;RepeatRate=0;}
	CLRF        GetKeysState_Repeat_L0+0 
	CLRF        GetKeysState_RepeatCount_L0+0 
	CLRF        _Pressed+0 
	CLRF        GetKeysState_fin_L0+0 
	CLRF        GetKeysState_RepeatRate_L0+0 
L_GetKeysState366:
;FirmV_0_7_0.c,1567 :: 		if(Pressed==1)
	MOVF        _Pressed+0, 0 
	XORLW       1
	BTFSS       STATUS+0, 2 
	GOTO        L_GetKeysState367
;FirmV_0_7_0.c,1568 :: 		if(DebouncingDelayPress>=DebouncingFix)
	MOVLW       5
	SUBWF       _DebouncingDelayPress+0, 0 
	BTFSS       STATUS+0, 0 
	GOTO        L_GetKeysState368
;FirmV_0_7_0.c,1569 :: 		{Repeat=0;RepeatCount=0;Pressed=0;fin=0;RepeatRate=0;DebouncingDelayUnpress=0;}
	CLRF        GetKeysState_Repeat_L0+0 
	CLRF        GetKeysState_RepeatCount_L0+0 
	CLRF        _Pressed+0 
	CLRF        GetKeysState_fin_L0+0 
	CLRF        GetKeysState_RepeatRate_L0+0 
	CLRF        _DebouncingDelayUnpress+0 
L_GetKeysState368:
L_GetKeysState367:
;FirmV_0_7_0.c,1570 :: 		}
L_GetKeysState365:
;FirmV_0_7_0.c,1575 :: 		if((Repeat==1)&&(KeyFlag>=RepeatSpeed))
	MOVF        GetKeysState_Repeat_L0+0, 0 
	XORLW       1
	BTFSS       STATUS+0, 2 
	GOTO        L_GetKeysState371
	MOVF        GetKeysState_RepeatSpeed_L0+0, 0 
	SUBWF       _KeyFlag+0, 0 
	BTFSS       STATUS+0, 0 
	GOTO        L_GetKeysState371
L__GetKeysState902:
;FirmV_0_7_0.c,1576 :: 		{RepeatRate=1;KeyFlag=0;if(RepeatCount<25)RepeatCount=RepeatCount+1;}
	MOVLW       1
	MOVWF       GetKeysState_RepeatRate_L0+0 
	CLRF        _KeyFlag+0 
	MOVLW       25
	SUBWF       GetKeysState_RepeatCount_L0+0, 0 
	BTFSC       STATUS+0, 0 
	GOTO        L_GetKeysState372
	INCF        GetKeysState_RepeatCount_L0+0, 1 
L_GetKeysState372:
L_GetKeysState371:
;FirmV_0_7_0.c,1580 :: 		if((resch!=0)&&(Pressed==1)&&(Repeat==0)&&(ms500==PressTime+KeyRepeatDelay))
	MOVF        GetKeysState_resch_L0+0, 0 
	XORLW       0
	BTFSC       STATUS+0, 2 
	GOTO        L_GetKeysState375
	MOVF        _Pressed+0, 0 
	XORLW       1
	BTFSS       STATUS+0, 2 
	GOTO        L_GetKeysState375
	MOVF        GetKeysState_Repeat_L0+0, 0 
	XORLW       0
	BTFSS       STATUS+0, 2 
	GOTO        L_GetKeysState375
	MOVLW       2
	ADDWF       GetKeysState_PressTime_L0+0, 0 
	MOVWF       R1 
	MOVLW       0
	ADDWFC      GetKeysState_PressTime_L0+1, 0 
	MOVWF       R2 
	MOVLW       0
	ADDWFC      GetKeysState_PressTime_L0+2, 0 
	MOVWF       R3 
	MOVLW       0
	ADDWFC      GetKeysState_PressTime_L0+3, 0 
	MOVWF       R4 
	MOVF        _ms500+3, 0 
	XORWF       R4, 0 
	BTFSS       STATUS+0, 2 
	GOTO        L__GetKeysState1002
	MOVF        _ms500+2, 0 
	XORWF       R3, 0 
	BTFSS       STATUS+0, 2 
	GOTO        L__GetKeysState1002
	MOVF        _ms500+1, 0 
	XORWF       R2, 0 
	BTFSS       STATUS+0, 2 
	GOTO        L__GetKeysState1002
	MOVF        _ms500+0, 0 
	XORWF       R1, 0 
L__GetKeysState1002:
	BTFSS       STATUS+0, 2 
	GOTO        L_GetKeysState375
L__GetKeysState901:
;FirmV_0_7_0.c,1581 :: 		{Repeat=1;KeyFlag=0;}
	MOVLW       1
	MOVWF       GetKeysState_Repeat_L0+0 
	CLRF        _KeyFlag+0 
L_GetKeysState375:
;FirmV_0_7_0.c,1583 :: 		if((resch!=0)&&(Pressed==1)&&(Repeat==0))
	MOVF        GetKeysState_resch_L0+0, 0 
	XORLW       0
	BTFSC       STATUS+0, 2 
	GOTO        L_GetKeysState378
	MOVF        _Pressed+0, 0 
	XORLW       1
	BTFSS       STATUS+0, 2 
	GOTO        L_GetKeysState378
	MOVF        GetKeysState_Repeat_L0+0, 0 
	XORLW       0
	BTFSS       STATUS+0, 2 
	GOTO        L_GetKeysState378
L__GetKeysState900:
;FirmV_0_7_0.c,1584 :: 		fin=0;
	CLRF        GetKeysState_fin_L0+0 
L_GetKeysState378:
;FirmV_0_7_0.c,1586 :: 		if((resch!=0)&&(Pressed==1)&&(Repeat==1))
	MOVF        GetKeysState_resch_L0+0, 0 
	XORLW       0
	BTFSC       STATUS+0, 2 
	GOTO        L_GetKeysState381
	MOVF        _Pressed+0, 0 
	XORLW       1
	BTFSS       STATUS+0, 2 
	GOTO        L_GetKeysState381
	MOVF        GetKeysState_Repeat_L0+0, 0 
	XORLW       1
	BTFSS       STATUS+0, 2 
	GOTO        L_GetKeysState381
L__GetKeysState899:
;FirmV_0_7_0.c,1587 :: 		{fin=resch*RepeatRate;RepeatRate=0;}
	MOVF        GetKeysState_resch_L0+0, 0 
	MULWF       GetKeysState_RepeatRate_L0+0 
	MOVF        PRODL+0, 0 
	MOVWF       GetKeysState_fin_L0+0 
	CLRF        GetKeysState_RepeatRate_L0+0 
L_GetKeysState381:
;FirmV_0_7_0.c,1590 :: 		if((resch!=0)&&(Pressed==0))
	MOVF        GetKeysState_resch_L0+0, 0 
	XORLW       0
	BTFSC       STATUS+0, 2 
	GOTO        L_GetKeysState384
	MOVF        _Pressed+0, 0 
	XORLW       0
	BTFSS       STATUS+0, 2 
	GOTO        L_GetKeysState384
L__GetKeysState898:
;FirmV_0_7_0.c,1591 :: 		{fin=resch; Pressed=1;PressTime=ms500;DebouncingDelayPress=0;}
	MOVF        GetKeysState_resch_L0+0, 0 
	MOVWF       GetKeysState_fin_L0+0 
	MOVLW       1
	MOVWF       _Pressed+0 
	MOVF        _ms500+0, 0 
	MOVWF       GetKeysState_PressTime_L0+0 
	MOVF        _ms500+1, 0 
	MOVWF       GetKeysState_PressTime_L0+1 
	MOVF        _ms500+2, 0 
	MOVWF       GetKeysState_PressTime_L0+2 
	MOVF        _ms500+3, 0 
	MOVWF       GetKeysState_PressTime_L0+3 
	CLRF        _DebouncingDelayPress+0 
L_GetKeysState384:
;FirmV_0_7_0.c,1594 :: 		if(fin != 0)
	MOVF        GetKeysState_fin_L0+0, 0 
	XORLW       0
	BTFSC       STATUS+0, 2 
	GOTO        L_GetKeysState385
;FirmV_0_7_0.c,1595 :: 		BuzzFlag=1;
	MOVLW       1
	MOVWF       _BuzzFlag+0 
L_GetKeysState385:
;FirmV_0_7_0.c,1597 :: 		return fin;
	MOVF        GetKeysState_fin_L0+0, 0 
	MOVWF       R0 
;FirmV_0_7_0.c,1598 :: 		}
L_end_GetKeysState:
	RETURN      0
; end of _GetKeysState

_GetExternalKeysState:

;FirmV_0_7_0.c,1608 :: 		char GetExternalKeysState()
;FirmV_0_7_0.c,1610 :: 		char out=0;
	CLRF        GetExternalKeysState_out_L0+0 
;FirmV_0_7_0.c,1611 :: 		if(KeyUp==0)
	BTFSC       PORTD+0, 4 
	GOTO        L_GetExternalKeysState386
;FirmV_0_7_0.c,1612 :: 		out.b0=1;
	BSF         GetExternalKeysState_out_L0+0, 0 
L_GetExternalKeysState386:
;FirmV_0_7_0.c,1613 :: 		if(KeyDown==0)
	BTFSC       PORTD+0, 5 
	GOTO        L_GetExternalKeysState387
;FirmV_0_7_0.c,1614 :: 		out.b1=1;
	BSF         GetExternalKeysState_out_L0+0, 1 
L_GetExternalKeysState387:
;FirmV_0_7_0.c,1615 :: 		return out;
	MOVF        GetExternalKeysState_out_L0+0, 0 
	MOVWF       R0 
;FirmV_0_7_0.c,1616 :: 		}
L_end_GetExternalKeysState:
	RETURN      0
; end of _GetExternalKeysState

_GetLimitSwitchState:

;FirmV_0_7_0.c,1629 :: 		char GetLimitSwitchState()
;FirmV_0_7_0.c,1631 :: 		if((Limit1==0)||(Limit2==0))
	BTFSS       PORTD+0, 0 
	GOTO        L__GetLimitSwitchState905
	BTFSS       PORTD+0, 1 
	GOTO        L__GetLimitSwitchState905
	GOTO        L_GetLimitSwitchState390
L__GetLimitSwitchState905:
;FirmV_0_7_0.c,1633 :: 		if(LimitCounter <= 100)
	MOVF        _LimitCounter+0, 0 
	SUBLW       100
	BTFSS       STATUS+0, 0 
	GOTO        L_GetLimitSwitchState391
;FirmV_0_7_0.c,1634 :: 		LimitCounter=LimitCounter+1;
	INCF        _LimitCounter+0, 1 
L_GetLimitSwitchState391:
;FirmV_0_7_0.c,1635 :: 		}
	GOTO        L_GetLimitSwitchState392
L_GetLimitSwitchState390:
;FirmV_0_7_0.c,1637 :: 		LimitCounter=0;
	CLRF        _LimitCounter+0 
L_GetLimitSwitchState392:
;FirmV_0_7_0.c,1639 :: 		if((LimitCounter >100) && (Limit1 == 0))
	MOVF        _LimitCounter+0, 0 
	SUBLW       100
	BTFSC       STATUS+0, 0 
	GOTO        L_GetLimitSwitchState395
	BTFSC       PORTD+0, 0 
	GOTO        L_GetLimitSwitchState395
L__GetLimitSwitchState904:
;FirmV_0_7_0.c,1640 :: 		return 1;
	MOVLW       1
	MOVWF       R0 
	GOTO        L_end_GetLimitSwitchState
L_GetLimitSwitchState395:
;FirmV_0_7_0.c,1641 :: 		if((LimitCounter >100) && (Limit2 == 0))
	MOVF        _LimitCounter+0, 0 
	SUBLW       100
	BTFSC       STATUS+0, 0 
	GOTO        L_GetLimitSwitchState398
	BTFSC       PORTD+0, 1 
	GOTO        L_GetLimitSwitchState398
L__GetLimitSwitchState903:
;FirmV_0_7_0.c,1642 :: 		return 2;
	MOVLW       2
	MOVWF       R0 
	GOTO        L_end_GetLimitSwitchState
L_GetLimitSwitchState398:
;FirmV_0_7_0.c,1643 :: 		return 0;
	CLRF        R0 
;FirmV_0_7_0.c,1644 :: 		}
L_end_GetLimitSwitchState:
	RETURN      0
; end of _GetLimitSwitchState

_GetRemoteState:

;FirmV_0_7_0.c,1653 :: 		char GetRemoteState()
;FirmV_0_7_0.c,1655 :: 		char res=0;
	CLRF        GetRemoteState_res_L0+0 
;FirmV_0_7_0.c,1656 :: 		res.b0=RemoteAFlag.b0;
	BTFSC       _RemoteAFlag+0, 0 
	GOTO        L__GetRemoteState1006
	BCF         GetRemoteState_res_L0+0, 0 
	GOTO        L__GetRemoteState1007
L__GetRemoteState1006:
	BSF         GetRemoteState_res_L0+0, 0 
L__GetRemoteState1007:
;FirmV_0_7_0.c,1657 :: 		res.b1=RemoteBFlag.b0;
	BTFSC       _RemoteBFlag+0, 0 
	GOTO        L__GetRemoteState1008
	BCF         GetRemoteState_res_L0+0, 1 
	GOTO        L__GetRemoteState1009
L__GetRemoteState1008:
	BSF         GetRemoteState_res_L0+0, 1 
L__GetRemoteState1009:
;FirmV_0_7_0.c,1658 :: 		RemoteAFlag=0;
	CLRF        _RemoteAFlag+0 
;FirmV_0_7_0.c,1659 :: 		RemoteBFlag=0;
	CLRF        _RemoteBFlag+0 
;FirmV_0_7_0.c,1662 :: 		if(State<20)
	MOVLW       20
	SUBWF       _State+0, 0 
	BTFSC       STATUS+0, 0 
	GOTO        L_GetRemoteState399
;FirmV_0_7_0.c,1664 :: 		res.b0=res.b0|Events.Keys.b2;//up key
	BTFSC       GetRemoteState_res_L0+0, 0 
	GOTO        L__GetRemoteState1010
	BTFSC       _Events+0, 2 
	GOTO        L__GetRemoteState1010
	BCF         GetRemoteState_res_L0+0, 0 
	GOTO        L__GetRemoteState1011
L__GetRemoteState1010:
	BSF         GetRemoteState_res_L0+0, 0 
L__GetRemoteState1011:
;FirmV_0_7_0.c,1665 :: 		res.b1=res.b1|Events.Keys.b0;//down key
	BTFSC       GetRemoteState_res_L0+0, 1 
	GOTO        L__GetRemoteState1012
	BTFSC       _Events+0, 0 
	GOTO        L__GetRemoteState1012
	BCF         GetRemoteState_res_L0+0, 1 
	GOTO        L__GetRemoteState1013
L__GetRemoteState1012:
	BSF         GetRemoteState_res_L0+0, 1 
L__GetRemoteState1013:
;FirmV_0_7_0.c,1666 :: 		}
L_GetRemoteState399:
;FirmV_0_7_0.c,1668 :: 		return res;
	MOVF        GetRemoteState_res_L0+0, 0 
	MOVWF       R0 
;FirmV_0_7_0.c,1669 :: 		}
L_end_GetRemoteState:
	RETURN      0
; end of _GetRemoteState

_GetOverloadState:

;FirmV_0_7_0.c,1679 :: 		char GetOverloadState()
;FirmV_0_7_0.c,1681 :: 		char res=0;
	CLRF        GetOverloadState_res_L0+0 
;FirmV_0_7_0.c,1683 :: 		VCapM1=ADC_Read(0);
	CLRF        FARG_ADC_Read_channel+0 
	CALL        _ADC_Read+0, 0
	MOVF        R0, 0 
	MOVWF       _VCapM1+0 
	MOVF        R1, 0 
	MOVWF       _VCapM1+1 
;FirmV_0_7_0.c,1684 :: 		VCapM2=ADC_Read(1);
	MOVLW       1
	MOVWF       FARG_ADC_Read_channel+0 
	CALL        _ADC_Read+0, 0
	MOVF        R0, 0 
	MOVWF       _VCapM2+0 
	MOVF        R1, 0 
	MOVWF       _VCapM2+1 
;FirmV_0_7_0.c,1687 :: 		if(OverloadCheckFlag1==0)
	MOVF        _OverloadCheckFlag1+0, 0 
	XORLW       0
	BTFSS       STATUS+0, 2 
	GOTO        L_GetOverloadState400
;FirmV_0_7_0.c,1688 :: 		OverloadCounter1=0;
	CLRF        _OverloadCounter1+0 
	CLRF        _OverloadCounter1+1 
L_GetOverloadState400:
;FirmV_0_7_0.c,1690 :: 		if(OverloadCheckFlag2==0)
	MOVF        _OverloadCheckFlag2+0, 0 
	XORLW       0
	BTFSS       STATUS+0, 2 
	GOTO        L_GetOverloadState401
;FirmV_0_7_0.c,1691 :: 		OverloadCounter2=0;
	CLRF        _OverloadCounter2+0 
	CLRF        _OverloadCounter2+1 
L_GetOverloadState401:
;FirmV_0_7_0.c,1694 :: 		if(Motor1FullSpeed!=0)
	MOVF        _Motor1FullSpeed+0, 0 
	XORLW       0
	BTFSC       STATUS+0, 2 
	GOTO        L_GetOverloadState402
;FirmV_0_7_0.c,1698 :: 		if(VCapM1<OverloadTreshold1)
	MOVF        _OverloadTreshold1+1, 0 
	SUBWF       _VCapM1+1, 0 
	BTFSS       STATUS+0, 2 
	GOTO        L__GetOverloadState1015
	MOVF        _OverloadTreshold1+0, 0 
	SUBWF       _VCapM1+0, 0 
L__GetOverloadState1015:
	BTFSC       STATUS+0, 0 
	GOTO        L_GetOverloadState403
;FirmV_0_7_0.c,1700 :: 		if(OverloadCounter1<65530)
	MOVLW       255
	SUBWF       _OverloadCounter1+1, 0 
	BTFSS       STATUS+0, 2 
	GOTO        L__GetOverloadState1016
	MOVLW       250
	SUBWF       _OverloadCounter1+0, 0 
L__GetOverloadState1016:
	BTFSC       STATUS+0, 0 
	GOTO        L_GetOverloadState404
;FirmV_0_7_0.c,1701 :: 		OverloadCounter1=OverloadCounter1+1;
	INFSNZ      _OverloadCounter1+0, 1 
	INCF        _OverloadCounter1+1, 1 
L_GetOverloadState404:
;FirmV_0_7_0.c,1702 :: 		}
	GOTO        L_GetOverloadState405
L_GetOverloadState403:
;FirmV_0_7_0.c,1705 :: 		if(OverloadCounter1>0)
	MOVLW       0
	MOVWF       R0 
	MOVF        _OverloadCounter1+1, 0 
	SUBWF       R0, 0 
	BTFSS       STATUS+0, 2 
	GOTO        L__GetOverloadState1017
	MOVF        _OverloadCounter1+0, 0 
	SUBLW       0
L__GetOverloadState1017:
	BTFSC       STATUS+0, 0 
	GOTO        L_GetOverloadState406
;FirmV_0_7_0.c,1706 :: 		OverloadCounter1=OverloadCounter1-1;
	MOVLW       1
	SUBWF       _OverloadCounter1+0, 1 
	MOVLW       0
	SUBWFB      _OverloadCounter1+1, 1 
L_GetOverloadState406:
;FirmV_0_7_0.c,1707 :: 		}
L_GetOverloadState405:
;FirmV_0_7_0.c,1708 :: 		}
	GOTO        L_GetOverloadState407
L_GetOverloadState402:
;FirmV_0_7_0.c,1710 :: 		{OverloadCounter1=0;}
	CLRF        _OverloadCounter1+0 
	CLRF        _OverloadCounter1+1 
L_GetOverloadState407:
;FirmV_0_7_0.c,1712 :: 		if (OverloadCounter1>OverloadDuration1)
	MOVF        _OverloadCounter1+1, 0 
	SUBWF       _OverloadDuration1+1, 0 
	BTFSS       STATUS+0, 2 
	GOTO        L__GetOverloadState1018
	MOVF        _OverloadCounter1+0, 0 
	SUBWF       _OverloadDuration1+0, 0 
L__GetOverloadState1018:
	BTFSC       STATUS+0, 0 
	GOTO        L_GetOverloadState408
;FirmV_0_7_0.c,1713 :: 		res.b0=1;
	BSF         GetOverloadState_res_L0+0, 0 
L_GetOverloadState408:
;FirmV_0_7_0.c,1718 :: 		if(Motor2FullSpeed!=0)
	MOVF        _Motor2FullSpeed+0, 0 
	XORLW       0
	BTFSC       STATUS+0, 2 
	GOTO        L_GetOverloadState409
;FirmV_0_7_0.c,1720 :: 		if(VCapM2<OverloadTreshold2)
	MOVF        _OverloadTreshold2+1, 0 
	SUBWF       _VCapM2+1, 0 
	BTFSS       STATUS+0, 2 
	GOTO        L__GetOverloadState1019
	MOVF        _OverloadTreshold2+0, 0 
	SUBWF       _VCapM2+0, 0 
L__GetOverloadState1019:
	BTFSC       STATUS+0, 0 
	GOTO        L_GetOverloadState410
;FirmV_0_7_0.c,1722 :: 		if(OverloadCounter2<65530)
	MOVLW       255
	SUBWF       _OverloadCounter2+1, 0 
	BTFSS       STATUS+0, 2 
	GOTO        L__GetOverloadState1020
	MOVLW       250
	SUBWF       _OverloadCounter2+0, 0 
L__GetOverloadState1020:
	BTFSC       STATUS+0, 0 
	GOTO        L_GetOverloadState411
;FirmV_0_7_0.c,1723 :: 		OverloadCounter2=OverloadCounter2+1;
	INFSNZ      _OverloadCounter2+0, 1 
	INCF        _OverloadCounter2+1, 1 
L_GetOverloadState411:
;FirmV_0_7_0.c,1724 :: 		}
	GOTO        L_GetOverloadState412
L_GetOverloadState410:
;FirmV_0_7_0.c,1727 :: 		if(OverloadCounter2>0)
	MOVLW       0
	MOVWF       R0 
	MOVF        _OverloadCounter2+1, 0 
	SUBWF       R0, 0 
	BTFSS       STATUS+0, 2 
	GOTO        L__GetOverloadState1021
	MOVF        _OverloadCounter2+0, 0 
	SUBLW       0
L__GetOverloadState1021:
	BTFSC       STATUS+0, 0 
	GOTO        L_GetOverloadState413
;FirmV_0_7_0.c,1728 :: 		OverloadCounter2=OverloadCounter2-1;
	MOVLW       1
	SUBWF       _OverloadCounter2+0, 1 
	MOVLW       0
	SUBWFB      _OverloadCounter2+1, 1 
L_GetOverloadState413:
;FirmV_0_7_0.c,1729 :: 		}
L_GetOverloadState412:
;FirmV_0_7_0.c,1730 :: 		}
	GOTO        L_GetOverloadState414
L_GetOverloadState409:
;FirmV_0_7_0.c,1732 :: 		{OverloadCounter2=0;}
	CLRF        _OverloadCounter2+0 
	CLRF        _OverloadCounter2+1 
L_GetOverloadState414:
;FirmV_0_7_0.c,1735 :: 		if (OverloadCounter2>OverloadDuration2)
	MOVF        _OverloadCounter2+1, 0 
	SUBWF       _OverloadDuration2+1, 0 
	BTFSS       STATUS+0, 2 
	GOTO        L__GetOverloadState1022
	MOVF        _OverloadCounter2+0, 0 
	SUBWF       _OverloadDuration2+0, 0 
L__GetOverloadState1022:
	BTFSC       STATUS+0, 0 
	GOTO        L_GetOverloadState415
;FirmV_0_7_0.c,1736 :: 		res.b1=1;
	BSF         GetOverloadState_res_L0+0, 1 
L_GetOverloadState415:
;FirmV_0_7_0.c,1738 :: 		return res;
	MOVF        GetOverloadState_res_L0+0, 0 
	MOVWF       R0 
;FirmV_0_7_0.c,1739 :: 		}
L_end_GetOverloadState:
	RETURN      0
; end of _GetOverloadState

_GetPhotocellState:

;FirmV_0_7_0.c,1752 :: 		char GetPhotocellState()
;FirmV_0_7_0.c,1754 :: 		if(Phcell2==0)
	BTFSC       PORTD+0, 2 
	GOTO        L_GetPhotocellState416
;FirmV_0_7_0.c,1755 :: 		{if(PhotocellCount<=20)PhotocellCount=PhotocellCount+1;}
	MOVF        _PhotocellCount+0, 0 
	SUBLW       20
	BTFSS       STATUS+0, 0 
	GOTO        L_GetPhotocellState417
	INCF        _PhotocellCount+0, 1 
L_GetPhotocellState417:
	GOTO        L_GetPhotocellState418
L_GetPhotocellState416:
;FirmV_0_7_0.c,1757 :: 		{PhotocellCount=0;}
	CLRF        _PhotocellCount+0 
L_GetPhotocellState418:
;FirmV_0_7_0.c,1758 :: 		if(PhotocellCount>=20)
	MOVLW       20
	SUBWF       _PhotocellCount+0, 0 
	BTFSS       STATUS+0, 0 
	GOTO        L_GetPhotocellState419
;FirmV_0_7_0.c,1759 :: 		return 1;
	MOVLW       1
	MOVWF       R0 
	GOTO        L_end_GetPhotocellState
L_GetPhotocellState419:
;FirmV_0_7_0.c,1761 :: 		return 0;
	CLRF        R0 
;FirmV_0_7_0.c,1762 :: 		}
L_end_GetPhotocellState:
	RETURN      0
; end of _GetPhotocellState

_SetMotorSpeed:

;FirmV_0_7_0.c,1774 :: 		void SetMotorSpeed(char M1FullSpeed,char M2FullSpeed)
;FirmV_0_7_0.c,1776 :: 		if((M1FullSpeed==0)||(M2FullSpeed==0))
	MOVF        FARG_SetMotorSpeed_M1FullSpeed+0, 0 
	XORLW       0
	BTFSC       STATUS+0, 2 
	GOTO        L__SetMotorSpeed906
	MOVF        FARG_SetMotorSpeed_M2FullSpeed+0, 0 
	XORLW       0
	BTFSC       STATUS+0, 2 
	GOTO        L__SetMotorSpeed906
	GOTO        L_SetMotorSpeed423
L__SetMotorSpeed906:
;FirmV_0_7_0.c,1777 :: 		INT0E_bit=1;
	BSF         INT0E_bit+0, BitPos(INT0E_bit+0) 
	GOTO        L_SetMotorSpeed424
L_SetMotorSpeed423:
;FirmV_0_7_0.c,1779 :: 		INT0E_bit=0;
	BCF         INT0E_bit+0, BitPos(INT0E_bit+0) 
L_SetMotorSpeed424:
;FirmV_0_7_0.c,1781 :: 		Motor1FullSpeed=M1FullSpeed;
	MOVF        FARG_SetMotorSpeed_M1FullSpeed+0, 0 
	MOVWF       _Motor1FullSpeed+0 
;FirmV_0_7_0.c,1782 :: 		Motor2FullSpeed=M2FullSpeed;
	MOVF        FARG_SetMotorSpeed_M2FullSpeed+0, 0 
	MOVWF       _Motor2FullSpeed+0 
;FirmV_0_7_0.c,1783 :: 		}
L_end_SetMotorSpeed:
	RETURN      0
; end of _SetMotorSpeed

_OverloadInit:

;FirmV_0_7_0.c,1794 :: 		void OverloadInit(char ch)
;FirmV_0_7_0.c,1796 :: 		if(ch==1)
	MOVF        FARG_OverloadInit_ch+0, 0 
	XORLW       1
	BTFSS       STATUS+0, 2 
	GOTO        L_OverloadInit425
;FirmV_0_7_0.c,1798 :: 		OverloadCounter1=0;
	CLRF        _OverloadCounter1+0 
	CLRF        _OverloadCounter1+1 
;FirmV_0_7_0.c,1799 :: 		Events.Overload.b0=0;
	BCF         _Events+5, 0 
;FirmV_0_7_0.c,1800 :: 		}
L_OverloadInit425:
;FirmV_0_7_0.c,1802 :: 		if(ch==2)
	MOVF        FARG_OverloadInit_ch+0, 0 
	XORLW       2
	BTFSS       STATUS+0, 2 
	GOTO        L_OverloadInit426
;FirmV_0_7_0.c,1804 :: 		OverloadCounter2=0;
	CLRF        _OverloadCounter2+0 
	CLRF        _OverloadCounter2+1 
;FirmV_0_7_0.c,1805 :: 		Events.Overload.b1=0;
	BCF         _Events+5, 1 
;FirmV_0_7_0.c,1806 :: 		}
L_OverloadInit426:
;FirmV_0_7_0.c,1807 :: 		}
L_end_OverloadInit:
	RETURN      0
; end of _OverloadInit

_SaveConfigs:

;FirmV_0_7_0.c,1818 :: 		void SaveConfigs()
;FirmV_0_7_0.c,1821 :: 		EEPROM_Write(1,Door1OpenTime);
	MOVLW       1
	MOVWF       FARG_EEPROM_Write_address+0 
	MOVLW       0
	MOVWF       FARG_EEPROM_Write_address+1 
	MOVF        _Door1OpenTime+0, 0 
	MOVWF       FARG_EEPROM_Write_data_+0 
	CALL        _EEPROM_Write+0, 0
;FirmV_0_7_0.c,1822 :: 		EEPROM_Write(2,Door2OpenTime);
	MOVLW       2
	MOVWF       FARG_EEPROM_Write_address+0 
	MOVLW       0
	MOVWF       FARG_EEPROM_Write_address+1 
	MOVF        _Door2OpenTime+0, 0 
	MOVWF       FARG_EEPROM_Write_data_+0 
	CALL        _EEPROM_Write+0, 0
;FirmV_0_7_0.c,1823 :: 		EEPROM_Write(3,Door1CloseTime);
	MOVLW       3
	MOVWF       FARG_EEPROM_Write_address+0 
	MOVLW       0
	MOVWF       FARG_EEPROM_Write_address+1 
	MOVF        _Door1CloseTime+0, 0 
	MOVWF       FARG_EEPROM_Write_data_+0 
	CALL        _EEPROM_Write+0, 0
;FirmV_0_7_0.c,1824 :: 		EEPROM_Write(4,Door2CloseTime);
	MOVLW       4
	MOVWF       FARG_EEPROM_Write_address+0 
	MOVLW       0
	MOVWF       FARG_EEPROM_Write_address+1 
	MOVF        _Door2CloseTime+0, 0 
	MOVWF       FARG_EEPROM_Write_data_+0 
	CALL        _EEPROM_Write+0, 0
;FirmV_0_7_0.c,1825 :: 		EEPROM_Write(5,ActionTimeDiff);
	MOVLW       5
	MOVWF       FARG_EEPROM_Write_address+0 
	MOVLW       0
	MOVWF       FARG_EEPROM_Write_address+1 
	MOVF        _ActionTimeDiff+0, 0 
	MOVWF       FARG_EEPROM_Write_data_+0 
	CALL        _EEPROM_Write+0, 0
;FirmV_0_7_0.c,1826 :: 		EEPROM_Write(6,OpenSoftStartTime);
	MOVLW       6
	MOVWF       FARG_EEPROM_Write_address+0 
	MOVLW       0
	MOVWF       FARG_EEPROM_Write_address+1 
	MOVF        _OpenSoftStartTime+0, 0 
	MOVWF       FARG_EEPROM_Write_data_+0 
	CALL        _EEPROM_Write+0, 0
;FirmV_0_7_0.c,1827 :: 		EEPROM_Write(7,OpenSoftStopTime);
	MOVLW       7
	MOVWF       FARG_EEPROM_Write_address+0 
	MOVLW       0
	MOVWF       FARG_EEPROM_Write_address+1 
	MOVF        _OpenSoftStopTime+0, 0 
	MOVWF       FARG_EEPROM_Write_data_+0 
	CALL        _EEPROM_Write+0, 0
;FirmV_0_7_0.c,1828 :: 		EEPROM_Write(8,CloseSoftStartTime);
	MOVLW       8
	MOVWF       FARG_EEPROM_Write_address+0 
	MOVLW       0
	MOVWF       FARG_EEPROM_Write_address+1 
	MOVF        _CloseSoftStartTime+0, 0 
	MOVWF       FARG_EEPROM_Write_data_+0 
	CALL        _EEPROM_Write+0, 0
;FirmV_0_7_0.c,1829 :: 		EEPROM_Write(9,CloseSoftStopTime);
	MOVLW       9
	MOVWF       FARG_EEPROM_Write_address+0 
	MOVLW       0
	MOVWF       FARG_EEPROM_Write_address+1 
	MOVF        _CloseSoftStopTime+0, 0 
	MOVWF       FARG_EEPROM_Write_data_+0 
	CALL        _EEPROM_Write+0, 0
;FirmV_0_7_0.c,1830 :: 		EEPROM_Write(10,Hi(AutoCloseTime));
	MOVLW       10
	MOVWF       FARG_EEPROM_Write_address+0 
	MOVLW       0
	MOVWF       FARG_EEPROM_Write_address+1 
	MOVF        _AutoCloseTime+1, 0 
	MOVWF       FARG_EEPROM_Write_data_+0 
	CALL        _EEPROM_Write+0, 0
;FirmV_0_7_0.c,1831 :: 		EEPROM_Write(11,Lo(AutoCloseTime));
	MOVLW       11
	MOVWF       FARG_EEPROM_Write_address+0 
	MOVLW       0
	MOVWF       FARG_EEPROM_Write_address+1 
	MOVF        _AutoCloseTime+0, 0 
	MOVWF       FARG_EEPROM_Write_data_+0 
	CALL        _EEPROM_Write+0, 0
;FirmV_0_7_0.c,1832 :: 		EEPROM_Write(12,OverloadSens1);
	MOVLW       12
	MOVWF       FARG_EEPROM_Write_address+0 
	MOVLW       0
	MOVWF       FARG_EEPROM_Write_address+1 
	MOVF        _OverloadSens1+0, 0 
	MOVWF       FARG_EEPROM_Write_data_+0 
	CALL        _EEPROM_Write+0, 0
;FirmV_0_7_0.c,1833 :: 		EEPROM_Write(13,CloseAfterPass);
	MOVLW       13
	MOVWF       FARG_EEPROM_Write_address+0 
	MOVLW       0
	MOVWF       FARG_EEPROM_Write_address+1 
	MOVF        _CloseAfterPass+0, 0 
	MOVWF       FARG_EEPROM_Write_data_+0 
	CALL        _EEPROM_Write+0, 0
;FirmV_0_7_0.c,1834 :: 		EEPROM_Write(14,LockForce);
	MOVLW       14
	MOVWF       FARG_EEPROM_Write_address+0 
	MOVLW       0
	MOVWF       FARG_EEPROM_Write_address+1 
	MOVF        _LockForce+0, 0 
	MOVWF       FARG_EEPROM_Write_data_+0 
	CALL        _EEPROM_Write+0, 0
;FirmV_0_7_0.c,1835 :: 		EEPROM_Write(15,OpenPhEnable);
	MOVLW       15
	MOVWF       FARG_EEPROM_Write_address+0 
	MOVLW       0
	MOVWF       FARG_EEPROM_Write_address+1 
	MOVF        _OpenPhEnable+0, 0 
	MOVWF       FARG_EEPROM_Write_data_+0 
	CALL        _EEPROM_Write+0, 0
;FirmV_0_7_0.c,1836 :: 		EEPROM_Write(16,LimiterEnable);
	MOVLW       16
	MOVWF       FARG_EEPROM_Write_address+0 
	MOVLW       0
	MOVWF       FARG_EEPROM_Write_address+1 
	MOVF        _LimiterEnable+0, 0 
	MOVWF       FARG_EEPROM_Write_data_+0 
	CALL        _EEPROM_Write+0, 0
;FirmV_0_7_0.c,1837 :: 		EEPROM_Write(17,LockEnable);
	MOVLW       17
	MOVWF       FARG_EEPROM_Write_address+0 
	MOVLW       0
	MOVWF       FARG_EEPROM_Write_address+1 
	MOVF        _LockEnable+0, 0 
	MOVWF       FARG_EEPROM_Write_data_+0 
	CALL        _EEPROM_Write+0, 0
;FirmV_0_7_0.c,1838 :: 		EEPROM_Write(18,OverloadTime1);
	MOVLW       18
	MOVWF       FARG_EEPROM_Write_address+0 
	MOVLW       0
	MOVWF       FARG_EEPROM_Write_address+1 
	MOVF        _OverloadTime1+0, 0 
	MOVWF       FARG_EEPROM_Write_data_+0 
	CALL        _EEPROM_Write+0, 0
;FirmV_0_7_0.c,1839 :: 		EEPROM_Write(19,OverloadSens2);
	MOVLW       19
	MOVWF       FARG_EEPROM_Write_address+0 
	MOVLW       0
	MOVWF       FARG_EEPROM_Write_address+1 
	MOVF        _OverloadSens2+0, 0 
	MOVWF       FARG_EEPROM_Write_data_+0 
	CALL        _EEPROM_Write+0, 0
;FirmV_0_7_0.c,1840 :: 		EEPROM_Write(20,OverloadTime2);
	MOVLW       20
	MOVWF       FARG_EEPROM_Write_address+0 
	MOVLW       0
	MOVWF       FARG_EEPROM_Write_address+1 
	MOVF        _OverloadTime2+0, 0 
	MOVWF       FARG_EEPROM_Write_data_+0 
	CALL        _EEPROM_Write+0, 0
;FirmV_0_7_0.c,1841 :: 		SetOverloadParams(OverloadSens1,OverloadTime1,OverloadSens2,OverloadTime2);
	MOVF        _OverloadSens1+0, 0 
	MOVWF       FARG_SetOverloadParams+0 
	MOVF        _OverloadTime1+0, 0 
	MOVWF       FARG_SetOverloadParams+0 
	MOVF        _OverloadSens2+0, 0 
	MOVWF       FARG_SetOverloadParams+0 
	MOVF        _OverloadTime2+0, 0 
	MOVWF       FARG_SetOverloadParams+0 
	CALL        _SetOverloadParams+0, 0
;FirmV_0_7_0.c,1843 :: 		}
L_end_SaveConfigs:
	RETURN      0
; end of _SaveConfigs

_LoadConfigs:

;FirmV_0_7_0.c,1856 :: 		void LoadConfigs()
;FirmV_0_7_0.c,1858 :: 		Door1OpenTime=EEPROM_Read(1);
	MOVLW       1
	MOVWF       FARG_EEPROM_Read_address+0 
	MOVLW       0
	MOVWF       FARG_EEPROM_Read_address+1 
	CALL        _EEPROM_Read+0, 0
	MOVF        R0, 0 
	MOVWF       _Door1OpenTime+0 
;FirmV_0_7_0.c,1859 :: 		Door2OpenTime=EEPROM_Read(2);
	MOVLW       2
	MOVWF       FARG_EEPROM_Read_address+0 
	MOVLW       0
	MOVWF       FARG_EEPROM_Read_address+1 
	CALL        _EEPROM_Read+0, 0
	MOVF        R0, 0 
	MOVWF       _Door2OpenTime+0 
;FirmV_0_7_0.c,1860 :: 		Door1CloseTime=EEPROM_Read(3);
	MOVLW       3
	MOVWF       FARG_EEPROM_Read_address+0 
	MOVLW       0
	MOVWF       FARG_EEPROM_Read_address+1 
	CALL        _EEPROM_Read+0, 0
	MOVF        R0, 0 
	MOVWF       _Door1CloseTime+0 
;FirmV_0_7_0.c,1861 :: 		Door2CloseTime=EEPROM_Read(4);
	MOVLW       4
	MOVWF       FARG_EEPROM_Read_address+0 
	MOVLW       0
	MOVWF       FARG_EEPROM_Read_address+1 
	CALL        _EEPROM_Read+0, 0
	MOVF        R0, 0 
	MOVWF       _Door2CloseTime+0 
;FirmV_0_7_0.c,1862 :: 		ActionTimeDiff=EEPROM_Read(5);
	MOVLW       5
	MOVWF       FARG_EEPROM_Read_address+0 
	MOVLW       0
	MOVWF       FARG_EEPROM_Read_address+1 
	CALL        _EEPROM_Read+0, 0
	MOVF        R0, 0 
	MOVWF       _ActionTimeDiff+0 
;FirmV_0_7_0.c,1863 :: 		OpenSoftStartTime=EEPROM_Read(6);
	MOVLW       6
	MOVWF       FARG_EEPROM_Read_address+0 
	MOVLW       0
	MOVWF       FARG_EEPROM_Read_address+1 
	CALL        _EEPROM_Read+0, 0
	MOVF        R0, 0 
	MOVWF       _OpenSoftStartTime+0 
;FirmV_0_7_0.c,1864 :: 		OpenSoftStopTime=EEPROM_Read(7);
	MOVLW       7
	MOVWF       FARG_EEPROM_Read_address+0 
	MOVLW       0
	MOVWF       FARG_EEPROM_Read_address+1 
	CALL        _EEPROM_Read+0, 0
	MOVF        R0, 0 
	MOVWF       _OpenSoftStopTime+0 
;FirmV_0_7_0.c,1865 :: 		CloseSoftStartTime=EEPROM_Read(8);
	MOVLW       8
	MOVWF       FARG_EEPROM_Read_address+0 
	MOVLW       0
	MOVWF       FARG_EEPROM_Read_address+1 
	CALL        _EEPROM_Read+0, 0
	MOVF        R0, 0 
	MOVWF       _CloseSoftStartTime+0 
;FirmV_0_7_0.c,1866 :: 		CloseSoftStopTime=EEPROM_Read(9);
	MOVLW       9
	MOVWF       FARG_EEPROM_Read_address+0 
	MOVLW       0
	MOVWF       FARG_EEPROM_Read_address+1 
	CALL        _EEPROM_Read+0, 0
	MOVF        R0, 0 
	MOVWF       _CloseSoftStopTime+0 
;FirmV_0_7_0.c,1867 :: 		AutoCloseTime=EEPROM_Read(10);
	MOVLW       10
	MOVWF       FARG_EEPROM_Read_address+0 
	MOVLW       0
	MOVWF       FARG_EEPROM_Read_address+1 
	CALL        _EEPROM_Read+0, 0
	MOVF        R0, 0 
	MOVWF       _AutoCloseTime+0 
	MOVLW       0
	MOVWF       _AutoCloseTime+1 
;FirmV_0_7_0.c,1868 :: 		AutoCloseTime=AutoCloseTime<<8;
	MOVF        _AutoCloseTime+0, 0 
	MOVWF       _AutoCloseTime+1 
	CLRF        _AutoCloseTime+0 
;FirmV_0_7_0.c,1869 :: 		AutoCloseTime=AutocloseTime|EEPROM_Read(11);
	MOVLW       11
	MOVWF       FARG_EEPROM_Read_address+0 
	MOVLW       0
	MOVWF       FARG_EEPROM_Read_address+1 
	CALL        _EEPROM_Read+0, 0
	MOVF        R0, 0 
	IORWF       _AutoCloseTime+0, 1 
	MOVLW       0
	IORWF       _AutoCloseTime+1, 1 
;FirmV_0_7_0.c,1870 :: 		OverloadSens1=EEPROM_Read(12);
	MOVLW       12
	MOVWF       FARG_EEPROM_Read_address+0 
	MOVLW       0
	MOVWF       FARG_EEPROM_Read_address+1 
	CALL        _EEPROM_Read+0, 0
	MOVF        R0, 0 
	MOVWF       _OverloadSens1+0 
;FirmV_0_7_0.c,1871 :: 		CloseAfterPass=EEPROM_Read(13);
	MOVLW       13
	MOVWF       FARG_EEPROM_Read_address+0 
	MOVLW       0
	MOVWF       FARG_EEPROM_Read_address+1 
	CALL        _EEPROM_Read+0, 0
	MOVF        R0, 0 
	MOVWF       _CloseAfterPass+0 
;FirmV_0_7_0.c,1872 :: 		LockForce=EEPROM_Read(14);
	MOVLW       14
	MOVWF       FARG_EEPROM_Read_address+0 
	MOVLW       0
	MOVWF       FARG_EEPROM_Read_address+1 
	CALL        _EEPROM_Read+0, 0
	MOVF        R0, 0 
	MOVWF       _LockForce+0 
;FirmV_0_7_0.c,1873 :: 		OpenPhEnable=EEPROM_Read(15);
	MOVLW       15
	MOVWF       FARG_EEPROM_Read_address+0 
	MOVLW       0
	MOVWF       FARG_EEPROM_Read_address+1 
	CALL        _EEPROM_Read+0, 0
	MOVF        R0, 0 
	MOVWF       _OpenPhEnable+0 
;FirmV_0_7_0.c,1874 :: 		LimiterEnable=EEPROM_Read(16);
	MOVLW       16
	MOVWF       FARG_EEPROM_Read_address+0 
	MOVLW       0
	MOVWF       FARG_EEPROM_Read_address+1 
	CALL        _EEPROM_Read+0, 0
	MOVF        R0, 0 
	MOVWF       _LimiterEnable+0 
;FirmV_0_7_0.c,1875 :: 		LockEnable=EEPROM_Read(17);
	MOVLW       17
	MOVWF       FARG_EEPROM_Read_address+0 
	MOVLW       0
	MOVWF       FARG_EEPROM_Read_address+1 
	CALL        _EEPROM_Read+0, 0
	MOVF        R0, 0 
	MOVWF       _LockEnable+0 
;FirmV_0_7_0.c,1876 :: 		OverloadTime1=EEPROM_Read(18);
	MOVLW       18
	MOVWF       FARG_EEPROM_Read_address+0 
	MOVLW       0
	MOVWF       FARG_EEPROM_Read_address+1 
	CALL        _EEPROM_Read+0, 0
	MOVF        R0, 0 
	MOVWF       _OverloadTime1+0 
;FirmV_0_7_0.c,1877 :: 		OverloadSens2=EEPROM_Read(19);
	MOVLW       19
	MOVWF       FARG_EEPROM_Read_address+0 
	MOVLW       0
	MOVWF       FARG_EEPROM_Read_address+1 
	CALL        _EEPROM_Read+0, 0
	MOVF        R0, 0 
	MOVWF       _OverloadSens2+0 
;FirmV_0_7_0.c,1878 :: 		OverloadTime2=EEPROM_Read(20);
	MOVLW       20
	MOVWF       FARG_EEPROM_Read_address+0 
	MOVLW       0
	MOVWF       FARG_EEPROM_Read_address+1 
	CALL        _EEPROM_Read+0, 0
	MOVF        R0, 0 
	MOVWF       _OverloadTime2+0 
;FirmV_0_7_0.c,1879 :: 		SetOverloadParams(OverloadSens1,OverloadTime1,OverloadSens2,OverloadTime2);
	MOVF        _OverloadSens1+0, 0 
	MOVWF       FARG_SetOverloadParams+0 
	MOVF        _OverloadTime1+0, 0 
	MOVWF       FARG_SetOverloadParams+0 
	MOVF        _OverloadSens2+0, 0 
	MOVWF       FARG_SetOverloadParams+0 
	MOVF        R0, 0 
	MOVWF       FARG_SetOverloadParams+0 
	CALL        _SetOverloadParams+0, 0
;FirmV_0_7_0.c,1881 :: 		}
L_end_LoadConfigs:
	RETURN      0
; end of _LoadConfigs

_FactorySettings:

;FirmV_0_7_0.c,1894 :: 		void FactorySettings()
;FirmV_0_7_0.c,1896 :: 		Door1OpenTime=20;
	MOVLW       20
	MOVWF       _Door1OpenTime+0 
;FirmV_0_7_0.c,1897 :: 		Door1CloseTime=20;
	MOVLW       20
	MOVWF       _Door1CloseTime+0 
;FirmV_0_7_0.c,1898 :: 		Door2OpenTime=20;
	MOVLW       20
	MOVWF       _Door2OpenTime+0 
;FirmV_0_7_0.c,1899 :: 		Door2CloseTime=20;
	MOVLW       20
	MOVWF       _Door2CloseTime+0 
;FirmV_0_7_0.c,1900 :: 		OverloadSens1=7;
	MOVLW       7
	MOVWF       _OverloadSens1+0 
;FirmV_0_7_0.c,1901 :: 		OverloadTime1=2;
	MOVLW       2
	MOVWF       _OverloadTime1+0 
;FirmV_0_7_0.c,1902 :: 		OverloadSens2=7;
	MOVLW       7
	MOVWF       _OverloadSens2+0 
;FirmV_0_7_0.c,1903 :: 		OverloadTime2=2;
	MOVLW       2
	MOVWF       _OverloadTime2+0 
;FirmV_0_7_0.c,1904 :: 		SetOverloadParams(7,2,7,2);
	MOVLW       7
	MOVWF       FARG_SetOverloadParams+0 
	MOVLW       2
	MOVWF       FARG_SetOverloadParams+0 
	MOVLW       7
	MOVWF       FARG_SetOverloadParams+0 
	MOVLW       2
	MOVWF       FARG_SetOverloadParams+0 
	CALL        _SetOverloadParams+0, 0
;FirmV_0_7_0.c,1905 :: 		OpenSoftStopTime=10;
	MOVLW       10
	MOVWF       _OpenSoftStopTime+0 
;FirmV_0_7_0.c,1906 :: 		OpenSoftStartTime=4;
	MOVLW       4
	MOVWF       _OpenSoftStartTime+0 
;FirmV_0_7_0.c,1907 :: 		CloseSoftStopTime=10;
	MOVLW       10
	MOVWF       _CloseSoftStopTime+0 
;FirmV_0_7_0.c,1908 :: 		CloseSoftStartTime=4;
	MOVLW       4
	MOVWF       _CloseSoftStartTime+0 
;FirmV_0_7_0.c,1909 :: 		ActionTimeDiff=12;
	MOVLW       12
	MOVWF       _ActionTimeDiff+0 
;FirmV_0_7_0.c,1910 :: 		AutoCloseTime=0;
	CLRF        _AutoCloseTime+0 
	CLRF        _AutoCloseTime+1 
;FirmV_0_7_0.c,1911 :: 		LockForce=0;
	CLRF        _LockForce+0 
;FirmV_0_7_0.c,1912 :: 		OpenPhEnable=0;
	CLRF        _OpenPhEnable+0 
;FirmV_0_7_0.c,1913 :: 		LimiterEnable=0;
	CLRF        _LimiterEnable+0 
;FirmV_0_7_0.c,1914 :: 		CloseAfterPass=0;
	CLRF        _CloseAfterPass+0 
;FirmV_0_7_0.c,1915 :: 		LockEnable=1;
	MOVLW       1
	MOVWF       _LockEnable+0 
;FirmV_0_7_0.c,1917 :: 		SaveConfigs();
	CALL        _SaveConfigs+0, 0
;FirmV_0_7_0.c,1918 :: 		}
L_end_FactorySettings:
	RETURN      0
; end of _FactorySettings

_StartMotor:

;FirmV_0_7_0.c,1924 :: 		void StartMotor(char Mx,char Dir)
;FirmV_0_7_0.c,1926 :: 		if(Mx==1)
	MOVF        FARG_StartMotor_Mx+0, 0 
	XORLW       1
	BTFSS       STATUS+0, 2 
	GOTO        L_StartMotor427
;FirmV_0_7_0.c,1928 :: 		Motor1Dir=Dir;
	BTFSC       FARG_StartMotor_Dir+0, 0 
	GOTO        L__StartMotor1030
	BCF         PORTC+0, 1 
	GOTO        L__StartMotor1031
L__StartMotor1030:
	BSF         PORTC+0, 1 
L__StartMotor1031:
;FirmV_0_7_0.c,1929 :: 		delay_ms(100);
	MOVLW       6
	MOVWF       R11, 0
	MOVLW       19
	MOVWF       R12, 0
	MOVLW       173
	MOVWF       R13, 0
L_StartMotor428:
	DECFSZ      R13, 1, 1
	BRA         L_StartMotor428
	DECFSZ      R12, 1, 1
	BRA         L_StartMotor428
	DECFSZ      R11, 1, 1
	BRA         L_StartMotor428
	NOP
	NOP
;FirmV_0_7_0.c,1930 :: 		Motor1Start=1;
	MOVLW       1
	MOVWF       _Motor1Start+0 
;FirmV_0_7_0.c,1931 :: 		Motor1=1;
	BSF         PORTB+0, 3 
;FirmV_0_7_0.c,1932 :: 		}
L_StartMotor427:
;FirmV_0_7_0.c,1934 :: 		if(Mx==2)
	MOVF        FARG_StartMotor_Mx+0, 0 
	XORLW       2
	BTFSS       STATUS+0, 2 
	GOTO        L_StartMotor429
;FirmV_0_7_0.c,1936 :: 		Motor2Dir=Dir;
	BTFSC       FARG_StartMotor_Dir+0, 0 
	GOTO        L__StartMotor1032
	BCF         PORTC+0, 0 
	GOTO        L__StartMotor1033
L__StartMotor1032:
	BSF         PORTC+0, 0 
L__StartMotor1033:
;FirmV_0_7_0.c,1937 :: 		delay_ms(100);
	MOVLW       6
	MOVWF       R11, 0
	MOVLW       19
	MOVWF       R12, 0
	MOVLW       173
	MOVWF       R13, 0
L_StartMotor430:
	DECFSZ      R13, 1, 1
	BRA         L_StartMotor430
	DECFSZ      R12, 1, 1
	BRA         L_StartMotor430
	DECFSZ      R11, 1, 1
	BRA         L_StartMotor430
	NOP
	NOP
;FirmV_0_7_0.c,1938 :: 		Motor2Start=1;
	MOVLW       1
	MOVWF       _Motor2Start+0 
;FirmV_0_7_0.c,1939 :: 		Motor2=1;
	BSF         PORTB+0, 4 
;FirmV_0_7_0.c,1940 :: 		}
L_StartMotor429:
;FirmV_0_7_0.c,1941 :: 		}
L_end_StartMotor:
	RETURN      0
; end of _StartMotor

_StopMotor:

;FirmV_0_7_0.c,1944 :: 		void StopMotor(char Mx)
;FirmV_0_7_0.c,1946 :: 		if(Mx==1)
	MOVF        FARG_StopMotor_Mx+0, 0 
	XORLW       1
	BTFSS       STATUS+0, 2 
	GOTO        L_StopMotor431
;FirmV_0_7_0.c,1948 :: 		Motor1Start=0;
	CLRF        _Motor1Start+0 
;FirmV_0_7_0.c,1949 :: 		Motor1=0;
	BCF         PORTB+0, 3 
;FirmV_0_7_0.c,1950 :: 		}
L_StopMotor431:
;FirmV_0_7_0.c,1952 :: 		if(Mx==2)
	MOVF        FARG_StopMotor_Mx+0, 0 
	XORLW       2
	BTFSS       STATUS+0, 2 
	GOTO        L_StopMotor432
;FirmV_0_7_0.c,1954 :: 		Motor2Start=0;
	CLRF        _Motor2Start+0 
;FirmV_0_7_0.c,1955 :: 		Motor2=0;
	BCF         PORTB+0, 4 
;FirmV_0_7_0.c,1956 :: 		}
L_StopMotor432:
;FirmV_0_7_0.c,1957 :: 		}
L_end_StopMotor:
	RETURN      0
; end of _StopMotor

_CheckTask:

;FirmV_0_7_0.c,1969 :: 		char CheckTask(char TaskCode)
;FirmV_0_7_0.c,1971 :: 		if(Events.Task1==TaskCode)
	MOVF        _Events+1, 0 
	XORWF       FARG_CheckTask_TaskCode+0, 0 
	BTFSS       STATUS+0, 2 
	GOTO        L_CheckTask433
;FirmV_0_7_0.c,1972 :: 		{Events.Task1=0; return 1;}
	CLRF        _Events+1 
	MOVLW       1
	MOVWF       R0 
	GOTO        L_end_CheckTask
L_CheckTask433:
;FirmV_0_7_0.c,1974 :: 		if(Events.Task2==TaskCode)
	MOVF        _Events+2, 0 
	XORWF       FARG_CheckTask_TaskCode+0, 0 
	BTFSS       STATUS+0, 2 
	GOTO        L_CheckTask434
;FirmV_0_7_0.c,1975 :: 		{Events.Task2=0; return 1;}
	CLRF        _Events+2 
	MOVLW       1
	MOVWF       R0 
	GOTO        L_end_CheckTask
L_CheckTask434:
;FirmV_0_7_0.c,1977 :: 		if(Events.Task3==TaskCode)
	MOVF        _Events+3, 0 
	XORWF       FARG_CheckTask_TaskCode+0, 0 
	BTFSS       STATUS+0, 2 
	GOTO        L_CheckTask435
;FirmV_0_7_0.c,1978 :: 		{Events.Task3=0; return 1;}
	CLRF        _Events+3 
	MOVLW       1
	MOVWF       R0 
	GOTO        L_end_CheckTask
L_CheckTask435:
;FirmV_0_7_0.c,1980 :: 		return 0;
	CLRF        R0 
;FirmV_0_7_0.c,1982 :: 		}
L_end_CheckTask:
	RETURN      0
; end of _CheckTask

_ReturnAutoclose:

;FirmV_0_7_0.c,1990 :: 		char ReturnAutoclose()
;FirmV_0_7_0.c,1994 :: 		for(i=0;i<20;i++)
	CLRF        ReturnAutoclose_i_L0+0 
L_ReturnAutoclose436:
	MOVLW       20
	SUBWF       ReturnAutoclose_i_L0+0, 0 
	BTFSC       STATUS+0, 0 
	GOTO        L_ReturnAutoclose437
;FirmV_0_7_0.c,1996 :: 		if((Tasks[i].Expired==0)&&(Tasks[i].TaskCode==9))
	MOVLW       7
	MOVWF       R0 
	MOVLW       0
	MOVWF       R1 
	MOVF        ReturnAutoclose_i_L0+0, 0 
	MOVWF       R4 
	MOVLW       0
	MOVWF       R5 
	CALL        _Mul_16X16_U+0, 0
	MOVLW       _Tasks+0
	ADDWF       R0, 1 
	MOVLW       hi_addr(_Tasks+0)
	ADDWFC      R1, 1 
	MOVLW       5
	ADDWF       R0, 0 
	MOVWF       FSR0 
	MOVLW       0
	ADDWFC      R1, 0 
	MOVWF       FSR0H 
	MOVF        POSTINC0+0, 0 
	XORLW       0
	BTFSS       STATUS+0, 2 
	GOTO        L_ReturnAutoclose441
	MOVLW       7
	MOVWF       R0 
	MOVLW       0
	MOVWF       R1 
	MOVF        ReturnAutoclose_i_L0+0, 0 
	MOVWF       R4 
	MOVLW       0
	MOVWF       R5 
	CALL        _Mul_16X16_U+0, 0
	MOVLW       _Tasks+0
	ADDWF       R0, 0 
	MOVWF       FSR0 
	MOVLW       hi_addr(_Tasks+0)
	ADDWFC      R1, 0 
	MOVWF       FSR0H 
	MOVF        POSTINC0+0, 0 
	MOVWF       R1 
	MOVF        R1, 0 
	XORLW       9
	BTFSS       STATUS+0, 2 
	GOTO        L_ReturnAutoclose441
L__ReturnAutoclose907:
;FirmV_0_7_0.c,1997 :: 		{t=Tasks[i].Time;break;}
	MOVLW       7
	MOVWF       R0 
	MOVLW       0
	MOVWF       R1 
	MOVF        ReturnAutoclose_i_L0+0, 0 
	MOVWF       R4 
	MOVLW       0
	MOVWF       R5 
	CALL        _Mul_16X16_U+0, 0
	MOVLW       _Tasks+0
	ADDWF       R0, 1 
	MOVLW       hi_addr(_Tasks+0)
	ADDWFC      R1, 1 
	MOVLW       1
	ADDWF       R0, 0 
	MOVWF       FSR0 
	MOVLW       0
	ADDWFC      R1, 0 
	MOVWF       FSR0H 
	MOVF        POSTINC0+0, 0 
	MOVWF       ReturnAutoclose_t_L0+0 
	MOVF        POSTINC0+0, 0 
	MOVWF       ReturnAutoclose_t_L0+1 
	MOVF        POSTINC0+0, 0 
	MOVWF       ReturnAutoclose_t_L0+2 
	MOVF        POSTINC0+0, 0 
	MOVWF       ReturnAutoclose_t_L0+3 
	GOTO        L_ReturnAutoclose437
L_ReturnAutoclose441:
;FirmV_0_7_0.c,1994 :: 		for(i=0;i<20;i++)
	INCF        ReturnAutoclose_i_L0+0, 1 
;FirmV_0_7_0.c,1998 :: 		}
	GOTO        L_ReturnAutoclose436
L_ReturnAutoclose437:
;FirmV_0_7_0.c,2000 :: 		if(i>=20) i=0;
	MOVLW       20
	SUBWF       ReturnAutoclose_i_L0+0, 0 
	BTFSS       STATUS+0, 0 
	GOTO        L_ReturnAutoclose442
	CLRF        ReturnAutoclose_i_L0+0 
	GOTO        L_ReturnAutoclose443
L_ReturnAutoclose442:
;FirmV_0_7_0.c,2001 :: 		else i=t-ms500;
	MOVF        _ms500+0, 0 
	SUBWF       ReturnAutoclose_t_L0+0, 0 
	MOVWF       ReturnAutoclose_i_L0+0 
L_ReturnAutoclose443:
;FirmV_0_7_0.c,2002 :: 		return i;
	MOVF        ReturnAutoclose_i_L0+0, 0 
	MOVWF       R0 
;FirmV_0_7_0.c,2003 :: 		}
L_end_ReturnAutoclose:
	RETURN      0
; end of _ReturnAutoclose

_GetAutocloseTime:

;FirmV_0_7_0.c,2013 :: 		char GetAutocloseTime()
;FirmV_0_7_0.c,2017 :: 		for(i=0;i<20;i++)
	CLRF        GetAutocloseTime_i_L0+0 
L_GetAutocloseTime444:
	MOVLW       20
	SUBWF       GetAutocloseTime_i_L0+0, 0 
	BTFSC       STATUS+0, 0 
	GOTO        L_GetAutocloseTime445
;FirmV_0_7_0.c,2019 :: 		if((Tasks[i].Expired==0)&&(Tasks[i].TaskCode==9))
	MOVLW       7
	MOVWF       R0 
	MOVLW       0
	MOVWF       R1 
	MOVF        GetAutocloseTime_i_L0+0, 0 
	MOVWF       R4 
	MOVLW       0
	MOVWF       R5 
	CALL        _Mul_16X16_U+0, 0
	MOVLW       _Tasks+0
	ADDWF       R0, 1 
	MOVLW       hi_addr(_Tasks+0)
	ADDWFC      R1, 1 
	MOVLW       5
	ADDWF       R0, 0 
	MOVWF       FSR0 
	MOVLW       0
	ADDWFC      R1, 0 
	MOVWF       FSR0H 
	MOVF        POSTINC0+0, 0 
	XORLW       0
	BTFSS       STATUS+0, 2 
	GOTO        L_GetAutocloseTime449
	MOVLW       7
	MOVWF       R0 
	MOVLW       0
	MOVWF       R1 
	MOVF        GetAutocloseTime_i_L0+0, 0 
	MOVWF       R4 
	MOVLW       0
	MOVWF       R5 
	CALL        _Mul_16X16_U+0, 0
	MOVLW       _Tasks+0
	ADDWF       R0, 0 
	MOVWF       FSR0 
	MOVLW       hi_addr(_Tasks+0)
	ADDWFC      R1, 0 
	MOVWF       FSR0H 
	MOVF        POSTINC0+0, 0 
	MOVWF       R1 
	MOVF        R1, 0 
	XORLW       9
	BTFSS       STATUS+0, 2 
	GOTO        L_GetAutocloseTime449
L__GetAutocloseTime908:
;FirmV_0_7_0.c,2020 :: 		{t=Tasks[i].Time;Tasks[i].Expired=1;break;}
	MOVLW       7
	MOVWF       R0 
	MOVLW       0
	MOVWF       R1 
	MOVF        GetAutocloseTime_i_L0+0, 0 
	MOVWF       R4 
	MOVLW       0
	MOVWF       R5 
	CALL        _Mul_16X16_U+0, 0
	MOVLW       _Tasks+0
	ADDWF       R0, 1 
	MOVLW       hi_addr(_Tasks+0)
	ADDWFC      R1, 1 
	MOVLW       1
	ADDWF       R0, 0 
	MOVWF       FSR0 
	MOVLW       0
	ADDWFC      R1, 0 
	MOVWF       FSR0H 
	MOVF        POSTINC0+0, 0 
	MOVWF       GetAutocloseTime_t_L0+0 
	MOVF        POSTINC0+0, 0 
	MOVWF       GetAutocloseTime_t_L0+1 
	MOVF        POSTINC0+0, 0 
	MOVWF       GetAutocloseTime_t_L0+2 
	MOVF        POSTINC0+0, 0 
	MOVWF       GetAutocloseTime_t_L0+3 
	MOVLW       5
	ADDWF       R0, 0 
	MOVWF       FSR1 
	MOVLW       0
	ADDWFC      R1, 0 
	MOVWF       FSR1H 
	MOVLW       1
	MOVWF       POSTINC1+0 
	GOTO        L_GetAutocloseTime445
L_GetAutocloseTime449:
;FirmV_0_7_0.c,2017 :: 		for(i=0;i<20;i++)
	INCF        GetAutocloseTime_i_L0+0, 1 
;FirmV_0_7_0.c,2021 :: 		}
	GOTO        L_GetAutocloseTime444
L_GetAutocloseTime445:
;FirmV_0_7_0.c,2022 :: 		i=t-ms500;
	MOVF        _ms500+0, 0 
	SUBWF       GetAutocloseTime_t_L0+0, 0 
	MOVWF       R1 
	MOVF        R1, 0 
	MOVWF       GetAutocloseTime_i_L0+0 
;FirmV_0_7_0.c,2023 :: 		if(i>=20) i=0;
	MOVLW       20
	SUBWF       R1, 0 
	BTFSS       STATUS+0, 0 
	GOTO        L_GetAutocloseTime450
	CLRF        GetAutocloseTime_i_L0+0 
L_GetAutocloseTime450:
;FirmV_0_7_0.c,2024 :: 		return i;
	MOVF        GetAutocloseTime_i_L0+0, 0 
	MOVWF       R0 
;FirmV_0_7_0.c,2025 :: 		}
L_end_GetAutocloseTime:
	RETURN      0
; end of _GetAutocloseTime

_ClearTasks:

;FirmV_0_7_0.c,2042 :: 		void ClearTasks(char except)
;FirmV_0_7_0.c,2045 :: 		for(i=0;i<20;i++)
	CLRF        ClearTasks_i_L0+0 
L_ClearTasks451:
	MOVLW       20
	SUBWF       ClearTasks_i_L0+0, 0 
	BTFSC       STATUS+0, 0 
	GOTO        L_ClearTasks452
;FirmV_0_7_0.c,2046 :: 		if((Tasks[i].Expired==0)&&(Tasks[i].TaskCode!=except))
	MOVLW       7
	MOVWF       R0 
	MOVLW       0
	MOVWF       R1 
	MOVF        ClearTasks_i_L0+0, 0 
	MOVWF       R4 
	MOVLW       0
	MOVWF       R5 
	CALL        _Mul_16X16_U+0, 0
	MOVLW       _Tasks+0
	ADDWF       R0, 1 
	MOVLW       hi_addr(_Tasks+0)
	ADDWFC      R1, 1 
	MOVLW       5
	ADDWF       R0, 0 
	MOVWF       FSR0 
	MOVLW       0
	ADDWFC      R1, 0 
	MOVWF       FSR0H 
	MOVF        POSTINC0+0, 0 
	XORLW       0
	BTFSS       STATUS+0, 2 
	GOTO        L_ClearTasks456
	MOVLW       7
	MOVWF       R0 
	MOVLW       0
	MOVWF       R1 
	MOVF        ClearTasks_i_L0+0, 0 
	MOVWF       R4 
	MOVLW       0
	MOVWF       R5 
	CALL        _Mul_16X16_U+0, 0
	MOVLW       _Tasks+0
	ADDWF       R0, 0 
	MOVWF       FSR0 
	MOVLW       hi_addr(_Tasks+0)
	ADDWFC      R1, 0 
	MOVWF       FSR0H 
	MOVF        POSTINC0+0, 0 
	MOVWF       R1 
	MOVF        R1, 0 
	XORWF       FARG_ClearTasks_except+0, 0 
	BTFSC       STATUS+0, 2 
	GOTO        L_ClearTasks456
L__ClearTasks909:
;FirmV_0_7_0.c,2047 :: 		Tasks[i].Expired=1;
	MOVLW       7
	MOVWF       R0 
	MOVLW       0
	MOVWF       R1 
	MOVF        ClearTasks_i_L0+0, 0 
	MOVWF       R4 
	MOVLW       0
	MOVWF       R5 
	CALL        _Mul_16X16_U+0, 0
	MOVLW       _Tasks+0
	ADDWF       R0, 1 
	MOVLW       hi_addr(_Tasks+0)
	ADDWFC      R1, 1 
	MOVLW       5
	ADDWF       R0, 0 
	MOVWF       FSR1 
	MOVLW       0
	ADDWFC      R1, 0 
	MOVWF       FSR1H 
	MOVLW       1
	MOVWF       POSTINC1+0 
L_ClearTasks456:
;FirmV_0_7_0.c,2045 :: 		for(i=0;i<20;i++)
	INCF        ClearTasks_i_L0+0, 1 
;FirmV_0_7_0.c,2047 :: 		Tasks[i].Expired=1;
	GOTO        L_ClearTasks451
L_ClearTasks452:
;FirmV_0_7_0.c,2048 :: 		}
L_end_ClearTasks:
	RETURN      0
; end of _ClearTasks

_Menu0:

;FirmV_0_7_0.c,2063 :: 		void Menu0()
;FirmV_0_7_0.c,2065 :: 		LCDLines=2;
	MOVLW       2
	MOVWF       _LCDLines+0 
;FirmV_0_7_0.c,2066 :: 		memcpy(LCDLine2,"                ",16);
	MOVLW       _LCDLine2+0
	MOVWF       FARG_memcpy_d1+0 
	MOVLW       hi_addr(_LCDLine2+0)
	MOVWF       FARG_memcpy_d1+1 
	MOVLW       ?lstr70_FirmV_0_7_0+0
	MOVWF       FARG_memcpy_s1+0 
	MOVLW       hi_addr(?lstr70_FirmV_0_7_0+0)
	MOVWF       FARG_memcpy_s1+1 
	MOVLW       16
	MOVWF       FARG_memcpy_n+0 
	MOVLW       0
	MOVWF       FARG_memcpy_n+1 
	CALL        _memcpy+0, 0
;FirmV_0_7_0.c,2068 :: 		if(MenuPointer==0)
	MOVF        _MenuPointer+0, 0 
	XORLW       0
	BTFSS       STATUS+0, 2 
	GOTO        L_Menu0457
;FirmV_0_7_0.c,2069 :: 		{memcpy(LCDLine1,"00 Learning Mode",16);LCDUpdateFlag=1;
	MOVLW       _LCDLine1+0
	MOVWF       FARG_memcpy_d1+0 
	MOVLW       hi_addr(_LCDLine1+0)
	MOVWF       FARG_memcpy_d1+1 
	MOVLW       ?lstr71_FirmV_0_7_0+0
	MOVWF       FARG_memcpy_s1+0 
	MOVLW       hi_addr(?lstr71_FirmV_0_7_0+0)
	MOVWF       FARG_memcpy_s1+1 
	MOVLW       16
	MOVWF       FARG_memcpy_n+0 
	MOVLW       0
	MOVWF       FARG_memcpy_n+1 
	CALL        _memcpy+0, 0
	MOVLW       1
	MOVWF       _LCDUpdateFlag+0 
;FirmV_0_7_0.c,2070 :: 		if(LearningMode==0)memcpy(LCDLine2,"      Auto      ",16);
	MOVF        _LearningMode+0, 0 
	XORLW       0
	BTFSS       STATUS+0, 2 
	GOTO        L_Menu0458
	MOVLW       _LCDLine2+0
	MOVWF       FARG_memcpy_d1+0 
	MOVLW       hi_addr(_LCDLine2+0)
	MOVWF       FARG_memcpy_d1+1 
	MOVLW       ?lstr72_FirmV_0_7_0+0
	MOVWF       FARG_memcpy_s1+0 
	MOVLW       hi_addr(?lstr72_FirmV_0_7_0+0)
	MOVWF       FARG_memcpy_s1+1 
	MOVLW       16
	MOVWF       FARG_memcpy_n+0 
	MOVLW       0
	MOVWF       FARG_memcpy_n+1 
	CALL        _memcpy+0, 0
L_Menu0458:
;FirmV_0_7_0.c,2071 :: 		if(LearningMode==1)memcpy(LCDLine2,"     Manual     ",16);}
	MOVF        _LearningMode+0, 0 
	XORLW       1
	BTFSS       STATUS+0, 2 
	GOTO        L_Menu0459
	MOVLW       _LCDLine2+0
	MOVWF       FARG_memcpy_d1+0 
	MOVLW       hi_addr(_LCDLine2+0)
	MOVWF       FARG_memcpy_d1+1 
	MOVLW       ?lstr73_FirmV_0_7_0+0
	MOVWF       FARG_memcpy_s1+0 
	MOVLW       hi_addr(?lstr73_FirmV_0_7_0+0)
	MOVWF       FARG_memcpy_s1+1 
	MOVLW       16
	MOVWF       FARG_memcpy_n+0 
	MOVLW       0
	MOVWF       FARG_memcpy_n+1 
	CALL        _memcpy+0, 0
L_Menu0459:
L_Menu0457:
;FirmV_0_7_0.c,2073 :: 		if(MenuPointer==1)
	MOVF        _MenuPointer+0, 0 
	XORLW       1
	BTFSS       STATUS+0, 2 
	GOTO        L_Menu0460
;FirmV_0_7_0.c,2074 :: 		{memcpy(LCDLine1,"01 D1 Open Time ",16);LCDUpdateFlag=1;
	MOVLW       _LCDLine1+0
	MOVWF       FARG_memcpy_d1+0 
	MOVLW       hi_addr(_LCDLine1+0)
	MOVWF       FARG_memcpy_d1+1 
	MOVLW       ?lstr74_FirmV_0_7_0+0
	MOVWF       FARG_memcpy_s1+0 
	MOVLW       hi_addr(?lstr74_FirmV_0_7_0+0)
	MOVWF       FARG_memcpy_s1+1 
	MOVLW       16
	MOVWF       FARG_memcpy_n+0 
	MOVLW       0
	MOVWF       FARG_memcpy_n+1 
	CALL        _memcpy+0, 0
	MOVLW       1
	MOVWF       _LCDUpdateFlag+0 
;FirmV_0_7_0.c,2075 :: 		charValueToStr(Door1OpenTime,LCDLine2+6);}
	MOVF        _Door1OpenTime+0, 0 
	MOVWF       FARG_charValueToStr+0 
	MOVLW       _LCDLine2+6
	MOVWF       FARG_charValueToStr+0 
	MOVLW       hi_addr(_LCDLine2+6)
	MOVWF       FARG_charValueToStr+1 
	CALL        _charValueToStr+0, 0
L_Menu0460:
;FirmV_0_7_0.c,2077 :: 		if(MenuPointer==2)
	MOVF        _MenuPointer+0, 0 
	XORLW       2
	BTFSS       STATUS+0, 2 
	GOTO        L_Menu0461
;FirmV_0_7_0.c,2078 :: 		{memcpy(LCDLine1,"02 D2 Open Time ",16);LCDUpdateFlag=1;
	MOVLW       _LCDLine1+0
	MOVWF       FARG_memcpy_d1+0 
	MOVLW       hi_addr(_LCDLine1+0)
	MOVWF       FARG_memcpy_d1+1 
	MOVLW       ?lstr75_FirmV_0_7_0+0
	MOVWF       FARG_memcpy_s1+0 
	MOVLW       hi_addr(?lstr75_FirmV_0_7_0+0)
	MOVWF       FARG_memcpy_s1+1 
	MOVLW       16
	MOVWF       FARG_memcpy_n+0 
	MOVLW       0
	MOVWF       FARG_memcpy_n+1 
	CALL        _memcpy+0, 0
	MOVLW       1
	MOVWF       _LCDUpdateFlag+0 
;FirmV_0_7_0.c,2079 :: 		charValueToStr(Door2OpenTime,LCDLine2+6);}
	MOVF        _Door2OpenTime+0, 0 
	MOVWF       FARG_charValueToStr+0 
	MOVLW       _LCDLine2+6
	MOVWF       FARG_charValueToStr+0 
	MOVLW       hi_addr(_LCDLine2+6)
	MOVWF       FARG_charValueToStr+1 
	CALL        _charValueToStr+0, 0
L_Menu0461:
;FirmV_0_7_0.c,2081 :: 		if(MenuPointer==3)
	MOVF        _MenuPointer+0, 0 
	XORLW       3
	BTFSS       STATUS+0, 2 
	GOTO        L_Menu0462
;FirmV_0_7_0.c,2082 :: 		{memcpy(LCDLine1,"03 D1 Close Time",16);LCDUpdateFlag=1;
	MOVLW       _LCDLine1+0
	MOVWF       FARG_memcpy_d1+0 
	MOVLW       hi_addr(_LCDLine1+0)
	MOVWF       FARG_memcpy_d1+1 
	MOVLW       ?lstr76_FirmV_0_7_0+0
	MOVWF       FARG_memcpy_s1+0 
	MOVLW       hi_addr(?lstr76_FirmV_0_7_0+0)
	MOVWF       FARG_memcpy_s1+1 
	MOVLW       16
	MOVWF       FARG_memcpy_n+0 
	MOVLW       0
	MOVWF       FARG_memcpy_n+1 
	CALL        _memcpy+0, 0
	MOVLW       1
	MOVWF       _LCDUpdateFlag+0 
;FirmV_0_7_0.c,2083 :: 		charValueToStr(Door1CloseTime,LCDLine2+6);}
	MOVF        _Door1CloseTime+0, 0 
	MOVWF       FARG_charValueToStr+0 
	MOVLW       _LCDLine2+6
	MOVWF       FARG_charValueToStr+0 
	MOVLW       hi_addr(_LCDLine2+6)
	MOVWF       FARG_charValueToStr+1 
	CALL        _charValueToStr+0, 0
L_Menu0462:
;FirmV_0_7_0.c,2085 :: 		if(MenuPointer==4)
	MOVF        _MenuPointer+0, 0 
	XORLW       4
	BTFSS       STATUS+0, 2 
	GOTO        L_Menu0463
;FirmV_0_7_0.c,2086 :: 		{memcpy(LCDLine1,"04 D2 Close Time",16);LCDUpdateFlag=1;
	MOVLW       _LCDLine1+0
	MOVWF       FARG_memcpy_d1+0 
	MOVLW       hi_addr(_LCDLine1+0)
	MOVWF       FARG_memcpy_d1+1 
	MOVLW       ?lstr77_FirmV_0_7_0+0
	MOVWF       FARG_memcpy_s1+0 
	MOVLW       hi_addr(?lstr77_FirmV_0_7_0+0)
	MOVWF       FARG_memcpy_s1+1 
	MOVLW       16
	MOVWF       FARG_memcpy_n+0 
	MOVLW       0
	MOVWF       FARG_memcpy_n+1 
	CALL        _memcpy+0, 0
	MOVLW       1
	MOVWF       _LCDUpdateFlag+0 
;FirmV_0_7_0.c,2087 :: 		charValueToStr(Door2CloseTime,LCDLine2+6);}
	MOVF        _Door2CloseTime+0, 0 
	MOVWF       FARG_charValueToStr+0 
	MOVLW       _LCDLine2+6
	MOVWF       FARG_charValueToStr+0 
	MOVLW       hi_addr(_LCDLine2+6)
	MOVWF       FARG_charValueToStr+1 
	CALL        _charValueToStr+0, 0
L_Menu0463:
;FirmV_0_7_0.c,2089 :: 		if(MenuPointer==5)
	MOVF        _MenuPointer+0, 0 
	XORLW       5
	BTFSS       STATUS+0, 2 
	GOTO        L_Menu0464
;FirmV_0_7_0.c,2090 :: 		{memcpy(LCDLine1,"05 Op Soft Start",16);LCDUpdateFlag=1;
	MOVLW       _LCDLine1+0
	MOVWF       FARG_memcpy_d1+0 
	MOVLW       hi_addr(_LCDLine1+0)
	MOVWF       FARG_memcpy_d1+1 
	MOVLW       ?lstr78_FirmV_0_7_0+0
	MOVWF       FARG_memcpy_s1+0 
	MOVLW       hi_addr(?lstr78_FirmV_0_7_0+0)
	MOVWF       FARG_memcpy_s1+1 
	MOVLW       16
	MOVWF       FARG_memcpy_n+0 
	MOVLW       0
	MOVWF       FARG_memcpy_n+1 
	CALL        _memcpy+0, 0
	MOVLW       1
	MOVWF       _LCDUpdateFlag+0 
;FirmV_0_7_0.c,2091 :: 		charValueToStr(OpenSoftStartTime,LCDLine2+6);}
	MOVF        _OpenSoftStartTime+0, 0 
	MOVWF       FARG_charValueToStr+0 
	MOVLW       _LCDLine2+6
	MOVWF       FARG_charValueToStr+0 
	MOVLW       hi_addr(_LCDLine2+6)
	MOVWF       FARG_charValueToStr+1 
	CALL        _charValueToStr+0, 0
L_Menu0464:
;FirmV_0_7_0.c,2093 :: 		if(MenuPointer==6)
	MOVF        _MenuPointer+0, 0 
	XORLW       6
	BTFSS       STATUS+0, 2 
	GOTO        L_Menu0465
;FirmV_0_7_0.c,2094 :: 		{memcpy(LCDLine1,"06 Op Soft Stop ",16);LCDUpdateFlag=1;
	MOVLW       _LCDLine1+0
	MOVWF       FARG_memcpy_d1+0 
	MOVLW       hi_addr(_LCDLine1+0)
	MOVWF       FARG_memcpy_d1+1 
	MOVLW       ?lstr79_FirmV_0_7_0+0
	MOVWF       FARG_memcpy_s1+0 
	MOVLW       hi_addr(?lstr79_FirmV_0_7_0+0)
	MOVWF       FARG_memcpy_s1+1 
	MOVLW       16
	MOVWF       FARG_memcpy_n+0 
	MOVLW       0
	MOVWF       FARG_memcpy_n+1 
	CALL        _memcpy+0, 0
	MOVLW       1
	MOVWF       _LCDUpdateFlag+0 
;FirmV_0_7_0.c,2095 :: 		charValueToStr(OpenSoftStopTime,LCDLine2+6);}
	MOVF        _OpenSoftStopTime+0, 0 
	MOVWF       FARG_charValueToStr+0 
	MOVLW       _LCDLine2+6
	MOVWF       FARG_charValueToStr+0 
	MOVLW       hi_addr(_LCDLine2+6)
	MOVWF       FARG_charValueToStr+1 
	CALL        _charValueToStr+0, 0
L_Menu0465:
;FirmV_0_7_0.c,2097 :: 		if(MenuPointer==7)
	MOVF        _MenuPointer+0, 0 
	XORLW       7
	BTFSS       STATUS+0, 2 
	GOTO        L_Menu0466
;FirmV_0_7_0.c,2098 :: 		{memcpy(LCDLine1,"07 Cl Soft Start",16);LCDUpdateFlag=1;
	MOVLW       _LCDLine1+0
	MOVWF       FARG_memcpy_d1+0 
	MOVLW       hi_addr(_LCDLine1+0)
	MOVWF       FARG_memcpy_d1+1 
	MOVLW       ?lstr80_FirmV_0_7_0+0
	MOVWF       FARG_memcpy_s1+0 
	MOVLW       hi_addr(?lstr80_FirmV_0_7_0+0)
	MOVWF       FARG_memcpy_s1+1 
	MOVLW       16
	MOVWF       FARG_memcpy_n+0 
	MOVLW       0
	MOVWF       FARG_memcpy_n+1 
	CALL        _memcpy+0, 0
	MOVLW       1
	MOVWF       _LCDUpdateFlag+0 
;FirmV_0_7_0.c,2099 :: 		charValueToStr(CloseSoftStartTime,LCDLine2+6);}
	MOVF        _CloseSoftStartTime+0, 0 
	MOVWF       FARG_charValueToStr+0 
	MOVLW       _LCDLine2+6
	MOVWF       FARG_charValueToStr+0 
	MOVLW       hi_addr(_LCDLine2+6)
	MOVWF       FARG_charValueToStr+1 
	CALL        _charValueToStr+0, 0
L_Menu0466:
;FirmV_0_7_0.c,2101 :: 		if(MenuPointer==8)
	MOVF        _MenuPointer+0, 0 
	XORLW       8
	BTFSS       STATUS+0, 2 
	GOTO        L_Menu0467
;FirmV_0_7_0.c,2102 :: 		{memcpy(LCDLine1,"08 Cl Soft Stop ",16);LCDUpdateFlag=1;
	MOVLW       _LCDLine1+0
	MOVWF       FARG_memcpy_d1+0 
	MOVLW       hi_addr(_LCDLine1+0)
	MOVWF       FARG_memcpy_d1+1 
	MOVLW       ?lstr81_FirmV_0_7_0+0
	MOVWF       FARG_memcpy_s1+0 
	MOVLW       hi_addr(?lstr81_FirmV_0_7_0+0)
	MOVWF       FARG_memcpy_s1+1 
	MOVLW       16
	MOVWF       FARG_memcpy_n+0 
	MOVLW       0
	MOVWF       FARG_memcpy_n+1 
	CALL        _memcpy+0, 0
	MOVLW       1
	MOVWF       _LCDUpdateFlag+0 
;FirmV_0_7_0.c,2103 :: 		charValueToStr(CloseSoftStopTime,LCDLine2+6);}
	MOVF        _CloseSoftStopTime+0, 0 
	MOVWF       FARG_charValueToStr+0 
	MOVLW       _LCDLine2+6
	MOVWF       FARG_charValueToStr+0 
	MOVLW       hi_addr(_LCDLine2+6)
	MOVWF       FARG_charValueToStr+1 
	CALL        _charValueToStr+0, 0
L_Menu0467:
;FirmV_0_7_0.c,2105 :: 		if(MenuPointer==9)
	MOVF        _MenuPointer+0, 0 
	XORLW       9
	BTFSS       STATUS+0, 2 
	GOTO        L_Menu0468
;FirmV_0_7_0.c,2106 :: 		{memcpy(LCDLine1,"09 M1 Overl Sens",16);LCDUpdateFlag=1;
	MOVLW       _LCDLine1+0
	MOVWF       FARG_memcpy_d1+0 
	MOVLW       hi_addr(_LCDLine1+0)
	MOVWF       FARG_memcpy_d1+1 
	MOVLW       ?lstr82_FirmV_0_7_0+0
	MOVWF       FARG_memcpy_s1+0 
	MOVLW       hi_addr(?lstr82_FirmV_0_7_0+0)
	MOVWF       FARG_memcpy_s1+1 
	MOVLW       16
	MOVWF       FARG_memcpy_n+0 
	MOVLW       0
	MOVWF       FARG_memcpy_n+1 
	CALL        _memcpy+0, 0
	MOVLW       1
	MOVWF       _LCDUpdateFlag+0 
;FirmV_0_7_0.c,2107 :: 		bytetostr(OverloadSens1,LCDLine2+3);if(OverloadSens1>7)memcpy(LCDLine2+7,"250Kg-",6);else memcpy(LCDLine2+7,"250Kg+",6);}
	MOVF        _OverloadSens1+0, 0 
	MOVWF       FARG_ByteToStr_input+0 
	MOVLW       _LCDLine2+3
	MOVWF       FARG_ByteToStr_output+0 
	MOVLW       hi_addr(_LCDLine2+3)
	MOVWF       FARG_ByteToStr_output+1 
	CALL        _ByteToStr+0, 0
	MOVF        _OverloadSens1+0, 0 
	SUBLW       7
	BTFSC       STATUS+0, 0 
	GOTO        L_Menu0469
	MOVLW       _LCDLine2+7
	MOVWF       FARG_memcpy_d1+0 
	MOVLW       hi_addr(_LCDLine2+7)
	MOVWF       FARG_memcpy_d1+1 
	MOVLW       ?lstr83_FirmV_0_7_0+0
	MOVWF       FARG_memcpy_s1+0 
	MOVLW       hi_addr(?lstr83_FirmV_0_7_0+0)
	MOVWF       FARG_memcpy_s1+1 
	MOVLW       6
	MOVWF       FARG_memcpy_n+0 
	MOVLW       0
	MOVWF       FARG_memcpy_n+1 
	CALL        _memcpy+0, 0
	GOTO        L_Menu0470
L_Menu0469:
	MOVLW       _LCDLine2+7
	MOVWF       FARG_memcpy_d1+0 
	MOVLW       hi_addr(_LCDLine2+7)
	MOVWF       FARG_memcpy_d1+1 
	MOVLW       ?lstr84_FirmV_0_7_0+0
	MOVWF       FARG_memcpy_s1+0 
	MOVLW       hi_addr(?lstr84_FirmV_0_7_0+0)
	MOVWF       FARG_memcpy_s1+1 
	MOVLW       6
	MOVWF       FARG_memcpy_n+0 
	MOVLW       0
	MOVWF       FARG_memcpy_n+1 
	CALL        _memcpy+0, 0
L_Menu0470:
L_Menu0468:
;FirmV_0_7_0.c,2109 :: 		if(MenuPointer==10)
	MOVF        _MenuPointer+0, 0 
	XORLW       10
	BTFSS       STATUS+0, 2 
	GOTO        L_Menu0471
;FirmV_0_7_0.c,2110 :: 		{memcpy(LCDLine1,"10 M2 Overl Sens",16);LCDUpdateFlag=1;
	MOVLW       _LCDLine1+0
	MOVWF       FARG_memcpy_d1+0 
	MOVLW       hi_addr(_LCDLine1+0)
	MOVWF       FARG_memcpy_d1+1 
	MOVLW       ?lstr85_FirmV_0_7_0+0
	MOVWF       FARG_memcpy_s1+0 
	MOVLW       hi_addr(?lstr85_FirmV_0_7_0+0)
	MOVWF       FARG_memcpy_s1+1 
	MOVLW       16
	MOVWF       FARG_memcpy_n+0 
	MOVLW       0
	MOVWF       FARG_memcpy_n+1 
	CALL        _memcpy+0, 0
	MOVLW       1
	MOVWF       _LCDUpdateFlag+0 
;FirmV_0_7_0.c,2111 :: 		bytetostr(OverloadSens2,LCDLine2+3);if(OverloadSens2>7)memcpy(LCDLine2+7,"250Kg-",6);else memcpy(LCDLine2+7,"250Kg+",6);}
	MOVF        _OverloadSens2+0, 0 
	MOVWF       FARG_ByteToStr_input+0 
	MOVLW       _LCDLine2+3
	MOVWF       FARG_ByteToStr_output+0 
	MOVLW       hi_addr(_LCDLine2+3)
	MOVWF       FARG_ByteToStr_output+1 
	CALL        _ByteToStr+0, 0
	MOVF        _OverloadSens2+0, 0 
	SUBLW       7
	BTFSC       STATUS+0, 0 
	GOTO        L_Menu0472
	MOVLW       _LCDLine2+7
	MOVWF       FARG_memcpy_d1+0 
	MOVLW       hi_addr(_LCDLine2+7)
	MOVWF       FARG_memcpy_d1+1 
	MOVLW       ?lstr86_FirmV_0_7_0+0
	MOVWF       FARG_memcpy_s1+0 
	MOVLW       hi_addr(?lstr86_FirmV_0_7_0+0)
	MOVWF       FARG_memcpy_s1+1 
	MOVLW       6
	MOVWF       FARG_memcpy_n+0 
	MOVLW       0
	MOVWF       FARG_memcpy_n+1 
	CALL        _memcpy+0, 0
	GOTO        L_Menu0473
L_Menu0472:
	MOVLW       _LCDLine2+7
	MOVWF       FARG_memcpy_d1+0 
	MOVLW       hi_addr(_LCDLine2+7)
	MOVWF       FARG_memcpy_d1+1 
	MOVLW       ?lstr87_FirmV_0_7_0+0
	MOVWF       FARG_memcpy_s1+0 
	MOVLW       hi_addr(?lstr87_FirmV_0_7_0+0)
	MOVWF       FARG_memcpy_s1+1 
	MOVLW       6
	MOVWF       FARG_memcpy_n+0 
	MOVLW       0
	MOVWF       FARG_memcpy_n+1 
	CALL        _memcpy+0, 0
L_Menu0473:
L_Menu0471:
;FirmV_0_7_0.c,2113 :: 		if(MenuPointer==11)
	MOVF        _MenuPointer+0, 0 
	XORLW       11
	BTFSS       STATUS+0, 2 
	GOTO        L_Menu0474
;FirmV_0_7_0.c,2114 :: 		{memcpy(LCDLine1,"11 M1 Overl Time",16);LCDUpdateFlag=1;
	MOVLW       _LCDLine1+0
	MOVWF       FARG_memcpy_d1+0 
	MOVLW       hi_addr(_LCDLine1+0)
	MOVWF       FARG_memcpy_d1+1 
	MOVLW       ?lstr88_FirmV_0_7_0+0
	MOVWF       FARG_memcpy_s1+0 
	MOVLW       hi_addr(?lstr88_FirmV_0_7_0+0)
	MOVWF       FARG_memcpy_s1+1 
	MOVLW       16
	MOVWF       FARG_memcpy_n+0 
	MOVLW       0
	MOVWF       FARG_memcpy_n+1 
	CALL        _memcpy+0, 0
	MOVLW       1
	MOVWF       _LCDUpdateFlag+0 
;FirmV_0_7_0.c,2115 :: 		charValueToStr(OverloadTime1,LCDLine2+6);}
	MOVF        _OverloadTime1+0, 0 
	MOVWF       FARG_charValueToStr+0 
	MOVLW       _LCDLine2+6
	MOVWF       FARG_charValueToStr+0 
	MOVLW       hi_addr(_LCDLine2+6)
	MOVWF       FARG_charValueToStr+1 
	CALL        _charValueToStr+0, 0
L_Menu0474:
;FirmV_0_7_0.c,2117 :: 		if(MenuPointer==12)
	MOVF        _MenuPointer+0, 0 
	XORLW       12
	BTFSS       STATUS+0, 2 
	GOTO        L_Menu0475
;FirmV_0_7_0.c,2118 :: 		{memcpy(LCDLine1,"12 M2 Overl Time",16);LCDUpdateFlag=1;
	MOVLW       _LCDLine1+0
	MOVWF       FARG_memcpy_d1+0 
	MOVLW       hi_addr(_LCDLine1+0)
	MOVWF       FARG_memcpy_d1+1 
	MOVLW       ?lstr89_FirmV_0_7_0+0
	MOVWF       FARG_memcpy_s1+0 
	MOVLW       hi_addr(?lstr89_FirmV_0_7_0+0)
	MOVWF       FARG_memcpy_s1+1 
	MOVLW       16
	MOVWF       FARG_memcpy_n+0 
	MOVLW       0
	MOVWF       FARG_memcpy_n+1 
	CALL        _memcpy+0, 0
	MOVLW       1
	MOVWF       _LCDUpdateFlag+0 
;FirmV_0_7_0.c,2119 :: 		charValueToStr(OverloadTime2,LCDLine2+6);}
	MOVF        _OverloadTime2+0, 0 
	MOVWF       FARG_charValueToStr+0 
	MOVLW       _LCDLine2+6
	MOVWF       FARG_charValueToStr+0 
	MOVLW       hi_addr(_LCDLine2+6)
	MOVWF       FARG_charValueToStr+1 
	CALL        _charValueToStr+0, 0
L_Menu0475:
;FirmV_0_7_0.c,2121 :: 		if(MenuPointer==13)
	MOVF        _MenuPointer+0, 0 
	XORLW       13
	BTFSS       STATUS+0, 2 
	GOTO        L_Menu0476
;FirmV_0_7_0.c,2122 :: 		{memcpy(LCDLine1,"13 Interval Time",16);LCDUpdateFlag=1;
	MOVLW       _LCDLine1+0
	MOVWF       FARG_memcpy_d1+0 
	MOVLW       hi_addr(_LCDLine1+0)
	MOVWF       FARG_memcpy_d1+1 
	MOVLW       ?lstr90_FirmV_0_7_0+0
	MOVWF       FARG_memcpy_s1+0 
	MOVLW       hi_addr(?lstr90_FirmV_0_7_0+0)
	MOVWF       FARG_memcpy_s1+1 
	MOVLW       16
	MOVWF       FARG_memcpy_n+0 
	MOVLW       0
	MOVWF       FARG_memcpy_n+1 
	CALL        _memcpy+0, 0
	MOVLW       1
	MOVWF       _LCDUpdateFlag+0 
;FirmV_0_7_0.c,2123 :: 		charValueToStr(ActionTimeDiff,LCDLine2+6);}
	MOVF        _ActionTimeDiff+0, 0 
	MOVWF       FARG_charValueToStr+0 
	MOVLW       _LCDLine2+6
	MOVWF       FARG_charValueToStr+0 
	MOVLW       hi_addr(_LCDLine2+6)
	MOVWF       FARG_charValueToStr+1 
	CALL        _charValueToStr+0, 0
L_Menu0476:
;FirmV_0_7_0.c,2125 :: 		if(MenuPointer==14)
	MOVF        _MenuPointer+0, 0 
	XORLW       14
	BTFSS       STATUS+0, 2 
	GOTO        L_Menu0477
;FirmV_0_7_0.c,2126 :: 		{memcpy(LCDLine1,"14 Auto-close T ",16);LCDUpdateFlag=1;
	MOVLW       _LCDLine1+0
	MOVWF       FARG_memcpy_d1+0 
	MOVLW       hi_addr(_LCDLine1+0)
	MOVWF       FARG_memcpy_d1+1 
	MOVLW       ?lstr91_FirmV_0_7_0+0
	MOVWF       FARG_memcpy_s1+0 
	MOVLW       hi_addr(?lstr91_FirmV_0_7_0+0)
	MOVWF       FARG_memcpy_s1+1 
	MOVLW       16
	MOVWF       FARG_memcpy_n+0 
	MOVLW       0
	MOVWF       FARG_memcpy_n+1 
	CALL        _memcpy+0, 0
	MOVLW       1
	MOVWF       _LCDUpdateFlag+0 
;FirmV_0_7_0.c,2127 :: 		intValueToStr(AutoCloseTime,LCDLine2+4);}
	MOVF        _AutoCloseTime+0, 0 
	MOVWF       FARG_intValueToStr+0 
	MOVF        _AutoCloseTime+1, 0 
	MOVWF       FARG_intValueToStr+1 
	MOVLW       _LCDLine2+4
	MOVWF       FARG_intValueToStr+0 
	MOVLW       hi_addr(_LCDLine2+4)
	MOVWF       FARG_intValueToStr+1 
	CALL        _intValueToStr+0, 0
L_Menu0477:
;FirmV_0_7_0.c,2129 :: 		if(MenuPointer==15)
	MOVF        _MenuPointer+0, 0 
	XORLW       15
	BTFSS       STATUS+0, 2 
	GOTO        L_Menu0478
;FirmV_0_7_0.c,2130 :: 		{memcpy(LCDLine1,"15 Factory Reset",16);LCDUpdateFlag=1;}
	MOVLW       _LCDLine1+0
	MOVWF       FARG_memcpy_d1+0 
	MOVLW       hi_addr(_LCDLine1+0)
	MOVWF       FARG_memcpy_d1+1 
	MOVLW       ?lstr92_FirmV_0_7_0+0
	MOVWF       FARG_memcpy_s1+0 
	MOVLW       hi_addr(?lstr92_FirmV_0_7_0+0)
	MOVWF       FARG_memcpy_s1+1 
	MOVLW       16
	MOVWF       FARG_memcpy_n+0 
	MOVLW       0
	MOVWF       FARG_memcpy_n+1 
	CALL        _memcpy+0, 0
	MOVLW       1
	MOVWF       _LCDUpdateFlag+0 
L_Menu0478:
;FirmV_0_7_0.c,2132 :: 		if(MenuPointer==16)
	MOVF        _MenuPointer+0, 0 
	XORLW       16
	BTFSS       STATUS+0, 2 
	GOTO        L_Menu0479
;FirmV_0_7_0.c,2133 :: 		{memcpy(LCDLine1,"16 Open Photo En",16);LCDUpdateFlag=1;
	MOVLW       _LCDLine1+0
	MOVWF       FARG_memcpy_d1+0 
	MOVLW       hi_addr(_LCDLine1+0)
	MOVWF       FARG_memcpy_d1+1 
	MOVLW       ?lstr93_FirmV_0_7_0+0
	MOVWF       FARG_memcpy_s1+0 
	MOVLW       hi_addr(?lstr93_FirmV_0_7_0+0)
	MOVWF       FARG_memcpy_s1+1 
	MOVLW       16
	MOVWF       FARG_memcpy_n+0 
	MOVLW       0
	MOVWF       FARG_memcpy_n+1 
	CALL        _memcpy+0, 0
	MOVLW       1
	MOVWF       _LCDUpdateFlag+0 
;FirmV_0_7_0.c,2134 :: 		if(OpenPhEnable==0) memcpy(LCDLine2+6,"No     ",7);else memcpy(LCDLine2+6,"Yes     ",8);}
	MOVF        _OpenPhEnable+0, 0 
	XORLW       0
	BTFSS       STATUS+0, 2 
	GOTO        L_Menu0480
	MOVLW       _LCDLine2+6
	MOVWF       FARG_memcpy_d1+0 
	MOVLW       hi_addr(_LCDLine2+6)
	MOVWF       FARG_memcpy_d1+1 
	MOVLW       ?lstr94_FirmV_0_7_0+0
	MOVWF       FARG_memcpy_s1+0 
	MOVLW       hi_addr(?lstr94_FirmV_0_7_0+0)
	MOVWF       FARG_memcpy_s1+1 
	MOVLW       7
	MOVWF       FARG_memcpy_n+0 
	MOVLW       0
	MOVWF       FARG_memcpy_n+1 
	CALL        _memcpy+0, 0
	GOTO        L_Menu0481
L_Menu0480:
	MOVLW       _LCDLine2+6
	MOVWF       FARG_memcpy_d1+0 
	MOVLW       hi_addr(_LCDLine2+6)
	MOVWF       FARG_memcpy_d1+1 
	MOVLW       ?lstr95_FirmV_0_7_0+0
	MOVWF       FARG_memcpy_s1+0 
	MOVLW       hi_addr(?lstr95_FirmV_0_7_0+0)
	MOVWF       FARG_memcpy_s1+1 
	MOVLW       8
	MOVWF       FARG_memcpy_n+0 
	MOVLW       0
	MOVWF       FARG_memcpy_n+1 
	CALL        _memcpy+0, 0
L_Menu0481:
L_Menu0479:
;FirmV_0_7_0.c,2136 :: 		if(MenuPointer==17)
	MOVF        _MenuPointer+0, 0 
	XORLW       17
	BTFSS       STATUS+0, 2 
	GOTO        L_Menu0482
;FirmV_0_7_0.c,2137 :: 		{memcpy(LCDLine1,"17 Limit Enable ",16);LCDUpdateFlag=1;
	MOVLW       _LCDLine1+0
	MOVWF       FARG_memcpy_d1+0 
	MOVLW       hi_addr(_LCDLine1+0)
	MOVWF       FARG_memcpy_d1+1 
	MOVLW       ?lstr96_FirmV_0_7_0+0
	MOVWF       FARG_memcpy_s1+0 
	MOVLW       hi_addr(?lstr96_FirmV_0_7_0+0)
	MOVWF       FARG_memcpy_s1+1 
	MOVLW       16
	MOVWF       FARG_memcpy_n+0 
	MOVLW       0
	MOVWF       FARG_memcpy_n+1 
	CALL        _memcpy+0, 0
	MOVLW       1
	MOVWF       _LCDUpdateFlag+0 
;FirmV_0_7_0.c,2138 :: 		if(LimiterEnable==0) memcpy(LCDLine2+6,"No     ",7);else memcpy(LCDLine2+6,"Yes     ",8);}
	MOVF        _LimiterEnable+0, 0 
	XORLW       0
	BTFSS       STATUS+0, 2 
	GOTO        L_Menu0483
	MOVLW       _LCDLine2+6
	MOVWF       FARG_memcpy_d1+0 
	MOVLW       hi_addr(_LCDLine2+6)
	MOVWF       FARG_memcpy_d1+1 
	MOVLW       ?lstr97_FirmV_0_7_0+0
	MOVWF       FARG_memcpy_s1+0 
	MOVLW       hi_addr(?lstr97_FirmV_0_7_0+0)
	MOVWF       FARG_memcpy_s1+1 
	MOVLW       7
	MOVWF       FARG_memcpy_n+0 
	MOVLW       0
	MOVWF       FARG_memcpy_n+1 
	CALL        _memcpy+0, 0
	GOTO        L_Menu0484
L_Menu0483:
	MOVLW       _LCDLine2+6
	MOVWF       FARG_memcpy_d1+0 
	MOVLW       hi_addr(_LCDLine2+6)
	MOVWF       FARG_memcpy_d1+1 
	MOVLW       ?lstr98_FirmV_0_7_0+0
	MOVWF       FARG_memcpy_s1+0 
	MOVLW       hi_addr(?lstr98_FirmV_0_7_0+0)
	MOVWF       FARG_memcpy_s1+1 
	MOVLW       8
	MOVWF       FARG_memcpy_n+0 
	MOVLW       0
	MOVWF       FARG_memcpy_n+1 
	CALL        _memcpy+0, 0
L_Menu0484:
L_Menu0482:
;FirmV_0_7_0.c,2140 :: 		if(MenuPointer==18)
	MOVF        _MenuPointer+0, 0 
	XORLW       18
	BTFSS       STATUS+0, 2 
	GOTO        L_Menu0485
;FirmV_0_7_0.c,2141 :: 		{memcpy(LCDLine1,"18 Lock Enable  ",16);LCDUpdateFlag=1;
	MOVLW       _LCDLine1+0
	MOVWF       FARG_memcpy_d1+0 
	MOVLW       hi_addr(_LCDLine1+0)
	MOVWF       FARG_memcpy_d1+1 
	MOVLW       ?lstr99_FirmV_0_7_0+0
	MOVWF       FARG_memcpy_s1+0 
	MOVLW       hi_addr(?lstr99_FirmV_0_7_0+0)
	MOVWF       FARG_memcpy_s1+1 
	MOVLW       16
	MOVWF       FARG_memcpy_n+0 
	MOVLW       0
	MOVWF       FARG_memcpy_n+1 
	CALL        _memcpy+0, 0
	MOVLW       1
	MOVWF       _LCDUpdateFlag+0 
;FirmV_0_7_0.c,2142 :: 		if(LockEnable==0) memcpy(LCDLine2+6,"No     ",7);else memcpy(LCDLine2+6,"Yes     ",8);}
	MOVF        _LockEnable+0, 0 
	XORLW       0
	BTFSS       STATUS+0, 2 
	GOTO        L_Menu0486
	MOVLW       _LCDLine2+6
	MOVWF       FARG_memcpy_d1+0 
	MOVLW       hi_addr(_LCDLine2+6)
	MOVWF       FARG_memcpy_d1+1 
	MOVLW       ?lstr100_FirmV_0_7_0+0
	MOVWF       FARG_memcpy_s1+0 
	MOVLW       hi_addr(?lstr100_FirmV_0_7_0+0)
	MOVWF       FARG_memcpy_s1+1 
	MOVLW       7
	MOVWF       FARG_memcpy_n+0 
	MOVLW       0
	MOVWF       FARG_memcpy_n+1 
	CALL        _memcpy+0, 0
	GOTO        L_Menu0487
L_Menu0486:
	MOVLW       _LCDLine2+6
	MOVWF       FARG_memcpy_d1+0 
	MOVLW       hi_addr(_LCDLine2+6)
	MOVWF       FARG_memcpy_d1+1 
	MOVLW       ?lstr101_FirmV_0_7_0+0
	MOVWF       FARG_memcpy_s1+0 
	MOVLW       hi_addr(?lstr101_FirmV_0_7_0+0)
	MOVWF       FARG_memcpy_s1+1 
	MOVLW       8
	MOVWF       FARG_memcpy_n+0 
	MOVLW       0
	MOVWF       FARG_memcpy_n+1 
	CALL        _memcpy+0, 0
L_Menu0487:
L_Menu0485:
;FirmV_0_7_0.c,2144 :: 		if(MenuPointer==19)
	MOVF        _MenuPointer+0, 0 
	XORLW       19
	BTFSS       STATUS+0, 2 
	GOTO        L_Menu0488
;FirmV_0_7_0.c,2145 :: 		{memcpy(LCDLine1,"19 Lock Force   ",16);LCDUpdateFlag=1;
	MOVLW       _LCDLine1+0
	MOVWF       FARG_memcpy_d1+0 
	MOVLW       hi_addr(_LCDLine1+0)
	MOVWF       FARG_memcpy_d1+1 
	MOVLW       ?lstr102_FirmV_0_7_0+0
	MOVWF       FARG_memcpy_s1+0 
	MOVLW       hi_addr(?lstr102_FirmV_0_7_0+0)
	MOVWF       FARG_memcpy_s1+1 
	MOVLW       16
	MOVWF       FARG_memcpy_n+0 
	MOVLW       0
	MOVWF       FARG_memcpy_n+1 
	CALL        _memcpy+0, 0
	MOVLW       1
	MOVWF       _LCDUpdateFlag+0 
;FirmV_0_7_0.c,2146 :: 		if(LockForce==0) memcpy(LCDLine2+6,"No     ",7);else memcpy(LCDLine2+6,"Yes     ",8);}
	MOVF        _LockForce+0, 0 
	XORLW       0
	BTFSS       STATUS+0, 2 
	GOTO        L_Menu0489
	MOVLW       _LCDLine2+6
	MOVWF       FARG_memcpy_d1+0 
	MOVLW       hi_addr(_LCDLine2+6)
	MOVWF       FARG_memcpy_d1+1 
	MOVLW       ?lstr103_FirmV_0_7_0+0
	MOVWF       FARG_memcpy_s1+0 
	MOVLW       hi_addr(?lstr103_FirmV_0_7_0+0)
	MOVWF       FARG_memcpy_s1+1 
	MOVLW       7
	MOVWF       FARG_memcpy_n+0 
	MOVLW       0
	MOVWF       FARG_memcpy_n+1 
	CALL        _memcpy+0, 0
	GOTO        L_Menu0490
L_Menu0489:
	MOVLW       _LCDLine2+6
	MOVWF       FARG_memcpy_d1+0 
	MOVLW       hi_addr(_LCDLine2+6)
	MOVWF       FARG_memcpy_d1+1 
	MOVLW       ?lstr104_FirmV_0_7_0+0
	MOVWF       FARG_memcpy_s1+0 
	MOVLW       hi_addr(?lstr104_FirmV_0_7_0+0)
	MOVWF       FARG_memcpy_s1+1 
	MOVLW       8
	MOVWF       FARG_memcpy_n+0 
	MOVLW       0
	MOVWF       FARG_memcpy_n+1 
	CALL        _memcpy+0, 0
L_Menu0490:
L_Menu0488:
;FirmV_0_7_0.c,2148 :: 		if(MenuPointer==20)
	MOVF        _MenuPointer+0, 0 
	XORLW       20
	BTFSS       STATUS+0, 2 
	GOTO        L_Menu0491
;FirmV_0_7_0.c,2149 :: 		{memcpy(LCDLine1,"20 Au-Cl Pass   ",16);LCDUpdateFlag=1;
	MOVLW       _LCDLine1+0
	MOVWF       FARG_memcpy_d1+0 
	MOVLW       hi_addr(_LCDLine1+0)
	MOVWF       FARG_memcpy_d1+1 
	MOVLW       ?lstr105_FirmV_0_7_0+0
	MOVWF       FARG_memcpy_s1+0 
	MOVLW       hi_addr(?lstr105_FirmV_0_7_0+0)
	MOVWF       FARG_memcpy_s1+1 
	MOVLW       16
	MOVWF       FARG_memcpy_n+0 
	MOVLW       0
	MOVWF       FARG_memcpy_n+1 
	CALL        _memcpy+0, 0
	MOVLW       1
	MOVWF       _LCDUpdateFlag+0 
;FirmV_0_7_0.c,2150 :: 		charValueToStr(CloseAfterPass,LCDLine2+6);}
	MOVF        _CloseAfterPass+0, 0 
	MOVWF       FARG_charValueToStr+0 
	MOVLW       _LCDLine2+6
	MOVWF       FARG_charValueToStr+0 
	MOVLW       hi_addr(_LCDLine2+6)
	MOVWF       FARG_charValueToStr+1 
	CALL        _charValueToStr+0, 0
L_Menu0491:
;FirmV_0_7_0.c,2152 :: 		if(MenuPointer==21)
	MOVF        _MenuPointer+0, 0 
	XORLW       21
	BTFSS       STATUS+0, 2 
	GOTO        L_Menu0492
;FirmV_0_7_0.c,2153 :: 		{memcpy(LCDLine1,"21 Save Changes ",16);LCDUpdateFlag=1;}
	MOVLW       _LCDLine1+0
	MOVWF       FARG_memcpy_d1+0 
	MOVLW       hi_addr(_LCDLine1+0)
	MOVWF       FARG_memcpy_d1+1 
	MOVLW       ?lstr106_FirmV_0_7_0+0
	MOVWF       FARG_memcpy_s1+0 
	MOVLW       hi_addr(?lstr106_FirmV_0_7_0+0)
	MOVWF       FARG_memcpy_s1+1 
	MOVLW       16
	MOVWF       FARG_memcpy_n+0 
	MOVLW       0
	MOVWF       FARG_memcpy_n+1 
	CALL        _memcpy+0, 0
	MOVLW       1
	MOVWF       _LCDUpdateFlag+0 
L_Menu0492:
;FirmV_0_7_0.c,2155 :: 		if(MenuPointer==22)
	MOVF        _MenuPointer+0, 0 
	XORLW       22
	BTFSS       STATUS+0, 2 
	GOTO        L_Menu0493
;FirmV_0_7_0.c,2156 :: 		{memcpy(LCDLine1,"22 Discard Exit ",16);LCDUpdateFlag=1;}
	MOVLW       _LCDLine1+0
	MOVWF       FARG_memcpy_d1+0 
	MOVLW       hi_addr(_LCDLine1+0)
	MOVWF       FARG_memcpy_d1+1 
	MOVLW       ?lstr107_FirmV_0_7_0+0
	MOVWF       FARG_memcpy_s1+0 
	MOVLW       hi_addr(?lstr107_FirmV_0_7_0+0)
	MOVWF       FARG_memcpy_s1+1 
	MOVLW       16
	MOVWF       FARG_memcpy_n+0 
	MOVLW       0
	MOVWF       FARG_memcpy_n+1 
	CALL        _memcpy+0, 0
	MOVLW       1
	MOVWF       _LCDUpdateFlag+0 
L_Menu0493:
;FirmV_0_7_0.c,2159 :: 		State=101;
	MOVLW       101
	MOVWF       _State+0 
;FirmV_0_7_0.c,2160 :: 		}
L_end_Menu0:
	RETURN      0
; end of _Menu0

_About:

;FirmV_0_7_0.c,2168 :: 		void About()
;FirmV_0_7_0.c,2170 :: 		if((Events.Keys.b1==1))
	BTFSS       _Events+0, 1 
	GOTO        L_About494
;FirmV_0_7_0.c,2171 :: 		AboutCounter=AboutCounter+1;
	INCF        _AboutCounter+0, 1 
L_About494:
;FirmV_0_7_0.c,2173 :: 		if(AboutCounter==1)
	MOVF        _AboutCounter+0, 0 
	XORLW       1
	BTFSS       STATUS+0, 2 
	GOTO        L_About495
;FirmV_0_7_0.c,2174 :: 		{memcpy(LCDLine1,Crypto[2],16);
	MOVLW       _LCDLine1+0
	MOVWF       FARG_memcpy_d1+0 
	MOVLW       hi_addr(_LCDLine1+0)
	MOVWF       FARG_memcpy_d1+1 
	MOVLW       _crypto+32
	MOVWF       FARG_memcpy_s1+0 
	MOVLW       hi_addr(_crypto+32)
	MOVWF       FARG_memcpy_s1+1 
	MOVLW       16
	MOVWF       FARG_memcpy_n+0 
	MOVLW       0
	MOVWF       FARG_memcpy_n+1 
	CALL        _memcpy+0, 0
;FirmV_0_7_0.c,2175 :: 		memcpy(LCDLine2,Crypto[3],16);
	MOVLW       _LCDLine2+0
	MOVWF       FARG_memcpy_d1+0 
	MOVLW       hi_addr(_LCDLine2+0)
	MOVWF       FARG_memcpy_d1+1 
	MOVLW       _crypto+48
	MOVWF       FARG_memcpy_s1+0 
	MOVLW       hi_addr(_crypto+48)
	MOVWF       FARG_memcpy_s1+1 
	MOVLW       16
	MOVWF       FARG_memcpy_n+0 
	MOVLW       0
	MOVWF       FARG_memcpy_n+1 
	CALL        _memcpy+0, 0
;FirmV_0_7_0.c,2176 :: 		LCDUpdateFlag=1;
	MOVLW       1
	MOVWF       _LCDUpdateFlag+0 
;FirmV_0_7_0.c,2177 :: 		}
L_About495:
;FirmV_0_7_0.c,2179 :: 		if(AboutCounter==2)
	MOVF        _AboutCounter+0, 0 
	XORLW       2
	BTFSS       STATUS+0, 2 
	GOTO        L_About496
;FirmV_0_7_0.c,2180 :: 		{memcpy(LCDLine1,Crypto[4],16);
	MOVLW       _LCDLine1+0
	MOVWF       FARG_memcpy_d1+0 
	MOVLW       hi_addr(_LCDLine1+0)
	MOVWF       FARG_memcpy_d1+1 
	MOVLW       _crypto+64
	MOVWF       FARG_memcpy_s1+0 
	MOVLW       hi_addr(_crypto+64)
	MOVWF       FARG_memcpy_s1+1 
	MOVLW       16
	MOVWF       FARG_memcpy_n+0 
	MOVLW       0
	MOVWF       FARG_memcpy_n+1 
	CALL        _memcpy+0, 0
;FirmV_0_7_0.c,2181 :: 		memcpy(LCDLine2,Crypto[5],16);
	MOVLW       _LCDLine2+0
	MOVWF       FARG_memcpy_d1+0 
	MOVLW       hi_addr(_LCDLine2+0)
	MOVWF       FARG_memcpy_d1+1 
	MOVLW       _crypto+80
	MOVWF       FARG_memcpy_s1+0 
	MOVLW       hi_addr(_crypto+80)
	MOVWF       FARG_memcpy_s1+1 
	MOVLW       16
	MOVWF       FARG_memcpy_n+0 
	MOVLW       0
	MOVWF       FARG_memcpy_n+1 
	CALL        _memcpy+0, 0
;FirmV_0_7_0.c,2182 :: 		LCDUpdateFlag=1;
	MOVLW       1
	MOVWF       _LCDUpdateFlag+0 
;FirmV_0_7_0.c,2183 :: 		}
L_About496:
;FirmV_0_7_0.c,2185 :: 		if(AboutCounter==3)
	MOVF        _AboutCounter+0, 0 
	XORLW       3
	BTFSS       STATUS+0, 2 
	GOTO        L_About497
;FirmV_0_7_0.c,2186 :: 		{State=100;}
	MOVLW       100
	MOVWF       _State+0 
L_About497:
;FirmV_0_7_0.c,2187 :: 		}
L_end_About:
	RETURN      0
; end of _About

_Menu1:

;FirmV_0_7_0.c,2196 :: 		void Menu1()
;FirmV_0_7_0.c,2199 :: 		if((Events.Keys.b0==1))
	BTFSS       _Events+0, 0 
	GOTO        L_Menu1498
;FirmV_0_7_0.c,2200 :: 		{if(MenuPointer==0){MenuPointer=22;}else{MenuPointer=MenuPointer-1;}State=100;}
	MOVF        _MenuPointer+0, 0 
	XORLW       0
	BTFSS       STATUS+0, 2 
	GOTO        L_Menu1499
	MOVLW       22
	MOVWF       _MenuPointer+0 
	GOTO        L_Menu1500
L_Menu1499:
	DECF        _MenuPointer+0, 1 
L_Menu1500:
	MOVLW       100
	MOVWF       _State+0 
L_Menu1498:
;FirmV_0_7_0.c,2202 :: 		if((Events.Keys.b2==1))
	BTFSS       _Events+0, 2 
	GOTO        L_Menu1501
;FirmV_0_7_0.c,2203 :: 		{if(MenuPointer==22){MenuPointer=0;}else{MenuPointer=MenuPointer+1;}State=100;}
	MOVF        _MenuPointer+0, 0 
	XORLW       22
	BTFSS       STATUS+0, 2 
	GOTO        L_Menu1502
	CLRF        _MenuPointer+0 
	GOTO        L_Menu1503
L_Menu1502:
	INCF        _MenuPointer+0, 1 
L_Menu1503:
	MOVLW       100
	MOVWF       _State+0 
L_Menu1501:
;FirmV_0_7_0.c,2205 :: 		if((Events.Keys.b1==1))
	BTFSS       _Events+0, 1 
	GOTO        L_Menu1504
;FirmV_0_7_0.c,2206 :: 		{State=102;}
	MOVLW       102
	MOVWF       _State+0 
L_Menu1504:
;FirmV_0_7_0.c,2208 :: 		if(Events.Keys==0b101)
	MOVF        _Events+0, 0 
	XORLW       5
	BTFSS       STATUS+0, 2 
	GOTO        L_Menu1505
;FirmV_0_7_0.c,2209 :: 		{memcpy(LCDLine1,Crypto[0],16);AboutCounter=0;memcpy(LCDLine2,Crypto[1],16);LCDLines=2;LCDUpdateFlag=1;State=250;}
	MOVLW       _LCDLine1+0
	MOVWF       FARG_memcpy_d1+0 
	MOVLW       hi_addr(_LCDLine1+0)
	MOVWF       FARG_memcpy_d1+1 
	MOVLW       _crypto+0
	MOVWF       FARG_memcpy_s1+0 
	MOVLW       hi_addr(_crypto+0)
	MOVWF       FARG_memcpy_s1+1 
	MOVLW       16
	MOVWF       FARG_memcpy_n+0 
	MOVLW       0
	MOVWF       FARG_memcpy_n+1 
	CALL        _memcpy+0, 0
	CLRF        _AboutCounter+0 
	MOVLW       _LCDLine2+0
	MOVWF       FARG_memcpy_d1+0 
	MOVLW       hi_addr(_LCDLine2+0)
	MOVWF       FARG_memcpy_d1+1 
	MOVLW       _crypto+16
	MOVWF       FARG_memcpy_s1+0 
	MOVLW       hi_addr(_crypto+16)
	MOVWF       FARG_memcpy_s1+1 
	MOVLW       16
	MOVWF       FARG_memcpy_n+0 
	MOVLW       0
	MOVWF       FARG_memcpy_n+1 
	CALL        _memcpy+0, 0
	MOVLW       2
	MOVWF       _LCDLines+0 
	MOVLW       1
	MOVWF       _LCDUpdateFlag+0 
	MOVLW       250
	MOVWF       _State+0 
L_Menu1505:
;FirmV_0_7_0.c,2212 :: 		}
L_end_Menu1:
	RETURN      0
; end of _Menu1

_Menu2:

;FirmV_0_7_0.c,2220 :: 		void Menu2()
;FirmV_0_7_0.c,2223 :: 		LCDFlash=1;
	MOVLW       1
	MOVWF       _LCDFlash+0 
;FirmV_0_7_0.c,2225 :: 		if(Events.Keys.b1==1)
	BTFSS       _Events+0, 1 
	GOTO        L_Menu2506
;FirmV_0_7_0.c,2227 :: 		LCDFlash=0;LCDFlashFlag=0;State=101;;Menu0();
	CLRF        _LCDFlash+0 
	CLRF        _LCDFlashFlag+0 
	MOVLW       101
	MOVWF       _State+0 
	CALL        _Menu0+0, 0
;FirmV_0_7_0.c,2228 :: 		if(MenuPointer==0)
	MOVF        _MenuPointer+0, 0 
	XORLW       0
	BTFSS       STATUS+0, 2 
	GOTO        L_Menu2507
;FirmV_0_7_0.c,2230 :: 		LearnPhase=0;
	CLRF        _LearnPhase+0 
;FirmV_0_7_0.c,2231 :: 		if(LearningMode==0)
	MOVF        _LearningMode+0, 0 
	XORLW       0
	BTFSS       STATUS+0, 2 
	GOTO        L_Menu2508
;FirmV_0_7_0.c,2232 :: 		{State=200;LongBuzzFlag=1;}
	MOVLW       200
	MOVWF       _State+0 
	MOVLW       1
	MOVWF       _LongBuzzFlag+0 
L_Menu2508:
;FirmV_0_7_0.c,2233 :: 		if(LearningMode==1)
	MOVF        _LearningMode+0, 0 
	XORLW       1
	BTFSS       STATUS+0, 2 
	GOTO        L_Menu2509
;FirmV_0_7_0.c,2234 :: 		{State=201;LongBuzzFlag=1;}
	MOVLW       201
	MOVWF       _State+0 
	MOVLW       1
	MOVWF       _LongBuzzFlag+0 
L_Menu2509:
;FirmV_0_7_0.c,2235 :: 		}
L_Menu2507:
;FirmV_0_7_0.c,2236 :: 		}
L_Menu2506:
;FirmV_0_7_0.c,2239 :: 		if(MenuPointer==0)
	MOVF        _MenuPointer+0, 0 
	XORLW       0
	BTFSS       STATUS+0, 2 
	GOTO        L_Menu2510
;FirmV_0_7_0.c,2240 :: 		{ if((Events.Keys.b0==1)&&(LearningMode>0))
	BTFSS       _Events+0, 0 
	GOTO        L_Menu2513
	MOVF        _LearningMode+0, 0 
	SUBLW       0
	BTFSC       STATUS+0, 0 
	GOTO        L_Menu2513
L__Menu2949:
;FirmV_0_7_0.c,2241 :: 		{LearningMode=LearningMode-1;Menu0();State=102;}
	DECF        _LearningMode+0, 1 
	CALL        _Menu0+0, 0
	MOVLW       102
	MOVWF       _State+0 
L_Menu2513:
;FirmV_0_7_0.c,2242 :: 		if((Events.Keys.b2==1)&&(LearningMode<1))
	BTFSS       _Events+0, 2 
	GOTO        L_Menu2516
	MOVLW       1
	SUBWF       _LearningMode+0, 0 
	BTFSC       STATUS+0, 0 
	GOTO        L_Menu2516
L__Menu2948:
;FirmV_0_7_0.c,2243 :: 		{LearningMode=LearningMode+1;Menu0();State=102;}
	INCF        _LearningMode+0, 1 
	CALL        _Menu0+0, 0
	MOVLW       102
	MOVWF       _State+0 
L_Menu2516:
;FirmV_0_7_0.c,2244 :: 		}
L_Menu2510:
;FirmV_0_7_0.c,2248 :: 		if(MenuPointer==1)
	MOVF        _MenuPointer+0, 0 
	XORLW       1
	BTFSS       STATUS+0, 2 
	GOTO        L_Menu2517
;FirmV_0_7_0.c,2249 :: 		{ if((Events.Keys.b0==1)&&(Door1OpenTime>0))
	BTFSS       _Events+0, 0 
	GOTO        L_Menu2520
	MOVF        _Door1OpenTime+0, 0 
	SUBLW       0
	BTFSC       STATUS+0, 0 
	GOTO        L_Menu2520
L__Menu2947:
;FirmV_0_7_0.c,2250 :: 		{Door1OpenTime=Door1OpenTime-1;Menu0();State=102;}
	DECF        _Door1OpenTime+0, 1 
	CALL        _Menu0+0, 0
	MOVLW       102
	MOVWF       _State+0 
L_Menu2520:
;FirmV_0_7_0.c,2251 :: 		if((Events.Keys.b2==1)&&(Door1OpenTime<255))
	BTFSS       _Events+0, 2 
	GOTO        L_Menu2523
	MOVLW       255
	SUBWF       _Door1OpenTime+0, 0 
	BTFSC       STATUS+0, 0 
	GOTO        L_Menu2523
L__Menu2946:
;FirmV_0_7_0.c,2252 :: 		{Door1OpenTime=Door1OpenTime+1;Menu0();State=102;}
	INCF        _Door1OpenTime+0, 1 
	CALL        _Menu0+0, 0
	MOVLW       102
	MOVWF       _State+0 
L_Menu2523:
;FirmV_0_7_0.c,2253 :: 		}
L_Menu2517:
;FirmV_0_7_0.c,2257 :: 		if(MenuPointer==2)
	MOVF        _MenuPointer+0, 0 
	XORLW       2
	BTFSS       STATUS+0, 2 
	GOTO        L_Menu2524
;FirmV_0_7_0.c,2258 :: 		{ if((Events.Keys.b0==1)&&(Door2OpenTime>0))
	BTFSS       _Events+0, 0 
	GOTO        L_Menu2527
	MOVF        _Door2OpenTime+0, 0 
	SUBLW       0
	BTFSC       STATUS+0, 0 
	GOTO        L_Menu2527
L__Menu2945:
;FirmV_0_7_0.c,2259 :: 		{Door2OpenTime=Door2OpenTime-1;Menu0();State=102;}
	DECF        _Door2OpenTime+0, 1 
	CALL        _Menu0+0, 0
	MOVLW       102
	MOVWF       _State+0 
L_Menu2527:
;FirmV_0_7_0.c,2260 :: 		if((Events.Keys.b2==1)&&(Door2OpenTime<255))
	BTFSS       _Events+0, 2 
	GOTO        L_Menu2530
	MOVLW       255
	SUBWF       _Door2OpenTime+0, 0 
	BTFSC       STATUS+0, 0 
	GOTO        L_Menu2530
L__Menu2944:
;FirmV_0_7_0.c,2261 :: 		{Door2OpenTime=Door2OpenTime+1;Menu0();State=102;}
	INCF        _Door2OpenTime+0, 1 
	CALL        _Menu0+0, 0
	MOVLW       102
	MOVWF       _State+0 
L_Menu2530:
;FirmV_0_7_0.c,2262 :: 		}
L_Menu2524:
;FirmV_0_7_0.c,2265 :: 		if(MenuPointer==3)
	MOVF        _MenuPointer+0, 0 
	XORLW       3
	BTFSS       STATUS+0, 2 
	GOTO        L_Menu2531
;FirmV_0_7_0.c,2266 :: 		{ if((Events.Keys.b0==1)&&(Door1CloseTime>0))
	BTFSS       _Events+0, 0 
	GOTO        L_Menu2534
	MOVF        _Door1CloseTime+0, 0 
	SUBLW       0
	BTFSC       STATUS+0, 0 
	GOTO        L_Menu2534
L__Menu2943:
;FirmV_0_7_0.c,2267 :: 		{Door1CloseTime=Door1CloseTime-1;Menu0();State=102;}
	DECF        _Door1CloseTime+0, 1 
	CALL        _Menu0+0, 0
	MOVLW       102
	MOVWF       _State+0 
L_Menu2534:
;FirmV_0_7_0.c,2268 :: 		if((Events.Keys.b2==1)&&(Door1CloseTime<255))
	BTFSS       _Events+0, 2 
	GOTO        L_Menu2537
	MOVLW       255
	SUBWF       _Door1CloseTime+0, 0 
	BTFSC       STATUS+0, 0 
	GOTO        L_Menu2537
L__Menu2942:
;FirmV_0_7_0.c,2269 :: 		{Door1CloseTime=Door1CloseTime+1;Menu0();State=102;}
	INCF        _Door1CloseTime+0, 1 
	CALL        _Menu0+0, 0
	MOVLW       102
	MOVWF       _State+0 
L_Menu2537:
;FirmV_0_7_0.c,2270 :: 		}
L_Menu2531:
;FirmV_0_7_0.c,2273 :: 		if(MenuPointer==4)
	MOVF        _MenuPointer+0, 0 
	XORLW       4
	BTFSS       STATUS+0, 2 
	GOTO        L_Menu2538
;FirmV_0_7_0.c,2274 :: 		{ if((Events.Keys.b0==1)&&(Door2CloseTime>0))
	BTFSS       _Events+0, 0 
	GOTO        L_Menu2541
	MOVF        _Door2CloseTime+0, 0 
	SUBLW       0
	BTFSC       STATUS+0, 0 
	GOTO        L_Menu2541
L__Menu2941:
;FirmV_0_7_0.c,2275 :: 		{Door2CloseTime=Door2CloseTime-1;Menu0();State=102;}
	DECF        _Door2CloseTime+0, 1 
	CALL        _Menu0+0, 0
	MOVLW       102
	MOVWF       _State+0 
L_Menu2541:
;FirmV_0_7_0.c,2276 :: 		if((Events.Keys.b2==1)&&(Door2CloseTime<255))
	BTFSS       _Events+0, 2 
	GOTO        L_Menu2544
	MOVLW       255
	SUBWF       _Door2CloseTime+0, 0 
	BTFSC       STATUS+0, 0 
	GOTO        L_Menu2544
L__Menu2940:
;FirmV_0_7_0.c,2277 :: 		{Door2CloseTime=Door2CloseTime+1;Menu0();State=102;}
	INCF        _Door2CloseTime+0, 1 
	CALL        _Menu0+0, 0
	MOVLW       102
	MOVWF       _State+0 
L_Menu2544:
;FirmV_0_7_0.c,2278 :: 		}
L_Menu2538:
;FirmV_0_7_0.c,2282 :: 		if(MenuPointer==5)
	MOVF        _MenuPointer+0, 0 
	XORLW       5
	BTFSS       STATUS+0, 2 
	GOTO        L_Menu2545
;FirmV_0_7_0.c,2283 :: 		{ if((Events.Keys.b0==1)&&(OpenSoftStartTime>0))
	BTFSS       _Events+0, 0 
	GOTO        L_Menu2548
	MOVF        _OpenSoftStartTime+0, 0 
	SUBLW       0
	BTFSC       STATUS+0, 0 
	GOTO        L_Menu2548
L__Menu2939:
;FirmV_0_7_0.c,2284 :: 		{OpenSoftStartTime=OpenSoftStartTime-1;Menu0();State=102;}
	DECF        _OpenSoftStartTime+0, 1 
	CALL        _Menu0+0, 0
	MOVLW       102
	MOVWF       _State+0 
L_Menu2548:
;FirmV_0_7_0.c,2285 :: 		if((Events.Keys.b2==1)&&(OpenSoftStartTime<255))
	BTFSS       _Events+0, 2 
	GOTO        L_Menu2551
	MOVLW       255
	SUBWF       _OpenSoftStartTime+0, 0 
	BTFSC       STATUS+0, 0 
	GOTO        L_Menu2551
L__Menu2938:
;FirmV_0_7_0.c,2286 :: 		{OpenSoftStartTime=OpenSoftStartTime+1;Menu0();State=102;}
	INCF        _OpenSoftStartTime+0, 1 
	CALL        _Menu0+0, 0
	MOVLW       102
	MOVWF       _State+0 
L_Menu2551:
;FirmV_0_7_0.c,2287 :: 		}
L_Menu2545:
;FirmV_0_7_0.c,2290 :: 		if(MenuPointer==6)
	MOVF        _MenuPointer+0, 0 
	XORLW       6
	BTFSS       STATUS+0, 2 
	GOTO        L_Menu2552
;FirmV_0_7_0.c,2291 :: 		{ if((Events.Keys.b0==1)&&(OpenSoftStopTime>0))
	BTFSS       _Events+0, 0 
	GOTO        L_Menu2555
	MOVF        _OpenSoftStopTime+0, 0 
	SUBLW       0
	BTFSC       STATUS+0, 0 
	GOTO        L_Menu2555
L__Menu2937:
;FirmV_0_7_0.c,2292 :: 		{OpenSoftStopTime=OpenSoftStopTime-1;Menu0();State=102;}
	DECF        _OpenSoftStopTime+0, 1 
	CALL        _Menu0+0, 0
	MOVLW       102
	MOVWF       _State+0 
L_Menu2555:
;FirmV_0_7_0.c,2293 :: 		if((Events.Keys.b2==1)&&(OpenSoftStopTime<255))
	BTFSS       _Events+0, 2 
	GOTO        L_Menu2558
	MOVLW       255
	SUBWF       _OpenSoftStopTime+0, 0 
	BTFSC       STATUS+0, 0 
	GOTO        L_Menu2558
L__Menu2936:
;FirmV_0_7_0.c,2294 :: 		{OpenSoftStopTime=OpenSoftStopTime+1;Menu0();State=102;}
	INCF        _OpenSoftStopTime+0, 1 
	CALL        _Menu0+0, 0
	MOVLW       102
	MOVWF       _State+0 
L_Menu2558:
;FirmV_0_7_0.c,2295 :: 		}
L_Menu2552:
;FirmV_0_7_0.c,2298 :: 		if(MenuPointer==7)
	MOVF        _MenuPointer+0, 0 
	XORLW       7
	BTFSS       STATUS+0, 2 
	GOTO        L_Menu2559
;FirmV_0_7_0.c,2299 :: 		{ if((Events.Keys.b0==1)&&(CloseSoftStartTime>0))
	BTFSS       _Events+0, 0 
	GOTO        L_Menu2562
	MOVF        _CloseSoftStartTime+0, 0 
	SUBLW       0
	BTFSC       STATUS+0, 0 
	GOTO        L_Menu2562
L__Menu2935:
;FirmV_0_7_0.c,2300 :: 		{CloseSoftStartTime=CloseSoftStartTime-1;Menu0();State=102;}
	DECF        _CloseSoftStartTime+0, 1 
	CALL        _Menu0+0, 0
	MOVLW       102
	MOVWF       _State+0 
L_Menu2562:
;FirmV_0_7_0.c,2301 :: 		if((Events.Keys.b2==1)&&(CloseSoftStartTime<255))
	BTFSS       _Events+0, 2 
	GOTO        L_Menu2565
	MOVLW       255
	SUBWF       _CloseSoftStartTime+0, 0 
	BTFSC       STATUS+0, 0 
	GOTO        L_Menu2565
L__Menu2934:
;FirmV_0_7_0.c,2302 :: 		{CloseSoftStartTime=CloseSoftStartTime+1;Menu0();State=102;}
	INCF        _CloseSoftStartTime+0, 1 
	CALL        _Menu0+0, 0
	MOVLW       102
	MOVWF       _State+0 
L_Menu2565:
;FirmV_0_7_0.c,2303 :: 		}
L_Menu2559:
;FirmV_0_7_0.c,2306 :: 		if(MenuPointer==8)
	MOVF        _MenuPointer+0, 0 
	XORLW       8
	BTFSS       STATUS+0, 2 
	GOTO        L_Menu2566
;FirmV_0_7_0.c,2307 :: 		{ if((Events.Keys.b0==1)&&(CloseSoftStopTime>0))
	BTFSS       _Events+0, 0 
	GOTO        L_Menu2569
	MOVF        _CloseSoftStopTime+0, 0 
	SUBLW       0
	BTFSC       STATUS+0, 0 
	GOTO        L_Menu2569
L__Menu2933:
;FirmV_0_7_0.c,2308 :: 		{CloseSoftStopTime=CloseSoftStopTime-1;Menu0();State=102;}
	DECF        _CloseSoftStopTime+0, 1 
	CALL        _Menu0+0, 0
	MOVLW       102
	MOVWF       _State+0 
L_Menu2569:
;FirmV_0_7_0.c,2309 :: 		if((Events.Keys.b2==1)&&(CloseSoftStopTime<255))
	BTFSS       _Events+0, 2 
	GOTO        L_Menu2572
	MOVLW       255
	SUBWF       _CloseSoftStopTime+0, 0 
	BTFSC       STATUS+0, 0 
	GOTO        L_Menu2572
L__Menu2932:
;FirmV_0_7_0.c,2310 :: 		{CloseSoftStopTime=CloseSoftStopTime+1;Menu0();State=102;}
	INCF        _CloseSoftStopTime+0, 1 
	CALL        _Menu0+0, 0
	MOVLW       102
	MOVWF       _State+0 
L_Menu2572:
;FirmV_0_7_0.c,2311 :: 		}
L_Menu2566:
;FirmV_0_7_0.c,2315 :: 		if(MenuPointer==9)
	MOVF        _MenuPointer+0, 0 
	XORLW       9
	BTFSS       STATUS+0, 2 
	GOTO        L_Menu2573
;FirmV_0_7_0.c,2316 :: 		{ if((Events.Keys.b0==1)&&(OverloadSens1>0))
	BTFSS       _Events+0, 0 
	GOTO        L_Menu2576
	MOVF        _OverloadSens1+0, 0 
	SUBLW       0
	BTFSC       STATUS+0, 0 
	GOTO        L_Menu2576
L__Menu2931:
;FirmV_0_7_0.c,2317 :: 		{OverloadSens1=OverloadSens1-1;Menu0();State=102;}
	DECF        _OverloadSens1+0, 1 
	CALL        _Menu0+0, 0
	MOVLW       102
	MOVWF       _State+0 
L_Menu2576:
;FirmV_0_7_0.c,2318 :: 		if((Events.Keys.b2==1)&&(OverloadSens1<15))
	BTFSS       _Events+0, 2 
	GOTO        L_Menu2579
	MOVLW       15
	SUBWF       _OverloadSens1+0, 0 
	BTFSC       STATUS+0, 0 
	GOTO        L_Menu2579
L__Menu2930:
;FirmV_0_7_0.c,2319 :: 		{OverloadSens1=OverloadSens1+1;Menu0();State=102;}
	INCF        _OverloadSens1+0, 1 
	CALL        _Menu0+0, 0
	MOVLW       102
	MOVWF       _State+0 
L_Menu2579:
;FirmV_0_7_0.c,2320 :: 		}
L_Menu2573:
;FirmV_0_7_0.c,2324 :: 		if(MenuPointer==10)
	MOVF        _MenuPointer+0, 0 
	XORLW       10
	BTFSS       STATUS+0, 2 
	GOTO        L_Menu2580
;FirmV_0_7_0.c,2325 :: 		{ if((Events.Keys.b0==1)&&(OverloadSens2>0))
	BTFSS       _Events+0, 0 
	GOTO        L_Menu2583
	MOVF        _OverloadSens2+0, 0 
	SUBLW       0
	BTFSC       STATUS+0, 0 
	GOTO        L_Menu2583
L__Menu2929:
;FirmV_0_7_0.c,2326 :: 		{OverloadSens2=OverloadSens2-1;Menu0();State=102;}
	DECF        _OverloadSens2+0, 1 
	CALL        _Menu0+0, 0
	MOVLW       102
	MOVWF       _State+0 
L_Menu2583:
;FirmV_0_7_0.c,2327 :: 		if((Events.Keys.b2==1)&&(OverloadSens2<15))
	BTFSS       _Events+0, 2 
	GOTO        L_Menu2586
	MOVLW       15
	SUBWF       _OverloadSens2+0, 0 
	BTFSC       STATUS+0, 0 
	GOTO        L_Menu2586
L__Menu2928:
;FirmV_0_7_0.c,2328 :: 		{OverloadSens2=OverloadSens2+1;Menu0();State=102;}
	INCF        _OverloadSens2+0, 1 
	CALL        _Menu0+0, 0
	MOVLW       102
	MOVWF       _State+0 
L_Menu2586:
;FirmV_0_7_0.c,2329 :: 		}
L_Menu2580:
;FirmV_0_7_0.c,2332 :: 		if(MenuPointer==11)
	MOVF        _MenuPointer+0, 0 
	XORLW       11
	BTFSS       STATUS+0, 2 
	GOTO        L_Menu2587
;FirmV_0_7_0.c,2333 :: 		{ if((Events.Keys.b0==1)&&(OverloadTime1>0))
	BTFSS       _Events+0, 0 
	GOTO        L_Menu2590
	MOVF        _OverloadTime1+0, 0 
	SUBLW       0
	BTFSC       STATUS+0, 0 
	GOTO        L_Menu2590
L__Menu2927:
;FirmV_0_7_0.c,2334 :: 		{OverloadTime1=OverloadTime1-1;Menu0();State=102;}
	DECF        _OverloadTime1+0, 1 
	CALL        _Menu0+0, 0
	MOVLW       102
	MOVWF       _State+0 
L_Menu2590:
;FirmV_0_7_0.c,2335 :: 		if((Events.Keys.b2==1)&&(OverloadTime1<10))
	BTFSS       _Events+0, 2 
	GOTO        L_Menu2593
	MOVLW       10
	SUBWF       _OverloadTime1+0, 0 
	BTFSC       STATUS+0, 0 
	GOTO        L_Menu2593
L__Menu2926:
;FirmV_0_7_0.c,2336 :: 		{OverloadTime1=OverloadTime1+1;Menu0();State=102;}
	INCF        _OverloadTime1+0, 1 
	CALL        _Menu0+0, 0
	MOVLW       102
	MOVWF       _State+0 
L_Menu2593:
;FirmV_0_7_0.c,2337 :: 		}
L_Menu2587:
;FirmV_0_7_0.c,2341 :: 		if(MenuPointer==12)
	MOVF        _MenuPointer+0, 0 
	XORLW       12
	BTFSS       STATUS+0, 2 
	GOTO        L_Menu2594
;FirmV_0_7_0.c,2342 :: 		{ if((Events.Keys.b0==1)&&(OverloadTime2>0))
	BTFSS       _Events+0, 0 
	GOTO        L_Menu2597
	MOVF        _OverloadTime2+0, 0 
	SUBLW       0
	BTFSC       STATUS+0, 0 
	GOTO        L_Menu2597
L__Menu2925:
;FirmV_0_7_0.c,2343 :: 		{OverloadTime2=OverloadTime2-1;Menu0();State=102;}
	DECF        _OverloadTime2+0, 1 
	CALL        _Menu0+0, 0
	MOVLW       102
	MOVWF       _State+0 
L_Menu2597:
;FirmV_0_7_0.c,2344 :: 		if((Events.Keys.b2==1)&&(OverloadTime2<10))
	BTFSS       _Events+0, 2 
	GOTO        L_Menu2600
	MOVLW       10
	SUBWF       _OverloadTime2+0, 0 
	BTFSC       STATUS+0, 0 
	GOTO        L_Menu2600
L__Menu2924:
;FirmV_0_7_0.c,2345 :: 		{OverloadTime2=OverloadTime2+1;Menu0();State=102;}
	INCF        _OverloadTime2+0, 1 
	CALL        _Menu0+0, 0
	MOVLW       102
	MOVWF       _State+0 
L_Menu2600:
;FirmV_0_7_0.c,2346 :: 		}
L_Menu2594:
;FirmV_0_7_0.c,2349 :: 		if(MenuPointer==13)
	MOVF        _MenuPointer+0, 0 
	XORLW       13
	BTFSS       STATUS+0, 2 
	GOTO        L_Menu2601
;FirmV_0_7_0.c,2350 :: 		{ if((Events.Keys.b0==1)&&(ActionTimeDiff>0))
	BTFSS       _Events+0, 0 
	GOTO        L_Menu2604
	MOVF        _ActionTimeDiff+0, 0 
	SUBLW       0
	BTFSC       STATUS+0, 0 
	GOTO        L_Menu2604
L__Menu2923:
;FirmV_0_7_0.c,2351 :: 		{ActionTimeDiff=ActionTimeDiff-1;Menu0();State=102;}
	DECF        _ActionTimeDiff+0, 1 
	CALL        _Menu0+0, 0
	MOVLW       102
	MOVWF       _State+0 
L_Menu2604:
;FirmV_0_7_0.c,2352 :: 		if((Events.Keys.b2==1)&&(ActionTimeDiff<255))
	BTFSS       _Events+0, 2 
	GOTO        L_Menu2607
	MOVLW       255
	SUBWF       _ActionTimeDiff+0, 0 
	BTFSC       STATUS+0, 0 
	GOTO        L_Menu2607
L__Menu2922:
;FirmV_0_7_0.c,2353 :: 		{ActionTimeDiff=ActionTimeDiff+1;Menu0();State=102;}
	INCF        _ActionTimeDiff+0, 1 
	CALL        _Menu0+0, 0
	MOVLW       102
	MOVWF       _State+0 
L_Menu2607:
;FirmV_0_7_0.c,2354 :: 		}
L_Menu2601:
;FirmV_0_7_0.c,2357 :: 		if(MenuPointer==14)
	MOVF        _MenuPointer+0, 0 
	XORLW       14
	BTFSS       STATUS+0, 2 
	GOTO        L_Menu2608
;FirmV_0_7_0.c,2358 :: 		{ if((Events.Keys.b0==1)&&(AutoCloseTime>0))
	BTFSS       _Events+0, 0 
	GOTO        L_Menu2611
	MOVLW       0
	MOVWF       R0 
	MOVF        _AutoCloseTime+1, 0 
	SUBWF       R0, 0 
	BTFSS       STATUS+0, 2 
	GOTO        L__Menu21043
	MOVF        _AutoCloseTime+0, 0 
	SUBLW       0
L__Menu21043:
	BTFSC       STATUS+0, 0 
	GOTO        L_Menu2611
L__Menu2921:
;FirmV_0_7_0.c,2359 :: 		{AutoCloseTime=AutoCloseTime-1;Menu0();State=102;}
	MOVLW       1
	SUBWF       _AutoCloseTime+0, 1 
	MOVLW       0
	SUBWFB      _AutoCloseTime+1, 1 
	CALL        _Menu0+0, 0
	MOVLW       102
	MOVWF       _State+0 
L_Menu2611:
;FirmV_0_7_0.c,2360 :: 		if((Events.Keys.b2==1)&&(AutoCloseTime<65000))
	BTFSS       _Events+0, 2 
	GOTO        L_Menu2614
	MOVLW       253
	SUBWF       _AutoCloseTime+1, 0 
	BTFSS       STATUS+0, 2 
	GOTO        L__Menu21044
	MOVLW       232
	SUBWF       _AutoCloseTime+0, 0 
L__Menu21044:
	BTFSC       STATUS+0, 0 
	GOTO        L_Menu2614
L__Menu2920:
;FirmV_0_7_0.c,2361 :: 		{AutoCloseTime=AutoCloseTime+1;Menu0();State=102;}
	INFSNZ      _AutoCloseTime+0, 1 
	INCF        _AutoCloseTime+1, 1 
	CALL        _Menu0+0, 0
	MOVLW       102
	MOVWF       _State+0 
L_Menu2614:
;FirmV_0_7_0.c,2362 :: 		}
L_Menu2608:
;FirmV_0_7_0.c,2365 :: 		if(MenuPointer==15)
	MOVF        _MenuPointer+0, 0 
	XORLW       15
	BTFSS       STATUS+0, 2 
	GOTO        L_Menu2615
;FirmV_0_7_0.c,2367 :: 		State=0;
	CLRF        _State+0 
;FirmV_0_7_0.c,2368 :: 		memcpy(LCDLine1,Sipher,16);
	MOVLW       _LCDLine1+0
	MOVWF       FARG_memcpy_d1+0 
	MOVLW       hi_addr(_LCDLine1+0)
	MOVWF       FARG_memcpy_d1+1 
	MOVLW       _Sipher+0
	MOVWF       FARG_memcpy_s1+0 
	MOVLW       hi_addr(_Sipher+0)
	MOVWF       FARG_memcpy_s1+1 
	MOVLW       16
	MOVWF       FARG_memcpy_n+0 
	MOVLW       0
	MOVWF       FARG_memcpy_n+1 
	CALL        _memcpy+0, 0
;FirmV_0_7_0.c,2369 :: 		LCDLines=1;
	MOVLW       1
	MOVWF       _LCDLines+0 
;FirmV_0_7_0.c,2370 :: 		LCDFlash=0; LCDFlashFlag=0;
	CLRF        _LCDFlash+0 
	CLRF        _LCDFlashFlag+0 
;FirmV_0_7_0.c,2371 :: 		LCDUpdateFlag=1;
	MOVLW       1
	MOVWF       _LCDUpdateFlag+0 
;FirmV_0_7_0.c,2372 :: 		LongBuzzFlag=1;
	MOVLW       1
	MOVWF       _LongBuzzFlag+0 
;FirmV_0_7_0.c,2373 :: 		FactorySettings();
	CALL        _FactorySettings+0, 0
;FirmV_0_7_0.c,2374 :: 		SaveConfigs();
	CALL        _SaveConfigs+0, 0
;FirmV_0_7_0.c,2375 :: 		}
L_Menu2615:
;FirmV_0_7_0.c,2378 :: 		if(MenuPointer==16)
	MOVF        _MenuPointer+0, 0 
	XORLW       16
	BTFSS       STATUS+0, 2 
	GOTO        L_Menu2616
;FirmV_0_7_0.c,2379 :: 		{ if((Events.Keys.b0==1)&&(OpenPhEnable>0))
	BTFSS       _Events+0, 0 
	GOTO        L_Menu2619
	MOVF        _OpenPhEnable+0, 0 
	SUBLW       0
	BTFSC       STATUS+0, 0 
	GOTO        L_Menu2619
L__Menu2919:
;FirmV_0_7_0.c,2380 :: 		{OpenPhEnable=OpenPhEnable-1;Menu0();State=102;}
	DECF        _OpenPhEnable+0, 1 
	CALL        _Menu0+0, 0
	MOVLW       102
	MOVWF       _State+0 
L_Menu2619:
;FirmV_0_7_0.c,2381 :: 		if((Events.Keys.b2==1)&&(OpenPhEnable<1))
	BTFSS       _Events+0, 2 
	GOTO        L_Menu2622
	MOVLW       1
	SUBWF       _OpenPhEnable+0, 0 
	BTFSC       STATUS+0, 0 
	GOTO        L_Menu2622
L__Menu2918:
;FirmV_0_7_0.c,2382 :: 		{OpenPhEnable=OpenPhEnable+1;Menu0();State=102;}
	INCF        _OpenPhEnable+0, 1 
	CALL        _Menu0+0, 0
	MOVLW       102
	MOVWF       _State+0 
L_Menu2622:
;FirmV_0_7_0.c,2383 :: 		}
L_Menu2616:
;FirmV_0_7_0.c,2387 :: 		if(MenuPointer==17)
	MOVF        _MenuPointer+0, 0 
	XORLW       17
	BTFSS       STATUS+0, 2 
	GOTO        L_Menu2623
;FirmV_0_7_0.c,2388 :: 		{ if((Events.Keys.b0==1)&&(LimiterEnable>0))
	BTFSS       _Events+0, 0 
	GOTO        L_Menu2626
	MOVF        _LimiterEnable+0, 0 
	SUBLW       0
	BTFSC       STATUS+0, 0 
	GOTO        L_Menu2626
L__Menu2917:
;FirmV_0_7_0.c,2389 :: 		{LimiterEnable=LimiterEnable-1;Menu0();State=102;}
	DECF        _LimiterEnable+0, 1 
	CALL        _Menu0+0, 0
	MOVLW       102
	MOVWF       _State+0 
L_Menu2626:
;FirmV_0_7_0.c,2390 :: 		if((Events.Keys.b2==1)&&(LimiterEnable<1))
	BTFSS       _Events+0, 2 
	GOTO        L_Menu2629
	MOVLW       1
	SUBWF       _LimiterEnable+0, 0 
	BTFSC       STATUS+0, 0 
	GOTO        L_Menu2629
L__Menu2916:
;FirmV_0_7_0.c,2391 :: 		{LimiterEnable=LimiterEnable+1;Menu0();State=102;}
	INCF        _LimiterEnable+0, 1 
	CALL        _Menu0+0, 0
	MOVLW       102
	MOVWF       _State+0 
L_Menu2629:
;FirmV_0_7_0.c,2392 :: 		}
L_Menu2623:
;FirmV_0_7_0.c,2395 :: 		if(MenuPointer==18)
	MOVF        _MenuPointer+0, 0 
	XORLW       18
	BTFSS       STATUS+0, 2 
	GOTO        L_Menu2630
;FirmV_0_7_0.c,2396 :: 		{ if((Events.Keys.b0==1)&&(LockEnable>0))
	BTFSS       _Events+0, 0 
	GOTO        L_Menu2633
	MOVF        _LockEnable+0, 0 
	SUBLW       0
	BTFSC       STATUS+0, 0 
	GOTO        L_Menu2633
L__Menu2915:
;FirmV_0_7_0.c,2397 :: 		{LockEnable=LockEnable-1;Menu0();State=102;}
	DECF        _LockEnable+0, 1 
	CALL        _Menu0+0, 0
	MOVLW       102
	MOVWF       _State+0 
L_Menu2633:
;FirmV_0_7_0.c,2398 :: 		if((Events.Keys.b2==1)&&(LockEnable<1))
	BTFSS       _Events+0, 2 
	GOTO        L_Menu2636
	MOVLW       1
	SUBWF       _LockEnable+0, 0 
	BTFSC       STATUS+0, 0 
	GOTO        L_Menu2636
L__Menu2914:
;FirmV_0_7_0.c,2399 :: 		{LockEnable=LockEnable+1;Menu0();State=102;}
	INCF        _LockEnable+0, 1 
	CALL        _Menu0+0, 0
	MOVLW       102
	MOVWF       _State+0 
L_Menu2636:
;FirmV_0_7_0.c,2400 :: 		}
L_Menu2630:
;FirmV_0_7_0.c,2403 :: 		if(MenuPointer==19)
	MOVF        _MenuPointer+0, 0 
	XORLW       19
	BTFSS       STATUS+0, 2 
	GOTO        L_Menu2637
;FirmV_0_7_0.c,2404 :: 		{ if((Events.Keys.b0==1)&&(LockForce>0))
	BTFSS       _Events+0, 0 
	GOTO        L_Menu2640
	MOVF        _LockForce+0, 0 
	SUBLW       0
	BTFSC       STATUS+0, 0 
	GOTO        L_Menu2640
L__Menu2913:
;FirmV_0_7_0.c,2405 :: 		{LockForce=LockForce-1;Menu0();State=102;}
	DECF        _LockForce+0, 1 
	CALL        _Menu0+0, 0
	MOVLW       102
	MOVWF       _State+0 
L_Menu2640:
;FirmV_0_7_0.c,2406 :: 		if((Events.Keys.b2==1)&&(LockForce<1))
	BTFSS       _Events+0, 2 
	GOTO        L_Menu2643
	MOVLW       1
	SUBWF       _LockForce+0, 0 
	BTFSC       STATUS+0, 0 
	GOTO        L_Menu2643
L__Menu2912:
;FirmV_0_7_0.c,2407 :: 		{LockForce=LockForce+1;Menu0();State=102;}
	INCF        _LockForce+0, 1 
	CALL        _Menu0+0, 0
	MOVLW       102
	MOVWF       _State+0 
L_Menu2643:
;FirmV_0_7_0.c,2408 :: 		}
L_Menu2637:
;FirmV_0_7_0.c,2411 :: 		if(MenuPointer==20)
	MOVF        _MenuPointer+0, 0 
	XORLW       20
	BTFSS       STATUS+0, 2 
	GOTO        L_Menu2644
;FirmV_0_7_0.c,2412 :: 		{ if((Events.Keys.b0==1)&&(CloseAfterPass>0))
	BTFSS       _Events+0, 0 
	GOTO        L_Menu2647
	MOVF        _CloseAfterPass+0, 0 
	SUBLW       0
	BTFSC       STATUS+0, 0 
	GOTO        L_Menu2647
L__Menu2911:
;FirmV_0_7_0.c,2413 :: 		{CloseAfterPass=CloseAfterPass-1;if(CloseAfterPass==9) CloseAfterPass=0;Menu0();State=102;}
	DECF        _CloseAfterPass+0, 1 
	MOVF        _CloseAfterPass+0, 0 
	XORLW       9
	BTFSS       STATUS+0, 2 
	GOTO        L_Menu2648
	CLRF        _CloseAfterPass+0 
L_Menu2648:
	CALL        _Menu0+0, 0
	MOVLW       102
	MOVWF       _State+0 
L_Menu2647:
;FirmV_0_7_0.c,2414 :: 		if((Events.Keys.b2==1)&&(CloseAfterPass<255))
	BTFSS       _Events+0, 2 
	GOTO        L_Menu2651
	MOVLW       255
	SUBWF       _CloseAfterPass+0, 0 
	BTFSC       STATUS+0, 0 
	GOTO        L_Menu2651
L__Menu2910:
;FirmV_0_7_0.c,2415 :: 		{CloseAfterPass=CloseAfterPass+1;if(CloseAfterPass==1) CloseAfterPass=10;Menu0();State=102;}
	INCF        _CloseAfterPass+0, 1 
	MOVF        _CloseAfterPass+0, 0 
	XORLW       1
	BTFSS       STATUS+0, 2 
	GOTO        L_Menu2652
	MOVLW       10
	MOVWF       _CloseAfterPass+0 
L_Menu2652:
	CALL        _Menu0+0, 0
	MOVLW       102
	MOVWF       _State+0 
L_Menu2651:
;FirmV_0_7_0.c,2416 :: 		}
L_Menu2644:
;FirmV_0_7_0.c,2419 :: 		if(MenuPointer==21)
	MOVF        _MenuPointer+0, 0 
	XORLW       21
	BTFSS       STATUS+0, 2 
	GOTO        L_Menu2653
;FirmV_0_7_0.c,2421 :: 		State=103;
	MOVLW       103
	MOVWF       _State+0 
;FirmV_0_7_0.c,2422 :: 		memcpy(LCDLine1,Sipher,16);
	MOVLW       _LCDLine1+0
	MOVWF       FARG_memcpy_d1+0 
	MOVLW       hi_addr(_LCDLine1+0)
	MOVWF       FARG_memcpy_d1+1 
	MOVLW       _Sipher+0
	MOVWF       FARG_memcpy_s1+0 
	MOVLW       hi_addr(_Sipher+0)
	MOVWF       FARG_memcpy_s1+1 
	MOVLW       16
	MOVWF       FARG_memcpy_n+0 
	MOVLW       0
	MOVWF       FARG_memcpy_n+1 
	CALL        _memcpy+0, 0
;FirmV_0_7_0.c,2423 :: 		LCDFlash=0;
	CLRF        _LCDFlash+0 
;FirmV_0_7_0.c,2424 :: 		LCDLines=1;
	MOVLW       1
	MOVWF       _LCDLines+0 
;FirmV_0_7_0.c,2425 :: 		LCDUpdateFlag=1;
	MOVLW       1
	MOVWF       _LCDUpdateFlag+0 
;FirmV_0_7_0.c,2426 :: 		LongBuzzFlag=1;
	MOVLW       1
	MOVWF       _LongBuzzFlag+0 
;FirmV_0_7_0.c,2427 :: 		}
L_Menu2653:
;FirmV_0_7_0.c,2430 :: 		if(MenuPointer==22)
	MOVF        _MenuPointer+0, 0 
	XORLW       22
	BTFSS       STATUS+0, 2 
	GOTO        L_Menu2654
;FirmV_0_7_0.c,2432 :: 		State=0;
	CLRF        _State+0 
;FirmV_0_7_0.c,2433 :: 		memcpy(LCDLine1,Sipher,16);
	MOVLW       _LCDLine1+0
	MOVWF       FARG_memcpy_d1+0 
	MOVLW       hi_addr(_LCDLine1+0)
	MOVWF       FARG_memcpy_d1+1 
	MOVLW       _Sipher+0
	MOVWF       FARG_memcpy_s1+0 
	MOVLW       hi_addr(_Sipher+0)
	MOVWF       FARG_memcpy_s1+1 
	MOVLW       16
	MOVWF       FARG_memcpy_n+0 
	MOVLW       0
	MOVWF       FARG_memcpy_n+1 
	CALL        _memcpy+0, 0
;FirmV_0_7_0.c,2434 :: 		LCDFlash=0;
	CLRF        _LCDFlash+0 
;FirmV_0_7_0.c,2435 :: 		LCDLines=1;
	MOVLW       1
	MOVWF       _LCDLines+0 
;FirmV_0_7_0.c,2436 :: 		LCDUpdateFlag=1;
	MOVLW       1
	MOVWF       _LCDUpdateFlag+0 
;FirmV_0_7_0.c,2437 :: 		LoadConfigs();
	CALL        _LoadConfigs+0, 0
;FirmV_0_7_0.c,2438 :: 		LongBuzzFlag=1;
	MOVLW       1
	MOVWF       _LongBuzzFlag+0 
;FirmV_0_7_0.c,2439 :: 		}
L_Menu2654:
;FirmV_0_7_0.c,2440 :: 		}
L_end_Menu2:
	RETURN      0
; end of _Menu2

_Menu3:

;FirmV_0_7_0.c,2452 :: 		void Menu3()
;FirmV_0_7_0.c,2454 :: 		SaveConfigs();
	CALL        _SaveConfigs+0, 0
;FirmV_0_7_0.c,2455 :: 		State=0;
	CLRF        _State+0 
;FirmV_0_7_0.c,2456 :: 		}
L_end_Menu3:
	RETURN      0
; end of _Menu3

_LearnAuto:

;FirmV_0_7_0.c,2470 :: 		void LearnAuto()
;FirmV_0_7_0.c,2476 :: 		switch(LearnPhase)
	GOTO        L_LearnAuto655
;FirmV_0_7_0.c,2478 :: 		case 0:
L_LearnAuto657:
;FirmV_0_7_0.c,2479 :: 		Flasher=1;
	BSF         PORTD+0, 7 
;FirmV_0_7_0.c,2481 :: 		if(Events.Remote.b0==1) {DoorNo=2; LearnPhase=LearnPhase+1;BuzzFlag=1;} if(Events.Remote.b1==1) {DoorNo=1;LearnPhase=3;BuzzFlag=1;}
	BTFSS       _Events+4, 0 
	GOTO        L_LearnAuto658
	MOVLW       2
	MOVWF       LearnAuto_DoorNo_L0+0 
	INCF        _LearnPhase+0, 1 
	MOVLW       1
	MOVWF       _BuzzFlag+0 
L_LearnAuto658:
	BTFSS       _Events+4, 1 
	GOTO        L_LearnAuto659
	MOVLW       1
	MOVWF       LearnAuto_DoorNo_L0+0 
	MOVLW       3
	MOVWF       _LearnPhase+0 
	MOVLW       1
	MOVWF       _BuzzFlag+0 
L_LearnAuto659:
;FirmV_0_7_0.c,2482 :: 		OverloadCheckFlag1=0;OverloadCheckFlag2=0;
	CLRF        _OverloadCheckFlag1+0 
	CLRF        _OverloadCheckFlag2+0 
;FirmV_0_7_0.c,2483 :: 		break;
	GOTO        L_LearnAuto656
;FirmV_0_7_0.c,2485 :: 		case 1: //Start D2 and enable overload sensing after 3s
L_LearnAuto660:
;FirmV_0_7_0.c,2486 :: 		StartMotor(2,_Close);AddTask(ms500+6,21);LearnPhase=LearnPhase+1;
	MOVLW       2
	MOVWF       FARG_StartMotor_Mx+0 
	CLRF        FARG_StartMotor_Dir+0 
	CALL        _StartMotor+0, 0
	MOVLW       6
	ADDWF       _ms500+0, 0 
	MOVWF       FARG_AddTask_OccTime+0 
	MOVLW       0
	ADDWFC      _ms500+1, 0 
	MOVWF       FARG_AddTask_OccTime+1 
	MOVLW       0
	ADDWFC      _ms500+2, 0 
	MOVWF       FARG_AddTask_OccTime+2 
	MOVLW       0
	ADDWFC      _ms500+3, 0 
	MOVWF       FARG_AddTask_OccTime+3 
	MOVLW       21
	MOVWF       FARG_AddTask_tcode+0 
	CALL        _AddTask+0, 0
	INCF        _LearnPhase+0, 1 
;FirmV_0_7_0.c,2487 :: 		break;
	GOTO        L_LearnAuto656
;FirmV_0_7_0.c,2489 :: 		case 2: //Check if D2 reaches end of its course
L_LearnAuto661:
;FirmV_0_7_0.c,2490 :: 		if((Events.Overload.b1==1)&&(OverloadCheckFlag2==1)){OverloadCheckFlag2=0;StopMotor(2);LearnPhase=LearnPhase+1;}
	BTFSS       _Events+5, 1 
	GOTO        L_LearnAuto664
	MOVF        _OverloadCheckFlag2+0, 0 
	XORLW       1
	BTFSS       STATUS+0, 2 
	GOTO        L_LearnAuto664
L__LearnAuto955:
	CLRF        _OverloadCheckFlag2+0 
	MOVLW       2
	MOVWF       FARG_StopMotor_Mx+0 
	CALL        _StopMotor+0, 0
	INCF        _LearnPhase+0, 1 
L_LearnAuto664:
;FirmV_0_7_0.c,2491 :: 		if(CheckTask(21))OverloadCheckFlag2=1;
	MOVLW       21
	MOVWF       FARG_CheckTask_TaskCode+0 
	CALL        _CheckTask+0, 0
	MOVF        R0, 1 
	BTFSC       STATUS+0, 2 
	GOTO        L_LearnAuto665
	MOVLW       1
	MOVWF       _OverloadCheckFlag2+0 
L_LearnAuto665:
;FirmV_0_7_0.c,2492 :: 		break;
	GOTO        L_LearnAuto656
;FirmV_0_7_0.c,2494 :: 		case 3: //Start D1 and enable overload sensin after 3 s
L_LearnAuto666:
;FirmV_0_7_0.c,2495 :: 		StartMotor(1,_Close);AddTask(ms500+6,20);LearnPhase=LearnPhase+1;;
	MOVLW       1
	MOVWF       FARG_StartMotor_Mx+0 
	CLRF        FARG_StartMotor_Dir+0 
	CALL        _StartMotor+0, 0
	MOVLW       6
	ADDWF       _ms500+0, 0 
	MOVWF       FARG_AddTask_OccTime+0 
	MOVLW       0
	ADDWFC      _ms500+1, 0 
	MOVWF       FARG_AddTask_OccTime+1 
	MOVLW       0
	ADDWFC      _ms500+2, 0 
	MOVWF       FARG_AddTask_OccTime+2 
	MOVLW       0
	ADDWFC      _ms500+3, 0 
	MOVWF       FARG_AddTask_OccTime+3 
	MOVLW       20
	MOVWF       FARG_AddTask_tcode+0 
	CALL        _AddTask+0, 0
	INCF        _LearnPhase+0, 1 
;FirmV_0_7_0.c,2497 :: 		case 4: //Check if D1 reaches end of its course
L_LearnAuto667:
;FirmV_0_7_0.c,2498 :: 		if((Events.Overload.b0==1)&&(OverloadCheckFlag1==1)){OverloadCheckFlag1=0;StopMotor(1);LearnPhase=LearnPhase+1;}
	BTFSS       _Events+5, 0 
	GOTO        L_LearnAuto670
	MOVF        _OverloadCheckFlag1+0, 0 
	XORLW       1
	BTFSS       STATUS+0, 2 
	GOTO        L_LearnAuto670
L__LearnAuto954:
	CLRF        _OverloadCheckFlag1+0 
	MOVLW       1
	MOVWF       FARG_StopMotor_Mx+0 
	CALL        _StopMotor+0, 0
	INCF        _LearnPhase+0, 1 
L_LearnAuto670:
;FirmV_0_7_0.c,2499 :: 		if(CheckTask(20))OverloadCheckFlag1=1;
	MOVLW       20
	MOVWF       FARG_CheckTask_TaskCode+0 
	CALL        _CheckTask+0, 0
	MOVF        R0, 1 
	BTFSC       STATUS+0, 2 
	GOTO        L_LearnAuto671
	MOVLW       1
	MOVWF       _OverloadCheckFlag1+0 
L_LearnAuto671:
;FirmV_0_7_0.c,2500 :: 		break;
	GOTO        L_LearnAuto656
;FirmV_0_7_0.c,2502 :: 		case 5: //Start D1 for opening and save start time and enable overload sensing after 3s
L_LearnAuto672:
;FirmV_0_7_0.c,2503 :: 		startT=ms500;StartMotor(1,_Open);AddTask(ms500+6,20);LearnPhase=LearnPhase+1;
	MOVF        _ms500+0, 0 
	MOVWF       LearnAuto_startT_L0+0 
	MOVF        _ms500+1, 0 
	MOVWF       LearnAuto_startT_L0+1 
	MOVF        _ms500+2, 0 
	MOVWF       LearnAuto_startT_L0+2 
	MOVF        _ms500+3, 0 
	MOVWF       LearnAuto_startT_L0+3 
	MOVLW       1
	MOVWF       FARG_StartMotor_Mx+0 
	MOVLW       1
	MOVWF       FARG_StartMotor_Dir+0 
	CALL        _StartMotor+0, 0
	MOVLW       6
	ADDWF       _ms500+0, 0 
	MOVWF       FARG_AddTask_OccTime+0 
	MOVLW       0
	ADDWFC      _ms500+1, 0 
	MOVWF       FARG_AddTask_OccTime+1 
	MOVLW       0
	ADDWFC      _ms500+2, 0 
	MOVWF       FARG_AddTask_OccTime+2 
	MOVLW       0
	ADDWFC      _ms500+3, 0 
	MOVWF       FARG_AddTask_OccTime+3 
	MOVLW       20
	MOVWF       FARG_AddTask_tcode+0 
	CALL        _AddTask+0, 0
	INCF        _LearnPhase+0, 1 
;FirmV_0_7_0.c,2504 :: 		break;
	GOTO        L_LearnAuto656
;FirmV_0_7_0.c,2506 :: 		case 6: //Check if D1 reaches end of its course and save the stop time
L_LearnAuto673:
;FirmV_0_7_0.c,2507 :: 		if((Events.Overload.b0==1)&&(OverloadCheckFlag1==1)){OverloadCheckFlag1=0;StopMotor(1);if(DoorNo==1)LearnPhase=11;else LearnPhase=LearnPhase+1;stopT=ms500;RawData.D1OpenTime=(char)(stopT-startT);}
	BTFSS       _Events+5, 0 
	GOTO        L_LearnAuto676
	MOVF        _OverloadCheckFlag1+0, 0 
	XORLW       1
	BTFSS       STATUS+0, 2 
	GOTO        L_LearnAuto676
L__LearnAuto953:
	CLRF        _OverloadCheckFlag1+0 
	MOVLW       1
	MOVWF       FARG_StopMotor_Mx+0 
	CALL        _StopMotor+0, 0
	MOVF        LearnAuto_DoorNo_L0+0, 0 
	XORLW       1
	BTFSS       STATUS+0, 2 
	GOTO        L_LearnAuto677
	MOVLW       11
	MOVWF       _LearnPhase+0 
	GOTO        L_LearnAuto678
L_LearnAuto677:
	INCF        _LearnPhase+0, 1 
L_LearnAuto678:
	MOVF        LearnAuto_startT_L0+0, 0 
	SUBWF       _ms500+0, 0 
	MOVWF       R0 
	MOVF        R0, 0 
	MOVWF       LearnAuto_RawData_L0+1 
L_LearnAuto676:
;FirmV_0_7_0.c,2508 :: 		if(CheckTask(20))OverloadCheckFlag1=1;
	MOVLW       20
	MOVWF       FARG_CheckTask_TaskCode+0 
	CALL        _CheckTask+0, 0
	MOVF        R0, 1 
	BTFSC       STATUS+0, 2 
	GOTO        L_LearnAuto679
	MOVLW       1
	MOVWF       _OverloadCheckFlag1+0 
L_LearnAuto679:
;FirmV_0_7_0.c,2509 :: 		break;
	GOTO        L_LearnAuto656
;FirmV_0_7_0.c,2511 :: 		case 7: //Start D2 for opening and save start time and enable overload sensing after 3s
L_LearnAuto680:
;FirmV_0_7_0.c,2512 :: 		startT=ms500;StartMotor(2,_Open);AddTask(ms500+6,21);LearnPhase=LearnPhase+1;
	MOVF        _ms500+0, 0 
	MOVWF       LearnAuto_startT_L0+0 
	MOVF        _ms500+1, 0 
	MOVWF       LearnAuto_startT_L0+1 
	MOVF        _ms500+2, 0 
	MOVWF       LearnAuto_startT_L0+2 
	MOVF        _ms500+3, 0 
	MOVWF       LearnAuto_startT_L0+3 
	MOVLW       2
	MOVWF       FARG_StartMotor_Mx+0 
	MOVLW       1
	MOVWF       FARG_StartMotor_Dir+0 
	CALL        _StartMotor+0, 0
	MOVLW       6
	ADDWF       _ms500+0, 0 
	MOVWF       FARG_AddTask_OccTime+0 
	MOVLW       0
	ADDWFC      _ms500+1, 0 
	MOVWF       FARG_AddTask_OccTime+1 
	MOVLW       0
	ADDWFC      _ms500+2, 0 
	MOVWF       FARG_AddTask_OccTime+2 
	MOVLW       0
	ADDWFC      _ms500+3, 0 
	MOVWF       FARG_AddTask_OccTime+3 
	MOVLW       21
	MOVWF       FARG_AddTask_tcode+0 
	CALL        _AddTask+0, 0
	INCF        _LearnPhase+0, 1 
;FirmV_0_7_0.c,2513 :: 		break;
	GOTO        L_LearnAuto656
;FirmV_0_7_0.c,2515 :: 		case 8: //Check if D2 reaches end of its course and save the stop time
L_LearnAuto681:
;FirmV_0_7_0.c,2516 :: 		if((Events.Overload.b1==1)&&(OverloadCheckFlag2==1)){OverloadCheckFlag2=0;StopMotor(2);LearnPhase=LearnPhase+1;stopT=ms500;RawData.D2OpenTime=(char)(stopT-startT);}
	BTFSS       _Events+5, 1 
	GOTO        L_LearnAuto684
	MOVF        _OverloadCheckFlag2+0, 0 
	XORLW       1
	BTFSS       STATUS+0, 2 
	GOTO        L_LearnAuto684
L__LearnAuto952:
	CLRF        _OverloadCheckFlag2+0 
	MOVLW       2
	MOVWF       FARG_StopMotor_Mx+0 
	CALL        _StopMotor+0, 0
	INCF        _LearnPhase+0, 1 
	MOVF        LearnAuto_startT_L0+0, 0 
	SUBWF       _ms500+0, 0 
	MOVWF       R0 
	MOVF        R0, 0 
	MOVWF       LearnAuto_RawData_L0+3 
L_LearnAuto684:
;FirmV_0_7_0.c,2517 :: 		if(CheckTask(21))OverloadCheckFlag2=1;
	MOVLW       21
	MOVWF       FARG_CheckTask_TaskCode+0 
	CALL        _CheckTask+0, 0
	MOVF        R0, 1 
	BTFSC       STATUS+0, 2 
	GOTO        L_LearnAuto685
	MOVLW       1
	MOVWF       _OverloadCheckFlag2+0 
L_LearnAuto685:
;FirmV_0_7_0.c,2518 :: 		break;
	GOTO        L_LearnAuto656
;FirmV_0_7_0.c,2520 :: 		case 9: //Start D2 for closing and save start time and enable overload sensing after 6s
L_LearnAuto686:
;FirmV_0_7_0.c,2521 :: 		startT=ms500;StartMotor(2,_Close);AddTask(ms500+6,21);LearnPhase=LearnPhase+1;
	MOVF        _ms500+0, 0 
	MOVWF       LearnAuto_startT_L0+0 
	MOVF        _ms500+1, 0 
	MOVWF       LearnAuto_startT_L0+1 
	MOVF        _ms500+2, 0 
	MOVWF       LearnAuto_startT_L0+2 
	MOVF        _ms500+3, 0 
	MOVWF       LearnAuto_startT_L0+3 
	MOVLW       2
	MOVWF       FARG_StartMotor_Mx+0 
	CLRF        FARG_StartMotor_Dir+0 
	CALL        _StartMotor+0, 0
	MOVLW       6
	ADDWF       _ms500+0, 0 
	MOVWF       FARG_AddTask_OccTime+0 
	MOVLW       0
	ADDWFC      _ms500+1, 0 
	MOVWF       FARG_AddTask_OccTime+1 
	MOVLW       0
	ADDWFC      _ms500+2, 0 
	MOVWF       FARG_AddTask_OccTime+2 
	MOVLW       0
	ADDWFC      _ms500+3, 0 
	MOVWF       FARG_AddTask_OccTime+3 
	MOVLW       21
	MOVWF       FARG_AddTask_tcode+0 
	CALL        _AddTask+0, 0
	INCF        _LearnPhase+0, 1 
;FirmV_0_7_0.c,2522 :: 		break;
	GOTO        L_LearnAuto656
;FirmV_0_7_0.c,2524 :: 		case 10: //Check if D2 reaches end of its course and save the stop time
L_LearnAuto687:
;FirmV_0_7_0.c,2525 :: 		if((Events.Overload.b1==1)&&(OverloadCheckFlag2==1)){OverloadCheckFlag2=0;StopMotor(2);LearnPhase=LearnPhase+1;stopT=ms500;RawData.D2CloseTime=(char)(stopT-startT);}
	BTFSS       _Events+5, 1 
	GOTO        L_LearnAuto690
	MOVF        _OverloadCheckFlag2+0, 0 
	XORLW       1
	BTFSS       STATUS+0, 2 
	GOTO        L_LearnAuto690
L__LearnAuto951:
	CLRF        _OverloadCheckFlag2+0 
	MOVLW       2
	MOVWF       FARG_StopMotor_Mx+0 
	CALL        _StopMotor+0, 0
	INCF        _LearnPhase+0, 1 
	MOVF        LearnAuto_startT_L0+0, 0 
	SUBWF       _ms500+0, 0 
	MOVWF       R0 
	MOVF        R0, 0 
	MOVWF       LearnAuto_RawData_L0+2 
L_LearnAuto690:
;FirmV_0_7_0.c,2526 :: 		if(CheckTask(21))OverloadCheckFlag2=1;
	MOVLW       21
	MOVWF       FARG_CheckTask_TaskCode+0 
	CALL        _CheckTask+0, 0
	MOVF        R0, 1 
	BTFSC       STATUS+0, 2 
	GOTO        L_LearnAuto691
	MOVLW       1
	MOVWF       _OverloadCheckFlag2+0 
L_LearnAuto691:
;FirmV_0_7_0.c,2527 :: 		break;
	GOTO        L_LearnAuto656
;FirmV_0_7_0.c,2529 :: 		case 11: //Start D1 for closing and save start time and enable overload sensing after 3s
L_LearnAuto692:
;FirmV_0_7_0.c,2530 :: 		startT=ms500;StartMotor(1,_Close);AddTask(ms500+6,20);LearnPhase=LearnPhase+1;
	MOVF        _ms500+0, 0 
	MOVWF       LearnAuto_startT_L0+0 
	MOVF        _ms500+1, 0 
	MOVWF       LearnAuto_startT_L0+1 
	MOVF        _ms500+2, 0 
	MOVWF       LearnAuto_startT_L0+2 
	MOVF        _ms500+3, 0 
	MOVWF       LearnAuto_startT_L0+3 
	MOVLW       1
	MOVWF       FARG_StartMotor_Mx+0 
	CLRF        FARG_StartMotor_Dir+0 
	CALL        _StartMotor+0, 0
	MOVLW       6
	ADDWF       _ms500+0, 0 
	MOVWF       FARG_AddTask_OccTime+0 
	MOVLW       0
	ADDWFC      _ms500+1, 0 
	MOVWF       FARG_AddTask_OccTime+1 
	MOVLW       0
	ADDWFC      _ms500+2, 0 
	MOVWF       FARG_AddTask_OccTime+2 
	MOVLW       0
	ADDWFC      _ms500+3, 0 
	MOVWF       FARG_AddTask_OccTime+3 
	MOVLW       20
	MOVWF       FARG_AddTask_tcode+0 
	CALL        _AddTask+0, 0
	INCF        _LearnPhase+0, 1 
;FirmV_0_7_0.c,2531 :: 		break;
	GOTO        L_LearnAuto656
;FirmV_0_7_0.c,2533 :: 		case 12: //Check if D1 reaches end of its course and save the stop time
L_LearnAuto693:
;FirmV_0_7_0.c,2534 :: 		if((Events.Overload.b0==1)&&(OverloadCheckFlag1==1)){OverloadCheckFlag1=0;StopMotor(1);LearnPhase=LearnPhase+1;stopT=ms500;RawData.D1CloseTime=(char)(stopT-startT);}
	BTFSS       _Events+5, 0 
	GOTO        L_LearnAuto696
	MOVF        _OverloadCheckFlag1+0, 0 
	XORLW       1
	BTFSS       STATUS+0, 2 
	GOTO        L_LearnAuto696
L__LearnAuto950:
	CLRF        _OverloadCheckFlag1+0 
	MOVLW       1
	MOVWF       FARG_StopMotor_Mx+0 
	CALL        _StopMotor+0, 0
	INCF        _LearnPhase+0, 1 
	MOVF        LearnAuto_startT_L0+0, 0 
	SUBWF       _ms500+0, 0 
	MOVWF       R0 
	MOVF        R0, 0 
	MOVWF       LearnAuto_RawData_L0+0 
L_LearnAuto696:
;FirmV_0_7_0.c,2535 :: 		if(CheckTask(20))OverloadCheckFlag1=1;
	MOVLW       20
	MOVWF       FARG_CheckTask_TaskCode+0 
	CALL        _CheckTask+0, 0
	MOVF        R0, 1 
	BTFSC       STATUS+0, 2 
	GOTO        L_LearnAuto697
	MOVLW       1
	MOVWF       _OverloadCheckFlag1+0 
L_LearnAuto697:
;FirmV_0_7_0.c,2536 :: 		break;
	GOTO        L_LearnAuto656
;FirmV_0_7_0.c,2538 :: 		case 13:
L_LearnAuto698:
;FirmV_0_7_0.c,2539 :: 		AutoLearnCalculator(&RawData);
	MOVLW       LearnAuto_RawData_L0+0
	MOVWF       FARG_AutoLearnCalculator+0 
	MOVLW       hi_addr(LearnAuto_RawData_L0+0)
	MOVWF       FARG_AutoLearnCalculator+1 
	CALL        _AutoLearnCalculator+0, 0
;FirmV_0_7_0.c,2540 :: 		SaveLearnData(&RawData,DoorNo);
	MOVLW       LearnAuto_RawData_L0+0
	MOVWF       FARG_SaveLearnData+0 
	MOVLW       hi_addr(LearnAuto_RawData_L0+0)
	MOVWF       FARG_SaveLearnData+1 
	MOVF        LearnAuto_DoorNo_L0+0, 0 
	MOVWF       FARG_SaveLearnData+0 
	CALL        _SaveLearnData+0, 0
;FirmV_0_7_0.c,2541 :: 		memcpy(LCDLine1," Learn Complete ",16);
	MOVLW       _LCDLine1+0
	MOVWF       FARG_memcpy_d1+0 
	MOVLW       hi_addr(_LCDLine1+0)
	MOVWF       FARG_memcpy_d1+1 
	MOVLW       ?lstr108_FirmV_0_7_0+0
	MOVWF       FARG_memcpy_s1+0 
	MOVLW       hi_addr(?lstr108_FirmV_0_7_0+0)
	MOVWF       FARG_memcpy_s1+1 
	MOVLW       16
	MOVWF       FARG_memcpy_n+0 
	MOVLW       0
	MOVWF       FARG_memcpy_n+1 
	CALL        _memcpy+0, 0
;FirmV_0_7_0.c,2542 :: 		memcpy(LCDLine2,"     Ready      ",16);
	MOVLW       _LCDLine2+0
	MOVWF       FARG_memcpy_d1+0 
	MOVLW       hi_addr(_LCDLine2+0)
	MOVWF       FARG_memcpy_d1+1 
	MOVLW       ?lstr109_FirmV_0_7_0+0
	MOVWF       FARG_memcpy_s1+0 
	MOVLW       hi_addr(?lstr109_FirmV_0_7_0+0)
	MOVWF       FARG_memcpy_s1+1 
	MOVLW       16
	MOVWF       FARG_memcpy_n+0 
	MOVLW       0
	MOVWF       FARG_memcpy_n+1 
	CALL        _memcpy+0, 0
;FirmV_0_7_0.c,2543 :: 		LCDLines=2;
	MOVLW       2
	MOVWF       _LCDLines+0 
;FirmV_0_7_0.c,2544 :: 		LCDUpdateFlag=1;
	MOVLW       1
	MOVWF       _LCDUpdateFlag+0 
;FirmV_0_7_0.c,2545 :: 		Flasher=0;
	BCF         PORTD+0, 7 
;FirmV_0_7_0.c,2547 :: 		State=0;
	CLRF        _State+0 
;FirmV_0_7_0.c,2548 :: 		break;
	GOTO        L_LearnAuto656
;FirmV_0_7_0.c,2551 :: 		}
L_LearnAuto655:
	MOVF        _LearnPhase+0, 0 
	XORLW       0
	BTFSC       STATUS+0, 2 
	GOTO        L_LearnAuto657
	MOVF        _LearnPhase+0, 0 
	XORLW       1
	BTFSC       STATUS+0, 2 
	GOTO        L_LearnAuto660
	MOVF        _LearnPhase+0, 0 
	XORLW       2
	BTFSC       STATUS+0, 2 
	GOTO        L_LearnAuto661
	MOVF        _LearnPhase+0, 0 
	XORLW       3
	BTFSC       STATUS+0, 2 
	GOTO        L_LearnAuto666
	MOVF        _LearnPhase+0, 0 
	XORLW       4
	BTFSC       STATUS+0, 2 
	GOTO        L_LearnAuto667
	MOVF        _LearnPhase+0, 0 
	XORLW       5
	BTFSC       STATUS+0, 2 
	GOTO        L_LearnAuto672
	MOVF        _LearnPhase+0, 0 
	XORLW       6
	BTFSC       STATUS+0, 2 
	GOTO        L_LearnAuto673
	MOVF        _LearnPhase+0, 0 
	XORLW       7
	BTFSC       STATUS+0, 2 
	GOTO        L_LearnAuto680
	MOVF        _LearnPhase+0, 0 
	XORLW       8
	BTFSC       STATUS+0, 2 
	GOTO        L_LearnAuto681
	MOVF        _LearnPhase+0, 0 
	XORLW       9
	BTFSC       STATUS+0, 2 
	GOTO        L_LearnAuto686
	MOVF        _LearnPhase+0, 0 
	XORLW       10
	BTFSC       STATUS+0, 2 
	GOTO        L_LearnAuto687
	MOVF        _LearnPhase+0, 0 
	XORLW       11
	BTFSC       STATUS+0, 2 
	GOTO        L_LearnAuto692
	MOVF        _LearnPhase+0, 0 
	XORLW       12
	BTFSC       STATUS+0, 2 
	GOTO        L_LearnAuto693
	MOVF        _LearnPhase+0, 0 
	XORLW       13
	BTFSC       STATUS+0, 2 
	GOTO        L_LearnAuto698
L_LearnAuto656:
;FirmV_0_7_0.c,2555 :: 		}
L_end_LearnAuto:
	RETURN      0
; end of _LearnAuto

_AutoLearnCalculator:

;FirmV_0_7_0.c,2575 :: 		void AutoLearnCalculator(Learn *raw)
;FirmV_0_7_0.c,2578 :: 		(*raw).D1OpenTime=(*raw).D1OpenTime+10;
	MOVLW       1
	ADDWF       FARG_AutoLearnCalculator_raw+0, 0 
	MOVWF       R1 
	MOVLW       0
	ADDWFC      FARG_AutoLearnCalculator_raw+1, 0 
	MOVWF       R2 
	MOVFF       R1, FSR0
	MOVFF       R2, FSR0H
	MOVLW       10
	ADDWF       POSTINC0+0, 0 
	MOVWF       R0 
	MOVFF       R1, FSR1
	MOVFF       R2, FSR1H
	MOVF        R0, 0 
	MOVWF       POSTINC1+0 
;FirmV_0_7_0.c,2579 :: 		(*raw).D2OpenTime=(*raw).D2OpenTime+10;
	MOVLW       3
	ADDWF       FARG_AutoLearnCalculator_raw+0, 0 
	MOVWF       R1 
	MOVLW       0
	ADDWFC      FARG_AutoLearnCalculator_raw+1, 0 
	MOVWF       R2 
	MOVFF       R1, FSR0
	MOVFF       R2, FSR0H
	MOVLW       10
	ADDWF       POSTINC0+0, 0 
	MOVWF       R0 
	MOVFF       R1, FSR1
	MOVFF       R2, FSR1H
	MOVF        R0, 0 
	MOVWF       POSTINC1+0 
;FirmV_0_7_0.c,2580 :: 		(*raw).D1CloseTime=(*raw).D1CloseTime+10;
	MOVFF       FARG_AutoLearnCalculator_raw+0, FSR0
	MOVFF       FARG_AutoLearnCalculator_raw+1, FSR0H
	MOVF        POSTINC0+0, 0 
	MOVWF       R0 
	MOVFF       FARG_AutoLearnCalculator_raw+0, FSR1
	MOVFF       FARG_AutoLearnCalculator_raw+1, FSR1H
	MOVLW       10
	ADDWF       R0, 0 
	MOVWF       POSTINC1+0 
;FirmV_0_7_0.c,2581 :: 		(*raw).D2CloseTime=(*raw).D2CloseTime+10;
	MOVLW       2
	ADDWF       FARG_AutoLearnCalculator_raw+0, 0 
	MOVWF       R1 
	MOVLW       0
	ADDWFC      FARG_AutoLearnCalculator_raw+1, 0 
	MOVWF       R2 
	MOVFF       R1, FSR0
	MOVFF       R2, FSR0H
	MOVLW       10
	ADDWF       POSTINC0+0, 0 
	MOVWF       R0 
	MOVFF       R1, FSR1
	MOVFF       R2, FSR1H
	MOVF        R0, 0 
	MOVWF       POSTINC1+0 
;FirmV_0_7_0.c,2583 :: 		(*raw).D1OpenSoftStart=4;
	MOVLW       4
	ADDWF       FARG_AutoLearnCalculator_raw+0, 0 
	MOVWF       FSR1 
	MOVLW       0
	ADDWFC      FARG_AutoLearnCalculator_raw+1, 0 
	MOVWF       FSR1H 
	MOVLW       4
	MOVWF       POSTINC1+0 
;FirmV_0_7_0.c,2584 :: 		(*raw).D1CloseSoftStart=4;
	MOVLW       6
	ADDWF       FARG_AutoLearnCalculator_raw+0, 0 
	MOVWF       FSR1 
	MOVLW       0
	ADDWFC      FARG_AutoLearnCalculator_raw+1, 0 
	MOVWF       FSR1H 
	MOVLW       4
	MOVWF       POSTINC1+0 
;FirmV_0_7_0.c,2585 :: 		(*raw).D2OpenSoftStart=4;
	MOVLW       8
	ADDWF       FARG_AutoLearnCalculator_raw+0, 0 
	MOVWF       FSR1 
	MOVLW       0
	ADDWFC      FARG_AutoLearnCalculator_raw+1, 0 
	MOVWF       FSR1H 
	MOVLW       4
	MOVWF       POSTINC1+0 
;FirmV_0_7_0.c,2586 :: 		(*raw).D2CloseSoftStart=4;
	MOVLW       10
	ADDWF       FARG_AutoLearnCalculator_raw+0, 0 
	MOVWF       FSR1 
	MOVLW       0
	ADDWFC      FARG_AutoLearnCalculator_raw+1, 0 
	MOVWF       FSR1H 
	MOVLW       4
	MOVWF       POSTINC1+0 
;FirmV_0_7_0.c,2588 :: 		(*raw).D1OpenSoftStop=10;
	MOVLW       5
	ADDWF       FARG_AutoLearnCalculator_raw+0, 0 
	MOVWF       FSR1 
	MOVLW       0
	ADDWFC      FARG_AutoLearnCalculator_raw+1, 0 
	MOVWF       FSR1H 
	MOVLW       10
	MOVWF       POSTINC1+0 
;FirmV_0_7_0.c,2589 :: 		(*raw).D2OpenSoftStop=10;
	MOVLW       9
	ADDWF       FARG_AutoLearnCalculator_raw+0, 0 
	MOVWF       FSR1 
	MOVLW       0
	ADDWFC      FARG_AutoLearnCalculator_raw+1, 0 
	MOVWF       FSR1H 
	MOVLW       10
	MOVWF       POSTINC1+0 
;FirmV_0_7_0.c,2590 :: 		(*raw).D1CloseSoftStop=10;
	MOVLW       7
	ADDWF       FARG_AutoLearnCalculator_raw+0, 0 
	MOVWF       FSR1 
	MOVLW       0
	ADDWFC      FARG_AutoLearnCalculator_raw+1, 0 
	MOVWF       FSR1H 
	MOVLW       10
	MOVWF       POSTINC1+0 
;FirmV_0_7_0.c,2591 :: 		(*raw).D2CloseSoftStop=10;
	MOVLW       11
	ADDWF       FARG_AutoLearnCalculator_raw+0, 0 
	MOVWF       FSR1 
	MOVLW       0
	ADDWFC      FARG_AutoLearnCalculator_raw+1, 0 
	MOVWF       FSR1H 
	MOVLW       10
	MOVWF       POSTINC1+0 
;FirmV_0_7_0.c,2593 :: 		}
L_end_AutoLearnCalculator:
	RETURN      0
; end of _AutoLearnCalculator

_SaveLearnData:

;FirmV_0_7_0.c,2605 :: 		void SaveLearnData(Learn *d,char DCount)
;FirmV_0_7_0.c,2607 :: 		Door1OpenTime=(*d).D1OpenTime;
	MOVLW       1
	ADDWF       FARG_SaveLearnData_d+0, 0 
	MOVWF       FSR0 
	MOVLW       0
	ADDWFC      FARG_SaveLearnData_d+1, 0 
	MOVWF       FSR0H 
	MOVF        POSTINC0+0, 0 
	MOVWF       _Door1OpenTime+0 
;FirmV_0_7_0.c,2608 :: 		Door1CloseTime=(*d).D1CloseTime;
	MOVFF       FARG_SaveLearnData_d+0, FSR0
	MOVFF       FARG_SaveLearnData_d+1, FSR0H
	MOVF        POSTINC0+0, 0 
	MOVWF       _Door1CloseTime+0 
;FirmV_0_7_0.c,2609 :: 		if(DCount==2)
	MOVF        FARG_SaveLearnData_DCount+0, 0 
	XORLW       2
	BTFSS       STATUS+0, 2 
	GOTO        L_SaveLearnData699
;FirmV_0_7_0.c,2611 :: 		Door2OpenTime=(*d).D2OpenTime;
	MOVLW       3
	ADDWF       FARG_SaveLearnData_d+0, 0 
	MOVWF       FSR0 
	MOVLW       0
	ADDWFC      FARG_SaveLearnData_d+1, 0 
	MOVWF       FSR0H 
	MOVF        POSTINC0+0, 0 
	MOVWF       _Door2OpenTime+0 
;FirmV_0_7_0.c,2612 :: 		Door2CloseTime=(*d).D2CloseTime;
	MOVLW       2
	ADDWF       FARG_SaveLearnData_d+0, 0 
	MOVWF       FSR0 
	MOVLW       0
	ADDWFC      FARG_SaveLearnData_d+1, 0 
	MOVWF       FSR0H 
	MOVF        POSTINC0+0, 0 
	MOVWF       _Door2CloseTime+0 
;FirmV_0_7_0.c,2613 :: 		OpenSoftStartTime=((*d).D1OpenSoftStart+(*d).D2OpenSoftStart)/2;
	MOVLW       4
	ADDWF       FARG_SaveLearnData_d+0, 0 
	MOVWF       FSR0 
	MOVLW       0
	ADDWFC      FARG_SaveLearnData_d+1, 0 
	MOVWF       FSR0H 
	MOVLW       8
	ADDWF       FARG_SaveLearnData_d+0, 0 
	MOVWF       FSR2 
	MOVLW       0
	ADDWFC      FARG_SaveLearnData_d+1, 0 
	MOVWF       FSR2H 
	MOVF        POSTINC2+0, 0 
	ADDWF       POSTINC0+0, 0 
	MOVWF       R3 
	CLRF        R4 
	MOVLW       0
	ADDWFC      R4, 1 
	MOVF        R3, 0 
	MOVWF       R0 
	MOVF        R4, 0 
	MOVWF       R1 
	RRCF        R1, 1 
	RRCF        R0, 1 
	BCF         R1, 7 
	BTFSC       R1, 6 
	BSF         R1, 7 
	MOVF        R0, 0 
	MOVWF       _OpenSoftStartTime+0 
;FirmV_0_7_0.c,2614 :: 		OpenSoftStopTime=((*d).D1OpenSoftStop+(*d).D2OpenSoftStop)/2;
	MOVLW       5
	ADDWF       FARG_SaveLearnData_d+0, 0 
	MOVWF       FSR0 
	MOVLW       0
	ADDWFC      FARG_SaveLearnData_d+1, 0 
	MOVWF       FSR0H 
	MOVLW       9
	ADDWF       FARG_SaveLearnData_d+0, 0 
	MOVWF       FSR2 
	MOVLW       0
	ADDWFC      FARG_SaveLearnData_d+1, 0 
	MOVWF       FSR2H 
	MOVF        POSTINC2+0, 0 
	ADDWF       POSTINC0+0, 0 
	MOVWF       R3 
	CLRF        R4 
	MOVLW       0
	ADDWFC      R4, 1 
	MOVF        R3, 0 
	MOVWF       R0 
	MOVF        R4, 0 
	MOVWF       R1 
	RRCF        R1, 1 
	RRCF        R0, 1 
	BCF         R1, 7 
	BTFSC       R1, 6 
	BSF         R1, 7 
	MOVF        R0, 0 
	MOVWF       _OpenSoftStopTime+0 
;FirmV_0_7_0.c,2615 :: 		CloseSoftStartTime=((*d).D1CloseSoftStart+(*d).D2CloseSoftStart)/2;
	MOVLW       6
	ADDWF       FARG_SaveLearnData_d+0, 0 
	MOVWF       FSR0 
	MOVLW       0
	ADDWFC      FARG_SaveLearnData_d+1, 0 
	MOVWF       FSR0H 
	MOVLW       10
	ADDWF       FARG_SaveLearnData_d+0, 0 
	MOVWF       FSR2 
	MOVLW       0
	ADDWFC      FARG_SaveLearnData_d+1, 0 
	MOVWF       FSR2H 
	MOVF        POSTINC2+0, 0 
	ADDWF       POSTINC0+0, 0 
	MOVWF       R3 
	CLRF        R4 
	MOVLW       0
	ADDWFC      R4, 1 
	MOVF        R3, 0 
	MOVWF       R0 
	MOVF        R4, 0 
	MOVWF       R1 
	RRCF        R1, 1 
	RRCF        R0, 1 
	BCF         R1, 7 
	BTFSC       R1, 6 
	BSF         R1, 7 
	MOVF        R0, 0 
	MOVWF       _CloseSoftStartTime+0 
;FirmV_0_7_0.c,2616 :: 		CloseSoftStopTime=((*d).D1CloseSoftStop+(*d).D2CloseSoftStop)/2;
	MOVLW       7
	ADDWF       FARG_SaveLearnData_d+0, 0 
	MOVWF       FSR0 
	MOVLW       0
	ADDWFC      FARG_SaveLearnData_d+1, 0 
	MOVWF       FSR0H 
	MOVLW       11
	ADDWF       FARG_SaveLearnData_d+0, 0 
	MOVWF       FSR2 
	MOVLW       0
	ADDWFC      FARG_SaveLearnData_d+1, 0 
	MOVWF       FSR2H 
	MOVF        POSTINC2+0, 0 
	ADDWF       POSTINC0+0, 0 
	MOVWF       R3 
	CLRF        R4 
	MOVLW       0
	ADDWFC      R4, 1 
	MOVF        R3, 0 
	MOVWF       R0 
	MOVF        R4, 0 
	MOVWF       R1 
	RRCF        R1, 1 
	RRCF        R0, 1 
	BCF         R1, 7 
	BTFSC       R1, 6 
	BSF         R1, 7 
	MOVF        R0, 0 
	MOVWF       _CloseSoftStopTime+0 
;FirmV_0_7_0.c,2617 :: 		}
	GOTO        L_SaveLearnData700
L_SaveLearnData699:
;FirmV_0_7_0.c,2620 :: 		Door2OpenTime=0;
	CLRF        _Door2OpenTime+0 
;FirmV_0_7_0.c,2621 :: 		Door2CloseTime=0;
	CLRF        _Door2CloseTime+0 
;FirmV_0_7_0.c,2622 :: 		OpenSoftStartTime=(*d).D1OpenSoftStart;
	MOVLW       4
	ADDWF       FARG_SaveLearnData_d+0, 0 
	MOVWF       FSR0 
	MOVLW       0
	ADDWFC      FARG_SaveLearnData_d+1, 0 
	MOVWF       FSR0H 
	MOVF        POSTINC0+0, 0 
	MOVWF       _OpenSoftStartTime+0 
;FirmV_0_7_0.c,2623 :: 		OpenSoftStopTime=(*d).D1OpenSoftStop;
	MOVLW       5
	ADDWF       FARG_SaveLearnData_d+0, 0 
	MOVWF       FSR0 
	MOVLW       0
	ADDWFC      FARG_SaveLearnData_d+1, 0 
	MOVWF       FSR0H 
	MOVF        POSTINC0+0, 0 
	MOVWF       _OpenSoftStopTime+0 
;FirmV_0_7_0.c,2624 :: 		CloseSoftStartTime=(*d).D1CloseSoftStart;
	MOVLW       6
	ADDWF       FARG_SaveLearnData_d+0, 0 
	MOVWF       FSR0 
	MOVLW       0
	ADDWFC      FARG_SaveLearnData_d+1, 0 
	MOVWF       FSR0H 
	MOVF        POSTINC0+0, 0 
	MOVWF       _CloseSoftStartTime+0 
;FirmV_0_7_0.c,2625 :: 		CloseSoftStopTime=(*d).D1CloseSoftStop;
	MOVLW       7
	ADDWF       FARG_SaveLearnData_d+0, 0 
	MOVWF       FSR0 
	MOVLW       0
	ADDWFC      FARG_SaveLearnData_d+1, 0 
	MOVWF       FSR0H 
	MOVF        POSTINC0+0, 0 
	MOVWF       _CloseSoftStopTime+0 
;FirmV_0_7_0.c,2626 :: 		}
L_SaveLearnData700:
;FirmV_0_7_0.c,2628 :: 		SaveConfigs();
	CALL        _SaveConfigs+0, 0
;FirmV_0_7_0.c,2629 :: 		}
L_end_SaveLearnData:
	RETURN      0
; end of _SaveLearnData

_LearnManual:

;FirmV_0_7_0.c,2644 :: 		void LearnManual()
;FirmV_0_7_0.c,2652 :: 		switch(LearnPhase)
	GOTO        L_LearnManual701
;FirmV_0_7_0.c,2654 :: 		case 0:
L_LearnManual703:
;FirmV_0_7_0.c,2655 :: 		Flasher=1;
	BSF         PORTD+0, 7 
;FirmV_0_7_0.c,2657 :: 		if(Events.Remote.b0==1){LearnPhase=LearnPhase+1; DoorNo=2;BuzzFlag=1;}if(Events.Remote.b1==1){LearnPhase=3; DoorNo=1;BuzzFlag=1;}
	BTFSS       _Events+4, 0 
	GOTO        L_LearnManual704
	INCF        _LearnPhase+0, 1 
	MOVLW       2
	MOVWF       LearnManual_DoorNo_L0+0 
	MOVLW       1
	MOVWF       _BuzzFlag+0 
L_LearnManual704:
	BTFSS       _Events+4, 1 
	GOTO        L_LearnManual705
	MOVLW       3
	MOVWF       _LearnPhase+0 
	MOVLW       1
	MOVWF       LearnManual_DoorNo_L0+0 
	MOVLW       1
	MOVWF       _BuzzFlag+0 
L_LearnManual705:
;FirmV_0_7_0.c,2658 :: 		break;
	GOTO        L_LearnManual702
;FirmV_0_7_0.c,2660 :: 		case 1: //Start D2 and enable overload sensing after 1s
L_LearnManual706:
;FirmV_0_7_0.c,2661 :: 		StartMotor(2,_Close);AddTask(ms500+4,21);LearnPhase=LearnPhase+1;OverloadCheckFlag2=0;
	MOVLW       2
	MOVWF       FARG_StartMotor_Mx+0 
	CLRF        FARG_StartMotor_Dir+0 
	CALL        _StartMotor+0, 0
	MOVLW       4
	ADDWF       _ms500+0, 0 
	MOVWF       FARG_AddTask_OccTime+0 
	MOVLW       0
	ADDWFC      _ms500+1, 0 
	MOVWF       FARG_AddTask_OccTime+1 
	MOVLW       0
	ADDWFC      _ms500+2, 0 
	MOVWF       FARG_AddTask_OccTime+2 
	MOVLW       0
	ADDWFC      _ms500+3, 0 
	MOVWF       FARG_AddTask_OccTime+3 
	MOVLW       21
	MOVWF       FARG_AddTask_tcode+0 
	CALL        _AddTask+0, 0
	INCF        _LearnPhase+0, 1 
	CLRF        _OverloadCheckFlag2+0 
;FirmV_0_7_0.c,2662 :: 		break;
	GOTO        L_LearnManual702
;FirmV_0_7_0.c,2664 :: 		case 2: //Check if D2 reaches end of its course
L_LearnManual707:
;FirmV_0_7_0.c,2665 :: 		if((Events.Overload.b1==1)&&(OverloadCheckFlag2==1)){OverloadCheckFlag2=0;StopMotor(2);LearnPhase=LearnPhase+1;}
	BTFSS       _Events+5, 1 
	GOTO        L_LearnManual710
	MOVF        _OverloadCheckFlag2+0, 0 
	XORLW       1
	BTFSS       STATUS+0, 2 
	GOTO        L_LearnManual710
L__LearnManual957:
	CLRF        _OverloadCheckFlag2+0 
	MOVLW       2
	MOVWF       FARG_StopMotor_Mx+0 
	CALL        _StopMotor+0, 0
	INCF        _LearnPhase+0, 1 
L_LearnManual710:
;FirmV_0_7_0.c,2666 :: 		if(CheckTask(21))OverloadCheckFlag2=1;
	MOVLW       21
	MOVWF       FARG_CheckTask_TaskCode+0 
	CALL        _CheckTask+0, 0
	MOVF        R0, 1 
	BTFSC       STATUS+0, 2 
	GOTO        L_LearnManual711
	MOVLW       1
	MOVWF       _OverloadCheckFlag2+0 
L_LearnManual711:
;FirmV_0_7_0.c,2667 :: 		break;
	GOTO        L_LearnManual702
;FirmV_0_7_0.c,2669 :: 		case 3: //Start D1 and enable overload sensin after 1 s
L_LearnManual712:
;FirmV_0_7_0.c,2670 :: 		StartMotor(1,_Close);AddTask(ms500+4,20);LearnPhase=LearnPhase+1;;OverloadCheckFlag1=0;
	MOVLW       1
	MOVWF       FARG_StartMotor_Mx+0 
	CLRF        FARG_StartMotor_Dir+0 
	CALL        _StartMotor+0, 0
	MOVLW       4
	ADDWF       _ms500+0, 0 
	MOVWF       FARG_AddTask_OccTime+0 
	MOVLW       0
	ADDWFC      _ms500+1, 0 
	MOVWF       FARG_AddTask_OccTime+1 
	MOVLW       0
	ADDWFC      _ms500+2, 0 
	MOVWF       FARG_AddTask_OccTime+2 
	MOVLW       0
	ADDWFC      _ms500+3, 0 
	MOVWF       FARG_AddTask_OccTime+3 
	MOVLW       20
	MOVWF       FARG_AddTask_tcode+0 
	CALL        _AddTask+0, 0
	INCF        _LearnPhase+0, 1 
	CLRF        _OverloadCheckFlag1+0 
;FirmV_0_7_0.c,2672 :: 		case 4: //Check if D1 reaches end of its course
L_LearnManual713:
;FirmV_0_7_0.c,2673 :: 		if((Events.Overload.b0==1)&&(OverloadCheckFlag1==1)){OverloadCheckFlag1=0;StopMotor(1);LearnPhase=LearnPhase+1;}
	BTFSS       _Events+5, 0 
	GOTO        L_LearnManual716
	MOVF        _OverloadCheckFlag1+0, 0 
	XORLW       1
	BTFSS       STATUS+0, 2 
	GOTO        L_LearnManual716
L__LearnManual956:
	CLRF        _OverloadCheckFlag1+0 
	MOVLW       1
	MOVWF       FARG_StopMotor_Mx+0 
	CALL        _StopMotor+0, 0
	INCF        _LearnPhase+0, 1 
L_LearnManual716:
;FirmV_0_7_0.c,2674 :: 		if(CheckTask(20))OverloadCheckFlag1=1;
	MOVLW       20
	MOVWF       FARG_CheckTask_TaskCode+0 
	CALL        _CheckTask+0, 0
	MOVF        R0, 1 
	BTFSC       STATUS+0, 2 
	GOTO        L_LearnManual717
	MOVLW       1
	MOVWF       _OverloadCheckFlag1+0 
L_LearnManual717:
;FirmV_0_7_0.c,2675 :: 		break;
	GOTO        L_LearnManual702
;FirmV_0_7_0.c,2677 :: 		case 5: //Wait for remote to start D1 and slow down
L_LearnManual718:
;FirmV_0_7_0.c,2678 :: 		if(Events.Remote!=0){t1=ms500;StartMotor(1,_Open);SetMotorSpeed(0,Motor2FullSpeed);M1isSlow=1;LearnPhase=LearnPhase+1;}
	MOVF        _Events+4, 0 
	XORLW       0
	BTFSC       STATUS+0, 2 
	GOTO        L_LearnManual719
	MOVF        _ms500+0, 0 
	MOVWF       LearnManual_t1_L0+0 
	MOVF        _ms500+1, 0 
	MOVWF       LearnManual_t1_L0+1 
	MOVF        _ms500+2, 0 
	MOVWF       LearnManual_t1_L0+2 
	MOVF        _ms500+3, 0 
	MOVWF       LearnManual_t1_L0+3 
	MOVLW       1
	MOVWF       FARG_StartMotor_Mx+0 
	MOVLW       1
	MOVWF       FARG_StartMotor_Dir+0 
	CALL        _StartMotor+0, 0
	CLRF        FARG_SetMotorSpeed_M1FullSpeed+0 
	MOVF        _Motor2FullSpeed+0, 0 
	MOVWF       FARG_SetMotorSpeed_M2FullSpeed+0 
	CALL        _SetMotorSpeed+0, 0
	MOVLW       1
	MOVWF       _M1isSlow+0 
	INCF        _LearnPhase+0, 1 
L_LearnManual719:
;FirmV_0_7_0.c,2679 :: 		break;
	GOTO        L_LearnManual702
;FirmV_0_7_0.c,2681 :: 		case 6: //check for Remote press and fast up
L_LearnManual720:
;FirmV_0_7_0.c,2682 :: 		if(Events.Remote!=0){LearnPhase=LearnPhase+1;t2=ms500;SetMotorSpeed(1,Motor2FullSpeed);M1isSlow=0;}
	MOVF        _Events+4, 0 
	XORLW       0
	BTFSC       STATUS+0, 2 
	GOTO        L_LearnManual721
	INCF        _LearnPhase+0, 1 
	MOVF        _ms500+0, 0 
	MOVWF       LearnManual_t2_L0+0 
	MOVF        _ms500+1, 0 
	MOVWF       LearnManual_t2_L0+1 
	MOVF        _ms500+2, 0 
	MOVWF       LearnManual_t2_L0+2 
	MOVF        _ms500+3, 0 
	MOVWF       LearnManual_t2_L0+3 
	MOVLW       1
	MOVWF       FARG_SetMotorSpeed_M1FullSpeed+0 
	MOVF        _Motor2FullSpeed+0, 0 
	MOVWF       FARG_SetMotorSpeed_M2FullSpeed+0 
	CALL        _SetMotorSpeed+0, 0
	CLRF        _M1isSlow+0 
L_LearnManual721:
;FirmV_0_7_0.c,2683 :: 		break;
	GOTO        L_LearnManual702
;FirmV_0_7_0.c,2685 :: 		case 7: //check for Remote press and slow down
L_LearnManual722:
;FirmV_0_7_0.c,2686 :: 		if(Events.Remote!=0){LearnPhase=LearnPhase+1;t3=ms500;SetMotorSpeed(0,Motor2FullSpeed);M1isSlow=1;}
	MOVF        _Events+4, 0 
	XORLW       0
	BTFSC       STATUS+0, 2 
	GOTO        L_LearnManual723
	INCF        _LearnPhase+0, 1 
	MOVF        _ms500+0, 0 
	MOVWF       LearnManual_t3_L0+0 
	MOVF        _ms500+1, 0 
	MOVWF       LearnManual_t3_L0+1 
	MOVF        _ms500+2, 0 
	MOVWF       LearnManual_t3_L0+2 
	MOVF        _ms500+3, 0 
	MOVWF       LearnManual_t3_L0+3 
	CLRF        FARG_SetMotorSpeed_M1FullSpeed+0 
	MOVF        _Motor2FullSpeed+0, 0 
	MOVWF       FARG_SetMotorSpeed_M2FullSpeed+0 
	CALL        _SetMotorSpeed+0, 0
	MOVLW       1
	MOVWF       _M1isSlow+0 
L_LearnManual723:
;FirmV_0_7_0.c,2687 :: 		break;
	GOTO        L_LearnManual702
;FirmV_0_7_0.c,2689 :: 		case 8: //check for Remote press and stop
L_LearnManual724:
;FirmV_0_7_0.c,2690 :: 		if(Events.Remote!=0){if(DoorNo==2)LearnPhase=LearnPhase+1;else LearnPhase=17;t4=ms500;StopMotor(1);
	MOVF        _Events+4, 0 
	XORLW       0
	BTFSC       STATUS+0, 2 
	GOTO        L_LearnManual725
	MOVF        LearnManual_DoorNo_L0+0, 0 
	XORLW       2
	BTFSS       STATUS+0, 2 
	GOTO        L_LearnManual726
	INCF        _LearnPhase+0, 1 
	GOTO        L_LearnManual727
L_LearnManual726:
	MOVLW       17
	MOVWF       _LearnPhase+0 
L_LearnManual727:
	MOVF        _ms500+0, 0 
	MOVWF       LearnManual_t4_L0+0 
	MOVF        _ms500+1, 0 
	MOVWF       LearnManual_t4_L0+1 
	MOVF        _ms500+2, 0 
	MOVWF       LearnManual_t4_L0+2 
	MOVF        _ms500+3, 0 
	MOVWF       LearnManual_t4_L0+3 
	MOVLW       1
	MOVWF       FARG_StopMotor_Mx+0 
	CALL        _StopMotor+0, 0
;FirmV_0_7_0.c,2691 :: 		RawData.D1OpenTime=(char)(t4-t1);
	MOVF        LearnManual_t1_L0+0, 0 
	SUBWF       LearnManual_t4_L0+0, 0 
	MOVWF       R0 
	MOVF        R0, 0 
	MOVWF       LearnManual_RawData_L0+1 
;FirmV_0_7_0.c,2692 :: 		RawData.D1OpenSoftStart=(char)(t2-t1);
	MOVF        LearnManual_t1_L0+0, 0 
	SUBWF       LearnManual_t2_L0+0, 0 
	MOVWF       R0 
	MOVF        R0, 0 
	MOVWF       LearnManual_RawData_L0+4 
;FirmV_0_7_0.c,2693 :: 		RawData.D1OpenSoftStop=(char)(t4-t3);
	MOVF        LearnManual_t3_L0+0, 0 
	SUBWF       LearnManual_t4_L0+0, 0 
	MOVWF       R0 
	MOVF        R0, 0 
	MOVWF       LearnManual_RawData_L0+5 
;FirmV_0_7_0.c,2694 :: 		}
L_LearnManual725:
;FirmV_0_7_0.c,2695 :: 		break;
	GOTO        L_LearnManual702
;FirmV_0_7_0.c,2697 :: 		case 9: //Wait for remote to start D2 and slow down
L_LearnManual728:
;FirmV_0_7_0.c,2698 :: 		if(Events.Remote!=0){t1=ms500;StartMotor(2,_Open);SetMotorSpeed(Motor1FullSpeed,0);M2isSlow=1;LearnPhase=LearnPhase+1;}
	MOVF        _Events+4, 0 
	XORLW       0
	BTFSC       STATUS+0, 2 
	GOTO        L_LearnManual729
	MOVF        _ms500+0, 0 
	MOVWF       LearnManual_t1_L0+0 
	MOVF        _ms500+1, 0 
	MOVWF       LearnManual_t1_L0+1 
	MOVF        _ms500+2, 0 
	MOVWF       LearnManual_t1_L0+2 
	MOVF        _ms500+3, 0 
	MOVWF       LearnManual_t1_L0+3 
	MOVLW       2
	MOVWF       FARG_StartMotor_Mx+0 
	MOVLW       1
	MOVWF       FARG_StartMotor_Dir+0 
	CALL        _StartMotor+0, 0
	MOVF        _Motor1FullSpeed+0, 0 
	MOVWF       FARG_SetMotorSpeed_M1FullSpeed+0 
	CLRF        FARG_SetMotorSpeed_M2FullSpeed+0 
	CALL        _SetMotorSpeed+0, 0
	MOVLW       1
	MOVWF       _M2isSlow+0 
	INCF        _LearnPhase+0, 1 
L_LearnManual729:
;FirmV_0_7_0.c,2699 :: 		break;
	GOTO        L_LearnManual702
;FirmV_0_7_0.c,2701 :: 		case 10: //check for Remote press and fast up
L_LearnManual730:
;FirmV_0_7_0.c,2702 :: 		if(Events.Remote!=0){LearnPhase=LearnPhase+1;t2=ms500;SetMotorSpeed(Motor1FullSpeed,1);M2isSlow=0;}
	MOVF        _Events+4, 0 
	XORLW       0
	BTFSC       STATUS+0, 2 
	GOTO        L_LearnManual731
	INCF        _LearnPhase+0, 1 
	MOVF        _ms500+0, 0 
	MOVWF       LearnManual_t2_L0+0 
	MOVF        _ms500+1, 0 
	MOVWF       LearnManual_t2_L0+1 
	MOVF        _ms500+2, 0 
	MOVWF       LearnManual_t2_L0+2 
	MOVF        _ms500+3, 0 
	MOVWF       LearnManual_t2_L0+3 
	MOVF        _Motor1FullSpeed+0, 0 
	MOVWF       FARG_SetMotorSpeed_M1FullSpeed+0 
	MOVLW       1
	MOVWF       FARG_SetMotorSpeed_M2FullSpeed+0 
	CALL        _SetMotorSpeed+0, 0
	CLRF        _M2isSlow+0 
L_LearnManual731:
;FirmV_0_7_0.c,2703 :: 		break;
	GOTO        L_LearnManual702
;FirmV_0_7_0.c,2705 :: 		case 11: //check for Remote press and slow down
L_LearnManual732:
;FirmV_0_7_0.c,2706 :: 		if(Events.Remote!=0){LearnPhase=LearnPhase+1;t3=ms500;SetMotorSpeed(Motor1FullSpeed,0);M2isSlow=1;}
	MOVF        _Events+4, 0 
	XORLW       0
	BTFSC       STATUS+0, 2 
	GOTO        L_LearnManual733
	INCF        _LearnPhase+0, 1 
	MOVF        _ms500+0, 0 
	MOVWF       LearnManual_t3_L0+0 
	MOVF        _ms500+1, 0 
	MOVWF       LearnManual_t3_L0+1 
	MOVF        _ms500+2, 0 
	MOVWF       LearnManual_t3_L0+2 
	MOVF        _ms500+3, 0 
	MOVWF       LearnManual_t3_L0+3 
	MOVF        _Motor1FullSpeed+0, 0 
	MOVWF       FARG_SetMotorSpeed_M1FullSpeed+0 
	CLRF        FARG_SetMotorSpeed_M2FullSpeed+0 
	CALL        _SetMotorSpeed+0, 0
	MOVLW       1
	MOVWF       _M2isSlow+0 
L_LearnManual733:
;FirmV_0_7_0.c,2707 :: 		break;
	GOTO        L_LearnManual702
;FirmV_0_7_0.c,2709 :: 		case 12: //check for Remote press and stop
L_LearnManual734:
;FirmV_0_7_0.c,2710 :: 		if(Events.Remote!=0){LearnPhase=LearnPhase+1;t4=ms500;StopMotor(2);
	MOVF        _Events+4, 0 
	XORLW       0
	BTFSC       STATUS+0, 2 
	GOTO        L_LearnManual735
	INCF        _LearnPhase+0, 1 
	MOVF        _ms500+0, 0 
	MOVWF       LearnManual_t4_L0+0 
	MOVF        _ms500+1, 0 
	MOVWF       LearnManual_t4_L0+1 
	MOVF        _ms500+2, 0 
	MOVWF       LearnManual_t4_L0+2 
	MOVF        _ms500+3, 0 
	MOVWF       LearnManual_t4_L0+3 
	MOVLW       2
	MOVWF       FARG_StopMotor_Mx+0 
	CALL        _StopMotor+0, 0
;FirmV_0_7_0.c,2711 :: 		RawData.D2OpenTime=(char)(t4-t1);
	MOVF        LearnManual_t1_L0+0, 0 
	SUBWF       LearnManual_t4_L0+0, 0 
	MOVWF       R0 
	MOVF        R0, 0 
	MOVWF       LearnManual_RawData_L0+3 
;FirmV_0_7_0.c,2712 :: 		RawData.D2OpenSoftStart=(char)(t2-t1);
	MOVF        LearnManual_t1_L0+0, 0 
	SUBWF       LearnManual_t2_L0+0, 0 
	MOVWF       R0 
	MOVF        R0, 0 
	MOVWF       LearnManual_RawData_L0+8 
;FirmV_0_7_0.c,2713 :: 		RawData.D2OpenSoftStop=(char)(t4-t3);
	MOVF        LearnManual_t3_L0+0, 0 
	SUBWF       LearnManual_t4_L0+0, 0 
	MOVWF       R0 
	MOVF        R0, 0 
	MOVWF       LearnManual_RawData_L0+9 
;FirmV_0_7_0.c,2714 :: 		}
L_LearnManual735:
;FirmV_0_7_0.c,2715 :: 		break;
	GOTO        L_LearnManual702
;FirmV_0_7_0.c,2717 :: 		case 13: //Wait for remote to start D2 and slow down
L_LearnManual736:
;FirmV_0_7_0.c,2718 :: 		if(Events.Remote!=0){t1=ms500;StartMotor(2,_Close);SetMotorSpeed(Motor1FullSpeed,0);M2isSlow=1;LearnPhase=LearnPhase+1;}
	MOVF        _Events+4, 0 
	XORLW       0
	BTFSC       STATUS+0, 2 
	GOTO        L_LearnManual737
	MOVF        _ms500+0, 0 
	MOVWF       LearnManual_t1_L0+0 
	MOVF        _ms500+1, 0 
	MOVWF       LearnManual_t1_L0+1 
	MOVF        _ms500+2, 0 
	MOVWF       LearnManual_t1_L0+2 
	MOVF        _ms500+3, 0 
	MOVWF       LearnManual_t1_L0+3 
	MOVLW       2
	MOVWF       FARG_StartMotor_Mx+0 
	CLRF        FARG_StartMotor_Dir+0 
	CALL        _StartMotor+0, 0
	MOVF        _Motor1FullSpeed+0, 0 
	MOVWF       FARG_SetMotorSpeed_M1FullSpeed+0 
	CLRF        FARG_SetMotorSpeed_M2FullSpeed+0 
	CALL        _SetMotorSpeed+0, 0
	MOVLW       1
	MOVWF       _M2isSlow+0 
	INCF        _LearnPhase+0, 1 
L_LearnManual737:
;FirmV_0_7_0.c,2719 :: 		break;
	GOTO        L_LearnManual702
;FirmV_0_7_0.c,2721 :: 		case 14: //check for Remote press and fast up
L_LearnManual738:
;FirmV_0_7_0.c,2722 :: 		if(Events.Remote!=0){LearnPhase=LearnPhase+1;t2=ms500;SetMotorSpeed(Motor1FullSpeed,1);M2isSlow=0;}
	MOVF        _Events+4, 0 
	XORLW       0
	BTFSC       STATUS+0, 2 
	GOTO        L_LearnManual739
	INCF        _LearnPhase+0, 1 
	MOVF        _ms500+0, 0 
	MOVWF       LearnManual_t2_L0+0 
	MOVF        _ms500+1, 0 
	MOVWF       LearnManual_t2_L0+1 
	MOVF        _ms500+2, 0 
	MOVWF       LearnManual_t2_L0+2 
	MOVF        _ms500+3, 0 
	MOVWF       LearnManual_t2_L0+3 
	MOVF        _Motor1FullSpeed+0, 0 
	MOVWF       FARG_SetMotorSpeed_M1FullSpeed+0 
	MOVLW       1
	MOVWF       FARG_SetMotorSpeed_M2FullSpeed+0 
	CALL        _SetMotorSpeed+0, 0
	CLRF        _M2isSlow+0 
L_LearnManual739:
;FirmV_0_7_0.c,2723 :: 		break;
	GOTO        L_LearnManual702
;FirmV_0_7_0.c,2725 :: 		case 15: //check for Remote press and slow down
L_LearnManual740:
;FirmV_0_7_0.c,2726 :: 		if(Events.Remote!=0){LearnPhase=LearnPhase+1;t3=ms500;SetMotorSpeed(Motor1FullSpeed,0);M2isSlow=1;}
	MOVF        _Events+4, 0 
	XORLW       0
	BTFSC       STATUS+0, 2 
	GOTO        L_LearnManual741
	INCF        _LearnPhase+0, 1 
	MOVF        _ms500+0, 0 
	MOVWF       LearnManual_t3_L0+0 
	MOVF        _ms500+1, 0 
	MOVWF       LearnManual_t3_L0+1 
	MOVF        _ms500+2, 0 
	MOVWF       LearnManual_t3_L0+2 
	MOVF        _ms500+3, 0 
	MOVWF       LearnManual_t3_L0+3 
	MOVF        _Motor1FullSpeed+0, 0 
	MOVWF       FARG_SetMotorSpeed_M1FullSpeed+0 
	CLRF        FARG_SetMotorSpeed_M2FullSpeed+0 
	CALL        _SetMotorSpeed+0, 0
	MOVLW       1
	MOVWF       _M2isSlow+0 
L_LearnManual741:
;FirmV_0_7_0.c,2727 :: 		break;
	GOTO        L_LearnManual702
;FirmV_0_7_0.c,2729 :: 		case 16: //check for Remote press and stop
L_LearnManual742:
;FirmV_0_7_0.c,2730 :: 		if(Events.Remote!=0){LearnPhase=LearnPhase+1;t4=ms500;StopMotor(2);
	MOVF        _Events+4, 0 
	XORLW       0
	BTFSC       STATUS+0, 2 
	GOTO        L_LearnManual743
	INCF        _LearnPhase+0, 1 
	MOVF        _ms500+0, 0 
	MOVWF       LearnManual_t4_L0+0 
	MOVF        _ms500+1, 0 
	MOVWF       LearnManual_t4_L0+1 
	MOVF        _ms500+2, 0 
	MOVWF       LearnManual_t4_L0+2 
	MOVF        _ms500+3, 0 
	MOVWF       LearnManual_t4_L0+3 
	MOVLW       2
	MOVWF       FARG_StopMotor_Mx+0 
	CALL        _StopMotor+0, 0
;FirmV_0_7_0.c,2731 :: 		RawData.D2CloseTime=(char)(t4-t1);
	MOVF        LearnManual_t1_L0+0, 0 
	SUBWF       LearnManual_t4_L0+0, 0 
	MOVWF       R0 
	MOVF        R0, 0 
	MOVWF       LearnManual_RawData_L0+2 
;FirmV_0_7_0.c,2732 :: 		RawData.D2CloseSoftStart=(char)(t2-t1);
	MOVF        LearnManual_t1_L0+0, 0 
	SUBWF       LearnManual_t2_L0+0, 0 
	MOVWF       R0 
	MOVF        R0, 0 
	MOVWF       LearnManual_RawData_L0+10 
;FirmV_0_7_0.c,2733 :: 		RawData.D2CloseSoftStop=(char)(t4-t3);
	MOVF        LearnManual_t3_L0+0, 0 
	SUBWF       LearnManual_t4_L0+0, 0 
	MOVWF       R0 
	MOVF        R0, 0 
	MOVWF       LearnManual_RawData_L0+11 
;FirmV_0_7_0.c,2734 :: 		}
L_LearnManual743:
;FirmV_0_7_0.c,2735 :: 		break;
	GOTO        L_LearnManual702
;FirmV_0_7_0.c,2737 :: 		case 17: //Wait for remote to start D1 and slow down
L_LearnManual744:
;FirmV_0_7_0.c,2738 :: 		if(Events.Remote!=0){t1=ms500;StartMotor(1,_Close);SetMotorSpeed(0,Motor2FullSpeed);M1isSlow=1;LearnPhase=LearnPhase+1;}
	MOVF        _Events+4, 0 
	XORLW       0
	BTFSC       STATUS+0, 2 
	GOTO        L_LearnManual745
	MOVF        _ms500+0, 0 
	MOVWF       LearnManual_t1_L0+0 
	MOVF        _ms500+1, 0 
	MOVWF       LearnManual_t1_L0+1 
	MOVF        _ms500+2, 0 
	MOVWF       LearnManual_t1_L0+2 
	MOVF        _ms500+3, 0 
	MOVWF       LearnManual_t1_L0+3 
	MOVLW       1
	MOVWF       FARG_StartMotor_Mx+0 
	CLRF        FARG_StartMotor_Dir+0 
	CALL        _StartMotor+0, 0
	CLRF        FARG_SetMotorSpeed_M1FullSpeed+0 
	MOVF        _Motor2FullSpeed+0, 0 
	MOVWF       FARG_SetMotorSpeed_M2FullSpeed+0 
	CALL        _SetMotorSpeed+0, 0
	MOVLW       1
	MOVWF       _M1isSlow+0 
	INCF        _LearnPhase+0, 1 
L_LearnManual745:
;FirmV_0_7_0.c,2739 :: 		break;
	GOTO        L_LearnManual702
;FirmV_0_7_0.c,2741 :: 		case 18: //check for Remote press and fast up
L_LearnManual746:
;FirmV_0_7_0.c,2742 :: 		if(Events.Remote!=0){LearnPhase=LearnPhase+1;t2=ms500;SetMotorSpeed(1,Motor2FullSpeed);M1isSlow=0;}
	MOVF        _Events+4, 0 
	XORLW       0
	BTFSC       STATUS+0, 2 
	GOTO        L_LearnManual747
	INCF        _LearnPhase+0, 1 
	MOVF        _ms500+0, 0 
	MOVWF       LearnManual_t2_L0+0 
	MOVF        _ms500+1, 0 
	MOVWF       LearnManual_t2_L0+1 
	MOVF        _ms500+2, 0 
	MOVWF       LearnManual_t2_L0+2 
	MOVF        _ms500+3, 0 
	MOVWF       LearnManual_t2_L0+3 
	MOVLW       1
	MOVWF       FARG_SetMotorSpeed_M1FullSpeed+0 
	MOVF        _Motor2FullSpeed+0, 0 
	MOVWF       FARG_SetMotorSpeed_M2FullSpeed+0 
	CALL        _SetMotorSpeed+0, 0
	CLRF        _M1isSlow+0 
L_LearnManual747:
;FirmV_0_7_0.c,2743 :: 		break;
	GOTO        L_LearnManual702
;FirmV_0_7_0.c,2745 :: 		case 19: //check for Remote press and slow down
L_LearnManual748:
;FirmV_0_7_0.c,2746 :: 		if(Events.Remote!=0){LearnPhase=LearnPhase+1;t3=ms500;SetMotorSpeed(0,Motor2FullSpeed);M1isSlow=1;}
	MOVF        _Events+4, 0 
	XORLW       0
	BTFSC       STATUS+0, 2 
	GOTO        L_LearnManual749
	INCF        _LearnPhase+0, 1 
	MOVF        _ms500+0, 0 
	MOVWF       LearnManual_t3_L0+0 
	MOVF        _ms500+1, 0 
	MOVWF       LearnManual_t3_L0+1 
	MOVF        _ms500+2, 0 
	MOVWF       LearnManual_t3_L0+2 
	MOVF        _ms500+3, 0 
	MOVWF       LearnManual_t3_L0+3 
	CLRF        FARG_SetMotorSpeed_M1FullSpeed+0 
	MOVF        _Motor2FullSpeed+0, 0 
	MOVWF       FARG_SetMotorSpeed_M2FullSpeed+0 
	CALL        _SetMotorSpeed+0, 0
	MOVLW       1
	MOVWF       _M1isSlow+0 
L_LearnManual749:
;FirmV_0_7_0.c,2747 :: 		break;
	GOTO        L_LearnManual702
;FirmV_0_7_0.c,2749 :: 		case 20: //check for Remote press and stop
L_LearnManual750:
;FirmV_0_7_0.c,2750 :: 		if(Events.Remote!=0){LearnPhase=LearnPhase+1;t4=ms500;StopMotor(1);
	MOVF        _Events+4, 0 
	XORLW       0
	BTFSC       STATUS+0, 2 
	GOTO        L_LearnManual751
	INCF        _LearnPhase+0, 1 
	MOVF        _ms500+0, 0 
	MOVWF       LearnManual_t4_L0+0 
	MOVF        _ms500+1, 0 
	MOVWF       LearnManual_t4_L0+1 
	MOVF        _ms500+2, 0 
	MOVWF       LearnManual_t4_L0+2 
	MOVF        _ms500+3, 0 
	MOVWF       LearnManual_t4_L0+3 
	MOVLW       1
	MOVWF       FARG_StopMotor_Mx+0 
	CALL        _StopMotor+0, 0
;FirmV_0_7_0.c,2751 :: 		RawData.D1CloseTime=(char)(t4-t1);
	MOVF        LearnManual_t1_L0+0, 0 
	SUBWF       LearnManual_t4_L0+0, 0 
	MOVWF       R0 
	MOVF        R0, 0 
	MOVWF       LearnManual_RawData_L0+0 
;FirmV_0_7_0.c,2752 :: 		RawData.D1CloseSoftStart=(char)(t2-t1);
	MOVF        LearnManual_t1_L0+0, 0 
	SUBWF       LearnManual_t2_L0+0, 0 
	MOVWF       R0 
	MOVF        R0, 0 
	MOVWF       LearnManual_RawData_L0+6 
;FirmV_0_7_0.c,2753 :: 		RawData.D1CloseSoftStop=(char)(t4-t3);
	MOVF        LearnManual_t3_L0+0, 0 
	SUBWF       LearnManual_t4_L0+0, 0 
	MOVWF       R0 
	MOVF        R0, 0 
	MOVWF       LearnManual_RawData_L0+7 
;FirmV_0_7_0.c,2754 :: 		}
L_LearnManual751:
;FirmV_0_7_0.c,2755 :: 		break;
	GOTO        L_LearnManual702
;FirmV_0_7_0.c,2757 :: 		case 21:
L_LearnManual752:
;FirmV_0_7_0.c,2758 :: 		SaveLearnData(&RawData,DoorNo);
	MOVLW       LearnManual_RawData_L0+0
	MOVWF       FARG_SaveLearnData_d+0 
	MOVLW       hi_addr(LearnManual_RawData_L0+0)
	MOVWF       FARG_SaveLearnData_d+1 
	MOVF        LearnManual_DoorNo_L0+0, 0 
	MOVWF       FARG_SaveLearnData_DCount+0 
	CALL        _SaveLearnData+0, 0
;FirmV_0_7_0.c,2759 :: 		memcpy(LCDLine1," Learn Complete ",16);
	MOVLW       _LCDLine1+0
	MOVWF       FARG_memcpy_d1+0 
	MOVLW       hi_addr(_LCDLine1+0)
	MOVWF       FARG_memcpy_d1+1 
	MOVLW       ?lstr110_FirmV_0_7_0+0
	MOVWF       FARG_memcpy_s1+0 
	MOVLW       hi_addr(?lstr110_FirmV_0_7_0+0)
	MOVWF       FARG_memcpy_s1+1 
	MOVLW       16
	MOVWF       FARG_memcpy_n+0 
	MOVLW       0
	MOVWF       FARG_memcpy_n+1 
	CALL        _memcpy+0, 0
;FirmV_0_7_0.c,2760 :: 		memcpy(LCDLine2,"     Ready      ",16);
	MOVLW       _LCDLine2+0
	MOVWF       FARG_memcpy_d1+0 
	MOVLW       hi_addr(_LCDLine2+0)
	MOVWF       FARG_memcpy_d1+1 
	MOVLW       ?lstr111_FirmV_0_7_0+0
	MOVWF       FARG_memcpy_s1+0 
	MOVLW       hi_addr(?lstr111_FirmV_0_7_0+0)
	MOVWF       FARG_memcpy_s1+1 
	MOVLW       16
	MOVWF       FARG_memcpy_n+0 
	MOVLW       0
	MOVWF       FARG_memcpy_n+1 
	CALL        _memcpy+0, 0
;FirmV_0_7_0.c,2761 :: 		LCDLines=2;
	MOVLW       2
	MOVWF       _LCDLines+0 
;FirmV_0_7_0.c,2762 :: 		LCDUpdateFlag=1;
	MOVLW       1
	MOVWF       _LCDUpdateFlag+0 
;FirmV_0_7_0.c,2763 :: 		Flasher=0;
	BCF         PORTD+0, 7 
;FirmV_0_7_0.c,2765 :: 		State=0;
	CLRF        _State+0 
;FirmV_0_7_0.c,2766 :: 		break;
	GOTO        L_LearnManual702
;FirmV_0_7_0.c,2767 :: 		}
L_LearnManual701:
	MOVF        _LearnPhase+0, 0 
	XORLW       0
	BTFSC       STATUS+0, 2 
	GOTO        L_LearnManual703
	MOVF        _LearnPhase+0, 0 
	XORLW       1
	BTFSC       STATUS+0, 2 
	GOTO        L_LearnManual706
	MOVF        _LearnPhase+0, 0 
	XORLW       2
	BTFSC       STATUS+0, 2 
	GOTO        L_LearnManual707
	MOVF        _LearnPhase+0, 0 
	XORLW       3
	BTFSC       STATUS+0, 2 
	GOTO        L_LearnManual712
	MOVF        _LearnPhase+0, 0 
	XORLW       4
	BTFSC       STATUS+0, 2 
	GOTO        L_LearnManual713
	MOVF        _LearnPhase+0, 0 
	XORLW       5
	BTFSC       STATUS+0, 2 
	GOTO        L_LearnManual718
	MOVF        _LearnPhase+0, 0 
	XORLW       6
	BTFSC       STATUS+0, 2 
	GOTO        L_LearnManual720
	MOVF        _LearnPhase+0, 0 
	XORLW       7
	BTFSC       STATUS+0, 2 
	GOTO        L_LearnManual722
	MOVF        _LearnPhase+0, 0 
	XORLW       8
	BTFSC       STATUS+0, 2 
	GOTO        L_LearnManual724
	MOVF        _LearnPhase+0, 0 
	XORLW       9
	BTFSC       STATUS+0, 2 
	GOTO        L_LearnManual728
	MOVF        _LearnPhase+0, 0 
	XORLW       10
	BTFSC       STATUS+0, 2 
	GOTO        L_LearnManual730
	MOVF        _LearnPhase+0, 0 
	XORLW       11
	BTFSC       STATUS+0, 2 
	GOTO        L_LearnManual732
	MOVF        _LearnPhase+0, 0 
	XORLW       12
	BTFSC       STATUS+0, 2 
	GOTO        L_LearnManual734
	MOVF        _LearnPhase+0, 0 
	XORLW       13
	BTFSC       STATUS+0, 2 
	GOTO        L_LearnManual736
	MOVF        _LearnPhase+0, 0 
	XORLW       14
	BTFSC       STATUS+0, 2 
	GOTO        L_LearnManual738
	MOVF        _LearnPhase+0, 0 
	XORLW       15
	BTFSC       STATUS+0, 2 
	GOTO        L_LearnManual740
	MOVF        _LearnPhase+0, 0 
	XORLW       16
	BTFSC       STATUS+0, 2 
	GOTO        L_LearnManual742
	MOVF        _LearnPhase+0, 0 
	XORLW       17
	BTFSC       STATUS+0, 2 
	GOTO        L_LearnManual744
	MOVF        _LearnPhase+0, 0 
	XORLW       18
	BTFSC       STATUS+0, 2 
	GOTO        L_LearnManual746
	MOVF        _LearnPhase+0, 0 
	XORLW       19
	BTFSC       STATUS+0, 2 
	GOTO        L_LearnManual748
	MOVF        _LearnPhase+0, 0 
	XORLW       20
	BTFSC       STATUS+0, 2 
	GOTO        L_LearnManual750
	MOVF        _LearnPhase+0, 0 
	XORLW       21
	BTFSC       STATUS+0, 2 
	GOTO        L_LearnManual752
L_LearnManual702:
;FirmV_0_7_0.c,2768 :: 		}
L_end_LearnManual:
	RETURN      0
; end of _LearnManual

_charValueToStr:

;FirmV_0_7_0.c,2789 :: 		void charValueToStr(char val, char * string)
;FirmV_0_7_0.c,2791 :: 		bytetostr(val>>1,string);
	MOVF        FARG_charValueToStr_val+0, 0 
	MOVWF       FARG_ByteToStr_input+0 
	RRCF        FARG_ByteToStr_input+0, 1 
	BCF         FARG_ByteToStr_input+0, 7 
	MOVF        FARG_charValueToStr_string+0, 0 
	MOVWF       FARG_ByteToStr_output+0 
	MOVF        FARG_charValueToStr_string+1, 0 
	MOVWF       FARG_ByteToStr_output+1 
	CALL        _ByteToStr+0, 0
;FirmV_0_7_0.c,2792 :: 		if((val%2)==1)
	MOVLW       1
	ANDWF       FARG_charValueToStr_val+0, 0 
	MOVWF       R1 
	MOVF        R1, 0 
	XORLW       1
	BTFSS       STATUS+0, 2 
	GOTO        L_charValueToStr753
;FirmV_0_7_0.c,2793 :: 		memcpy(string+3,".5s",4);
	MOVLW       3
	ADDWF       FARG_charValueToStr_string+0, 0 
	MOVWF       FARG_memcpy_d1+0 
	MOVLW       0
	ADDWFC      FARG_charValueToStr_string+1, 0 
	MOVWF       FARG_memcpy_d1+1 
	MOVLW       ?lstr112_FirmV_0_7_0+0
	MOVWF       FARG_memcpy_s1+0 
	MOVLW       hi_addr(?lstr112_FirmV_0_7_0+0)
	MOVWF       FARG_memcpy_s1+1 
	MOVLW       4
	MOVWF       FARG_memcpy_n+0 
	MOVLW       0
	MOVWF       FARG_memcpy_n+1 
	CALL        _memcpy+0, 0
	GOTO        L_charValueToStr754
L_charValueToStr753:
;FirmV_0_7_0.c,2795 :: 		memcpy(string+3,".0s",4);
	MOVLW       3
	ADDWF       FARG_charValueToStr_string+0, 0 
	MOVWF       FARG_memcpy_d1+0 
	MOVLW       0
	ADDWFC      FARG_charValueToStr_string+1, 0 
	MOVWF       FARG_memcpy_d1+1 
	MOVLW       ?lstr113_FirmV_0_7_0+0
	MOVWF       FARG_memcpy_s1+0 
	MOVLW       hi_addr(?lstr113_FirmV_0_7_0+0)
	MOVWF       FARG_memcpy_s1+1 
	MOVLW       4
	MOVWF       FARG_memcpy_n+0 
	MOVLW       0
	MOVWF       FARG_memcpy_n+1 
	CALL        _memcpy+0, 0
L_charValueToStr754:
;FirmV_0_7_0.c,2796 :: 		}
L_end_charValueToStr:
	RETURN      0
; end of _charValueToStr

_charValueToStr_AC:

;FirmV_0_7_0.c,2805 :: 		void charValueToStr_AC(char val, char * string)
;FirmV_0_7_0.c,2807 :: 		bytetostr(val>>1,string);
	MOVF        FARG_charValueToStr_AC_val+0, 0 
	MOVWF       FARG_ByteToStr_input+0 
	RRCF        FARG_ByteToStr_input+0, 1 
	BCF         FARG_ByteToStr_input+0, 7 
	MOVF        FARG_charValueToStr_AC_string+0, 0 
	MOVWF       FARG_ByteToStr_output+0 
	MOVF        FARG_charValueToStr_AC_string+1, 0 
	MOVWF       FARG_ByteToStr_output+1 
	CALL        _ByteToStr+0, 0
;FirmV_0_7_0.c,2808 :: 		memcpy(string+3,"s  ",4);
	MOVLW       3
	ADDWF       FARG_charValueToStr_AC_string+0, 0 
	MOVWF       FARG_memcpy_d1+0 
	MOVLW       0
	ADDWFC      FARG_charValueToStr_AC_string+1, 0 
	MOVWF       FARG_memcpy_d1+1 
	MOVLW       ?lstr114_FirmV_0_7_0+0
	MOVWF       FARG_memcpy_s1+0 
	MOVLW       hi_addr(?lstr114_FirmV_0_7_0+0)
	MOVWF       FARG_memcpy_s1+1 
	MOVLW       4
	MOVWF       FARG_memcpy_n+0 
	MOVLW       0
	MOVWF       FARG_memcpy_n+1 
	CALL        _memcpy+0, 0
;FirmV_0_7_0.c,2809 :: 		}
L_end_charValueToStr_AC:
	RETURN      0
; end of _charValueToStr_AC

_intValueToStr:

;FirmV_0_7_0.c,2822 :: 		void intValueToStr(unsigned val, char * string)
;FirmV_0_7_0.c,2824 :: 		wordtostr(val>>1,string);
	MOVF        FARG_intValueToStr_val+0, 0 
	MOVWF       FARG_WordToStr_input+0 
	MOVF        FARG_intValueToStr_val+1, 0 
	MOVWF       FARG_WordToStr_input+1 
	RRCF        FARG_WordToStr_input+1, 1 
	RRCF        FARG_WordToStr_input+0, 1 
	BCF         FARG_WordToStr_input+1, 7 
	MOVF        FARG_intValueToStr_string+0, 0 
	MOVWF       FARG_WordToStr_output+0 
	MOVF        FARG_intValueToStr_string+1, 0 
	MOVWF       FARG_WordToStr_output+1 
	CALL        _WordToStr+0, 0
;FirmV_0_7_0.c,2825 :: 		if((val%2)==1)
	MOVLW       1
	ANDWF       FARG_intValueToStr_val+0, 0 
	MOVWF       R1 
	MOVF        FARG_intValueToStr_val+1, 0 
	MOVWF       R2 
	MOVLW       0
	ANDWF       R2, 1 
	MOVLW       0
	XORWF       R2, 0 
	BTFSS       STATUS+0, 2 
	GOTO        L__intValueToStr1053
	MOVLW       1
	XORWF       R1, 0 
L__intValueToStr1053:
	BTFSS       STATUS+0, 2 
	GOTO        L_intValueToStr755
;FirmV_0_7_0.c,2826 :: 		memcpy(string+5,".5s",4);
	MOVLW       5
	ADDWF       FARG_intValueToStr_string+0, 0 
	MOVWF       FARG_memcpy_d1+0 
	MOVLW       0
	ADDWFC      FARG_intValueToStr_string+1, 0 
	MOVWF       FARG_memcpy_d1+1 
	MOVLW       ?lstr115_FirmV_0_7_0+0
	MOVWF       FARG_memcpy_s1+0 
	MOVLW       hi_addr(?lstr115_FirmV_0_7_0+0)
	MOVWF       FARG_memcpy_s1+1 
	MOVLW       4
	MOVWF       FARG_memcpy_n+0 
	MOVLW       0
	MOVWF       FARG_memcpy_n+1 
	CALL        _memcpy+0, 0
	GOTO        L_intValueToStr756
L_intValueToStr755:
;FirmV_0_7_0.c,2828 :: 		memcpy(string+5,".0s",4);
	MOVLW       5
	ADDWF       FARG_intValueToStr_string+0, 0 
	MOVWF       FARG_memcpy_d1+0 
	MOVLW       0
	ADDWFC      FARG_intValueToStr_string+1, 0 
	MOVWF       FARG_memcpy_d1+1 
	MOVLW       ?lstr116_FirmV_0_7_0+0
	MOVWF       FARG_memcpy_s1+0 
	MOVLW       hi_addr(?lstr116_FirmV_0_7_0+0)
	MOVWF       FARG_memcpy_s1+1 
	MOVLW       4
	MOVWF       FARG_memcpy_n+0 
	MOVLW       0
	MOVWF       FARG_memcpy_n+1 
	CALL        _memcpy+0, 0
L_intValueToStr756:
;FirmV_0_7_0.c,2829 :: 		}
L_end_intValueToStr:
	RETURN      0
; end of _intValueToStr

_SetOverloadParams:

;FirmV_0_7_0.c,2841 :: 		void SetOverloadParams(char p1, char d1,char p2, char d2)
;FirmV_0_7_0.c,2844 :: 		switch(p1)
	GOTO        L_SetOverloadParams757
;FirmV_0_7_0.c,2846 :: 		case 0: OverloadTreshold1=0; break;
L_SetOverloadParams759:
	CLRF        _OverloadTreshold1+0 
	CLRF        _OverloadTreshold1+1 
	GOTO        L_SetOverloadParams758
;FirmV_0_7_0.c,2848 :: 		case 1: OverloadTreshold1=480; break;
L_SetOverloadParams760:
	MOVLW       224
	MOVWF       _OverloadTreshold1+0 
	MOVLW       1
	MOVWF       _OverloadTreshold1+1 
	GOTO        L_SetOverloadParams758
;FirmV_0_7_0.c,2850 :: 		case 2: OverloadTreshold1=490; break;
L_SetOverloadParams761:
	MOVLW       234
	MOVWF       _OverloadTreshold1+0 
	MOVLW       1
	MOVWF       _OverloadTreshold1+1 
	GOTO        L_SetOverloadParams758
;FirmV_0_7_0.c,2852 :: 		case 3: OverloadTreshold1=500; break;
L_SetOverloadParams762:
	MOVLW       244
	MOVWF       _OverloadTreshold1+0 
	MOVLW       1
	MOVWF       _OverloadTreshold1+1 
	GOTO        L_SetOverloadParams758
;FirmV_0_7_0.c,2854 :: 		case 4: OverloadTreshold1=530; break;
L_SetOverloadParams763:
	MOVLW       18
	MOVWF       _OverloadTreshold1+0 
	MOVLW       2
	MOVWF       _OverloadTreshold1+1 
	GOTO        L_SetOverloadParams758
;FirmV_0_7_0.c,2856 :: 		case 5: OverloadTreshold1=550; break;
L_SetOverloadParams764:
	MOVLW       38
	MOVWF       _OverloadTreshold1+0 
	MOVLW       2
	MOVWF       _OverloadTreshold1+1 
	GOTO        L_SetOverloadParams758
;FirmV_0_7_0.c,2858 :: 		case 6: OverloadTreshold1=570; break;
L_SetOverloadParams765:
	MOVLW       58
	MOVWF       _OverloadTreshold1+0 
	MOVLW       2
	MOVWF       _OverloadTreshold1+1 
	GOTO        L_SetOverloadParams758
;FirmV_0_7_0.c,2860 :: 		case 7: OverloadTreshold1=600; break;
L_SetOverloadParams766:
	MOVLW       88
	MOVWF       _OverloadTreshold1+0 
	MOVLW       2
	MOVWF       _OverloadTreshold1+1 
	GOTO        L_SetOverloadParams758
;FirmV_0_7_0.c,2862 :: 		case 8: OverloadTreshold1=630; break;
L_SetOverloadParams767:
	MOVLW       118
	MOVWF       _OverloadTreshold1+0 
	MOVLW       2
	MOVWF       _OverloadTreshold1+1 
	GOTO        L_SetOverloadParams758
;FirmV_0_7_0.c,2864 :: 		case 9: OverloadTreshold1=650; break;
L_SetOverloadParams768:
	MOVLW       138
	MOVWF       _OverloadTreshold1+0 
	MOVLW       2
	MOVWF       _OverloadTreshold1+1 
	GOTO        L_SetOverloadParams758
;FirmV_0_7_0.c,2866 :: 		case 10: OverloadTreshold1=670; break;
L_SetOverloadParams769:
	MOVLW       158
	MOVWF       _OverloadTreshold1+0 
	MOVLW       2
	MOVWF       _OverloadTreshold1+1 
	GOTO        L_SetOverloadParams758
;FirmV_0_7_0.c,2868 :: 		case 11: OverloadTreshold1=700; break;
L_SetOverloadParams770:
	MOVLW       188
	MOVWF       _OverloadTreshold1+0 
	MOVLW       2
	MOVWF       _OverloadTreshold1+1 
	GOTO        L_SetOverloadParams758
;FirmV_0_7_0.c,2870 :: 		case 12: OverloadTreshold1=750; break;
L_SetOverloadParams771:
	MOVLW       238
	MOVWF       _OverloadTreshold1+0 
	MOVLW       2
	MOVWF       _OverloadTreshold1+1 
	GOTO        L_SetOverloadParams758
;FirmV_0_7_0.c,2872 :: 		case 13: OverloadTreshold1=800; break;
L_SetOverloadParams772:
	MOVLW       32
	MOVWF       _OverloadTreshold1+0 
	MOVLW       3
	MOVWF       _OverloadTreshold1+1 
	GOTO        L_SetOverloadParams758
;FirmV_0_7_0.c,2874 :: 		case 14: OverloadTreshold1=850; break;
L_SetOverloadParams773:
	MOVLW       82
	MOVWF       _OverloadTreshold1+0 
	MOVLW       3
	MOVWF       _OverloadTreshold1+1 
	GOTO        L_SetOverloadParams758
;FirmV_0_7_0.c,2876 :: 		case 15: OverloadTreshold1=900; break;
L_SetOverloadParams774:
	MOVLW       132
	MOVWF       _OverloadTreshold1+0 
	MOVLW       3
	MOVWF       _OverloadTreshold1+1 
	GOTO        L_SetOverloadParams758
;FirmV_0_7_0.c,2878 :: 		}
L_SetOverloadParams757:
	MOVF        FARG_SetOverloadParams_p1+0, 0 
	XORLW       0
	BTFSC       STATUS+0, 2 
	GOTO        L_SetOverloadParams759
	MOVF        FARG_SetOverloadParams_p1+0, 0 
	XORLW       1
	BTFSC       STATUS+0, 2 
	GOTO        L_SetOverloadParams760
	MOVF        FARG_SetOverloadParams_p1+0, 0 
	XORLW       2
	BTFSC       STATUS+0, 2 
	GOTO        L_SetOverloadParams761
	MOVF        FARG_SetOverloadParams_p1+0, 0 
	XORLW       3
	BTFSC       STATUS+0, 2 
	GOTO        L_SetOverloadParams762
	MOVF        FARG_SetOverloadParams_p1+0, 0 
	XORLW       4
	BTFSC       STATUS+0, 2 
	GOTO        L_SetOverloadParams763
	MOVF        FARG_SetOverloadParams_p1+0, 0 
	XORLW       5
	BTFSC       STATUS+0, 2 
	GOTO        L_SetOverloadParams764
	MOVF        FARG_SetOverloadParams_p1+0, 0 
	XORLW       6
	BTFSC       STATUS+0, 2 
	GOTO        L_SetOverloadParams765
	MOVF        FARG_SetOverloadParams_p1+0, 0 
	XORLW       7
	BTFSC       STATUS+0, 2 
	GOTO        L_SetOverloadParams766
	MOVF        FARG_SetOverloadParams_p1+0, 0 
	XORLW       8
	BTFSC       STATUS+0, 2 
	GOTO        L_SetOverloadParams767
	MOVF        FARG_SetOverloadParams_p1+0, 0 
	XORLW       9
	BTFSC       STATUS+0, 2 
	GOTO        L_SetOverloadParams768
	MOVF        FARG_SetOverloadParams_p1+0, 0 
	XORLW       10
	BTFSC       STATUS+0, 2 
	GOTO        L_SetOverloadParams769
	MOVF        FARG_SetOverloadParams_p1+0, 0 
	XORLW       11
	BTFSC       STATUS+0, 2 
	GOTO        L_SetOverloadParams770
	MOVF        FARG_SetOverloadParams_p1+0, 0 
	XORLW       12
	BTFSC       STATUS+0, 2 
	GOTO        L_SetOverloadParams771
	MOVF        FARG_SetOverloadParams_p1+0, 0 
	XORLW       13
	BTFSC       STATUS+0, 2 
	GOTO        L_SetOverloadParams772
	MOVF        FARG_SetOverloadParams_p1+0, 0 
	XORLW       14
	BTFSC       STATUS+0, 2 
	GOTO        L_SetOverloadParams773
	MOVF        FARG_SetOverloadParams_p1+0, 0 
	XORLW       15
	BTFSC       STATUS+0, 2 
	GOTO        L_SetOverloadParams774
L_SetOverloadParams758:
;FirmV_0_7_0.c,2881 :: 		switch(d1)
	GOTO        L_SetOverloadParams775
;FirmV_0_7_0.c,2883 :: 		case 0: OverloadDuration1=100; break;
L_SetOverloadParams777:
	MOVLW       100
	MOVWF       _OverloadDuration1+0 
	MOVLW       0
	MOVWF       _OverloadDuration1+1 
	GOTO        L_SetOverloadParams776
;FirmV_0_7_0.c,2885 :: 		case 1: OverloadDuration1=500; break;
L_SetOverloadParams778:
	MOVLW       244
	MOVWF       _OverloadDuration1+0 
	MOVLW       1
	MOVWF       _OverloadDuration1+1 
	GOTO        L_SetOverloadParams776
;FirmV_0_7_0.c,2887 :: 		case 2: OverloadDuration1=1000; break;
L_SetOverloadParams779:
	MOVLW       232
	MOVWF       _OverloadDuration1+0 
	MOVLW       3
	MOVWF       _OverloadDuration1+1 
	GOTO        L_SetOverloadParams776
;FirmV_0_7_0.c,2889 :: 		case 3: OverloadDuration1=1500; break;
L_SetOverloadParams780:
	MOVLW       220
	MOVWF       _OverloadDuration1+0 
	MOVLW       5
	MOVWF       _OverloadDuration1+1 
	GOTO        L_SetOverloadParams776
;FirmV_0_7_0.c,2891 :: 		case 4: OverloadDuration1=2000; break;
L_SetOverloadParams781:
	MOVLW       208
	MOVWF       _OverloadDuration1+0 
	MOVLW       7
	MOVWF       _OverloadDuration1+1 
	GOTO        L_SetOverloadParams776
;FirmV_0_7_0.c,2893 :: 		case 5: OverloadDuration1=2500; break;
L_SetOverloadParams782:
	MOVLW       196
	MOVWF       _OverloadDuration1+0 
	MOVLW       9
	MOVWF       _OverloadDuration1+1 
	GOTO        L_SetOverloadParams776
;FirmV_0_7_0.c,2895 :: 		case 6: OverloadDuration1=3000; break;
L_SetOverloadParams783:
	MOVLW       184
	MOVWF       _OverloadDuration1+0 
	MOVLW       11
	MOVWF       _OverloadDuration1+1 
	GOTO        L_SetOverloadParams776
;FirmV_0_7_0.c,2897 :: 		case 7: OverloadDuration1=3500; break;
L_SetOverloadParams784:
	MOVLW       172
	MOVWF       _OverloadDuration1+0 
	MOVLW       13
	MOVWF       _OverloadDuration1+1 
	GOTO        L_SetOverloadParams776
;FirmV_0_7_0.c,2899 :: 		case 8: OverloadDuration1=4000; break;
L_SetOverloadParams785:
	MOVLW       160
	MOVWF       _OverloadDuration1+0 
	MOVLW       15
	MOVWF       _OverloadDuration1+1 
	GOTO        L_SetOverloadParams776
;FirmV_0_7_0.c,2901 :: 		case 9: OverloadDuration1=4500; break;
L_SetOverloadParams786:
	MOVLW       148
	MOVWF       _OverloadDuration1+0 
	MOVLW       17
	MOVWF       _OverloadDuration1+1 
	GOTO        L_SetOverloadParams776
;FirmV_0_7_0.c,2903 :: 		case 10: OverloadDuration1=5000; break;
L_SetOverloadParams787:
	MOVLW       136
	MOVWF       _OverloadDuration1+0 
	MOVLW       19
	MOVWF       _OverloadDuration1+1 
	GOTO        L_SetOverloadParams776
;FirmV_0_7_0.c,2904 :: 		}
L_SetOverloadParams775:
	MOVF        FARG_SetOverloadParams_d1+0, 0 
	XORLW       0
	BTFSC       STATUS+0, 2 
	GOTO        L_SetOverloadParams777
	MOVF        FARG_SetOverloadParams_d1+0, 0 
	XORLW       1
	BTFSC       STATUS+0, 2 
	GOTO        L_SetOverloadParams778
	MOVF        FARG_SetOverloadParams_d1+0, 0 
	XORLW       2
	BTFSC       STATUS+0, 2 
	GOTO        L_SetOverloadParams779
	MOVF        FARG_SetOverloadParams_d1+0, 0 
	XORLW       3
	BTFSC       STATUS+0, 2 
	GOTO        L_SetOverloadParams780
	MOVF        FARG_SetOverloadParams_d1+0, 0 
	XORLW       4
	BTFSC       STATUS+0, 2 
	GOTO        L_SetOverloadParams781
	MOVF        FARG_SetOverloadParams_d1+0, 0 
	XORLW       5
	BTFSC       STATUS+0, 2 
	GOTO        L_SetOverloadParams782
	MOVF        FARG_SetOverloadParams_d1+0, 0 
	XORLW       6
	BTFSC       STATUS+0, 2 
	GOTO        L_SetOverloadParams783
	MOVF        FARG_SetOverloadParams_d1+0, 0 
	XORLW       7
	BTFSC       STATUS+0, 2 
	GOTO        L_SetOverloadParams784
	MOVF        FARG_SetOverloadParams_d1+0, 0 
	XORLW       8
	BTFSC       STATUS+0, 2 
	GOTO        L_SetOverloadParams785
	MOVF        FARG_SetOverloadParams_d1+0, 0 
	XORLW       9
	BTFSC       STATUS+0, 2 
	GOTO        L_SetOverloadParams786
	MOVF        FARG_SetOverloadParams_d1+0, 0 
	XORLW       10
	BTFSC       STATUS+0, 2 
	GOTO        L_SetOverloadParams787
L_SetOverloadParams776:
;FirmV_0_7_0.c,2910 :: 		switch(p2)
	GOTO        L_SetOverloadParams788
;FirmV_0_7_0.c,2912 :: 		case 0: OverloadTreshold2=0; break;
L_SetOverloadParams790:
	CLRF        _OverloadTreshold2+0 
	CLRF        _OverloadTreshold2+1 
	GOTO        L_SetOverloadParams789
;FirmV_0_7_0.c,2914 :: 		case 1: OverloadTreshold2=480; break;
L_SetOverloadParams791:
	MOVLW       224
	MOVWF       _OverloadTreshold2+0 
	MOVLW       1
	MOVWF       _OverloadTreshold2+1 
	GOTO        L_SetOverloadParams789
;FirmV_0_7_0.c,2916 :: 		case 2: OverloadTreshold2=490; break;
L_SetOverloadParams792:
	MOVLW       234
	MOVWF       _OverloadTreshold2+0 
	MOVLW       1
	MOVWF       _OverloadTreshold2+1 
	GOTO        L_SetOverloadParams789
;FirmV_0_7_0.c,2918 :: 		case 3: OverloadTreshold2=500; break;
L_SetOverloadParams793:
	MOVLW       244
	MOVWF       _OverloadTreshold2+0 
	MOVLW       1
	MOVWF       _OverloadTreshold2+1 
	GOTO        L_SetOverloadParams789
;FirmV_0_7_0.c,2920 :: 		case 4: OverloadTreshold2=530; break;
L_SetOverloadParams794:
	MOVLW       18
	MOVWF       _OverloadTreshold2+0 
	MOVLW       2
	MOVWF       _OverloadTreshold2+1 
	GOTO        L_SetOverloadParams789
;FirmV_0_7_0.c,2922 :: 		case 5: OverloadTreshold2=550; break;
L_SetOverloadParams795:
	MOVLW       38
	MOVWF       _OverloadTreshold2+0 
	MOVLW       2
	MOVWF       _OverloadTreshold2+1 
	GOTO        L_SetOverloadParams789
;FirmV_0_7_0.c,2924 :: 		case 6: OverloadTreshold2=570; break;
L_SetOverloadParams796:
	MOVLW       58
	MOVWF       _OverloadTreshold2+0 
	MOVLW       2
	MOVWF       _OverloadTreshold2+1 
	GOTO        L_SetOverloadParams789
;FirmV_0_7_0.c,2926 :: 		case 7: OverloadTreshold2=600; break;
L_SetOverloadParams797:
	MOVLW       88
	MOVWF       _OverloadTreshold2+0 
	MOVLW       2
	MOVWF       _OverloadTreshold2+1 
	GOTO        L_SetOverloadParams789
;FirmV_0_7_0.c,2928 :: 		case 8: OverloadTreshold2=630; break;
L_SetOverloadParams798:
	MOVLW       118
	MOVWF       _OverloadTreshold2+0 
	MOVLW       2
	MOVWF       _OverloadTreshold2+1 
	GOTO        L_SetOverloadParams789
;FirmV_0_7_0.c,2930 :: 		case 9: OverloadTreshold2=650; break;
L_SetOverloadParams799:
	MOVLW       138
	MOVWF       _OverloadTreshold2+0 
	MOVLW       2
	MOVWF       _OverloadTreshold2+1 
	GOTO        L_SetOverloadParams789
;FirmV_0_7_0.c,2932 :: 		case 10: OverloadTreshold2=670; break;
L_SetOverloadParams800:
	MOVLW       158
	MOVWF       _OverloadTreshold2+0 
	MOVLW       2
	MOVWF       _OverloadTreshold2+1 
	GOTO        L_SetOverloadParams789
;FirmV_0_7_0.c,2934 :: 		case 11: OverloadTreshold2=700; break;
L_SetOverloadParams801:
	MOVLW       188
	MOVWF       _OverloadTreshold2+0 
	MOVLW       2
	MOVWF       _OverloadTreshold2+1 
	GOTO        L_SetOverloadParams789
;FirmV_0_7_0.c,2936 :: 		case 12: OverloadTreshold2=750; break;
L_SetOverloadParams802:
	MOVLW       238
	MOVWF       _OverloadTreshold2+0 
	MOVLW       2
	MOVWF       _OverloadTreshold2+1 
	GOTO        L_SetOverloadParams789
;FirmV_0_7_0.c,2938 :: 		case 13: OverloadTreshold2=800; break;
L_SetOverloadParams803:
	MOVLW       32
	MOVWF       _OverloadTreshold2+0 
	MOVLW       3
	MOVWF       _OverloadTreshold2+1 
	GOTO        L_SetOverloadParams789
;FirmV_0_7_0.c,2940 :: 		case 14: OverloadTreshold2=850; break;
L_SetOverloadParams804:
	MOVLW       82
	MOVWF       _OverloadTreshold2+0 
	MOVLW       3
	MOVWF       _OverloadTreshold2+1 
	GOTO        L_SetOverloadParams789
;FirmV_0_7_0.c,2942 :: 		case 15: OverloadTreshold2=900; break;
L_SetOverloadParams805:
	MOVLW       132
	MOVWF       _OverloadTreshold2+0 
	MOVLW       3
	MOVWF       _OverloadTreshold2+1 
	GOTO        L_SetOverloadParams789
;FirmV_0_7_0.c,2944 :: 		}
L_SetOverloadParams788:
	MOVF        FARG_SetOverloadParams_p2+0, 0 
	XORLW       0
	BTFSC       STATUS+0, 2 
	GOTO        L_SetOverloadParams790
	MOVF        FARG_SetOverloadParams_p2+0, 0 
	XORLW       1
	BTFSC       STATUS+0, 2 
	GOTO        L_SetOverloadParams791
	MOVF        FARG_SetOverloadParams_p2+0, 0 
	XORLW       2
	BTFSC       STATUS+0, 2 
	GOTO        L_SetOverloadParams792
	MOVF        FARG_SetOverloadParams_p2+0, 0 
	XORLW       3
	BTFSC       STATUS+0, 2 
	GOTO        L_SetOverloadParams793
	MOVF        FARG_SetOverloadParams_p2+0, 0 
	XORLW       4
	BTFSC       STATUS+0, 2 
	GOTO        L_SetOverloadParams794
	MOVF        FARG_SetOverloadParams_p2+0, 0 
	XORLW       5
	BTFSC       STATUS+0, 2 
	GOTO        L_SetOverloadParams795
	MOVF        FARG_SetOverloadParams_p2+0, 0 
	XORLW       6
	BTFSC       STATUS+0, 2 
	GOTO        L_SetOverloadParams796
	MOVF        FARG_SetOverloadParams_p2+0, 0 
	XORLW       7
	BTFSC       STATUS+0, 2 
	GOTO        L_SetOverloadParams797
	MOVF        FARG_SetOverloadParams_p2+0, 0 
	XORLW       8
	BTFSC       STATUS+0, 2 
	GOTO        L_SetOverloadParams798
	MOVF        FARG_SetOverloadParams_p2+0, 0 
	XORLW       9
	BTFSC       STATUS+0, 2 
	GOTO        L_SetOverloadParams799
	MOVF        FARG_SetOverloadParams_p2+0, 0 
	XORLW       10
	BTFSC       STATUS+0, 2 
	GOTO        L_SetOverloadParams800
	MOVF        FARG_SetOverloadParams_p2+0, 0 
	XORLW       11
	BTFSC       STATUS+0, 2 
	GOTO        L_SetOverloadParams801
	MOVF        FARG_SetOverloadParams_p2+0, 0 
	XORLW       12
	BTFSC       STATUS+0, 2 
	GOTO        L_SetOverloadParams802
	MOVF        FARG_SetOverloadParams_p2+0, 0 
	XORLW       13
	BTFSC       STATUS+0, 2 
	GOTO        L_SetOverloadParams803
	MOVF        FARG_SetOverloadParams_p2+0, 0 
	XORLW       14
	BTFSC       STATUS+0, 2 
	GOTO        L_SetOverloadParams804
	MOVF        FARG_SetOverloadParams_p2+0, 0 
	XORLW       15
	BTFSC       STATUS+0, 2 
	GOTO        L_SetOverloadParams805
L_SetOverloadParams789:
;FirmV_0_7_0.c,2947 :: 		switch(d2)
	GOTO        L_SetOverloadParams806
;FirmV_0_7_0.c,2949 :: 		case 0: OverloadDuration2=100; break;
L_SetOverloadParams808:
	MOVLW       100
	MOVWF       _OverloadDuration2+0 
	MOVLW       0
	MOVWF       _OverloadDuration2+1 
	GOTO        L_SetOverloadParams807
;FirmV_0_7_0.c,2951 :: 		case 1: OverloadDuration2=500; break;
L_SetOverloadParams809:
	MOVLW       244
	MOVWF       _OverloadDuration2+0 
	MOVLW       1
	MOVWF       _OverloadDuration2+1 
	GOTO        L_SetOverloadParams807
;FirmV_0_7_0.c,2953 :: 		case 2: OverloadDuration2=1000; break;
L_SetOverloadParams810:
	MOVLW       232
	MOVWF       _OverloadDuration2+0 
	MOVLW       3
	MOVWF       _OverloadDuration2+1 
	GOTO        L_SetOverloadParams807
;FirmV_0_7_0.c,2955 :: 		case 3: OverloadDuration2=1500; break;
L_SetOverloadParams811:
	MOVLW       220
	MOVWF       _OverloadDuration2+0 
	MOVLW       5
	MOVWF       _OverloadDuration2+1 
	GOTO        L_SetOverloadParams807
;FirmV_0_7_0.c,2957 :: 		case 4: OverloadDuration2=2000; break;
L_SetOverloadParams812:
	MOVLW       208
	MOVWF       _OverloadDuration2+0 
	MOVLW       7
	MOVWF       _OverloadDuration2+1 
	GOTO        L_SetOverloadParams807
;FirmV_0_7_0.c,2959 :: 		case 5: OverloadDuration2=2500; break;
L_SetOverloadParams813:
	MOVLW       196
	MOVWF       _OverloadDuration2+0 
	MOVLW       9
	MOVWF       _OverloadDuration2+1 
	GOTO        L_SetOverloadParams807
;FirmV_0_7_0.c,2961 :: 		case 6: OverloadDuration2=3000; break;
L_SetOverloadParams814:
	MOVLW       184
	MOVWF       _OverloadDuration2+0 
	MOVLW       11
	MOVWF       _OverloadDuration2+1 
	GOTO        L_SetOverloadParams807
;FirmV_0_7_0.c,2963 :: 		case 7: OverloadDuration2=3500; break;
L_SetOverloadParams815:
	MOVLW       172
	MOVWF       _OverloadDuration2+0 
	MOVLW       13
	MOVWF       _OverloadDuration2+1 
	GOTO        L_SetOverloadParams807
;FirmV_0_7_0.c,2965 :: 		case 8: OverloadDuration2=4000; break;
L_SetOverloadParams816:
	MOVLW       160
	MOVWF       _OverloadDuration2+0 
	MOVLW       15
	MOVWF       _OverloadDuration2+1 
	GOTO        L_SetOverloadParams807
;FirmV_0_7_0.c,2967 :: 		case 9: OverloadDuration2=4500; break;
L_SetOverloadParams817:
	MOVLW       148
	MOVWF       _OverloadDuration2+0 
	MOVLW       17
	MOVWF       _OverloadDuration2+1 
	GOTO        L_SetOverloadParams807
;FirmV_0_7_0.c,2969 :: 		case 10: OverloadDuration2=5000; break;
L_SetOverloadParams818:
	MOVLW       136
	MOVWF       _OverloadDuration2+0 
	MOVLW       19
	MOVWF       _OverloadDuration2+1 
	GOTO        L_SetOverloadParams807
;FirmV_0_7_0.c,2970 :: 		}
L_SetOverloadParams806:
	MOVF        FARG_SetOverloadParams_d2+0, 0 
	XORLW       0
	BTFSC       STATUS+0, 2 
	GOTO        L_SetOverloadParams808
	MOVF        FARG_SetOverloadParams_d2+0, 0 
	XORLW       1
	BTFSC       STATUS+0, 2 
	GOTO        L_SetOverloadParams809
	MOVF        FARG_SetOverloadParams_d2+0, 0 
	XORLW       2
	BTFSC       STATUS+0, 2 
	GOTO        L_SetOverloadParams810
	MOVF        FARG_SetOverloadParams_d2+0, 0 
	XORLW       3
	BTFSC       STATUS+0, 2 
	GOTO        L_SetOverloadParams811
	MOVF        FARG_SetOverloadParams_d2+0, 0 
	XORLW       4
	BTFSC       STATUS+0, 2 
	GOTO        L_SetOverloadParams812
	MOVF        FARG_SetOverloadParams_d2+0, 0 
	XORLW       5
	BTFSC       STATUS+0, 2 
	GOTO        L_SetOverloadParams813
	MOVF        FARG_SetOverloadParams_d2+0, 0 
	XORLW       6
	BTFSC       STATUS+0, 2 
	GOTO        L_SetOverloadParams814
	MOVF        FARG_SetOverloadParams_d2+0, 0 
	XORLW       7
	BTFSC       STATUS+0, 2 
	GOTO        L_SetOverloadParams815
	MOVF        FARG_SetOverloadParams_d2+0, 0 
	XORLW       8
	BTFSC       STATUS+0, 2 
	GOTO        L_SetOverloadParams816
	MOVF        FARG_SetOverloadParams_d2+0, 0 
	XORLW       9
	BTFSC       STATUS+0, 2 
	GOTO        L_SetOverloadParams817
	MOVF        FARG_SetOverloadParams_d2+0, 0 
	XORLW       10
	BTFSC       STATUS+0, 2 
	GOTO        L_SetOverloadParams818
L_SetOverloadParams807:
;FirmV_0_7_0.c,2971 :: 		}
L_end_SetOverloadParams:
	RETURN      0
; end of _SetOverloadParams

_TorqueLogger:

;FirmV_0_7_0.c,2992 :: 		void TorqueLogger()
;FirmV_0_7_0.c,2995 :: 		switch(State)
	GOTO        L_TorqueLogger819
;FirmV_0_7_0.c,2997 :: 		case 3:
L_TorqueLogger821:
;FirmV_0_7_0.c,2998 :: 		txt[0]='D';txt[1]='3';txt[2]='1';txt[3]='-';
	MOVLW       68
	MOVWF       TorqueLogger_txt_L0+0 
	MOVLW       51
	MOVWF       TorqueLogger_txt_L0+1 
	MOVLW       49
	MOVWF       TorqueLogger_txt_L0+2 
	MOVLW       45
	MOVWF       TorqueLogger_txt_L0+3 
;FirmV_0_7_0.c,2999 :: 		wordtostrwithzeros(VCapM1,txt+4);
	MOVF        _VCapM1+0, 0 
	MOVWF       FARG_WordToStrWithZeros_input+0 
	MOVF        _VCapM1+1, 0 
	MOVWF       FARG_WordToStrWithZeros_input+1 
	MOVLW       TorqueLogger_txt_L0+4
	MOVWF       FARG_WordToStrWithZeros_output+0 
	MOVLW       hi_addr(TorqueLogger_txt_L0+4)
	MOVWF       FARG_WordToStrWithZeros_output+1 
	CALL        _WordToStrWithZeros+0, 0
;FirmV_0_7_0.c,3000 :: 		txt[9]=0;
	CLRF        TorqueLogger_txt_L0+9 
;FirmV_0_7_0.c,3001 :: 		Logger(txt,0);
	MOVLW       TorqueLogger_txt_L0+0
	MOVWF       FARG_Logger_text+0 
	MOVLW       hi_addr(TorqueLogger_txt_L0+0)
	MOVWF       FARG_Logger_text+1 
	CLRF        FARG_Logger_TimeStampFlag+0 
	CALL        _Logger+0, 0
;FirmV_0_7_0.c,3003 :: 		txt[0]='D';txt[1]='3';txt[2]='2';txt[3]='-';
	MOVLW       68
	MOVWF       TorqueLogger_txt_L0+0 
	MOVLW       51
	MOVWF       TorqueLogger_txt_L0+1 
	MOVLW       50
	MOVWF       TorqueLogger_txt_L0+2 
	MOVLW       45
	MOVWF       TorqueLogger_txt_L0+3 
;FirmV_0_7_0.c,3004 :: 		wordtostrwithzeros(VCapM2,txt+4);
	MOVF        _VCapM2+0, 0 
	MOVWF       FARG_WordToStrWithZeros_input+0 
	MOVF        _VCapM2+1, 0 
	MOVWF       FARG_WordToStrWithZeros_input+1 
	MOVLW       TorqueLogger_txt_L0+4
	MOVWF       FARG_WordToStrWithZeros_output+0 
	MOVLW       hi_addr(TorqueLogger_txt_L0+4)
	MOVWF       FARG_WordToStrWithZeros_output+1 
	CALL        _WordToStrWithZeros+0, 0
;FirmV_0_7_0.c,3005 :: 		txt[9]=0;
	CLRF        TorqueLogger_txt_L0+9 
;FirmV_0_7_0.c,3006 :: 		Logger(txt,0);
	MOVLW       TorqueLogger_txt_L0+0
	MOVWF       FARG_Logger_text+0 
	MOVLW       hi_addr(TorqueLogger_txt_L0+0)
	MOVWF       FARG_Logger_text+1 
	CLRF        FARG_Logger_TimeStampFlag+0 
	CALL        _Logger+0, 0
;FirmV_0_7_0.c,3008 :: 		break;
	GOTO        L_TorqueLogger820
;FirmV_0_7_0.c,3010 :: 		case 4:
L_TorqueLogger822:
;FirmV_0_7_0.c,3011 :: 		txt[0]='D';txt[1]='4';txt[2]='1';txt[3]='-';
	MOVLW       68
	MOVWF       TorqueLogger_txt_L0+0 
	MOVLW       52
	MOVWF       TorqueLogger_txt_L0+1 
	MOVLW       49
	MOVWF       TorqueLogger_txt_L0+2 
	MOVLW       45
	MOVWF       TorqueLogger_txt_L0+3 
;FirmV_0_7_0.c,3012 :: 		wordtostrwithzeros(VCapM1,txt+4);
	MOVF        _VCapM1+0, 0 
	MOVWF       FARG_WordToStrWithZeros_input+0 
	MOVF        _VCapM1+1, 0 
	MOVWF       FARG_WordToStrWithZeros_input+1 
	MOVLW       TorqueLogger_txt_L0+4
	MOVWF       FARG_WordToStrWithZeros_output+0 
	MOVLW       hi_addr(TorqueLogger_txt_L0+4)
	MOVWF       FARG_WordToStrWithZeros_output+1 
	CALL        _WordToStrWithZeros+0, 0
;FirmV_0_7_0.c,3013 :: 		txt[9]=0;
	CLRF        TorqueLogger_txt_L0+9 
;FirmV_0_7_0.c,3014 :: 		Logger(txt,0);
	MOVLW       TorqueLogger_txt_L0+0
	MOVWF       FARG_Logger_text+0 
	MOVLW       hi_addr(TorqueLogger_txt_L0+0)
	MOVWF       FARG_Logger_text+1 
	CLRF        FARG_Logger_TimeStampFlag+0 
	CALL        _Logger+0, 0
;FirmV_0_7_0.c,3016 :: 		txt[0]='D';txt[1]='4';txt[2]='2';txt[3]='-';
	MOVLW       68
	MOVWF       TorqueLogger_txt_L0+0 
	MOVLW       52
	MOVWF       TorqueLogger_txt_L0+1 
	MOVLW       50
	MOVWF       TorqueLogger_txt_L0+2 
	MOVLW       45
	MOVWF       TorqueLogger_txt_L0+3 
;FirmV_0_7_0.c,3017 :: 		wordtostrwithzeros(VCapM2,txt+4);
	MOVF        _VCapM2+0, 0 
	MOVWF       FARG_WordToStrWithZeros_input+0 
	MOVF        _VCapM2+1, 0 
	MOVWF       FARG_WordToStrWithZeros_input+1 
	MOVLW       TorqueLogger_txt_L0+4
	MOVWF       FARG_WordToStrWithZeros_output+0 
	MOVLW       hi_addr(TorqueLogger_txt_L0+4)
	MOVWF       FARG_WordToStrWithZeros_output+1 
	CALL        _WordToStrWithZeros+0, 0
;FirmV_0_7_0.c,3018 :: 		txt[9]=0;
	CLRF        TorqueLogger_txt_L0+9 
;FirmV_0_7_0.c,3019 :: 		Logger(txt,0);
	MOVLW       TorqueLogger_txt_L0+0
	MOVWF       FARG_Logger_text+0 
	MOVLW       hi_addr(TorqueLogger_txt_L0+0)
	MOVWF       FARG_Logger_text+1 
	CLRF        FARG_Logger_TimeStampFlag+0 
	CALL        _Logger+0, 0
;FirmV_0_7_0.c,3021 :: 		break;
	GOTO        L_TorqueLogger820
;FirmV_0_7_0.c,3023 :: 		case 7:
L_TorqueLogger823:
;FirmV_0_7_0.c,3024 :: 		txt[0]='D';txt[1]='7';txt[2]='1';txt[3]='-';
	MOVLW       68
	MOVWF       TorqueLogger_txt_L0+0 
	MOVLW       55
	MOVWF       TorqueLogger_txt_L0+1 
	MOVLW       49
	MOVWF       TorqueLogger_txt_L0+2 
	MOVLW       45
	MOVWF       TorqueLogger_txt_L0+3 
;FirmV_0_7_0.c,3025 :: 		wordtostrwithzeros(VCapM1,txt+4);
	MOVF        _VCapM1+0, 0 
	MOVWF       FARG_WordToStrWithZeros_input+0 
	MOVF        _VCapM1+1, 0 
	MOVWF       FARG_WordToStrWithZeros_input+1 
	MOVLW       TorqueLogger_txt_L0+4
	MOVWF       FARG_WordToStrWithZeros_output+0 
	MOVLW       hi_addr(TorqueLogger_txt_L0+4)
	MOVWF       FARG_WordToStrWithZeros_output+1 
	CALL        _WordToStrWithZeros+0, 0
;FirmV_0_7_0.c,3026 :: 		txt[9]=0;
	CLRF        TorqueLogger_txt_L0+9 
;FirmV_0_7_0.c,3027 :: 		Logger(txt,0);
	MOVLW       TorqueLogger_txt_L0+0
	MOVWF       FARG_Logger_text+0 
	MOVLW       hi_addr(TorqueLogger_txt_L0+0)
	MOVWF       FARG_Logger_text+1 
	CLRF        FARG_Logger_TimeStampFlag+0 
	CALL        _Logger+0, 0
;FirmV_0_7_0.c,3029 :: 		txt[0]='D';txt[1]='7';txt[2]='2';txt[3]='-';
	MOVLW       68
	MOVWF       TorqueLogger_txt_L0+0 
	MOVLW       55
	MOVWF       TorqueLogger_txt_L0+1 
	MOVLW       50
	MOVWF       TorqueLogger_txt_L0+2 
	MOVLW       45
	MOVWF       TorqueLogger_txt_L0+3 
;FirmV_0_7_0.c,3030 :: 		wordtostrwithzeros(VCapM2,txt+4);
	MOVF        _VCapM2+0, 0 
	MOVWF       FARG_WordToStrWithZeros_input+0 
	MOVF        _VCapM2+1, 0 
	MOVWF       FARG_WordToStrWithZeros_input+1 
	MOVLW       TorqueLogger_txt_L0+4
	MOVWF       FARG_WordToStrWithZeros_output+0 
	MOVLW       hi_addr(TorqueLogger_txt_L0+4)
	MOVWF       FARG_WordToStrWithZeros_output+1 
	CALL        _WordToStrWithZeros+0, 0
;FirmV_0_7_0.c,3031 :: 		txt[9]=0;
	CLRF        TorqueLogger_txt_L0+9 
;FirmV_0_7_0.c,3032 :: 		Logger(txt,0);
	MOVLW       TorqueLogger_txt_L0+0
	MOVWF       FARG_Logger_text+0 
	MOVLW       hi_addr(TorqueLogger_txt_L0+0)
	MOVWF       FARG_Logger_text+1 
	CLRF        FARG_Logger_TimeStampFlag+0 
	CALL        _Logger+0, 0
;FirmV_0_7_0.c,3034 :: 		break;
	GOTO        L_TorqueLogger820
;FirmV_0_7_0.c,3036 :: 		case 8:
L_TorqueLogger824:
;FirmV_0_7_0.c,3037 :: 		txt[0]='D';txt[1]='8';txt[2]='1';txt[3]='-';
	MOVLW       68
	MOVWF       TorqueLogger_txt_L0+0 
	MOVLW       56
	MOVWF       TorqueLogger_txt_L0+1 
	MOVLW       49
	MOVWF       TorqueLogger_txt_L0+2 
	MOVLW       45
	MOVWF       TorqueLogger_txt_L0+3 
;FirmV_0_7_0.c,3038 :: 		wordtostrwithzeros(VCapM1,txt+4);
	MOVF        _VCapM1+0, 0 
	MOVWF       FARG_WordToStrWithZeros_input+0 
	MOVF        _VCapM1+1, 0 
	MOVWF       FARG_WordToStrWithZeros_input+1 
	MOVLW       TorqueLogger_txt_L0+4
	MOVWF       FARG_WordToStrWithZeros_output+0 
	MOVLW       hi_addr(TorqueLogger_txt_L0+4)
	MOVWF       FARG_WordToStrWithZeros_output+1 
	CALL        _WordToStrWithZeros+0, 0
;FirmV_0_7_0.c,3039 :: 		txt[9]=0;
	CLRF        TorqueLogger_txt_L0+9 
;FirmV_0_7_0.c,3040 :: 		Logger(txt,0);
	MOVLW       TorqueLogger_txt_L0+0
	MOVWF       FARG_Logger_text+0 
	MOVLW       hi_addr(TorqueLogger_txt_L0+0)
	MOVWF       FARG_Logger_text+1 
	CLRF        FARG_Logger_TimeStampFlag+0 
	CALL        _Logger+0, 0
;FirmV_0_7_0.c,3042 :: 		txt[0]='D';txt[1]='8';txt[2]='2';txt[3]='-';
	MOVLW       68
	MOVWF       TorqueLogger_txt_L0+0 
	MOVLW       56
	MOVWF       TorqueLogger_txt_L0+1 
	MOVLW       50
	MOVWF       TorqueLogger_txt_L0+2 
	MOVLW       45
	MOVWF       TorqueLogger_txt_L0+3 
;FirmV_0_7_0.c,3043 :: 		wordtostrwithzeros(VCapM2,txt+4);
	MOVF        _VCapM2+0, 0 
	MOVWF       FARG_WordToStrWithZeros_input+0 
	MOVF        _VCapM2+1, 0 
	MOVWF       FARG_WordToStrWithZeros_input+1 
	MOVLW       TorqueLogger_txt_L0+4
	MOVWF       FARG_WordToStrWithZeros_output+0 
	MOVLW       hi_addr(TorqueLogger_txt_L0+4)
	MOVWF       FARG_WordToStrWithZeros_output+1 
	CALL        _WordToStrWithZeros+0, 0
;FirmV_0_7_0.c,3044 :: 		txt[9]=0;
	CLRF        TorqueLogger_txt_L0+9 
;FirmV_0_7_0.c,3045 :: 		Logger(txt,0);
	MOVLW       TorqueLogger_txt_L0+0
	MOVWF       FARG_Logger_text+0 
	MOVLW       hi_addr(TorqueLogger_txt_L0+0)
	MOVWF       FARG_Logger_text+1 
	CLRF        FARG_Logger_TimeStampFlag+0 
	CALL        _Logger+0, 0
;FirmV_0_7_0.c,3047 :: 		break;
	GOTO        L_TorqueLogger820
;FirmV_0_7_0.c,3049 :: 		case 200:
L_TorqueLogger825:
;FirmV_0_7_0.c,3050 :: 		txt[0]='D';txt[1]='L';txt[2]='1';txt[3]='-';
	MOVLW       68
	MOVWF       TorqueLogger_txt_L0+0 
	MOVLW       76
	MOVWF       TorqueLogger_txt_L0+1 
	MOVLW       49
	MOVWF       TorqueLogger_txt_L0+2 
	MOVLW       45
	MOVWF       TorqueLogger_txt_L0+3 
;FirmV_0_7_0.c,3051 :: 		wordtostrwithzeros(VCapM1,txt+4);
	MOVF        _VCapM1+0, 0 
	MOVWF       FARG_WordToStrWithZeros_input+0 
	MOVF        _VCapM1+1, 0 
	MOVWF       FARG_WordToStrWithZeros_input+1 
	MOVLW       TorqueLogger_txt_L0+4
	MOVWF       FARG_WordToStrWithZeros_output+0 
	MOVLW       hi_addr(TorqueLogger_txt_L0+4)
	MOVWF       FARG_WordToStrWithZeros_output+1 
	CALL        _WordToStrWithZeros+0, 0
;FirmV_0_7_0.c,3052 :: 		txt[9]=0;
	CLRF        TorqueLogger_txt_L0+9 
;FirmV_0_7_0.c,3053 :: 		Logger(txt,0);
	MOVLW       TorqueLogger_txt_L0+0
	MOVWF       FARG_Logger_text+0 
	MOVLW       hi_addr(TorqueLogger_txt_L0+0)
	MOVWF       FARG_Logger_text+1 
	CLRF        FARG_Logger_TimeStampFlag+0 
	CALL        _Logger+0, 0
;FirmV_0_7_0.c,3055 :: 		txt[0]='D';txt[1]='L';txt[2]='2';txt[3]='-';
	MOVLW       68
	MOVWF       TorqueLogger_txt_L0+0 
	MOVLW       76
	MOVWF       TorqueLogger_txt_L0+1 
	MOVLW       50
	MOVWF       TorqueLogger_txt_L0+2 
	MOVLW       45
	MOVWF       TorqueLogger_txt_L0+3 
;FirmV_0_7_0.c,3056 :: 		wordtostrwithzeros(VCapM2,txt+4);
	MOVF        _VCapM2+0, 0 
	MOVWF       FARG_WordToStrWithZeros_input+0 
	MOVF        _VCapM2+1, 0 
	MOVWF       FARG_WordToStrWithZeros_input+1 
	MOVLW       TorqueLogger_txt_L0+4
	MOVWF       FARG_WordToStrWithZeros_output+0 
	MOVLW       hi_addr(TorqueLogger_txt_L0+4)
	MOVWF       FARG_WordToStrWithZeros_output+1 
	CALL        _WordToStrWithZeros+0, 0
;FirmV_0_7_0.c,3057 :: 		txt[9]=0;
	CLRF        TorqueLogger_txt_L0+9 
;FirmV_0_7_0.c,3058 :: 		Logger(txt,0);
	MOVLW       TorqueLogger_txt_L0+0
	MOVWF       FARG_Logger_text+0 
	MOVLW       hi_addr(TorqueLogger_txt_L0+0)
	MOVWF       FARG_Logger_text+1 
	CLRF        FARG_Logger_TimeStampFlag+0 
	CALL        _Logger+0, 0
;FirmV_0_7_0.c,3060 :: 		break;
	GOTO        L_TorqueLogger820
;FirmV_0_7_0.c,3062 :: 		}
L_TorqueLogger819:
	MOVF        _State+0, 0 
	XORLW       3
	BTFSC       STATUS+0, 2 
	GOTO        L_TorqueLogger821
	MOVF        _State+0, 0 
	XORLW       4
	BTFSC       STATUS+0, 2 
	GOTO        L_TorqueLogger822
	MOVF        _State+0, 0 
	XORLW       7
	BTFSC       STATUS+0, 2 
	GOTO        L_TorqueLogger823
	MOVF        _State+0, 0 
	XORLW       8
	BTFSC       STATUS+0, 2 
	GOTO        L_TorqueLogger824
	MOVF        _State+0, 0 
	XORLW       200
	BTFSC       STATUS+0, 2 
	GOTO        L_TorqueLogger825
L_TorqueLogger820:
;FirmV_0_7_0.c,3063 :: 		}
L_end_TorqueLogger:
	RETURN      0
; end of _TorqueLogger

_AutoClosePause:

;FirmV_0_7_0.c,3083 :: 		void AutoClosePause()
;FirmV_0_7_0.c,3086 :: 		if((AutoClosePauseFlag) && (Events.Photocell.b0==1))
	MOVF        _AutoClosePauseFlag+0, 1 
	BTFSC       STATUS+0, 2 
	GOTO        L_AutoClosePause828
	BTFSS       _Events+6, 0 
	GOTO        L_AutoClosePause828
L__AutoClosePause959:
;FirmV_0_7_0.c,3087 :: 		for(i=0;i<20;i++)
	CLRF        AutoClosePause_i_L0+0 
L_AutoClosePause829:
	MOVLW       20
	SUBWF       AutoClosePause_i_L0+0, 0 
	BTFSC       STATUS+0, 0 
	GOTO        L_AutoClosePause830
;FirmV_0_7_0.c,3088 :: 		if((Tasks[i].Expired==0)&&(Tasks[i].TaskCode==9))
	MOVLW       7
	MOVWF       R0 
	MOVLW       0
	MOVWF       R1 
	MOVF        AutoClosePause_i_L0+0, 0 
	MOVWF       R4 
	MOVLW       0
	MOVWF       R5 
	CALL        _Mul_16X16_U+0, 0
	MOVLW       _Tasks+0
	ADDWF       R0, 1 
	MOVLW       hi_addr(_Tasks+0)
	ADDWFC      R1, 1 
	MOVLW       5
	ADDWF       R0, 0 
	MOVWF       FSR0 
	MOVLW       0
	ADDWFC      R1, 0 
	MOVWF       FSR0H 
	MOVF        POSTINC0+0, 0 
	XORLW       0
	BTFSS       STATUS+0, 2 
	GOTO        L_AutoClosePause834
	MOVLW       7
	MOVWF       R0 
	MOVLW       0
	MOVWF       R1 
	MOVF        AutoClosePause_i_L0+0, 0 
	MOVWF       R4 
	MOVLW       0
	MOVWF       R5 
	CALL        _Mul_16X16_U+0, 0
	MOVLW       _Tasks+0
	ADDWF       R0, 0 
	MOVWF       FSR0 
	MOVLW       hi_addr(_Tasks+0)
	ADDWFC      R1, 0 
	MOVWF       FSR0H 
	MOVF        POSTINC0+0, 0 
	MOVWF       R1 
	MOVF        R1, 0 
	XORLW       9
	BTFSS       STATUS+0, 2 
	GOTO        L_AutoClosePause834
L__AutoClosePause958:
;FirmV_0_7_0.c,3089 :: 		{Tasks[i].Time=Tasks[i].Time+1;}
	MOVLW       7
	MOVWF       R0 
	MOVLW       0
	MOVWF       R1 
	MOVF        AutoClosePause_i_L0+0, 0 
	MOVWF       R4 
	MOVLW       0
	MOVWF       R5 
	CALL        _Mul_16X16_U+0, 0
	MOVLW       _Tasks+0
	ADDWF       R0, 1 
	MOVLW       hi_addr(_Tasks+0)
	ADDWFC      R1, 1 
	MOVLW       1
	ADDWF       R0, 0 
	MOVWF       R4 
	MOVLW       0
	ADDWFC      R1, 0 
	MOVWF       R5 
	MOVFF       R4, FSR0
	MOVFF       R5, FSR0H
	MOVLW       1
	ADDWF       POSTINC0+0, 0 
	MOVWF       R0 
	MOVLW       0
	ADDWFC      POSTINC0+0, 0 
	MOVWF       R1 
	MOVLW       0
	ADDWFC      POSTINC0+0, 0 
	MOVWF       R2 
	MOVLW       0
	ADDWFC      POSTINC0+0, 0 
	MOVWF       R3 
	MOVFF       R4, FSR1
	MOVFF       R5, FSR1H
	MOVF        R0, 0 
	MOVWF       POSTINC1+0 
	MOVF        R1, 0 
	MOVWF       POSTINC1+0 
	MOVF        R2, 0 
	MOVWF       POSTINC1+0 
	MOVF        R3, 0 
	MOVWF       POSTINC1+0 
L_AutoClosePause834:
;FirmV_0_7_0.c,3087 :: 		for(i=0;i<20;i++)
	INCF        AutoClosePause_i_L0+0, 1 
;FirmV_0_7_0.c,3089 :: 		{Tasks[i].Time=Tasks[i].Time+1;}
	GOTO        L_AutoClosePause829
L_AutoClosePause830:
L_AutoClosePause828:
;FirmV_0_7_0.c,3090 :: 		}
L_end_AutoClosePause:
	RETURN      0
; end of _AutoClosePause
